ARM GAS  C:\Users\Logan\AppData\Local\Temp\ccydAEbe.s 			page 1


   1              		.syntax unified
   2              		.cpu cortex-m3
   3              		.fpu softvfp
   4              		.eabi_attribute 20, 1
   5              		.eabi_attribute 21, 1
   6              		.eabi_attribute 23, 3
   7              		.eabi_attribute 24, 1
   8              		.eabi_attribute 25, 1
   9              		.eabi_attribute 26, 1
  10              		.eabi_attribute 30, 6
  11              		.eabi_attribute 34, 1
  12              		.eabi_attribute 18, 4
  13              		.thumb
  14              		.file	"main.c"
  15              		.text
  16              	.Ltext0:
  17              		.cfi_sections	.debug_frame
  18              		.global	ts
  19              		.bss
  20              		.type	ts, %object
  21              		.size	ts, 1
  22              	ts:
  23 0000 00       		.space	1
  24              		.global	ts_enc
  25 0001 00       		.align	1
  26              		.type	ts_enc, %object
  27              		.size	ts_enc, 2
  28              	ts_enc:
  29 0002 0000     		.space	2
  30              		.global	ts_update
  31              		.align	1
  32              		.type	ts_update, %object
  33              		.size	ts_update, 2
  34              	ts_update:
  35 0004 0000     		.space	2
  36              		.global	ts_speed
  37              		.align	1
  38              		.type	ts_speed, %object
  39              		.size	ts_speed, 2
  40              	ts_speed:
  41 0006 0000     		.space	2
  42              		.global	ts_display
  43              		.align	1
  44              		.type	ts_display, %object
  45              		.size	ts_display, 2
  46              	ts_display:
  47 0008 0000     		.space	2
  48              		.global	flag_ts_enc
  49              		.type	flag_ts_enc, %object
  50              		.size	flag_ts_enc, 1
  51              	flag_ts_enc:
  52 000a 00       		.space	1
  53              		.global	flag_ts_update
  54              		.type	flag_ts_update, %object
  55              		.size	flag_ts_update, 1
  56              	flag_ts_update:
  57 000b 00       		.space	1
ARM GAS  C:\Users\Logan\AppData\Local\Temp\ccydAEbe.s 			page 2


  58              		.global	flag_ts_speed
  59              		.type	flag_ts_speed, %object
  60              		.size	flag_ts_speed, 1
  61              	flag_ts_speed:
  62 000c 00       		.space	1
  63              		.global	flag_ts_display
  64              		.type	flag_ts_display, %object
  65              		.size	flag_ts_display, 1
  66              	flag_ts_display:
  67 000d 00       		.space	1
  68              		.global	flag_rx
  69              		.type	flag_rx, %object
  70              		.size	flag_rx, 1
  71              	flag_rx:
  72 000e 00       		.space	1
  73              		.global	flag_packet
  74              		.type	flag_packet, %object
  75              		.size	flag_packet, 1
  76              	flag_packet:
  77 000f 00       		.space	1
  78              		.global	flag_KB_string
  79              		.type	flag_KB_string, %object
  80              		.size	flag_KB_string, 1
  81              	flag_KB_string:
  82 0010 00       		.space	1
  83              		.global	dataready_flag
  84              		.type	dataready_flag, %object
  85              		.size	dataready_flag, 1
  86              	dataready_flag:
  87 0011 00       		.space	1
  88              		.global	flag_rf_transmission_active
  89              		.data
  90              		.type	flag_rf_transmission_active, %object
  91              		.size	flag_rf_transmission_active, 1
  92              	flag_rf_transmission_active:
  93 0000 0A       		.byte	10
  94              		.global	flag_print_rf
  95              		.bss
  96              		.type	flag_print_rf, %object
  97              		.size	flag_print_rf, 1
  98              	flag_print_rf:
  99 0012 00       		.space	1
 100              		.global	flag_receive_ADC
 101              		.type	flag_receive_ADC, %object
 102              		.size	flag_receive_ADC, 1
 103              	flag_receive_ADC:
 104 0013 00       		.space	1
 105              		.comm	adc_result,2,2
 106              		.global	direction
 107              		.type	direction, %object
 108              		.size	direction, 1
 109              	direction:
 110 0014 00       		.space	1
 111              		.global	BIN_ENABLED
 112              		.type	BIN_ENABLED, %object
 113              		.size	BIN_ENABLED, 1
 114              	BIN_ENABLED:
ARM GAS  C:\Users\Logan\AppData\Local\Temp\ccydAEbe.s 			page 3


 115 0015 00       		.space	1
 116              		.global	BT_ENABLED
 117              		.data
 118              		.type	BT_ENABLED, %object
 119              		.size	BT_ENABLED, 1
 120              	BT_ENABLED:
 121 0001 01       		.byte	1
 122              		.global	flag_calc_wheelspeed
 123              		.bss
 124              		.type	flag_calc_wheelspeed, %object
 125              		.size	flag_calc_wheelspeed, 1
 126              	flag_calc_wheelspeed:
 127 0016 00       		.space	1
 128              		.global	quad_count1
 129 0017 00       		.align	1
 130              		.type	quad_count1, %object
 131              		.size	quad_count1, 2
 132              	quad_count1:
 133 0018 0000     		.space	2
 134              		.global	quad_count2
 135              		.align	1
 136              		.type	quad_count2, %object
 137              		.size	quad_count2, 2
 138              	quad_count2:
 139 001a 0000     		.space	2
 140              		.global	last_quad_count1
 141              		.align	1
 142              		.type	last_quad_count1, %object
 143              		.size	last_quad_count1, 2
 144              	last_quad_count1:
 145 001c 0000     		.space	2
 146              		.global	last_quad_count2
 147              		.align	1
 148              		.type	last_quad_count2, %object
 149              		.size	last_quad_count2, 2
 150              	last_quad_count2:
 151 001e 0000     		.space	2
 152              		.global	quad_diff1
 153              		.align	1
 154              		.type	quad_diff1, %object
 155              		.size	quad_diff1, 2
 156              	quad_diff1:
 157 0020 0000     		.space	2
 158              		.global	quad_diff2
 159              		.align	1
 160              		.type	quad_diff2, %object
 161              		.size	quad_diff2, 2
 162              	quad_diff2:
 163 0022 0000     		.space	2
 164              		.global	deadzone
 165              		.type	deadzone, %object
 166              		.size	deadzone, 1
 167              	deadzone:
 168 0024 00       		.space	1
 169              		.global	start_turn_count
 170 0025 00       		.align	1
 171              		.type	start_turn_count, %object
ARM GAS  C:\Users\Logan\AppData\Local\Temp\ccydAEbe.s 			page 4


 172              		.size	start_turn_count, 2
 173              	start_turn_count:
 174 0026 0000     		.space	2
 175              		.global	left_duty_cycle
 176              		.align	1
 177              		.type	left_duty_cycle, %object
 178              		.size	left_duty_cycle, 2
 179              	left_duty_cycle:
 180 0028 0000     		.space	2
 181              		.global	right_duty_cycle
 182              		.align	1
 183              		.type	right_duty_cycle, %object
 184              		.size	right_duty_cycle, 2
 185              	right_duty_cycle:
 186 002a 0000     		.space	2
 187              		.global	leftSpeedLimit
 188              		.align	1
 189              		.type	leftSpeedLimit, %object
 190              		.size	leftSpeedLimit, 2
 191              	leftSpeedLimit:
 192 002c 0000     		.space	2
 193              		.global	rightSpeedLimit
 194              		.align	1
 195              		.type	rightSpeedLimit, %object
 196              		.size	rightSpeedLimit, 2
 197              	rightSpeedLimit:
 198 002e 0000     		.space	2
 199              		.global	target_distance_cm
 200              		.data
 201              		.align	1
 202              		.type	target_distance_cm, %object
 203              		.size	target_distance_cm, 2
 204              	target_distance_cm:
 205 0002 6400     		.short	100
 206              		.global	accum_dist
 207              		.bss
 208              		.align	1
 209              		.type	accum_dist, %object
 210              		.size	accum_dist, 2
 211              	accum_dist:
 212 0030 0000     		.space	2
 213              		.global	target_distance_quad
 214              		.align	1
 215              		.type	target_distance_quad, %object
 216              		.size	target_distance_quad, 2
 217              	target_distance_quad:
 218 0032 0000     		.space	2
 219              		.global	quad_per_cm
 220              		.data
 221              		.align	2
 222              		.type	quad_per_cm, %object
 223              		.size	quad_per_cm, 4
 224              	quad_per_cm:
 225 0004 F0A73241 		.word	1093838832
 226              		.global	initial_pos_valid
 227              		.bss
 228              		.type	initial_pos_valid, %object
ARM GAS  C:\Users\Logan\AppData\Local\Temp\ccydAEbe.s 			page 5


 229              		.size	initial_pos_valid, 1
 230              	initial_pos_valid:
 231 0034 00       		.space	1
 232              		.global	initial_x_pos
 233 0035 00       		.align	1
 234              		.type	initial_x_pos, %object
 235              		.size	initial_x_pos, 2
 236              	initial_x_pos:
 237 0036 0000     		.space	2
 238              		.global	initial_y_pos
 239              		.align	1
 240              		.type	initial_y_pos, %object
 241              		.size	initial_y_pos, 2
 242              	initial_y_pos:
 243 0038 0000     		.space	2
 244              		.comm	brakeFlag,1,1
 245              		.global	portOpen
 246              		.data
 247              		.type	portOpen, %object
 248              		.size	portOpen, 1
 249              	portOpen:
 250 0008 01       		.byte	1
 251              		.comm	prevVoltage,2,2
 252              		.comm	prevVoltage2,2,2
 253              		.global	displaystring
 254 0009 000000   		.align	2
 255              		.type	displaystring, %object
 256              		.size	displaystring, 64
 257              	displaystring:
 258 000c 43533330 		.ascii	"CS301 2016\012\000"
 258      31203230 
 258      31360A00 
 259 0018 00000000 		.space	52
 259      00000000 
 259      00000000 
 259      00000000 
 259      00000000 
 260              		.comm	line,64,4
 261              		.comm	entry,64,4
 262              		.comm	usbBuffer,64,4
 263              		.comm	buffer_state,32,4
 264              		.comm	system_state,32,4
 265              		.global	prev_movement_state
 266              		.type	prev_movement_state, %object
 267              		.size	prev_movement_state, 1
 268              	prev_movement_state:
 269 004c 03       		.byte	3
 270              		.global	movement_state
 271              		.type	movement_state, %object
 272              		.size	movement_state, 1
 273              	movement_state:
 274 004d 03       		.byte	3
 275              		.global	track_mode
 276              		.bss
 277              		.type	track_mode, %object
 278              		.size	track_mode, 1
 279              	track_mode:
ARM GAS  C:\Users\Logan\AppData\Local\Temp\ccydAEbe.s 			page 6


 280 003a 00       		.space	1
 281              		.global	byteCount
 282              		.type	byteCount, %object
 283              		.size	byteCount, 1
 284              	byteCount:
 285 003b 00       		.space	1
 286              		.comm	packet,2,4
 287              		.global	speed
 288              		.data
 289 004e 0000     		.align	3
 290              		.type	speed, %object
 291              		.size	speed, 8
 292              	speed:
 293 0050 00000000 		.word	0
 294 0054 00002E40 		.word	1076756480
 295              		.comm	tracked_direction,4,4
 296              		.global	instructions
 297              		.bss
 298              		.align	2
 299              		.type	instructions, %object
 300              		.size	instructions, 800
 301              	instructions:
 302 003c 00000000 		.space	800
 302      00000000 
 302      00000000 
 302      00000000 
 302      00000000 
 303              		.global	instructionCount
 304              		.align	1
 305              		.type	instructionCount, %object
 306              		.size	instructionCount, 2
 307              	instructionCount:
 308 035c 0000     		.space	2
 309              		.global	sensorsDisabled
 310 035e 0000     		.align	2
 311              		.type	sensorsDisabled, %object
 312              		.size	sensorsDisabled, 4
 313              	sensorsDisabled:
 314 0360 00000000 		.space	4
 315              		.global	robot_direction
 316              		.data
 317              		.align	2
 318              		.type	robot_direction, %object
 319              		.size	robot_direction, 4
 320              	robot_direction:
 321 0058 02000000 		.word	2
 322              		.global	path
 323              		.bss
 324              		.align	2
 325              		.type	path, %object
 326              		.size	path, 9600
 327              	path:
 328 0364 00000000 		.space	9600
 328      00000000 
 328      00000000 
 328      00000000 
 328      00000000 
ARM GAS  C:\Users\Logan\AppData\Local\Temp\ccydAEbe.s 			page 7


 329              		.global	start
 330              		.data
 331              		.align	2
 332              		.type	start, %object
 333              		.size	start, 8
 334              	start:
 335 005c 01000000 		.word	1
 336 0060 01000000 		.word	1
 337              		.global	destination
 338              		.align	2
 339              		.type	destination, %object
 340              		.size	destination, 8
 341              	destination:
 342 0064 0D000000 		.word	13
 343 0068 0B000000 		.word	11
 344              		.global	map
 345              		.align	2
 346              		.type	map, %object
 347              		.size	map, 1140
 348              	map:
 349 006c 01000000 		.word	1
 350 0070 01000000 		.word	1
 351 0074 01000000 		.word	1
 352 0078 01000000 		.word	1
 353 007c 01000000 		.word	1
 354 0080 01000000 		.word	1
 355 0084 01000000 		.word	1
 356 0088 01000000 		.word	1
 357 008c 01000000 		.word	1
 358 0090 01000000 		.word	1
 359 0094 01000000 		.word	1
 360 0098 01000000 		.word	1
 361 009c 01000000 		.word	1
 362 00a0 01000000 		.word	1
 363 00a4 01000000 		.word	1
 364 00a8 01000000 		.word	1
 365 00ac 01000000 		.word	1
 366 00b0 01000000 		.word	1
 367 00b4 01000000 		.word	1
 368 00b8 01000000 		.word	1
 369 00bc 00000000 		.word	0
 370 00c0 00000000 		.word	0
 371 00c4 00000000 		.word	0
 372 00c8 00000000 		.word	0
 373 00cc 00000000 		.word	0
 374 00d0 01000000 		.word	1
 375 00d4 00000000 		.word	0
 376 00d8 01000000 		.word	1
 377 00dc 00000000 		.word	0
 378 00e0 00000000 		.word	0
 379 00e4 00000000 		.word	0
 380 00e8 00000000 		.word	0
 381 00ec 00000000 		.word	0
 382 00f0 00000000 		.word	0
 383 00f4 00000000 		.word	0
 384 00f8 00000000 		.word	0
 385 00fc 00000000 		.word	0
ARM GAS  C:\Users\Logan\AppData\Local\Temp\ccydAEbe.s 			page 8


 386 0100 01000000 		.word	1
 387 0104 01000000 		.word	1
 388 0108 01000000 		.word	1
 389 010c 01000000 		.word	1
 390 0110 01000000 		.word	1
 391 0114 01000000 		.word	1
 392 0118 00000000 		.word	0
 393 011c 01000000 		.word	1
 394 0120 00000000 		.word	0
 395 0124 01000000 		.word	1
 396 0128 00000000 		.word	0
 397 012c 01000000 		.word	1
 398 0130 00000000 		.word	0
 399 0134 01000000 		.word	1
 400 0138 01000000 		.word	1
 401 013c 01000000 		.word	1
 402 0140 01000000 		.word	1
 403 0144 01000000 		.word	1
 404 0148 00000000 		.word	0
 405 014c 01000000 		.word	1
 406 0150 01000000 		.word	1
 407 0154 00000000 		.word	0
 408 0158 00000000 		.word	0
 409 015c 00000000 		.word	0
 410 0160 01000000 		.word	1
 411 0164 00000000 		.word	0
 412 0168 01000000 		.word	1
 413 016c 00000000 		.word	0
 414 0170 00000000 		.word	0
 415 0174 00000000 		.word	0
 416 0178 01000000 		.word	1
 417 017c 00000000 		.word	0
 418 0180 00000000 		.word	0
 419 0184 00000000 		.word	0
 420 0188 00000000 		.word	0
 421 018c 00000000 		.word	0
 422 0190 01000000 		.word	1
 423 0194 00000000 		.word	0
 424 0198 01000000 		.word	1
 425 019c 01000000 		.word	1
 426 01a0 00000000 		.word	0
 427 01a4 01000000 		.word	1
 428 01a8 00000000 		.word	0
 429 01ac 01000000 		.word	1
 430 01b0 00000000 		.word	0
 431 01b4 01000000 		.word	1
 432 01b8 00000000 		.word	0
 433 01bc 01000000 		.word	1
 434 01c0 01000000 		.word	1
 435 01c4 01000000 		.word	1
 436 01c8 01000000 		.word	1
 437 01cc 01000000 		.word	1
 438 01d0 01000000 		.word	1
 439 01d4 01000000 		.word	1
 440 01d8 00000000 		.word	0
 441 01dc 01000000 		.word	1
 442 01e0 00000000 		.word	0
ARM GAS  C:\Users\Logan\AppData\Local\Temp\ccydAEbe.s 			page 9


 443 01e4 01000000 		.word	1
 444 01e8 01000000 		.word	1
 445 01ec 00000000 		.word	0
 446 01f0 01000000 		.word	1
 447 01f4 00000000 		.word	0
 448 01f8 00000000 		.word	0
 449 01fc 00000000 		.word	0
 450 0200 00000000 		.word	0
 451 0204 00000000 		.word	0
 452 0208 00000000 		.word	0
 453 020c 00000000 		.word	0
 454 0210 00000000 		.word	0
 455 0214 00000000 		.word	0
 456 0218 00000000 		.word	0
 457 021c 00000000 		.word	0
 458 0220 01000000 		.word	1
 459 0224 00000000 		.word	0
 460 0228 01000000 		.word	1
 461 022c 00000000 		.word	0
 462 0230 01000000 		.word	1
 463 0234 01000000 		.word	1
 464 0238 00000000 		.word	0
 465 023c 01000000 		.word	1
 466 0240 01000000 		.word	1
 467 0244 01000000 		.word	1
 468 0248 01000000 		.word	1
 469 024c 01000000 		.word	1
 470 0250 01000000 		.word	1
 471 0254 01000000 		.word	1
 472 0258 01000000 		.word	1
 473 025c 01000000 		.word	1
 474 0260 00000000 		.word	0
 475 0264 01000000 		.word	1
 476 0268 00000000 		.word	0
 477 026c 01000000 		.word	1
 478 0270 00000000 		.word	0
 479 0274 01000000 		.word	1
 480 0278 01000000 		.word	1
 481 027c 01000000 		.word	1
 482 0280 01000000 		.word	1
 483 0284 00000000 		.word	0
 484 0288 00000000 		.word	0
 485 028c 00000000 		.word	0
 486 0290 00000000 		.word	0
 487 0294 00000000 		.word	0
 488 0298 00000000 		.word	0
 489 029c 00000000 		.word	0
 490 02a0 00000000 		.word	0
 491 02a4 00000000 		.word	0
 492 02a8 00000000 		.word	0
 493 02ac 00000000 		.word	0
 494 02b0 01000000 		.word	1
 495 02b4 00000000 		.word	0
 496 02b8 01000000 		.word	1
 497 02bc 00000000 		.word	0
 498 02c0 00000000 		.word	0
 499 02c4 00000000 		.word	0
ARM GAS  C:\Users\Logan\AppData\Local\Temp\ccydAEbe.s 			page 10


 500 02c8 01000000 		.word	1
 501 02cc 01000000 		.word	1
 502 02d0 01000000 		.word	1
 503 02d4 01000000 		.word	1
 504 02d8 01000000 		.word	1
 505 02dc 01000000 		.word	1
 506 02e0 01000000 		.word	1
 507 02e4 01000000 		.word	1
 508 02e8 00000000 		.word	0
 509 02ec 01000000 		.word	1
 510 02f0 01000000 		.word	1
 511 02f4 01000000 		.word	1
 512 02f8 01000000 		.word	1
 513 02fc 01000000 		.word	1
 514 0300 00000000 		.word	0
 515 0304 01000000 		.word	1
 516 0308 01000000 		.word	1
 517 030c 01000000 		.word	1
 518 0310 00000000 		.word	0
 519 0314 01000000 		.word	1
 520 0318 01000000 		.word	1
 521 031c 00000000 		.word	0
 522 0320 00000000 		.word	0
 523 0324 00000000 		.word	0
 524 0328 00000000 		.word	0
 525 032c 00000000 		.word	0
 526 0330 00000000 		.word	0
 527 0334 00000000 		.word	0
 528 0338 00000000 		.word	0
 529 033c 00000000 		.word	0
 530 0340 00000000 		.word	0
 531 0344 00000000 		.word	0
 532 0348 01000000 		.word	1
 533 034c 00000000 		.word	0
 534 0350 00000000 		.word	0
 535 0354 00000000 		.word	0
 536 0358 01000000 		.word	1
 537 035c 00000000 		.word	0
 538 0360 01000000 		.word	1
 539 0364 01000000 		.word	1
 540 0368 00000000 		.word	0
 541 036c 01000000 		.word	1
 542 0370 01000000 		.word	1
 543 0374 01000000 		.word	1
 544 0378 01000000 		.word	1
 545 037c 01000000 		.word	1
 546 0380 00000000 		.word	0
 547 0384 01000000 		.word	1
 548 0388 01000000 		.word	1
 549 038c 01000000 		.word	1
 550 0390 00000000 		.word	0
 551 0394 01000000 		.word	1
 552 0398 00000000 		.word	0
 553 039c 01000000 		.word	1
 554 03a0 00000000 		.word	0
 555 03a4 01000000 		.word	1
 556 03a8 00000000 		.word	0
ARM GAS  C:\Users\Logan\AppData\Local\Temp\ccydAEbe.s 			page 11


 557 03ac 01000000 		.word	1
 558 03b0 01000000 		.word	1
 559 03b4 00000000 		.word	0
 560 03b8 00000000 		.word	0
 561 03bc 00000000 		.word	0
 562 03c0 00000000 		.word	0
 563 03c4 00000000 		.word	0
 564 03c8 01000000 		.word	1
 565 03cc 00000000 		.word	0
 566 03d0 00000000 		.word	0
 567 03d4 00000000 		.word	0
 568 03d8 01000000 		.word	1
 569 03dc 00000000 		.word	0
 570 03e0 00000000 		.word	0
 571 03e4 00000000 		.word	0
 572 03e8 01000000 		.word	1
 573 03ec 00000000 		.word	0
 574 03f0 00000000 		.word	0
 575 03f4 00000000 		.word	0
 576 03f8 01000000 		.word	1
 577 03fc 01000000 		.word	1
 578 0400 00000000 		.word	0
 579 0404 01000000 		.word	1
 580 0408 01000000 		.word	1
 581 040c 01000000 		.word	1
 582 0410 00000000 		.word	0
 583 0414 01000000 		.word	1
 584 0418 01000000 		.word	1
 585 041c 01000000 		.word	1
 586 0420 00000000 		.word	0
 587 0424 01000000 		.word	1
 588 0428 01000000 		.word	1
 589 042c 01000000 		.word	1
 590 0430 00000000 		.word	0
 591 0434 01000000 		.word	1
 592 0438 01000000 		.word	1
 593 043c 01000000 		.word	1
 594 0440 00000000 		.word	0
 595 0444 01000000 		.word	1
 596 0448 01000000 		.word	1
 597 044c 00000000 		.word	0
 598 0450 00000000 		.word	0
 599 0454 00000000 		.word	0
 600 0458 01000000 		.word	1
 601 045c 00000000 		.word	0
 602 0460 00000000 		.word	0
 603 0464 00000000 		.word	0
 604 0468 00000000 		.word	0
 605 046c 00000000 		.word	0
 606 0470 00000000 		.word	0
 607 0474 00000000 		.word	0
 608 0478 01000000 		.word	1
 609 047c 00000000 		.word	0
 610 0480 00000000 		.word	0
 611 0484 00000000 		.word	0
 612 0488 00000000 		.word	0
 613 048c 00000000 		.word	0
ARM GAS  C:\Users\Logan\AppData\Local\Temp\ccydAEbe.s 			page 12


 614 0490 01000000 		.word	1
 615 0494 01000000 		.word	1
 616 0498 01000000 		.word	1
 617 049c 01000000 		.word	1
 618 04a0 01000000 		.word	1
 619 04a4 01000000 		.word	1
 620 04a8 01000000 		.word	1
 621 04ac 01000000 		.word	1
 622 04b0 01000000 		.word	1
 623 04b4 01000000 		.word	1
 624 04b8 01000000 		.word	1
 625 04bc 01000000 		.word	1
 626 04c0 01000000 		.word	1
 627 04c4 01000000 		.word	1
 628 04c8 01000000 		.word	1
 629 04cc 01000000 		.word	1
 630 04d0 01000000 		.word	1
 631 04d4 01000000 		.word	1
 632 04d8 01000000 		.word	1
 633 04dc 01000000 		.word	1
 634              		.global	food_list
 635              		.align	2
 636              		.type	food_list, %object
 637              		.size	food_list, 48
 638              	food_list:
 639 04e0 04000000 		.word	4
 640 04e4 05000000 		.word	5
 641 04e8 07000000 		.word	7
 642 04ec 01000000 		.word	1
 643 04f0 0B000000 		.word	11
 644 04f4 05000000 		.word	5
 645 04f8 0A000000 		.word	10
 646 04fc 0B000000 		.word	11
 647 0500 05000000 		.word	5
 648 0504 08000000 		.word	8
 649 0508 11000000 		.word	17
 650 050c 02000000 		.word	2
 651              		.global	food_length
 652              		.align	2
 653              		.type	food_length, %object
 654              		.size	food_length, 4
 655              	food_length:
 656 0510 06000000 		.word	6
 657 0514 00000000 		.section	.text.BT_txInt,"ax",%progbits
 658              		.align	2
 659              		.global	BT_txInt
 660              		.thumb
 661              		.thumb_func
 662              		.type	BT_txInt, %function
 663              	BT_txInt:
 664              	.LFB63:
 665              		.file 1 ".\\main.c"
   1:.\main.c      **** /* ========================================
   2:.\main.c      ****  *
   3:.\main.c      ****  * Copyright Univ of Auckland, 2016
   4:.\main.c      ****  * All Rights Reserved
   5:.\main.c      ****  * UNPUBLISHED, LICENSED SOFTWARE.
ARM GAS  C:\Users\Logan\AppData\Local\Temp\ccydAEbe.s 			page 13


   6:.\main.c      ****  *
   7:.\main.c      ****  * CONFIDENTIAL AND PROPRIETARY INFORMATION
   8:.\main.c      ****  * WHICH IS THE PROPERTY OF Univ of Auckland.
   9:.\main.c      ****  *
  10:.\main.c      ****  * ========================================
  11:.\main.c      **** */
  12:.\main.c      **** #include <stdio.h>
  13:.\main.c      **** #include <string.h>
  14:.\main.c      **** #include <stdlib.h>
  15:.\main.c      **** #include <project.h>
  16:.\main.c      **** #include <math.h>
  17:.\main.c      **** //* ========================================
  18:.\main.c      **** #include "defines.h"
  19:.\main.c      **** #include "vars.h"
  20:.\main.c      **** #include "pathfinder.h"
  21:.\main.c      **** //* ========================================
  22:.\main.c      **** void usbPutString(char *s);
  23:.\main.c      **** void usbPutChar(char c);
  24:.\main.c      **** //void handle_usb();
  25:.\main.c      **** //* ========================================
  26:.\main.c      **** 
  27:.\main.c      **** #define QUAD_RATIO 0.99556
  28:.\main.c      **** 
  29:.\main.c      **** char instructions[DEFAULT_ARRAY_SIZE] = {0};
  30:.\main.c      **** uint16 instructionCount = 0;
  31:.\main.c      **** uint32_t sensorsDisabled = 0;
  32:.\main.c      **** 
  33:.\main.c      **** uint32_t robot_direction = 2;
  34:.\main.c      **** 
  35:.\main.c      **** uint32_t path[DEFAULT_ARRAY_SIZE][3] = {0};
  36:.\main.c      **** uint32_t start[2] = {1, 1};//(y, x) array starts at 0
  37:.\main.c      **** uint32_t destination[2] = {13, 11};//(y, x) DON'T HARDCODE THIS
  38:.\main.c      **** 
  39:.\main.c      **** uint32_t map[15][19] = {{1,1,1,1,1,1,1,1,1,1,1,1,1,1,1,1,1,1,1},
  40:.\main.c      ****                     {1,0,0,0,0,0,1,0,1,0,0,0,0,0,0,0,0,0,1},
  41:.\main.c      ****                     {1,1,1,1,1,0,1,0,1,0,1,0,1,1,1,1,1,0,1},
  42:.\main.c      ****                     {1,0,0,0,1,0,1,0,0,0,1,0,0,0,0,0,1,0,1},
  43:.\main.c      ****                     {1,0,1,0,1,0,1,0,1,1,1,1,1,1,1,0,1,0,1},
  44:.\main.c      ****                     {1,0,1,0,0,0,0,0,0,0,0,0,0,0,1,0,1,0,1},
  45:.\main.c      ****                     {1,0,1,1,1,1,1,1,1,1,1,0,1,0,1,0,1,1,1},
  46:.\main.c      ****                     {1,0,0,0,0,0,0,0,0,0,0,0,1,0,1,0,0,0,1},
  47:.\main.c      ****                     {1,1,1,1,1,1,1,0,1,1,1,1,1,0,1,1,1,0,1},
  48:.\main.c      ****                     {1,0,0,0,0,0,0,0,0,0,0,0,1,0,0,0,1,0,1},
  49:.\main.c      ****                     {1,0,1,1,1,1,1,0,1,1,1,0,1,0,1,0,1,0,1},
  50:.\main.c      ****                     {1,0,0,0,0,0,1,0,0,0,1,0,0,0,1,0,0,0,1},
  51:.\main.c      ****                     {1,0,1,1,1,0,1,1,1,0,1,1,1,0,1,1,1,0,1},
  52:.\main.c      ****                     {1,0,0,0,1,0,0,0,0,0,0,0,1,0,0,0,0,0,1},
  53:.\main.c      ****                     {1,1,1,1,1,1,1,1,1,1,1,1,1,1,1,1,1,1,1}};
  54:.\main.c      **** 
  55:.\main.c      **** //uint32_t map[15][19] = {{1,1,1,1,1,1,1,1,1,1,1,1,1,1,1,1,1,1,1},{1,0,0,0,0,0,1,1,1,0,0,0,0,0,0,0,
  56:.\main.c      **** //first number is the y coord, second is x
  57:.\main.c      **** //first number is row, second column
  58:.\main.c      **** 
  59:.\main.c      **** uint32_t food_list[6][2]= {{4,5},{7,1},{11,5},{10,11},{5,8},{17,2}};
  60:.\main.c      **** //uint8 food_list[6][2]= {{10,1},{1,13},{9,7},{16,13},{17,1}};
  61:.\main.c      **** uint32_t food_length = 6;
  62:.\main.c      **** 
ARM GAS  C:\Users\Logan\AppData\Local\Temp\ccydAEbe.s 			page 14


  63:.\main.c      **** void changeToRF();
  64:.\main.c      **** void changeToBT();
  65:.\main.c      **** void brakeMotor();
  66:.\main.c      **** void driveForwards();
  67:.\main.c      **** void initTurnLeft();
  68:.\main.c      **** void initTurnRight();
  69:.\main.c      **** void inittrackLineZ();
  70:.\main.c      **** void trackLineU();
  71:.\main.c      **** void trackLine();
  72:.\main.c      **** void trackLineZ();
  73:.\main.c      **** void initTrackU();
  74:.\main.c      **** void turnLeft();
  75:.\main.c      **** void turnRight();
  76:.\main.c      **** void initForward();
  77:.\main.c      **** void initTurnU();
  78:.\main.c      **** void turnU();
  79:.\main.c      **** void initBrake();
  80:.\main.c      **** void print_ADC();
  81:.\main.c      **** void Quad_Dec_response();
  82:.\main.c      **** void handle_rx_binary();
  83:.\main.c      **** void readFrontSensors();
  84:.\main.c      **** void print_RF();
  85:.\main.c      **** 
  86:.\main.c      **** /*--------------------------------------------ISRs-----------------------------------------------*/
  87:.\main.c      **** //BT
  88:.\main.c      **** CY_ISR(BT_txInt)
  89:.\main.c      **** {
 666              		.loc 1 89 0
 667              		.cfi_startproc
 668              		@ args = 0, pretend = 0, frame = 0
 669              		@ frame_needed = 1, uses_anonymous_args = 0
 670              		@ link register save eliminated.
 671 0000 80B4     		push	{r7}
 672              		.cfi_def_cfa_offset 4
 673              		.cfi_offset 7, -4
 674 0002 00AF     		add	r7, sp, #0
 675              		.cfi_def_cfa_register 7
  90:.\main.c      ****     
  91:.\main.c      **** }
 676              		.loc 1 91 0
 677 0004 BD46     		mov	sp, r7
 678              		.cfi_def_cfa_register 13
 679              		@ sp needed
 680 0006 5DF8047B 		ldr	r7, [sp], #4
 681              		.cfi_restore 7
 682              		.cfi_def_cfa_offset 0
 683 000a 7047     		bx	lr
 684              		.cfi_endproc
 685              	.LFE63:
 686              		.size	BT_txInt, .-BT_txInt
 687              		.section	.text.adc_isr,"ax",%progbits
 688              		.align	2
 689              		.global	adc_isr
 690              		.thumb
 691              		.thumb_func
 692              		.type	adc_isr, %function
 693              	adc_isr:
ARM GAS  C:\Users\Logan\AppData\Local\Temp\ccydAEbe.s 			page 15


 694              	.LFB64:
  92:.\main.c      **** 
  93:.\main.c      **** //ADC:
  94:.\main.c      **** CY_ISR (adc_isr)
  95:.\main.c      **** {
 695              		.loc 1 95 0
 696              		.cfi_startproc
 697              		@ args = 0, pretend = 0, frame = 0
 698              		@ frame_needed = 1, uses_anonymous_args = 0
 699 0000 80B5     		push	{r7, lr}
 700              		.cfi_def_cfa_offset 8
 701              		.cfi_offset 7, -8
 702              		.cfi_offset 14, -4
 703 0002 00AF     		add	r7, sp, #0
 704              		.cfi_def_cfa_register 7
  96:.\main.c      ****     //adc_result = ADC_GetResult16(0);
  97:.\main.c      ****     adc_result = ADC_GetResult16();
 705              		.loc 1 97 0
 706 0004 FFF7FEFF 		bl	ADC_GetResult16
 707 0008 0346     		mov	r3, r0
 708 000a 1A46     		mov	r2, r3
 709 000c 044B     		ldr	r3, .L3
 710 000e 1A80     		strh	r2, [r3]	@ movhi
  98:.\main.c      ****     flag_receive_ADC = 1;
 711              		.loc 1 98 0
 712 0010 044B     		ldr	r3, .L3+4
 713 0012 0122     		movs	r2, #1
 714 0014 1A70     		strb	r2, [r3]
  99:.\main.c      ****     flag_print_rf = 1;
 715              		.loc 1 99 0
 716 0016 044B     		ldr	r3, .L3+8
 717 0018 0122     		movs	r2, #1
 718 001a 1A70     		strb	r2, [r3]
 100:.\main.c      ****     //LED_Write(~LED_Read());
 101:.\main.c      **** }
 719              		.loc 1 101 0
 720 001c 80BD     		pop	{r7, pc}
 721              	.L4:
 722 001e 00BF     		.align	2
 723              	.L3:
 724 0020 00000000 		.word	adc_result
 725 0024 00000000 		.word	flag_receive_ADC
 726 0028 00000000 		.word	flag_print_rf
 727              		.cfi_endproc
 728              	.LFE64:
 729              		.size	adc_isr, .-adc_isr
 730              		.section	.rodata
 731              		.align	2
 732              	.LC0:
 733 0000 64697374 		.ascii	"dist: %d\015\012\000"
 733      3A202564 
 733      0D0A00
 734              		.global	__aeabi_i2d
 735              		.global	__aeabi_ddiv
 736              		.global	__aeabi_dcmple
 737              		.section	.text.isr_quad1,"ax",%progbits
 738              		.align	2
ARM GAS  C:\Users\Logan\AppData\Local\Temp\ccydAEbe.s 			page 16


 739              		.global	isr_quad1
 740              		.thumb
 741              		.thumb_func
 742              		.type	isr_quad1, %function
 743              	isr_quad1:
 744              	.LFB65:
 102:.\main.c      **** 
 103:.\main.c      **** CY_ISR (isr_quad1)
 104:.\main.c      **** {
 745              		.loc 1 104 0
 746              		.cfi_startproc
 747              		@ args = 0, pretend = 0, frame = 24
 748              		@ frame_needed = 1, uses_anonymous_args = 0
 749 0000 B0B5     		push	{r4, r5, r7, lr}
 750              		.cfi_def_cfa_offset 16
 751              		.cfi_offset 4, -16
 752              		.cfi_offset 5, -12
 753              		.cfi_offset 7, -8
 754              		.cfi_offset 14, -4
 755 0002 86B0     		sub	sp, sp, #24
 756              		.cfi_def_cfa_offset 40
 757 0004 00AF     		add	r7, sp, #0
 758              		.cfi_def_cfa_register 7
 105:.\main.c      ****     //LED_Write(~LED_Read());
 106:.\main.c      ****     last_quad_count1 = quad_count1;
 759              		.loc 1 106 0
 760 0006 684B     		ldr	r3, .L12
 761 0008 1A88     		ldrh	r2, [r3]
 762 000a 684B     		ldr	r3, .L12+4
 763 000c 1A80     		strh	r2, [r3]	@ movhi
 107:.\main.c      ****     last_quad_count2 = quad_count2;
 764              		.loc 1 107 0
 765 000e 684B     		ldr	r3, .L12+8
 766 0010 1A88     		ldrh	r2, [r3]
 767 0012 684B     		ldr	r3, .L12+12
 768 0014 1A80     		strh	r2, [r3]	@ movhi
 108:.\main.c      ****     quad_count1 = QuadDec_M1_GetCounter();
 769              		.loc 1 108 0
 770 0016 FFF7FEFF 		bl	QuadDec_M1_GetCounter
 771 001a 0346     		mov	r3, r0
 772 001c 1A46     		mov	r2, r3
 773 001e 624B     		ldr	r3, .L12
 774 0020 1A80     		strh	r2, [r3]	@ movhi
 109:.\main.c      ****     quad_count2 = QuadDec_M2_GetCounter();
 775              		.loc 1 109 0
 776 0022 FFF7FEFF 		bl	QuadDec_M2_GetCounter
 777 0026 0346     		mov	r3, r0
 778 0028 1A46     		mov	r2, r3
 779 002a 614B     		ldr	r3, .L12+8
 780 002c 1A80     		strh	r2, [r3]	@ movhi
 110:.\main.c      ****     quad_diff1 = quad_count1 - last_quad_count1;
 781              		.loc 1 110 0
 782 002e 5E4B     		ldr	r3, .L12
 783 0030 1B88     		ldrh	r3, [r3]
 784 0032 9AB2     		uxth	r2, r3
 785 0034 5D4B     		ldr	r3, .L12+4
 786 0036 1B88     		ldrh	r3, [r3]
ARM GAS  C:\Users\Logan\AppData\Local\Temp\ccydAEbe.s 			page 17


 787 0038 9BB2     		uxth	r3, r3
 788 003a D31A     		subs	r3, r2, r3
 789 003c 9BB2     		uxth	r3, r3
 790 003e 9AB2     		uxth	r2, r3
 791 0040 5D4B     		ldr	r3, .L12+16
 792 0042 1A80     		strh	r2, [r3]	@ movhi
 111:.\main.c      ****     quad_diff2 = quad_count2 - last_quad_count2;
 793              		.loc 1 111 0
 794 0044 5A4B     		ldr	r3, .L12+8
 795 0046 1B88     		ldrh	r3, [r3]
 796 0048 9AB2     		uxth	r2, r3
 797 004a 5A4B     		ldr	r3, .L12+12
 798 004c 1B88     		ldrh	r3, [r3]
 799 004e 9BB2     		uxth	r3, r3
 800 0050 D31A     		subs	r3, r2, r3
 801 0052 9BB2     		uxth	r3, r3
 802 0054 9AB2     		uxth	r2, r3
 803 0056 594B     		ldr	r3, .L12+20
 804 0058 1A80     		strh	r2, [r3]	@ movhi
 112:.\main.c      ****     
 113:.\main.c      ****     if(abs(quad_count1) > 3000 && movement_state != LTURN && movement_state != RTURN && track_mode 
 805              		.loc 1 113 0
 806 005a 534B     		ldr	r3, .L12
 807 005c 1B88     		ldrh	r3, [r3]
 808 005e 1BB2     		sxth	r3, r3
 809 0060 002B     		cmp	r3, #0
 810 0062 B8BF     		it	lt
 811 0064 5B42     		rsblt	r3, r3, #0
 812 0066 40F6B832 		movw	r2, #3000
 813 006a 9342     		cmp	r3, r2
 814 006c 1BDD     		ble	.L6
 815              		.loc 1 113 0 is_stmt 0 discriminator 1
 816 006e 544B     		ldr	r3, .L12+24
 817 0070 1B78     		ldrb	r3, [r3]	@ zero_extendqisi2
 818 0072 012B     		cmp	r3, #1
 819 0074 17D0     		beq	.L6
 820              		.loc 1 113 0 discriminator 2
 821 0076 524B     		ldr	r3, .L12+24
 822 0078 1B78     		ldrb	r3, [r3]	@ zero_extendqisi2
 823 007a 022B     		cmp	r3, #2
 824 007c 13D0     		beq	.L6
 825              		.loc 1 113 0 discriminator 3
 826 007e 514B     		ldr	r3, .L12+28
 827 0080 1B78     		ldrb	r3, [r3]	@ zero_extendqisi2
 828 0082 042B     		cmp	r3, #4
 829 0084 0FD0     		beq	.L6
 830              		.loc 1 113 0 discriminator 4
 831 0086 4E4B     		ldr	r3, .L12+24
 832 0088 1B78     		ldrb	r3, [r3]	@ zero_extendqisi2
 833 008a 072B     		cmp	r3, #7
 834 008c 0BD0     		beq	.L6
 114:.\main.c      ****     {
 115:.\main.c      ****         QuadDec_M1_SetCounter(0);
 835              		.loc 1 115 0 is_stmt 1
 836 008e 0020     		movs	r0, #0
 837 0090 FFF7FEFF 		bl	QuadDec_M1_SetCounter
 116:.\main.c      ****         QuadDec_M2_SetCounter(0);
ARM GAS  C:\Users\Logan\AppData\Local\Temp\ccydAEbe.s 			page 18


 838              		.loc 1 116 0
 839 0094 0020     		movs	r0, #0
 840 0096 FFF7FEFF 		bl	QuadDec_M2_SetCounter
 117:.\main.c      ****         quad_count1 = 0;
 841              		.loc 1 117 0
 842 009a 434B     		ldr	r3, .L12
 843 009c 0022     		movs	r2, #0
 844 009e 1A80     		strh	r2, [r3]	@ movhi
 118:.\main.c      ****         quad_count2 = 0;
 845              		.loc 1 118 0
 846 00a0 434B     		ldr	r3, .L12+8
 847 00a2 0022     		movs	r2, #0
 848 00a4 1A80     		strh	r2, [r3]	@ movhi
 849              	.L6:
 119:.\main.c      ****     }
 120:.\main.c      **** 
 121:.\main.c      ****     flag_calc_wheelspeed = 1;
 850              		.loc 1 121 0
 851 00a6 484B     		ldr	r3, .L12+32
 852 00a8 0122     		movs	r2, #1
 853 00aa 1A70     		strb	r2, [r3]
 122:.\main.c      ****     
 123:.\main.c      ****     if (track_mode == QUAD_STOP)
 854              		.loc 1 123 0
 855 00ac 454B     		ldr	r3, .L12+28
 856 00ae 1B78     		ldrb	r3, [r3]	@ zero_extendqisi2
 857 00b0 042B     		cmp	r3, #4
 858 00b2 2AD1     		bne	.L7
 859              	.LBB2:
 124:.\main.c      ****     {
 125:.\main.c      ****         accum_dist += quad_diff1;
 860              		.loc 1 125 0
 861 00b4 454B     		ldr	r3, .L12+36
 862 00b6 1B88     		ldrh	r3, [r3]
 863 00b8 9AB2     		uxth	r2, r3
 864 00ba 3F4B     		ldr	r3, .L12+16
 865 00bc 1B88     		ldrh	r3, [r3]
 866 00be 9BB2     		uxth	r3, r3
 867 00c0 1344     		add	r3, r3, r2
 868 00c2 9BB2     		uxth	r3, r3
 869 00c4 9AB2     		uxth	r2, r3
 870 00c6 414B     		ldr	r3, .L12+36
 871 00c8 1A80     		strh	r2, [r3]	@ movhi
 126:.\main.c      ****         char mes[16];
 127:.\main.c      ****         sprintf(mes, "dist: %d\r\n", accum_dist);
 872              		.loc 1 127 0
 873 00ca 404B     		ldr	r3, .L12+36
 874 00cc 1B88     		ldrh	r3, [r3]
 875 00ce 1BB2     		sxth	r3, r3
 876 00d0 3A46     		mov	r2, r7
 877 00d2 1046     		mov	r0, r2
 878 00d4 3E49     		ldr	r1, .L12+40
 879 00d6 1A46     		mov	r2, r3
 880 00d8 FFF7FEFF 		bl	sprintf
 128:.\main.c      ****         UART_PutString(mes);
 881              		.loc 1 128 0
 882 00dc 3B46     		mov	r3, r7
ARM GAS  C:\Users\Logan\AppData\Local\Temp\ccydAEbe.s 			page 19


 883 00de 1846     		mov	r0, r3
 884 00e0 FFF7FEFF 		bl	UART_PutString
 129:.\main.c      ****         if(abs(accum_dist) >= target_distance_quad)
 885              		.loc 1 129 0
 886 00e4 394B     		ldr	r3, .L12+36
 887 00e6 1B88     		ldrh	r3, [r3]
 888 00e8 1BB2     		sxth	r3, r3
 889 00ea 83EAE372 		eor	r2, r3, r3, asr #31
 890 00ee A2EBE372 		sub	r2, r2, r3, asr #31
 891 00f2 384B     		ldr	r3, .L12+44
 892 00f4 1B88     		ldrh	r3, [r3]
 893 00f6 1BB2     		sxth	r3, r3
 894 00f8 9A42     		cmp	r2, r3
 895 00fa 05DB     		blt	.L8
 130:.\main.c      ****         {
 131:.\main.c      ****             initBrake();
 896              		.loc 1 131 0
 897 00fc FFF7FEFF 		bl	initBrake
 132:.\main.c      ****             track_mode = NO_TRACK;
 898              		.loc 1 132 0
 899 0100 304B     		ldr	r3, .L12+28
 900 0102 0022     		movs	r2, #0
 901 0104 1A70     		strb	r2, [r3]
 902              	.LBE2:
 903 0106 4CE0     		b	.L5
 904              	.L8:
 905 0108 4BE0     		b	.L5
 906              	.L7:
 133:.\main.c      ****         }
 134:.\main.c      ****     } else if (track_mode == RF_STOP)
 907              		.loc 1 134 0
 908 010a 2E4B     		ldr	r3, .L12+28
 909 010c 1B78     		ldrb	r3, [r3]	@ zero_extendqisi2
 910 010e 052B     		cmp	r3, #5
 911 0110 47D1     		bne	.L5
 912              	.LBB3:
 135:.\main.c      ****     { 
 136:.\main.c      ****         // Do pythag
 137:.\main.c      ****         double dist = hypot((system_state.robot_xpos - initial_x_pos) / px_per_x_cm , (system_state
 913              		.loc 1 137 0
 914 0112 314B     		ldr	r3, .L12+48
 915 0114 5B88     		ldrh	r3, [r3, #2]
 916 0116 1AB2     		sxth	r2, r3
 917 0118 304B     		ldr	r3, .L12+52
 918 011a 1B88     		ldrh	r3, [r3]
 919 011c 1BB2     		sxth	r3, r3
 920 011e D31A     		subs	r3, r2, r3
 921 0120 1846     		mov	r0, r3
 922 0122 FFF7FEFF 		bl	__aeabi_i2d
 923 0126 0246     		mov	r2, r0
 924 0128 0B46     		mov	r3, r1
 925 012a 1046     		mov	r0, r2
 926 012c 1946     		mov	r1, r3
 927 012e 4FF00002 		mov	r2, #0
 928 0132 2B4B     		ldr	r3, .L12+56
 929 0134 FFF7FEFF 		bl	__aeabi_ddiv
 930 0138 0246     		mov	r2, r0
ARM GAS  C:\Users\Logan\AppData\Local\Temp\ccydAEbe.s 			page 20


 931 013a 0B46     		mov	r3, r1
 932 013c 1446     		mov	r4, r2
 933 013e 1D46     		mov	r5, r3
 934 0140 254B     		ldr	r3, .L12+48
 935 0142 9B88     		ldrh	r3, [r3, #4]
 936 0144 1AB2     		sxth	r2, r3
 937 0146 274B     		ldr	r3, .L12+60
 938 0148 1B88     		ldrh	r3, [r3]
 939 014a 1BB2     		sxth	r3, r3
 940 014c D31A     		subs	r3, r2, r3
 941 014e 1846     		mov	r0, r3
 942 0150 FFF7FEFF 		bl	__aeabi_i2d
 943 0154 0246     		mov	r2, r0
 944 0156 0B46     		mov	r3, r1
 945 0158 1046     		mov	r0, r2
 946 015a 1946     		mov	r1, r3
 947 015c 4FF00002 		mov	r2, #0
 948 0160 1F4B     		ldr	r3, .L12+56
 949 0162 FFF7FEFF 		bl	__aeabi_ddiv
 950 0166 0246     		mov	r2, r0
 951 0168 0B46     		mov	r3, r1
 952 016a 2046     		mov	r0, r4
 953 016c 2946     		mov	r1, r5
 954 016e FFF7FEFF 		bl	hypot
 955 0172 C7E90401 		strd	r0, [r7, #16]
 138:.\main.c      ****         if (dist >= target_distance_cm)
 956              		.loc 1 138 0
 957 0176 1C4B     		ldr	r3, .L12+64
 958 0178 1B88     		ldrh	r3, [r3]
 959 017a 1BB2     		sxth	r3, r3
 960 017c 1846     		mov	r0, r3
 961 017e FFF7FEFF 		bl	__aeabi_i2d
 962 0182 0246     		mov	r2, r0
 963 0184 0B46     		mov	r3, r1
 964 0186 1046     		mov	r0, r2
 965 0188 1946     		mov	r1, r3
 966 018a D7E90423 		ldrd	r2, [r7, #16]
 967 018e FFF7FEFF 		bl	__aeabi_dcmple
 968 0192 0346     		mov	r3, r0
 969 0194 002B     		cmp	r3, #0
 970 0196 04D0     		beq	.L5
 139:.\main.c      ****         {
 140:.\main.c      ****             initBrake();
 971              		.loc 1 140 0
 972 0198 FFF7FEFF 		bl	initBrake
 141:.\main.c      ****             track_mode = NO_TRACK;
 973              		.loc 1 141 0
 974 019c 094B     		ldr	r3, .L12+28
 975 019e 0022     		movs	r2, #0
 976 01a0 1A70     		strb	r2, [r3]
 977              	.L5:
 978              	.LBE3:
 142:.\main.c      ****         }
 143:.\main.c      ****     }
 144:.\main.c      **** }
 979              		.loc 1 144 0
 980 01a2 1837     		adds	r7, r7, #24
ARM GAS  C:\Users\Logan\AppData\Local\Temp\ccydAEbe.s 			page 21


 981              		.cfi_def_cfa_offset 16
 982 01a4 BD46     		mov	sp, r7
 983              		.cfi_def_cfa_register 13
 984              		@ sp needed
 985 01a6 B0BD     		pop	{r4, r5, r7, pc}
 986              	.L13:
 987              		.align	2
 988              	.L12:
 989 01a8 00000000 		.word	quad_count1
 990 01ac 00000000 		.word	last_quad_count1
 991 01b0 00000000 		.word	quad_count2
 992 01b4 00000000 		.word	last_quad_count2
 993 01b8 00000000 		.word	quad_diff1
 994 01bc 00000000 		.word	quad_diff2
 995 01c0 00000000 		.word	movement_state
 996 01c4 00000000 		.word	track_mode
 997 01c8 00000000 		.word	flag_calc_wheelspeed
 998 01cc 00000000 		.word	accum_dist
 999 01d0 00000000 		.word	.LC0
 1000 01d4 00000000 		.word	target_distance_quad
 1001 01d8 00000000 		.word	system_state
 1002 01dc 00000000 		.word	initial_x_pos
 1003 01e0 00001040 		.word	1074790400
 1004 01e4 00000000 		.word	initial_y_pos
 1005 01e8 00000000 		.word	target_distance_cm
 1006              		.cfi_endproc
 1007              	.LFE65:
 1008              		.size	isr_quad1, .-isr_quad1
 1009              		.section	.text.isr_turn_timer,"ax",%progbits
 1010              		.align	2
 1011              		.global	isr_turn_timer
 1012              		.thumb
 1013              		.thumb_func
 1014              		.type	isr_turn_timer, %function
 1015              	isr_turn_timer:
 1016              	.LFB66:
 145:.\main.c      **** 
 146:.\main.c      **** CY_ISR(isr_turn_timer)
 147:.\main.c      **** {
 1017              		.loc 1 147 0
 1018              		.cfi_startproc
 1019              		@ args = 0, pretend = 0, frame = 0
 1020              		@ frame_needed = 1, uses_anonymous_args = 0
 1021 0000 80B5     		push	{r7, lr}
 1022              		.cfi_def_cfa_offset 8
 1023              		.cfi_offset 7, -8
 1024              		.cfi_offset 14, -4
 1025 0002 00AF     		add	r7, sp, #0
 1026              		.cfi_def_cfa_register 7
 148:.\main.c      ****     if(movement_state == LTURN)
 1027              		.loc 1 148 0
 1028 0004 264B     		ldr	r3, .L20
 1029 0006 1B78     		ldrb	r3, [r3]	@ zero_extendqisi2
 1030 0008 012B     		cmp	r3, #1
 1031 000a 15D1     		bne	.L15
 149:.\main.c      ****     {
 150:.\main.c      ****         if(abs(QuadDec_M2_GetCounter() - start_turn_count) >= 208)
ARM GAS  C:\Users\Logan\AppData\Local\Temp\ccydAEbe.s 			page 22


 1032              		.loc 1 150 0
 1033 000c FFF7FEFF 		bl	QuadDec_M2_GetCounter
 1034 0010 0346     		mov	r3, r0
 1035 0012 1A46     		mov	r2, r3
 1036 0014 234B     		ldr	r3, .L20+4
 1037 0016 1B88     		ldrh	r3, [r3]
 1038 0018 1BB2     		sxth	r3, r3
 1039 001a D31A     		subs	r3, r2, r3
 1040 001c 002B     		cmp	r3, #0
 1041 001e B8BF     		it	lt
 1042 0020 5B42     		rsblt	r3, r3, #0
 1043 0022 CF2B     		cmp	r3, #207
 1044 0024 3BDD     		ble	.L14
 151:.\main.c      ****         {
 152:.\main.c      ****             //movement_state = STOPPED;
 153:.\main.c      ****             brakeMotor();
 1045              		.loc 1 153 0
 1046 0026 FFF7FEFF 		bl	brakeMotor
 154:.\main.c      ****             movement_state = prev_movement_state;
 1047              		.loc 1 154 0
 1048 002a 1F4B     		ldr	r3, .L20+8
 1049 002c 1A78     		ldrb	r2, [r3]	@ zero_extendqisi2
 1050 002e 1C4B     		ldr	r3, .L20
 1051 0030 1A70     		strb	r2, [r3]
 155:.\main.c      ****             Timer_2_Stop();
 1052              		.loc 1 155 0
 1053 0032 FFF7FEFF 		bl	Timer_2_Stop
 1054 0036 32E0     		b	.L14
 1055              	.L15:
 156:.\main.c      ****         }
 157:.\main.c      ****     }
 158:.\main.c      ****     else if (movement_state == RTURN)
 1056              		.loc 1 158 0
 1057 0038 194B     		ldr	r3, .L20
 1058 003a 1B78     		ldrb	r3, [r3]	@ zero_extendqisi2
 1059 003c 022B     		cmp	r3, #2
 1060 003e 15D1     		bne	.L18
 159:.\main.c      ****     {
 160:.\main.c      ****         if(abs(QuadDec_M1_GetCounter() - start_turn_count) >= 208)
 1061              		.loc 1 160 0
 1062 0040 FFF7FEFF 		bl	QuadDec_M1_GetCounter
 1063 0044 0346     		mov	r3, r0
 1064 0046 1A46     		mov	r2, r3
 1065 0048 164B     		ldr	r3, .L20+4
 1066 004a 1B88     		ldrh	r3, [r3]
 1067 004c 1BB2     		sxth	r3, r3
 1068 004e D31A     		subs	r3, r2, r3
 1069 0050 002B     		cmp	r3, #0
 1070 0052 B8BF     		it	lt
 1071 0054 5B42     		rsblt	r3, r3, #0
 1072 0056 CF2B     		cmp	r3, #207
 1073 0058 21DD     		ble	.L14
 161:.\main.c      ****         {
 162:.\main.c      ****             //movement_state = STOPPED;
 163:.\main.c      ****             brakeMotor();
 1074              		.loc 1 163 0
 1075 005a FFF7FEFF 		bl	brakeMotor
ARM GAS  C:\Users\Logan\AppData\Local\Temp\ccydAEbe.s 			page 23


 164:.\main.c      ****             movement_state = prev_movement_state;
 1076              		.loc 1 164 0
 1077 005e 124B     		ldr	r3, .L20+8
 1078 0060 1A78     		ldrb	r2, [r3]	@ zero_extendqisi2
 1079 0062 0F4B     		ldr	r3, .L20
 1080 0064 1A70     		strb	r2, [r3]
 165:.\main.c      ****             Timer_2_Stop();
 1081              		.loc 1 165 0
 1082 0066 FFF7FEFF 		bl	Timer_2_Stop
 1083 006a 18E0     		b	.L14
 1084              	.L18:
 166:.\main.c      ****         }
 167:.\main.c      ****     }
 168:.\main.c      ****     else if (movement_state == UTURN)
 1085              		.loc 1 168 0
 1086 006c 0C4B     		ldr	r3, .L20
 1087 006e 1B78     		ldrb	r3, [r3]	@ zero_extendqisi2
 1088 0070 072B     		cmp	r3, #7
 1089 0072 14D1     		bne	.L14
 169:.\main.c      ****     {
 170:.\main.c      ****         if(abs(QuadDec_M1_GetCounter() - start_turn_count) >= 208)
 1090              		.loc 1 170 0
 1091 0074 FFF7FEFF 		bl	QuadDec_M1_GetCounter
 1092 0078 0346     		mov	r3, r0
 1093 007a 1A46     		mov	r2, r3
 1094 007c 094B     		ldr	r3, .L20+4
 1095 007e 1B88     		ldrh	r3, [r3]
 1096 0080 1BB2     		sxth	r3, r3
 1097 0082 D31A     		subs	r3, r2, r3
 1098 0084 002B     		cmp	r3, #0
 1099 0086 B8BF     		it	lt
 1100 0088 5B42     		rsblt	r3, r3, #0
 1101 008a CF2B     		cmp	r3, #207
 1102 008c 07DD     		ble	.L14
 171:.\main.c      ****         {
 172:.\main.c      ****             //movement_state = STOPPED;
 173:.\main.c      ****             brakeMotor();
 1103              		.loc 1 173 0
 1104 008e FFF7FEFF 		bl	brakeMotor
 174:.\main.c      ****             movement_state = prev_movement_state;
 1105              		.loc 1 174 0
 1106 0092 054B     		ldr	r3, .L20+8
 1107 0094 1A78     		ldrb	r2, [r3]	@ zero_extendqisi2
 1108 0096 024B     		ldr	r3, .L20
 1109 0098 1A70     		strb	r2, [r3]
 175:.\main.c      ****             Timer_2_Stop();
 1110              		.loc 1 175 0
 1111 009a FFF7FEFF 		bl	Timer_2_Stop
 1112              	.L14:
 176:.\main.c      ****         }
 177:.\main.c      ****     }
 178:.\main.c      **** }
 1113              		.loc 1 178 0
 1114 009e 80BD     		pop	{r7, pc}
 1115              	.L21:
 1116              		.align	2
 1117              	.L20:
ARM GAS  C:\Users\Logan\AppData\Local\Temp\ccydAEbe.s 			page 24


 1118 00a0 00000000 		.word	movement_state
 1119 00a4 00000000 		.word	start_turn_count
 1120 00a8 00000000 		.word	prev_movement_state
 1121              		.cfi_endproc
 1122              	.LFE66:
 1123              		.size	isr_turn_timer, .-isr_turn_timer
 1124              		.section	.text.Stop_on_line,"ax",%progbits
 1125              		.align	2
 1126              		.global	Stop_on_line
 1127              		.thumb
 1128              		.thumb_func
 1129              		.type	Stop_on_line, %function
 1130              	Stop_on_line:
 1131              	.LFB67:
 179:.\main.c      **** 
 180:.\main.c      **** 
 181:.\main.c      **** CY_ISR (Stop_on_line)
 182:.\main.c      **** {
 1132              		.loc 1 182 0
 1133              		.cfi_startproc
 1134              		@ args = 0, pretend = 0, frame = 0
 1135              		@ frame_needed = 1, uses_anonymous_args = 0
 1136              		@ link register save eliminated.
 1137 0000 80B4     		push	{r7}
 1138              		.cfi_def_cfa_offset 4
 1139              		.cfi_offset 7, -4
 1140 0002 00AF     		add	r7, sp, #0
 1141              		.cfi_def_cfa_register 7
 183:.\main.c      ****     movement_state = STOPPED;
 1142              		.loc 1 183 0
 1143 0004 054B     		ldr	r3, .L24
 1144 0006 0322     		movs	r2, #3
 1145 0008 1A70     		strb	r2, [r3]
 184:.\main.c      ****     if(movement_state != DRIVE) return;
 1146              		.loc 1 184 0
 1147 000a 044B     		ldr	r3, .L24
 1148 000c 1B78     		ldrb	r3, [r3]	@ zero_extendqisi2
 1149 000e 002B     		cmp	r3, #0
 1150 0010 00D0     		beq	.L22
 1151 0012 00BF     		nop
 1152              	.L22:
 185:.\main.c      ****     //initTurnLeft();
 186:.\main.c      **** }
 1153              		.loc 1 186 0
 1154 0014 BD46     		mov	sp, r7
 1155              		.cfi_def_cfa_register 13
 1156              		@ sp needed
 1157 0016 5DF8047B 		ldr	r7, [sp], #4
 1158              		.cfi_restore 7
 1159              		.cfi_def_cfa_offset 0
 1160 001a 7047     		bx	lr
 1161              	.L25:
 1162              		.align	2
 1163              	.L24:
 1164 001c 00000000 		.word	movement_state
 1165              		.cfi_endproc
 1166              	.LFE67:
ARM GAS  C:\Users\Logan\AppData\Local\Temp\ccydAEbe.s 			page 25


 1167              		.size	Stop_on_line, .-Stop_on_line
 1168              		.section	.rodata
 1169 000b 00       		.align	2
 1170              	.LC1:
 1171 000c 53746172 		.ascii	"Starting robot!\015\012\000"
 1171      74696E67 
 1171      20726F62 
 1171      6F74210D 
 1171      0A00
 1172              		.section	.text.button,"ax",%progbits
 1173              		.align	2
 1174              		.global	button
 1175              		.thumb
 1176              		.thumb_func
 1177              		.type	button, %function
 1178              	button:
 1179              	.LFB68:
 187:.\main.c      **** 
 188:.\main.c      **** CY_ISR (button)
 189:.\main.c      **** {
 1180              		.loc 1 189 0
 1181              		.cfi_startproc
 1182              		@ args = 0, pretend = 0, frame = 0
 1183              		@ frame_needed = 1, uses_anonymous_args = 0
 1184 0000 80B5     		push	{r7, lr}
 1185              		.cfi_def_cfa_offset 8
 1186              		.cfi_offset 7, -8
 1187              		.cfi_offset 14, -4
 1188 0002 00AF     		add	r7, sp, #0
 1189              		.cfi_def_cfa_register 7
 190:.\main.c      ****     if(BT_ENABLED)
 1190              		.loc 1 190 0
 1191 0004 054B     		ldr	r3, .L28
 1192 0006 1B78     		ldrb	r3, [r3]	@ zero_extendqisi2
 1193 0008 002B     		cmp	r3, #0
 1194 000a 02D0     		beq	.L27
 191:.\main.c      ****     {
 192:.\main.c      ****         UART_PutString("Starting robot!\r\n");
 1195              		.loc 1 192 0
 1196 000c 0448     		ldr	r0, .L28+4
 1197 000e FFF7FEFF 		bl	UART_PutString
 1198              	.L27:
 193:.\main.c      ****     }
 194:.\main.c      ****     movement_state = DRIVE;
 1199              		.loc 1 194 0
 1200 0012 044B     		ldr	r3, .L28+8
 1201 0014 0022     		movs	r2, #0
 1202 0016 1A70     		strb	r2, [r3]
 195:.\main.c      **** }
 1203              		.loc 1 195 0
 1204 0018 80BD     		pop	{r7, pc}
 1205              	.L29:
 1206 001a 00BF     		.align	2
 1207              	.L28:
 1208 001c 00000000 		.word	BT_ENABLED
 1209 0020 0C000000 		.word	.LC1
 1210 0024 00000000 		.word	movement_state
ARM GAS  C:\Users\Logan\AppData\Local\Temp\ccydAEbe.s 			page 26


 1211              		.cfi_endproc
 1212              	.LFE68:
 1213              		.size	button, .-button
 1214              		.section	.text.isr_adcTimer,"ax",%progbits
 1215              		.align	2
 1216              		.global	isr_adcTimer
 1217              		.thumb
 1218              		.thumb_func
 1219              		.type	isr_adcTimer, %function
 1220              	isr_adcTimer:
 1221              	.LFB69:
 196:.\main.c      **** 
 197:.\main.c      **** CY_ISR(isr_adcTimer)
 198:.\main.c      **** {
 1222              		.loc 1 198 0
 1223              		.cfi_startproc
 1224              		@ args = 0, pretend = 0, frame = 0
 1225              		@ frame_needed = 1, uses_anonymous_args = 0
 1226 0000 80B5     		push	{r7, lr}
 1227              		.cfi_def_cfa_offset 8
 1228              		.cfi_offset 7, -8
 1229              		.cfi_offset 14, -4
 1230 0002 00AF     		add	r7, sp, #0
 1231              		.cfi_def_cfa_register 7
 199:.\main.c      ****     ADC_StartConvert();
 1232              		.loc 1 199 0
 1233 0004 FFF7FEFF 		bl	ADC_StartConvert
 200:.\main.c      **** }
 1234              		.loc 1 200 0
 1235 0008 80BD     		pop	{r7, pc}
 1236              		.cfi_endproc
 1237              	.LFE69:
 1238              		.size	isr_adcTimer, .-isr_adcTimer
 1239 000a 00BF     		.section	.rodata
 1240 001e 0000     		.align	2
 1241              	.LC2:
 1242 0020 44656164 		.ascii	"Deadzone left\015\012\000"
 1242      7A6F6E65 
 1242      206C6566 
 1242      740D0A00 
 1243              		.section	.text.isr_deadzone,"ax",%progbits
 1244              		.align	2
 1245              		.global	isr_deadzone
 1246              		.thumb
 1247              		.thumb_func
 1248              		.type	isr_deadzone, %function
 1249              	isr_deadzone:
 1250              	.LFB70:
 201:.\main.c      **** 
 202:.\main.c      **** CY_ISR(isr_deadzone)
 203:.\main.c      **** {
 1251              		.loc 1 203 0
 1252              		.cfi_startproc
 1253              		@ args = 0, pretend = 0, frame = 0
 1254              		@ frame_needed = 1, uses_anonymous_args = 0
 1255 0000 80B5     		push	{r7, lr}
 1256              		.cfi_def_cfa_offset 8
ARM GAS  C:\Users\Logan\AppData\Local\Temp\ccydAEbe.s 			page 27


 1257              		.cfi_offset 7, -8
 1258              		.cfi_offset 14, -4
 1259 0002 00AF     		add	r7, sp, #0
 1260              		.cfi_def_cfa_register 7
 204:.\main.c      ****     sensorsDisabled = 0;
 1261              		.loc 1 204 0
 1262 0004 054B     		ldr	r3, .L32
 1263 0006 0022     		movs	r2, #0
 1264 0008 1A60     		str	r2, [r3]
 205:.\main.c      ****     deadzone = 0;
 1265              		.loc 1 205 0
 1266 000a 054B     		ldr	r3, .L32+4
 1267 000c 0022     		movs	r2, #0
 1268 000e 1A70     		strb	r2, [r3]
 206:.\main.c      ****     Timer_Deadzone_Stop();
 1269              		.loc 1 206 0
 1270 0010 FFF7FEFF 		bl	Timer_Deadzone_Stop
 207:.\main.c      ****     UART_PutString("Deadzone left\r\n");
 1271              		.loc 1 207 0
 1272 0014 0348     		ldr	r0, .L32+8
 1273 0016 FFF7FEFF 		bl	UART_PutString
 208:.\main.c      **** }
 1274              		.loc 1 208 0
 1275 001a 80BD     		pop	{r7, pc}
 1276              	.L33:
 1277              		.align	2
 1278              	.L32:
 1279 001c 00000000 		.word	sensorsDisabled
 1280 0020 00000000 		.word	deadzone
 1281 0024 20000000 		.word	.LC2
 1282              		.cfi_endproc
 1283              	.LFE70:
 1284              		.size	isr_deadzone, .-isr_deadzone
 1285              		.section	.rodata
 1286              		.align	2
 1287              	.LC3:
 1288 0030 54726967 		.ascii	"Triggered at intersection \015\012\000"
 1288      67657265 
 1288      64206174 
 1288      20696E74 
 1288      65727365 
 1289 004d 000000   		.align	2
 1290              	.LC4:
 1291 0050 44656164 		.ascii	"Deadzone entered!\015\012\000"
 1291      7A6F6E65 
 1291      20656E74 
 1291      65726564 
 1291      210D0A00 
 1292              		.align	2
 1293              	.LC5:
 1294 0064 54726967 		.ascii	"Triggered at white light \015\012\000"
 1294      67657265 
 1294      64206174 
 1294      20776869 
 1294      7465206C 
 1295              		.section	.text.main,"ax",%progbits
 1296              		.align	2
ARM GAS  C:\Users\Logan\AppData\Local\Temp\ccydAEbe.s 			page 28


 1297              		.global	main
 1298              		.thumb
 1299              		.thumb_func
 1300              		.type	main, %function
 1301              	main:
 1302              	.LFB71:
 209:.\main.c      **** 
 210:.\main.c      **** /*-------------------------------------------------------------------------------------------*/
 211:.\main.c      **** 
 212:.\main.c      **** /* -----------------------------------------MAIN-----------------------------MAIN------------------
 213:.\main.c      **** int main()
 214:.\main.c      **** {  
 1303              		.loc 1 214 0
 1304              		.cfi_startproc
 1305              		@ args = 0, pretend = 0, frame = 8
 1306              		@ frame_needed = 1, uses_anonymous_args = 0
 1307 0000 80B5     		push	{r7, lr}
 1308              		.cfi_def_cfa_offset 8
 1309              		.cfi_offset 7, -8
 1310              		.cfi_offset 14, -4
 1311 0002 82B0     		sub	sp, sp, #8
 1312              		.cfi_def_cfa_offset 16
 1313 0004 00AF     		add	r7, sp, #0
 1314              		.cfi_def_cfa_register 7
 215:.\main.c      **** 
 216:.\main.c      **** // ----- INITIALIZATIONS ----------
 217:.\main.c      ****     CYGlobalIntEnable;
 1315              		.loc 1 217 0
 1316              	@ 217 ".\main.c" 1
 1317 0006 62B6     		CPSIE   i
 1318              	@ 0 "" 2
 218:.\main.c      ****     if(ENABLE_PWM)
 219:.\main.c      ****     {
 220:.\main.c      ****         PWM_1_Start();// starting the pwm
 1319              		.loc 1 220 0
 1320              		.thumb
 1321 0008 FFF7FEFF 		bl	PWM_1_Start
 221:.\main.c      ****         PWM_2_Start();// starting the pwm
 1322              		.loc 1 221 0
 1323 000c FFF7FEFF 		bl	PWM_2_Start
 222:.\main.c      ****     }
 223:.\main.c      ****     
 224:.\main.c      ****     if(ENABLE_ADC)
 225:.\main.c      ****     {
 226:.\main.c      ****         ADC_Start();
 227:.\main.c      ****         isr_eoc_StartEx(adc_isr);
 228:.\main.c      ****         //ADC_StartConvert();
 229:.\main.c      ****         
 230:.\main.c      ****         //start the ADC timer for software trigger mode
 231:.\main.c      ****         Timer_TS_Start();
 232:.\main.c      ****         isr_TS_StartEx(isr_adcTimer);
 233:.\main.c      ****     }
 234:.\main.c      ****     
 235:.\main.c      ****     if (ENABLE_QUAD)
 236:.\main.c      ****     {
 237:.\main.c      ****         QuadDec_M1_Start();
 1324              		.loc 1 237 0
ARM GAS  C:\Users\Logan\AppData\Local\Temp\ccydAEbe.s 			page 29


 1325 0010 FFF7FEFF 		bl	QuadDec_M1_Start
 238:.\main.c      ****         QuadDec_M2_Start();
 1326              		.loc 1 238 0
 1327 0014 FFF7FEFF 		bl	QuadDec_M2_Start
 239:.\main.c      ****         
 240:.\main.c      ****         isr_quad1_StartEx(isr_quad1);
 1328              		.loc 1 240 0
 1329 0018 B348     		ldr	r0, .L81
 1330 001a FFF7FEFF 		bl	isr_quad1_StartEx
 241:.\main.c      ****         isr_turn_count_StartEx(isr_turn_timer);
 1331              		.loc 1 241 0
 1332 001e B348     		ldr	r0, .L81+4
 1333 0020 FFF7FEFF 		bl	isr_turn_count_StartEx
 242:.\main.c      ****         
 243:.\main.c      ****         Timer_1_Start();
 1334              		.loc 1 243 0
 1335 0024 FFF7FEFF 		bl	Timer_1_Start
 244:.\main.c      ****     }
 245:.\main.c      ****     
 246:.\main.c      ****     if(ENABLE_STOP){
 247:.\main.c      ****         isr_OnLine_StartEx(Stop_on_line);
 248:.\main.c      ****         
 249:.\main.c      ****     }
 250:.\main.c      ****     isr_button_StartEx(button);
 1336              		.loc 1 250 0
 1337 0028 B148     		ldr	r0, .L81+8
 1338 002a FFF7FEFF 		bl	isr_button_StartEx
 251:.\main.c      ****     isr_action_deadzone_StartEx(isr_deadzone);
 1339              		.loc 1 251 0
 1340 002e B148     		ldr	r0, .L81+12
 1341 0030 FFF7FEFF 		bl	isr_action_deadzone_StartEx
 252:.\main.c      **** 
 253:.\main.c      ****     // ------USB SETUP ----------------    
 254:.\main.c      ****     if (USE_USB){    
 255:.\main.c      ****         USBUART_Start(0,USBUART_5V_OPERATION);
 1342              		.loc 1 255 0
 1343 0034 0020     		movs	r0, #0
 1344 0036 0121     		movs	r1, #1
 1345 0038 FFF7FEFF 		bl	USBUART_Start
 256:.\main.c      ****         if (USBUART_GetConfiguration())
 1346              		.loc 1 256 0
 1347 003c FFF7FEFF 		bl	USBUART_GetConfiguration
 1348 0040 0346     		mov	r3, r0
 1349 0042 002B     		cmp	r3, #0
 1350 0044 01D0     		beq	.L35
 257:.\main.c      ****             {
 258:.\main.c      ****                  USBUART_CDC_Init();
 1351              		.loc 1 258 0
 1352 0046 FFF7FEFF 		bl	USBUART_CDC_Init
 1353              	.L35:
 259:.\main.c      ****             }
 260:.\main.c      ****     }
 261:.\main.c      ****     
 262:.\main.c      ****     if(BIN_ENABLED){
 1354              		.loc 1 262 0
 1355 004a AB4B     		ldr	r3, .L81+16
 1356 004c 1B78     		ldrb	r3, [r3]	@ zero_extendqisi2
ARM GAS  C:\Users\Logan\AppData\Local\Temp\ccydAEbe.s 			page 30


 1357 004e 002B     		cmp	r3, #0
 1358 0050 01D0     		beq	.L36
 263:.\main.c      ****         changeToRF();
 1359              		.loc 1 263 0
 1360 0052 FFF7FEFF 		bl	changeToRF
 1361              	.L36:
 264:.\main.c      ****     }
 265:.\main.c      ****     
 266:.\main.c      ****     if(BT_ENABLED){
 1362              		.loc 1 266 0
 1363 0056 A94B     		ldr	r3, .L81+20
 1364 0058 1B78     		ldrb	r3, [r3]	@ zero_extendqisi2
 1365 005a 002B     		cmp	r3, #0
 1366 005c 01D0     		beq	.L37
 267:.\main.c      ****         changeToBT();
 1367              		.loc 1 267 0
 1368 005e FFF7FEFF 		bl	changeToBT
 1369              	.L37:
 268:.\main.c      ****     }
 269:.\main.c      ****     
 270:.\main.c      ****     uint16 actionDebounce = 0;
 1370              		.loc 1 270 0
 1371 0062 0023     		movs	r3, #0
 1372 0064 FB80     		strh	r3, [r7, #6]	@ movhi
 1373              	.L78:
 1374              	.LBB4:
 271:.\main.c      ****     
 272:.\main.c      ****     //usbPutString("Started");
 273:.\main.c      ****     for(;;)
 274:.\main.c      ****     {
 275:.\main.c      ****         if(ENABLE_ADC) print_ADC();
 276:.\main.c      ****         if(ENABLE_QUAD) Quad_Dec_response();
 1375              		.loc 1 276 0
 1376 0066 FFF7FEFF 		bl	Quad_Dec_response
 277:.\main.c      ****         if(BIN_ENABLED == 1)
 1377              		.loc 1 277 0
 1378 006a A34B     		ldr	r3, .L81+16
 1379 006c 1B78     		ldrb	r3, [r3]	@ zero_extendqisi2
 1380 006e 012B     		cmp	r3, #1
 1381 0070 03D1     		bne	.L38
 278:.\main.c      ****         {
 279:.\main.c      ****             handle_rx_binary();
 1382              		.loc 1 279 0
 1383 0072 FFF7FEFF 		bl	handle_rx_binary
 280:.\main.c      ****             print_RF();
 1384              		.loc 1 280 0
 1385 0076 FFF7FEFF 		bl	print_RF
 1386              	.L38:
 281:.\main.c      ****         }
 282:.\main.c      ****         // NO_TRACK, CURVE_TRACK, U_TRACK, SQUARE_TRACK
 283:.\main.c      ****         
 284:.\main.c      ****         uint8 frontSensors[5];
 285:.\main.c      ****         readFrontSensors(frontSensors);
 1387              		.loc 1 285 0
 1388 007a 3B46     		mov	r3, r7
 1389 007c 1846     		mov	r0, r3
 1390 007e FFF7FEFF 		bl	readFrontSensors
ARM GAS  C:\Users\Logan\AppData\Local\Temp\ccydAEbe.s 			page 31


 286:.\main.c      ****         
 287:.\main.c      ****         switch(track_mode)
 1391              		.loc 1 287 0
 1392 0082 9F4B     		ldr	r3, .L81+24
 1393 0084 1B78     		ldrb	r3, [r3]	@ zero_extendqisi2
 1394 0086 072B     		cmp	r3, #7
 1395 0088 00F2FD80 		bhi	.L39
 1396 008c 01A2     		adr	r2, .L41
 1397 008e 52F823F0 		ldr	pc, [r2, r3, lsl #2]
 1398 0092 00BF     		.p2align 2
 1399              	.L41:
 1400 0094 87020000 		.word	.L39+1
 1401 0098 87020000 		.word	.L39+1
 1402 009c 87020000 		.word	.L39+1
 1403 00a0 B5000000 		.word	.L44+1
 1404 00a4 87020000 		.word	.L39+1
 1405 00a8 F1000000 		.word	.L46+1
 1406 00ac 17010000 		.word	.L47+1
 1407 00b0 17010000 		.word	.L47+1
 1408              		.p2align 1
 1409              	.L44:
 288:.\main.c      ****         {
 289:.\main.c      ****             case SQUARE_TRACK:
 290:.\main.c      ****                 if(movement_state != LTURN && movement_state != RTURN)
 1410              		.loc 1 290 0
 1411 00b4 934B     		ldr	r3, .L81+28
 1412 00b6 1B78     		ldrb	r3, [r3]	@ zero_extendqisi2
 1413 00b8 012B     		cmp	r3, #1
 1414 00ba 18D0     		beq	.L48
 1415              		.loc 1 290 0 is_stmt 0 discriminator 1
 1416 00bc 914B     		ldr	r3, .L81+28
 1417 00be 1B78     		ldrb	r3, [r3]	@ zero_extendqisi2
 1418 00c0 022B     		cmp	r3, #2
 1419 00c2 14D0     		beq	.L48
 291:.\main.c      ****                 {
 292:.\main.c      ****                     if(frontSensors[0] == 1 && frontSensors[2] == 1){ //left turn
 1420              		.loc 1 292 0 is_stmt 1
 1421 00c4 3B78     		ldrb	r3, [r7]	@ zero_extendqisi2
 1422 00c6 012B     		cmp	r3, #1
 1423 00c8 05D1     		bne	.L49
 1424              		.loc 1 292 0 is_stmt 0 discriminator 1
 1425 00ca BB78     		ldrb	r3, [r7, #2]	@ zero_extendqisi2
 1426 00cc 012B     		cmp	r3, #1
 1427 00ce 02D1     		bne	.L49
 293:.\main.c      ****                         initTurnLeft();
 1428              		.loc 1 293 0 is_stmt 1
 1429 00d0 FFF7FEFF 		bl	initTurnLeft
 1430 00d4 0BE0     		b	.L48
 1431              	.L49:
 294:.\main.c      ****                     }
 295:.\main.c      ****                     else if (frontSensors[4] == 1 && frontSensors[2] == 1) //right turn
 1432              		.loc 1 295 0
 1433 00d6 3B79     		ldrb	r3, [r7, #4]	@ zero_extendqisi2
 1434 00d8 012B     		cmp	r3, #1
 1435 00da 05D1     		bne	.L50
 1436              		.loc 1 295 0 is_stmt 0 discriminator 1
 1437 00dc BB78     		ldrb	r3, [r7, #2]	@ zero_extendqisi2
ARM GAS  C:\Users\Logan\AppData\Local\Temp\ccydAEbe.s 			page 32


 1438 00de 012B     		cmp	r3, #1
 1439 00e0 02D1     		bne	.L50
 296:.\main.c      ****                     {
 297:.\main.c      ****                         initTurnRight();
 1440              		.loc 1 297 0 is_stmt 1
 1441 00e2 FFF7FEFF 		bl	initTurnRight
 1442 00e6 02E0     		b	.L48
 1443              	.L50:
 298:.\main.c      ****                     }
 299:.\main.c      ****                     else inittrackLineZ();
 1444              		.loc 1 299 0
 1445 00e8 FFF7FEFF 		bl	inittrackLineZ
 300:.\main.c      ****                 }
 301:.\main.c      ****             break;
 1446              		.loc 1 301 0
 1447 00ec CBE0     		b	.L39
 1448              	.L48:
 1449 00ee CAE0     		b	.L39
 1450              	.L46:
 302:.\main.c      ****             case NO_TRACK:
 303:.\main.c      ****             break;
 304:.\main.c      ****             case CURVE_TRACK:
 305:.\main.c      ****             break;
 306:.\main.c      ****             case U_TRACK:
 307:.\main.c      ****             break;
 308:.\main.c      ****             case QUAD_STOP:
 309:.\main.c      ****             break;
 310:.\main.c      ****             case RF_STOP:
 311:.\main.c      ****                 if(initial_pos_valid == 1)
 1451              		.loc 1 311 0
 1452 00f0 854B     		ldr	r3, .L81+32
 1453 00f2 1B78     		ldrb	r3, [r3]	@ zero_extendqisi2
 1454 00f4 012B     		cmp	r3, #1
 1455 00f6 0DD1     		bne	.L51
 312:.\main.c      ****                 {
 313:.\main.c      ****                     //changeToBT();
 314:.\main.c      ****                    // UART_PutString("Valid RF detected!");
 315:.\main.c      ****                     //changeToRF();
 316:.\main.c      ****                     initial_x_pos = system_state.robot_xpos;
 1456              		.loc 1 316 0
 1457 00f8 844B     		ldr	r3, .L81+36
 1458 00fa 5A88     		ldrh	r2, [r3, #2]
 1459 00fc 844B     		ldr	r3, .L81+40
 1460 00fe 1A80     		strh	r2, [r3]	@ movhi
 317:.\main.c      ****                     initial_y_pos = system_state.robot_ypos;
 1461              		.loc 1 317 0
 1462 0100 824B     		ldr	r3, .L81+36
 1463 0102 9A88     		ldrh	r2, [r3, #4]
 1464 0104 834B     		ldr	r3, .L81+44
 1465 0106 1A80     		strh	r2, [r3]	@ movhi
 318:.\main.c      ****                     initial_pos_valid = 2;
 1466              		.loc 1 318 0
 1467 0108 7F4B     		ldr	r3, .L81+32
 1468 010a 0222     		movs	r2, #2
 1469 010c 1A70     		strb	r2, [r3]
 319:.\main.c      ****                     initForward();
 1470              		.loc 1 319 0
ARM GAS  C:\Users\Logan\AppData\Local\Temp\ccydAEbe.s 			page 33


 1471 010e FFF7FEFF 		bl	initForward
 320:.\main.c      ****                 }
 321:.\main.c      ****             break;
 1472              		.loc 1 321 0
 1473 0112 B8E0     		b	.L39
 1474              	.L51:
 1475 0114 B7E0     		b	.L39
 1476              	.L47:
 322:.\main.c      ****             case MAP_TRAVERSE:
 323:.\main.c      ****             case DEST_TEST:
 324:.\main.c      ****                 if(movement_state != LTURN && movement_state != RTURN && movement_state != UTURN){
 1477              		.loc 1 324 0
 1478 0116 7B4B     		ldr	r3, .L81+28
 1479 0118 1B78     		ldrb	r3, [r3]	@ zero_extendqisi2
 1480 011a 012B     		cmp	r3, #1
 1481 011c 00F0B280 		beq	.L52
 1482              		.loc 1 324 0 is_stmt 0 discriminator 1
 1483 0120 784B     		ldr	r3, .L81+28
 1484 0122 1B78     		ldrb	r3, [r3]	@ zero_extendqisi2
 1485 0124 022B     		cmp	r3, #2
 1486 0126 00F0AD80 		beq	.L52
 1487              		.loc 1 324 0 discriminator 2
 1488 012a 764B     		ldr	r3, .L81+28
 1489 012c 1B78     		ldrb	r3, [r3]	@ zero_extendqisi2
 1490 012e 072B     		cmp	r3, #7
 1491 0130 00F0A880 		beq	.L52
 1492              	.LBB5:
 325:.\main.c      ****                     //when we hit an intersection, verify the next step then evaluate
 326:.\main.c      ****                     char nextStep = instructions[instructionCount];
 1493              		.loc 1 326 0 is_stmt 1
 1494 0134 784B     		ldr	r3, .L81+48
 1495 0136 1B88     		ldrh	r3, [r3]
 1496 0138 1A46     		mov	r2, r3
 1497 013a 784B     		ldr	r3, .L81+52
 1498 013c 9B5C     		ldrb	r3, [r3, r2]
 1499 013e 7B71     		strb	r3, [r7, #5]
 327:.\main.c      ****                     if(((frontSensors[0] == 1 && frontSensors[2] == 1) || (frontSensors[4] == 1 && 
 1500              		.loc 1 327 0
 1501 0140 3B78     		ldrb	r3, [r7]	@ zero_extendqisi2
 1502 0142 012B     		cmp	r3, #1
 1503 0144 02D1     		bne	.L53
 1504              		.loc 1 327 0 is_stmt 0 discriminator 1
 1505 0146 BB78     		ldrb	r3, [r7, #2]	@ zero_extendqisi2
 1506 0148 012B     		cmp	r3, #1
 1507 014a 05D0     		beq	.L54
 1508              	.L53:
 1509              		.loc 1 327 0 discriminator 3
 1510 014c 3B79     		ldrb	r3, [r7, #4]	@ zero_extendqisi2
 1511 014e 012B     		cmp	r3, #1
 1512 0150 57D1     		bne	.L55
 1513              		.loc 1 327 0 discriminator 4
 1514 0152 BB78     		ldrb	r3, [r7, #2]	@ zero_extendqisi2
 1515 0154 012B     		cmp	r3, #1
 1516 0156 54D1     		bne	.L55
 1517              	.L54:
 328:.\main.c      ****                         if(sensorsDisabled == 0)
 1518              		.loc 1 328 0 is_stmt 1
ARM GAS  C:\Users\Logan\AppData\Local\Temp\ccydAEbe.s 			page 34


 1519 0158 714B     		ldr	r3, .L81+56
 1520 015a 1B68     		ldr	r3, [r3]
 1521 015c 002B     		cmp	r3, #0
 1522 015e 4FD1     		bne	.L56
 329:.\main.c      ****                         {
 330:.\main.c      ****                             actionDebounce++;
 1523              		.loc 1 330 0
 1524 0160 FB88     		ldrh	r3, [r7, #6]
 1525 0162 0133     		adds	r3, r3, #1
 1526 0164 FB80     		strh	r3, [r7, #6]	@ movhi
 331:.\main.c      ****                             if(actionDebounce >= 1000)
 1527              		.loc 1 331 0
 1528 0166 FB88     		ldrh	r3, [r7, #6]
 1529 0168 B3F57A7F 		cmp	r3, #1000
 1530 016c 48D3     		bcc	.L56
 332:.\main.c      ****                             {
 333:.\main.c      ****                                 sensorsDisabled = 1;
 1531              		.loc 1 333 0
 1532 016e 6C4B     		ldr	r3, .L81+56
 1533 0170 0122     		movs	r2, #1
 1534 0172 1A60     		str	r2, [r3]
 334:.\main.c      ****                                 UART_PutString("Triggered at intersection \r\n");
 1535              		.loc 1 334 0
 1536 0174 6B48     		ldr	r0, .L81+60
 1537 0176 FFF7FEFF 		bl	UART_PutString
 335:.\main.c      ****                                 UART_PutString("Deadzone entered!\r\n");
 1538              		.loc 1 335 0
 1539 017a 6B48     		ldr	r0, .L81+64
 1540 017c FFF7FEFF 		bl	UART_PutString
 336:.\main.c      ****                                 deadzone = 1;
 1541              		.loc 1 336 0
 1542 0180 6A4B     		ldr	r3, .L81+68
 1543 0182 0122     		movs	r2, #1
 1544 0184 1A70     		strb	r2, [r3]
 337:.\main.c      ****                                 if(nextStep == 'S') Timer_Deadzone_WriteCounter(10000);
 1545              		.loc 1 337 0
 1546 0186 7B79     		ldrb	r3, [r7, #5]	@ zero_extendqisi2
 1547 0188 532B     		cmp	r3, #83
 1548 018a 04D1     		bne	.L57
 1549              		.loc 1 337 0 is_stmt 0 discriminator 1
 1550 018c 42F21070 		movw	r0, #10000
 1551 0190 FFF7FEFF 		bl	Timer_Deadzone_WriteCounter
 1552 0194 03E0     		b	.L58
 1553              	.L57:
 338:.\main.c      ****                                 else Timer_Deadzone_WriteCounter(40000);
 1554              		.loc 1 338 0 is_stmt 1
 1555 0196 49F64040 		movw	r0, #40000
 1556 019a FFF7FEFF 		bl	Timer_Deadzone_WriteCounter
 1557              	.L58:
 339:.\main.c      ****                                 Timer_Deadzone_Start();
 1558              		.loc 1 339 0
 1559 019e FFF7FEFF 		bl	Timer_Deadzone_Start
 340:.\main.c      ****                                 switch(nextStep)
 1560              		.loc 1 340 0
 1561 01a2 7B79     		ldrb	r3, [r7, #5]	@ zero_extendqisi2
 1562 01a4 4C3B     		subs	r3, r3, #76
 1563 01a6 092B     		cmp	r3, #9
ARM GAS  C:\Users\Logan\AppData\Local\Temp\ccydAEbe.s 			page 35


 1564 01a8 22D8     		bhi	.L79
 1565 01aa 01A2     		adr	r2, .L61
 1566 01ac 52F823F0 		ldr	pc, [r2, r3, lsl #2]
 1567              		.p2align 2
 1568              	.L61:
 1569 01b0 DF010000 		.word	.L60+1
 1570 01b4 F1010000 		.word	.L79+1
 1571 01b8 F1010000 		.word	.L79+1
 1572 01bc F1010000 		.word	.L79+1
 1573 01c0 F1010000 		.word	.L79+1
 1574 01c4 F1010000 		.word	.L79+1
 1575 01c8 E5010000 		.word	.L62+1
 1576 01cc D9010000 		.word	.L63+1
 1577 01d0 F1010000 		.word	.L79+1
 1578 01d4 EB010000 		.word	.L64+1
 1579              		.p2align 1
 1580              	.L63:
 341:.\main.c      ****                                 {
 342:.\main.c      ****                                     case 'S':
 343:.\main.c      ****                                         initTrackU();
 1581              		.loc 1 343 0
 1582 01d8 FFF7FEFF 		bl	initTrackU
 344:.\main.c      ****                                         //do nothing
 345:.\main.c      ****                                     break;
 1583              		.loc 1 345 0
 1584 01dc 09E0     		b	.L65
 1585              	.L60:
 346:.\main.c      ****                                     case 'L':
 347:.\main.c      ****                                         //if(tracked_direction == 1) tracked_direction = 4; else tr
 348:.\main.c      ****                                         initTurnLeft();
 1586              		.loc 1 348 0
 1587 01de FFF7FEFF 		bl	initTurnLeft
 349:.\main.c      ****                                     break;
 1588              		.loc 1 349 0
 1589 01e2 06E0     		b	.L65
 1590              	.L62:
 350:.\main.c      ****                                     case 'R':
 351:.\main.c      ****                                         //if(tracked_direction == 4) tracked_direction = 1; else tr
 352:.\main.c      ****                                         initTurnRight();
 1591              		.loc 1 352 0
 1592 01e4 FFF7FEFF 		bl	initTurnRight
 353:.\main.c      ****                                         
 354:.\main.c      ****                                     break;
 1593              		.loc 1 354 0
 1594 01e8 03E0     		b	.L65
 1595              	.L64:
 355:.\main.c      ****                                     case 'U':
 356:.\main.c      ****                                         // Direction not tracked any more
 357:.\main.c      ****                                         initTurnU();
 1596              		.loc 1 357 0
 1597 01ea FFF7FEFF 		bl	initTurnU
 358:.\main.c      ****                                     break;
 1598              		.loc 1 358 0
 1599 01ee 00E0     		b	.L65
 1600              	.L79:
 359:.\main.c      ****                                     default:
 360:.\main.c      ****                                         //do nothing
ARM GAS  C:\Users\Logan\AppData\Local\Temp\ccydAEbe.s 			page 36


 361:.\main.c      ****                                         break;
 1601              		.loc 1 361 0
 1602 01f0 00BF     		nop
 1603              	.L65:
 362:.\main.c      ****                                 }
 363:.\main.c      ****                                 instructionCount++;
 1604              		.loc 1 363 0
 1605 01f2 494B     		ldr	r3, .L81+48
 1606 01f4 1B88     		ldrh	r3, [r3]
 1607 01f6 0133     		adds	r3, r3, #1
 1608 01f8 9AB2     		uxth	r2, r3
 1609 01fa 474B     		ldr	r3, .L81+48
 1610 01fc 1A80     		strh	r2, [r3]	@ movhi
 328:.\main.c      ****                         {
 1611              		.loc 1 328 0
 1612 01fe 41E0     		b	.L52
 1613              	.L56:
 1614 0200 40E0     		b	.L52
 1615              	.L55:
 364:.\main.c      ****                             }
 365:.\main.c      ****                         }
 366:.\main.c      ****                     }
 367:.\main.c      ****                     else if (frontSensors[0] == 0 && frontSensors[1] == 0 && frontSensors[2] == 0 &
 1616              		.loc 1 367 0
 1617 0202 3B78     		ldrb	r3, [r7]	@ zero_extendqisi2
 1618 0204 002B     		cmp	r3, #0
 1619 0206 38D1     		bne	.L66
 1620              		.loc 1 367 0 is_stmt 0 discriminator 1
 1621 0208 7B78     		ldrb	r3, [r7, #1]	@ zero_extendqisi2
 1622 020a 002B     		cmp	r3, #0
 1623 020c 35D1     		bne	.L66
 1624              		.loc 1 367 0 discriminator 2
 1625 020e BB78     		ldrb	r3, [r7, #2]	@ zero_extendqisi2
 1626 0210 002B     		cmp	r3, #0
 1627 0212 32D1     		bne	.L66
 1628              		.loc 1 367 0 discriminator 3
 1629 0214 FB78     		ldrb	r3, [r7, #3]	@ zero_extendqisi2
 1630 0216 002B     		cmp	r3, #0
 1631 0218 2FD1     		bne	.L66
 1632              		.loc 1 367 0 discriminator 4
 1633 021a 3B79     		ldrb	r3, [r7, #4]	@ zero_extendqisi2
 1634 021c 002B     		cmp	r3, #0
 1635 021e 2CD1     		bne	.L66
 1636              		.loc 1 367 0 discriminator 5
 1637 0220 7B79     		ldrb	r3, [r7, #5]	@ zero_extendqisi2
 1638 0222 552B     		cmp	r3, #85
 1639 0224 29D1     		bne	.L66
 368:.\main.c      ****                     {
 369:.\main.c      ****                         if(sensorsDisabled == 0)
 1640              		.loc 1 369 0 is_stmt 1
 1641 0226 3E4B     		ldr	r3, .L81+56
 1642 0228 1B68     		ldr	r3, [r3]
 1643 022a 002B     		cmp	r3, #0
 1644 022c 24D1     		bne	.L67
 370:.\main.c      ****                         {
 371:.\main.c      ****                             actionDebounce++;
 1645              		.loc 1 371 0
ARM GAS  C:\Users\Logan\AppData\Local\Temp\ccydAEbe.s 			page 37


 1646 022e FB88     		ldrh	r3, [r7, #6]
 1647 0230 0133     		adds	r3, r3, #1
 1648 0232 FB80     		strh	r3, [r7, #6]	@ movhi
 372:.\main.c      ****                             if(actionDebounce >= 5000)
 1649              		.loc 1 372 0
 1650 0234 FB88     		ldrh	r3, [r7, #6]
 1651 0236 41F28732 		movw	r2, #4999
 1652 023a 9342     		cmp	r3, r2
 1653 023c 1CD9     		bls	.L67
 373:.\main.c      ****                             {
 374:.\main.c      ****                                 UART_PutString("Triggered at white light \r\n");
 1654              		.loc 1 374 0
 1655 023e 3C48     		ldr	r0, .L81+72
 1656 0240 FFF7FEFF 		bl	UART_PutString
 375:.\main.c      ****                                 UART_PutString("Deadzone entered!\r\n");
 1657              		.loc 1 375 0
 1658 0244 3848     		ldr	r0, .L81+64
 1659 0246 FFF7FEFF 		bl	UART_PutString
 376:.\main.c      ****                                 deadzone = 1;
 1660              		.loc 1 376 0
 1661 024a 384B     		ldr	r3, .L81+68
 1662 024c 0122     		movs	r2, #1
 1663 024e 1A70     		strb	r2, [r3]
 377:.\main.c      ****                                 Timer_Deadzone_WriteCounter(40000);
 1664              		.loc 1 377 0
 1665 0250 49F64040 		movw	r0, #40000
 1666 0254 FFF7FEFF 		bl	Timer_Deadzone_WriteCounter
 378:.\main.c      ****                                 Timer_Deadzone_Start();
 1667              		.loc 1 378 0
 1668 0258 FFF7FEFF 		bl	Timer_Deadzone_Start
 379:.\main.c      ****                                 actionDebounce = 0;
 1669              		.loc 1 379 0
 1670 025c 0023     		movs	r3, #0
 1671 025e FB80     		strh	r3, [r7, #6]	@ movhi
 380:.\main.c      ****                                 sensorsDisabled = 1;
 1672              		.loc 1 380 0
 1673 0260 2F4B     		ldr	r3, .L81+56
 1674 0262 0122     		movs	r2, #1
 1675 0264 1A60     		str	r2, [r3]
 381:.\main.c      ****                                 initTurnU();
 1676              		.loc 1 381 0
 1677 0266 FFF7FEFF 		bl	initTurnU
 382:.\main.c      ****                                 instructionCount++;
 1678              		.loc 1 382 0
 1679 026a 2B4B     		ldr	r3, .L81+48
 1680 026c 1B88     		ldrh	r3, [r3]
 1681 026e 0133     		adds	r3, r3, #1
 1682 0270 9AB2     		uxth	r2, r3
 1683 0272 294B     		ldr	r3, .L81+48
 1684 0274 1A80     		strh	r2, [r3]	@ movhi
 369:.\main.c      ****                         {
 1685              		.loc 1 369 0
 1686 0276 05E0     		b	.L52
 1687              	.L67:
 369:.\main.c      ****                         {
 1688              		.loc 1 369 0 is_stmt 0 discriminator 2
 1689 0278 04E0     		b	.L52
ARM GAS  C:\Users\Logan\AppData\Local\Temp\ccydAEbe.s 			page 38


 1690              	.L66:
 383:.\main.c      ****                             }
 384:.\main.c      ****                         }
 385:.\main.c      ****                     }
 386:.\main.c      ****                     else
 387:.\main.c      ****                     {
 388:.\main.c      ****                         inittrackLineZ();
 1691              		.loc 1 388 0 is_stmt 1
 1692 027a FFF7FEFF 		bl	inittrackLineZ
 389:.\main.c      ****                         actionDebounce = 0;
 1693              		.loc 1 389 0
 1694 027e 0023     		movs	r3, #0
 1695 0280 FB80     		strh	r3, [r7, #6]	@ movhi
 1696              	.LBE5:
 390:.\main.c      ****                     }
 391:.\main.c      ****                 }
 392:.\main.c      ****                 break;
 1697              		.loc 1 392 0
 1698 0282 FFE7     		b	.L80
 1699              	.L52:
 1700              	.L80:
 1701 0284 00BF     		nop
 1702              	.L39:
 393:.\main.c      ****         }
 394:.\main.c      ****         
 395:.\main.c      ****         switch(movement_state)
 1703              		.loc 1 395 0
 1704 0286 1F4B     		ldr	r3, .L81+28
 1705 0288 1B78     		ldrb	r3, [r3]	@ zero_extendqisi2
 1706 028a 072B     		cmp	r3, #7
 1707 028c 3FF6EBAE 		bhi	.L78
 1708 0290 01A2     		adr	r2, .L70
 1709 0292 52F823F0 		ldr	pc, [r2, r3, lsl #2]
 1710 0296 00BF     		.p2align 2
 1711              	.L70:
 1712 0298 B9020000 		.word	.L69+1
 1713 029c BF020000 		.word	.L71+1
 1714 02a0 C5020000 		.word	.L72+1
 1715 02a4 D1020000 		.word	.L73+1
 1716 02a8 D7020000 		.word	.L74+1
 1717 02ac DD020000 		.word	.L75+1
 1718 02b0 E3020000 		.word	.L76+1
 1719 02b4 CB020000 		.word	.L77+1
 1720              		.p2align 1
 1721              	.L69:
 396:.\main.c      ****         {
 397:.\main.c      ****             case DRIVE:
 398:.\main.c      ****                 driveForwards();
 1722              		.loc 1 398 0
 1723 02b8 FFF7FEFF 		bl	driveForwards
 399:.\main.c      ****             break;
 1724              		.loc 1 399 0
 1725 02bc 13E0     		b	.L68
 1726              	.L71:
 400:.\main.c      ****             case LTURN:
 401:.\main.c      ****                 turnLeft();
 1727              		.loc 1 401 0
ARM GAS  C:\Users\Logan\AppData\Local\Temp\ccydAEbe.s 			page 39


 1728 02be FFF7FEFF 		bl	turnLeft
 402:.\main.c      ****             break;
 1729              		.loc 1 402 0
 1730 02c2 10E0     		b	.L68
 1731              	.L72:
 403:.\main.c      ****             case RTURN:
 404:.\main.c      ****                 turnRight();
 1732              		.loc 1 404 0
 1733 02c4 FFF7FEFF 		bl	turnRight
 405:.\main.c      ****             break;
 1734              		.loc 1 405 0
 1735 02c8 0DE0     		b	.L68
 1736              	.L77:
 406:.\main.c      ****             case UTURN:
 407:.\main.c      ****                 turnU();
 1737              		.loc 1 407 0
 1738 02ca FFF7FEFF 		bl	turnU
 408:.\main.c      ****             break;
 1739              		.loc 1 408 0
 1740 02ce 0AE0     		b	.L68
 1741              	.L73:
 409:.\main.c      ****             case STOPPED:
 410:.\main.c      ****                 brakeMotor();
 1742              		.loc 1 410 0
 1743 02d0 FFF7FEFF 		bl	brakeMotor
 411:.\main.c      ****             break;
 1744              		.loc 1 411 0
 1745 02d4 07E0     		b	.L68
 1746              	.L74:
 412:.\main.c      ****             case TRACKING:
 413:.\main.c      ****                 trackLine();
 1747              		.loc 1 413 0
 1748 02d6 FFF7FEFF 		bl	trackLine
 414:.\main.c      ****             break;
 1749              		.loc 1 414 0
 1750 02da 04E0     		b	.L68
 1751              	.L75:
 415:.\main.c      ****             case TRACKING_U:
 416:.\main.c      ****                 trackLineU();
 1752              		.loc 1 416 0
 1753 02dc FFF7FEFF 		bl	trackLineU
 417:.\main.c      ****             break;
 1754              		.loc 1 417 0
 1755 02e0 01E0     		b	.L68
 1756              	.L76:
 418:.\main.c      ****             case TRACKING_SOFT:
 419:.\main.c      ****                 trackLineZ();
 1757              		.loc 1 419 0
 1758 02e2 FFF7FEFF 		bl	trackLineZ
 1759              	.L68:
 1760              	.LBE4:
 420:.\main.c      ****         }      
 421:.\main.c      ****     }   
 1761              		.loc 1 421 0
 1762 02e6 BEE6     		b	.L78
 1763              	.L82:
 1764              		.align	2
ARM GAS  C:\Users\Logan\AppData\Local\Temp\ccydAEbe.s 			page 40


 1765              	.L81:
 1766 02e8 00000000 		.word	isr_quad1
 1767 02ec 00000000 		.word	isr_turn_timer
 1768 02f0 00000000 		.word	button
 1769 02f4 00000000 		.word	isr_deadzone
 1770 02f8 00000000 		.word	BIN_ENABLED
 1771 02fc 00000000 		.word	BT_ENABLED
 1772 0300 00000000 		.word	track_mode
 1773 0304 00000000 		.word	movement_state
 1774 0308 00000000 		.word	initial_pos_valid
 1775 030c 00000000 		.word	system_state
 1776 0310 00000000 		.word	initial_x_pos
 1777 0314 00000000 		.word	initial_y_pos
 1778 0318 00000000 		.word	instructionCount
 1779 031c 00000000 		.word	instructions
 1780 0320 00000000 		.word	sensorsDisabled
 1781 0324 30000000 		.word	.LC3
 1782 0328 50000000 		.word	.LC4
 1783 032c 00000000 		.word	deadzone
 1784 0330 64000000 		.word	.LC5
 1785              		.cfi_endproc
 1786              	.LFE71:
 1787              		.size	main, .-main
 1788              		.section	.text.handle_rx_binary,"ax",%progbits
 1789              		.align	2
 1790              		.global	handle_rx_binary
 1791              		.thumb
 1792              		.thumb_func
 1793              		.type	handle_rx_binary, %function
 1794              	handle_rx_binary:
 1795              	.LFB72:
 422:.\main.c      **** }
 423:.\main.c      **** 
 424:.\main.c      **** /*-------------------------------------------------------------------------------------------------
 425:.\main.c      **** 
 426:.\main.c      **** void handle_rx_binary()
 427:.\main.c      **** {
 1796              		.loc 1 427 0
 1797              		.cfi_startproc
 1798              		@ args = 0, pretend = 0, frame = 32
 1799              		@ frame_needed = 1, uses_anonymous_args = 0
 1800              		@ link register save eliminated.
 1801 0000 80B4     		push	{r7}
 1802              		.cfi_def_cfa_offset 4
 1803              		.cfi_offset 7, -4
 1804 0002 89B0     		sub	sp, sp, #36
 1805              		.cfi_def_cfa_offset 40
 1806 0004 00AF     		add	r7, sp, #0
 1807              		.cfi_def_cfa_register 7
 428:.\main.c      ****     if(flag_rx == 1)
 1808              		.loc 1 428 0
 1809 0006 524B     		ldr	r3, .L103
 1810 0008 1B78     		ldrb	r3, [r3]	@ zero_extendqisi2
 1811 000a 012B     		cmp	r3, #1
 1812 000c 40F09A80 		bne	.L83
 1813              	.LBB6:
 429:.\main.c      ****     {    
ARM GAS  C:\Users\Logan\AppData\Local\Temp\ccydAEbe.s 			page 41


 430:.\main.c      ****         flag_rx = 0;
 1814              		.loc 1 430 0
 1815 0010 4F4B     		ldr	r3, .L103
 1816 0012 0022     		movs	r2, #0
 1817 0014 1A70     		strb	r2, [r3]
 431:.\main.c      ****         
 432:.\main.c      ****         uint16 packet_bytes = (packet[1] << 8) | (packet[0]);
 1818              		.loc 1 432 0
 1819 0016 4F4B     		ldr	r3, .L103+4
 1820 0018 5B78     		ldrb	r3, [r3, #1]	@ zero_extendqisi2
 1821 001a 1B02     		lsls	r3, r3, #8
 1822 001c 9AB2     		uxth	r2, r3
 1823 001e 4D4B     		ldr	r3, .L103+4
 1824 0020 1B78     		ldrb	r3, [r3]	@ zero_extendqisi2
 1825 0022 9BB2     		uxth	r3, r3
 1826 0024 1343     		orrs	r3, r3, r2
 1827 0026 9BB2     		uxth	r3, r3
 1828 0028 FB83     		strh	r3, [r7, #30]	@ movhi
 433:.\main.c      ****         char byte_packet[12];
 434:.\main.c      ****         char string_packet[12];
 435:.\main.c      ****         
 436:.\main.c      ****         switch(byteCount)
 1829              		.loc 1 436 0
 1830 002a 4B4B     		ldr	r3, .L103+8
 1831 002c 1B78     		ldrb	r3, [r3]	@ zero_extendqisi2
 1832 002e 043B     		subs	r3, r3, #4
 1833 0030 1E2B     		cmp	r3, #30
 1834 0032 00F28780 		bhi	.L83
 1835 0036 01A2     		adr	r2, .L87
 1836 0038 52F823F0 		ldr	pc, [r2, r3, lsl #2]
 1837              		.p2align 2
 1838              	.L87:
 1839 003c B9000000 		.word	.L86+1
 1840 0040 45010000 		.word	.L83+1
 1841 0044 CD000000 		.word	.L88+1
 1842 0048 45010000 		.word	.L83+1
 1843 004c D5000000 		.word	.L89+1
 1844 0050 45010000 		.word	.L83+1
 1845 0054 DD000000 		.word	.L90+1
 1846 0058 45010000 		.word	.L83+1
 1847 005c E5000000 		.word	.L91+1
 1848 0060 45010000 		.word	.L83+1
 1849 0064 ED000000 		.word	.L92+1
 1850 0068 45010000 		.word	.L83+1
 1851 006c F5000000 		.word	.L93+1
 1852 0070 45010000 		.word	.L83+1
 1853 0074 FD000000 		.word	.L94+1
 1854 0078 45010000 		.word	.L83+1
 1855 007c 05010000 		.word	.L95+1
 1856 0080 45010000 		.word	.L83+1
 1857 0084 0D010000 		.word	.L96+1
 1858 0088 45010000 		.word	.L83+1
 1859 008c 15010000 		.word	.L97+1
 1860 0090 45010000 		.word	.L83+1
 1861 0094 1D010000 		.word	.L98+1
 1862 0098 45010000 		.word	.L83+1
 1863 009c 25010000 		.word	.L99+1
ARM GAS  C:\Users\Logan\AppData\Local\Temp\ccydAEbe.s 			page 42


 1864 00a0 45010000 		.word	.L83+1
 1865 00a4 2D010000 		.word	.L100+1
 1866 00a8 45010000 		.word	.L83+1
 1867 00ac 35010000 		.word	.L101+1
 1868 00b0 45010000 		.word	.L83+1
 1869 00b4 3D010000 		.word	.L102+1
 1870              		.p2align 1
 1871              	.L86:
 437:.\main.c      ****         {
 438:.\main.c      ****             case 4:
 439:.\main.c      ****                 buffer_state.rssi = packet[0];
 1872              		.loc 1 439 0
 1873 00b8 264B     		ldr	r3, .L103+4
 1874 00ba 1B78     		ldrb	r3, [r3]	@ zero_extendqisi2
 1875 00bc DAB2     		uxtb	r2, r3
 1876 00be 274B     		ldr	r3, .L103+12
 1877 00c0 1A70     		strb	r2, [r3]
 440:.\main.c      ****                 buffer_state.index = packet[1];
 1878              		.loc 1 440 0
 1879 00c2 244B     		ldr	r3, .L103+4
 1880 00c4 5A78     		ldrb	r2, [r3, #1]	@ zero_extendqisi2
 1881 00c6 254B     		ldr	r3, .L103+12
 1882 00c8 5A70     		strb	r2, [r3, #1]
 441:.\main.c      ****             break;
 1883              		.loc 1 441 0
 1884 00ca 3BE0     		b	.L83
 1885              	.L88:
 442:.\main.c      ****             case 6:
 443:.\main.c      ****                 buffer_state.robot_xpos = packet_bytes;
 1886              		.loc 1 443 0
 1887 00cc FA8B     		ldrh	r2, [r7, #30]
 1888 00ce 234B     		ldr	r3, .L103+12
 1889 00d0 5A80     		strh	r2, [r3, #2]	@ movhi
 444:.\main.c      ****             break;
 1890              		.loc 1 444 0
 1891 00d2 37E0     		b	.L83
 1892              	.L89:
 445:.\main.c      ****             case 8:
 446:.\main.c      ****                 buffer_state.robot_ypos = packet_bytes;
 1893              		.loc 1 446 0
 1894 00d4 FA8B     		ldrh	r2, [r7, #30]
 1895 00d6 214B     		ldr	r3, .L103+12
 1896 00d8 9A80     		strh	r2, [r3, #4]	@ movhi
 447:.\main.c      ****             break;
 1897              		.loc 1 447 0
 1898 00da 33E0     		b	.L83
 1899              	.L90:
 448:.\main.c      ****             case 10:
 449:.\main.c      ****                 buffer_state.robot_orientation = packet_bytes;
 1900              		.loc 1 449 0
 1901 00dc FA8B     		ldrh	r2, [r7, #30]
 1902 00de 1F4B     		ldr	r3, .L103+12
 1903 00e0 DA80     		strh	r2, [r3, #6]	@ movhi
 450:.\main.c      ****             break;
 1904              		.loc 1 450 0
 1905 00e2 2FE0     		b	.L83
 1906              	.L91:
ARM GAS  C:\Users\Logan\AppData\Local\Temp\ccydAEbe.s 			page 43


 451:.\main.c      ****             case 12:
 452:.\main.c      ****                 buffer_state.g0_xpos = packet_bytes;
 1907              		.loc 1 452 0
 1908 00e4 FA8B     		ldrh	r2, [r7, #30]
 1909 00e6 1D4B     		ldr	r3, .L103+12
 1910 00e8 1A81     		strh	r2, [r3, #8]	@ movhi
 453:.\main.c      ****             break;
 1911              		.loc 1 453 0
 1912 00ea 2BE0     		b	.L83
 1913              	.L92:
 454:.\main.c      ****             case 14:
 455:.\main.c      ****                 buffer_state.g0_ypos = packet_bytes;
 1914              		.loc 1 455 0
 1915 00ec FA8B     		ldrh	r2, [r7, #30]
 1916 00ee 1B4B     		ldr	r3, .L103+12
 1917 00f0 5A81     		strh	r2, [r3, #10]	@ movhi
 456:.\main.c      ****             break;
 1918              		.loc 1 456 0
 1919 00f2 27E0     		b	.L83
 1920              	.L93:
 457:.\main.c      ****             case 16:
 458:.\main.c      ****                 buffer_state.g0_speed = packet_bytes;
 1921              		.loc 1 458 0
 1922 00f4 FA8B     		ldrh	r2, [r7, #30]
 1923 00f6 194B     		ldr	r3, .L103+12
 1924 00f8 9A81     		strh	r2, [r3, #12]	@ movhi
 459:.\main.c      ****             break;
 1925              		.loc 1 459 0
 1926 00fa 23E0     		b	.L83
 1927              	.L94:
 460:.\main.c      ****             case 18:
 461:.\main.c      ****                 buffer_state.g0_direction = packet_bytes;
 1928              		.loc 1 461 0
 1929 00fc FA8B     		ldrh	r2, [r7, #30]
 1930 00fe 174B     		ldr	r3, .L103+12
 1931 0100 DA81     		strh	r2, [r3, #14]	@ movhi
 462:.\main.c      ****             break;
 1932              		.loc 1 462 0
 1933 0102 1FE0     		b	.L83
 1934              	.L95:
 463:.\main.c      ****             case 20:
 464:.\main.c      ****                 buffer_state.g1_xpos = packet_bytes;
 1935              		.loc 1 464 0
 1936 0104 FA8B     		ldrh	r2, [r7, #30]
 1937 0106 154B     		ldr	r3, .L103+12
 1938 0108 1A82     		strh	r2, [r3, #16]	@ movhi
 465:.\main.c      ****             break;
 1939              		.loc 1 465 0
 1940 010a 1BE0     		b	.L83
 1941              	.L96:
 466:.\main.c      ****             case 22:
 467:.\main.c      ****                 buffer_state.g1_ypos = packet_bytes;
 1942              		.loc 1 467 0
 1943 010c FA8B     		ldrh	r2, [r7, #30]
 1944 010e 134B     		ldr	r3, .L103+12
 1945 0110 5A82     		strh	r2, [r3, #18]	@ movhi
 468:.\main.c      ****             break;
ARM GAS  C:\Users\Logan\AppData\Local\Temp\ccydAEbe.s 			page 44


 1946              		.loc 1 468 0
 1947 0112 17E0     		b	.L83
 1948              	.L97:
 469:.\main.c      ****             case 24:
 470:.\main.c      ****                 buffer_state.g1_speed = packet_bytes;
 1949              		.loc 1 470 0
 1950 0114 FA8B     		ldrh	r2, [r7, #30]
 1951 0116 114B     		ldr	r3, .L103+12
 1952 0118 9A82     		strh	r2, [r3, #20]	@ movhi
 471:.\main.c      ****             break;
 1953              		.loc 1 471 0
 1954 011a 13E0     		b	.L83
 1955              	.L98:
 472:.\main.c      ****             case 26:
 473:.\main.c      ****                 buffer_state.g1_direction = packet_bytes;
 1956              		.loc 1 473 0
 1957 011c FA8B     		ldrh	r2, [r7, #30]
 1958 011e 0F4B     		ldr	r3, .L103+12
 1959 0120 DA82     		strh	r2, [r3, #22]	@ movhi
 474:.\main.c      ****             break;
 1960              		.loc 1 474 0
 1961 0122 0FE0     		b	.L83
 1962              	.L99:
 475:.\main.c      ****             case 28:
 476:.\main.c      ****                 buffer_state.g2_xpos = packet_bytes;
 1963              		.loc 1 476 0
 1964 0124 FA8B     		ldrh	r2, [r7, #30]
 1965 0126 0D4B     		ldr	r3, .L103+12
 1966 0128 1A83     		strh	r2, [r3, #24]	@ movhi
 477:.\main.c      ****             break;
 1967              		.loc 1 477 0
 1968 012a 0BE0     		b	.L83
 1969              	.L100:
 478:.\main.c      ****             case 30:
 479:.\main.c      ****                 buffer_state.g2_ypos = packet_bytes;
 1970              		.loc 1 479 0
 1971 012c FA8B     		ldrh	r2, [r7, #30]
 1972 012e 0B4B     		ldr	r3, .L103+12
 1973 0130 5A83     		strh	r2, [r3, #26]	@ movhi
 480:.\main.c      ****             break;
 1974              		.loc 1 480 0
 1975 0132 07E0     		b	.L83
 1976              	.L101:
 481:.\main.c      ****             case 32:
 482:.\main.c      ****                 buffer_state.g2_speed = packet_bytes;
 1977              		.loc 1 482 0
 1978 0134 FA8B     		ldrh	r2, [r7, #30]
 1979 0136 094B     		ldr	r3, .L103+12
 1980 0138 9A83     		strh	r2, [r3, #28]	@ movhi
 483:.\main.c      ****             break;
 1981              		.loc 1 483 0
 1982 013a 03E0     		b	.L83
 1983              	.L102:
 484:.\main.c      ****             case 34:
 485:.\main.c      ****                 buffer_state.g2_direction = packet_bytes;
 1984              		.loc 1 485 0
 1985 013c FA8B     		ldrh	r2, [r7, #30]
ARM GAS  C:\Users\Logan\AppData\Local\Temp\ccydAEbe.s 			page 45


 1986 013e 074B     		ldr	r3, .L103+12
 1987 0140 DA83     		strh	r2, [r3, #30]	@ movhi
 486:.\main.c      ****             break;
 1988              		.loc 1 486 0
 1989 0142 00BF     		nop
 1990              	.L83:
 1991              	.LBE6:
 487:.\main.c      ****         }
 488:.\main.c      ****     }
 489:.\main.c      **** }
 1992              		.loc 1 489 0
 1993 0144 2437     		adds	r7, r7, #36
 1994              		.cfi_def_cfa_offset 4
 1995 0146 BD46     		mov	sp, r7
 1996              		.cfi_def_cfa_register 13
 1997              		@ sp needed
 1998 0148 5DF8047B 		ldr	r7, [sp], #4
 1999              		.cfi_restore 7
 2000              		.cfi_def_cfa_offset 0
 2001 014c 7047     		bx	lr
 2002              	.L104:
 2003 014e 00BF     		.align	2
 2004              	.L103:
 2005 0150 00000000 		.word	flag_rx
 2006 0154 00000000 		.word	packet
 2007 0158 00000000 		.word	byteCount
 2008 015c 00000000 		.word	buffer_state
 2009              		.cfi_endproc
 2010              	.LFE72:
 2011              		.size	handle_rx_binary, .-handle_rx_binary
 2012              		.section	.text.setLeftDir,"ax",%progbits
 2013              		.align	2
 2014              		.global	setLeftDir
 2015              		.thumb
 2016              		.thumb_func
 2017              		.type	setLeftDir, %function
 2018              	setLeftDir:
 2019              	.LFB73:
 490:.\main.c      **** 
 491:.\main.c      **** void setLeftDir(uint8 dir)
 492:.\main.c      **** {
 2020              		.loc 1 492 0
 2021              		.cfi_startproc
 2022              		@ args = 0, pretend = 0, frame = 8
 2023              		@ frame_needed = 1, uses_anonymous_args = 0
 2024 0000 80B5     		push	{r7, lr}
 2025              		.cfi_def_cfa_offset 8
 2026              		.cfi_offset 7, -8
 2027              		.cfi_offset 14, -4
 2028 0002 82B0     		sub	sp, sp, #8
 2029              		.cfi_def_cfa_offset 16
 2030 0004 00AF     		add	r7, sp, #0
 2031              		.cfi_def_cfa_register 7
 2032 0006 0346     		mov	r3, r0
 2033 0008 FB71     		strb	r3, [r7, #7]
 493:.\main.c      ****     M2_IN2_Write(dir);
 2034              		.loc 1 493 0
ARM GAS  C:\Users\Logan\AppData\Local\Temp\ccydAEbe.s 			page 46


 2035 000a FB79     		ldrb	r3, [r7, #7]	@ zero_extendqisi2
 2036 000c 1846     		mov	r0, r3
 2037 000e FFF7FEFF 		bl	M2_IN2_Write
 494:.\main.c      **** }
 2038              		.loc 1 494 0
 2039 0012 0837     		adds	r7, r7, #8
 2040              		.cfi_def_cfa_offset 8
 2041 0014 BD46     		mov	sp, r7
 2042              		.cfi_def_cfa_register 13
 2043              		@ sp needed
 2044 0016 80BD     		pop	{r7, pc}
 2045              		.cfi_endproc
 2046              	.LFE73:
 2047              		.size	setLeftDir, .-setLeftDir
 2048              		.section	.text.setRightDir,"ax",%progbits
 2049              		.align	2
 2050              		.global	setRightDir
 2051              		.thumb
 2052              		.thumb_func
 2053              		.type	setRightDir, %function
 2054              	setRightDir:
 2055              	.LFB74:
 495:.\main.c      **** 
 496:.\main.c      **** void setRightDir(uint8 dir)
 497:.\main.c      **** {
 2056              		.loc 1 497 0
 2057              		.cfi_startproc
 2058              		@ args = 0, pretend = 0, frame = 8
 2059              		@ frame_needed = 1, uses_anonymous_args = 0
 2060 0000 80B5     		push	{r7, lr}
 2061              		.cfi_def_cfa_offset 8
 2062              		.cfi_offset 7, -8
 2063              		.cfi_offset 14, -4
 2064 0002 82B0     		sub	sp, sp, #8
 2065              		.cfi_def_cfa_offset 16
 2066 0004 00AF     		add	r7, sp, #0
 2067              		.cfi_def_cfa_register 7
 2068 0006 0346     		mov	r3, r0
 2069 0008 FB71     		strb	r3, [r7, #7]
 498:.\main.c      ****     M1_IN2_Write(dir);
 2070              		.loc 1 498 0
 2071 000a FB79     		ldrb	r3, [r7, #7]	@ zero_extendqisi2
 2072 000c 1846     		mov	r0, r3
 2073 000e FFF7FEFF 		bl	M1_IN2_Write
 499:.\main.c      **** }
 2074              		.loc 1 499 0
 2075 0012 0837     		adds	r7, r7, #8
 2076              		.cfi_def_cfa_offset 8
 2077 0014 BD46     		mov	sp, r7
 2078              		.cfi_def_cfa_register 13
 2079              		@ sp needed
 2080 0016 80BD     		pop	{r7, pc}
 2081              		.cfi_endproc
 2082              	.LFE74:
 2083              		.size	setRightDir, .-setRightDir
 2084              		.section	.rodata
 2085              		.align	2
ARM GAS  C:\Users\Logan\AppData\Local\Temp\ccydAEbe.s 			page 47


 2086              	.LC6:
 2087 0080 6469723A 		.ascii	"dir: %d\015\012\000"
 2087      2025640D 
 2087      0A00
 2088              		.section	.text.reverseDirection,"ax",%progbits
 2089              		.align	2
 2090              		.global	reverseDirection
 2091              		.thumb
 2092              		.thumb_func
 2093              		.type	reverseDirection, %function
 2094              	reverseDirection:
 2095              	.LFB75:
 500:.\main.c      **** 
 501:.\main.c      **** void reverseDirection()
 502:.\main.c      **** {
 2096              		.loc 1 502 0
 2097              		.cfi_startproc
 2098              		@ args = 0, pretend = 0, frame = 16
 2099              		@ frame_needed = 1, uses_anonymous_args = 0
 2100 0000 80B5     		push	{r7, lr}
 2101              		.cfi_def_cfa_offset 8
 2102              		.cfi_offset 7, -8
 2103              		.cfi_offset 14, -4
 2104 0002 84B0     		sub	sp, sp, #16
 2105              		.cfi_def_cfa_offset 24
 2106 0004 00AF     		add	r7, sp, #0
 2107              		.cfi_def_cfa_register 7
 503:.\main.c      ****     direction = !direction;
 2108              		.loc 1 503 0
 2109 0006 114B     		ldr	r3, .L108
 2110 0008 1B78     		ldrb	r3, [r3]	@ zero_extendqisi2
 2111 000a 002B     		cmp	r3, #0
 2112 000c 0CBF     		ite	eq
 2113 000e 0123     		moveq	r3, #1
 2114 0010 0023     		movne	r3, #0
 2115 0012 DBB2     		uxtb	r3, r3
 2116 0014 1A46     		mov	r2, r3
 2117 0016 0D4B     		ldr	r3, .L108
 2118 0018 1A70     		strb	r2, [r3]
 504:.\main.c      ****     setLeftDir(direction);
 2119              		.loc 1 504 0
 2120 001a 0C4B     		ldr	r3, .L108
 2121 001c 1B78     		ldrb	r3, [r3]	@ zero_extendqisi2
 2122 001e 1846     		mov	r0, r3
 2123 0020 FFF7FEFF 		bl	setLeftDir
 505:.\main.c      ****     setRightDir(direction);
 2124              		.loc 1 505 0
 2125 0024 094B     		ldr	r3, .L108
 2126 0026 1B78     		ldrb	r3, [r3]	@ zero_extendqisi2
 2127 0028 1846     		mov	r0, r3
 2128 002a FFF7FEFF 		bl	setRightDir
 506:.\main.c      ****     char mes[16];
 507:.\main.c      ****      sprintf(mes, "dir: %d\r\n", direction);
 2129              		.loc 1 507 0
 2130 002e 074B     		ldr	r3, .L108
 2131 0030 1B78     		ldrb	r3, [r3]	@ zero_extendqisi2
 2132 0032 1A46     		mov	r2, r3
ARM GAS  C:\Users\Logan\AppData\Local\Temp\ccydAEbe.s 			page 48


 2133 0034 3B46     		mov	r3, r7
 2134 0036 1846     		mov	r0, r3
 2135 0038 0549     		ldr	r1, .L108+4
 2136 003a FFF7FEFF 		bl	sprintf
 508:.\main.c      ****     UART_PutString(mes);
 2137              		.loc 1 508 0
 2138 003e 3B46     		mov	r3, r7
 2139 0040 1846     		mov	r0, r3
 2140 0042 FFF7FEFF 		bl	UART_PutString
 509:.\main.c      **** }
 2141              		.loc 1 509 0
 2142 0046 1037     		adds	r7, r7, #16
 2143              		.cfi_def_cfa_offset 8
 2144 0048 BD46     		mov	sp, r7
 2145              		.cfi_def_cfa_register 13
 2146              		@ sp needed
 2147 004a 80BD     		pop	{r7, pc}
 2148              	.L109:
 2149              		.align	2
 2150              	.L108:
 2151 004c 00000000 		.word	direction
 2152 0050 80000000 		.word	.LC6
 2153              		.cfi_endproc
 2154              	.LFE75:
 2155              		.size	reverseDirection, .-reverseDirection
 2156              		.global	__aeabi_dcmplt
 2157              		.global	__aeabi_d2iz
 2158              		.section	.text.setSpeed,"ax",%progbits
 2159              		.align	2
 2160              		.global	setSpeed
 2161              		.thumb
 2162              		.thumb_func
 2163              		.type	setSpeed, %function
 2164              	setSpeed:
 2165              	.LFB76:
 510:.\main.c      **** 
 511:.\main.c      **** void setSpeed(double left, double right){
 2166              		.loc 1 511 0
 2167              		.cfi_startproc
 2168              		@ args = 0, pretend = 0, frame = 24
 2169              		@ frame_needed = 1, uses_anonymous_args = 0
 2170 0000 80B5     		push	{r7, lr}
 2171              		.cfi_def_cfa_offset 8
 2172              		.cfi_offset 7, -8
 2173              		.cfi_offset 14, -4
 2174 0002 86B0     		sub	sp, sp, #24
 2175              		.cfi_def_cfa_offset 32
 2176 0004 00AF     		add	r7, sp, #0
 2177              		.cfi_def_cfa_register 7
 2178 0006 C7E90201 		strd	r0, [r7, #8]
 2179 000a C7E90023 		strd	r2, [r7]
 512:.\main.c      ****     if(right < 0.0)
 2180              		.loc 1 512 0
 2181 000e D7E90001 		ldrd	r0, [r7]
 2182 0012 4FF00002 		mov	r2, #0
 2183 0016 4FF00003 		mov	r3, #0
 2184 001a FFF7FEFF 		bl	__aeabi_dcmplt
ARM GAS  C:\Users\Logan\AppData\Local\Temp\ccydAEbe.s 			page 49


 2185 001e 0346     		mov	r3, r0
 2186 0020 002B     		cmp	r3, #0
 2187 0022 10D0     		beq	.L119
 513:.\main.c      ****     {
 514:.\main.c      ****         //char mes[16];
 515:.\main.c      ****        // sprintf(mes, "right dir: %d\r\n", !direction);
 516:.\main.c      ****        // UART_PutString(mes);
 517:.\main.c      ****         setRightDir(!direction);
 2188              		.loc 1 517 0
 2189 0024 304B     		ldr	r3, .L121+8
 2190 0026 1B78     		ldrb	r3, [r3]	@ zero_extendqisi2
 2191 0028 002B     		cmp	r3, #0
 2192 002a 0CBF     		ite	eq
 2193 002c 0123     		moveq	r3, #1
 2194 002e 0023     		movne	r3, #0
 2195 0030 DBB2     		uxtb	r3, r3
 2196 0032 1846     		mov	r0, r3
 2197 0034 FFF7FEFF 		bl	setRightDir
 518:.\main.c      ****         right = -right;
 2198              		.loc 1 518 0
 2199 0038 3B68     		ldr	r3, [r7]
 2200 003a 3B60     		str	r3, [r7]
 2201 003c 7B68     		ldr	r3, [r7, #4]
 2202 003e 83F00043 		eor	r3, r3, #-2147483648
 2203 0042 7B60     		str	r3, [r7, #4]
 2204 0044 04E0     		b	.L113
 2205              	.L119:
 519:.\main.c      ****     }
 520:.\main.c      ****     else setRightDir(direction);
 2206              		.loc 1 520 0
 2207 0046 284B     		ldr	r3, .L121+8
 2208 0048 1B78     		ldrb	r3, [r3]	@ zero_extendqisi2
 2209 004a 1846     		mov	r0, r3
 2210 004c FFF7FEFF 		bl	setRightDir
 2211              	.L113:
 521:.\main.c      ****     
 522:.\main.c      ****     if(left < 0.0)
 2212              		.loc 1 522 0
 2213 0050 D7E90201 		ldrd	r0, [r7, #8]
 2214 0054 4FF00002 		mov	r2, #0
 2215 0058 4FF00003 		mov	r3, #0
 2216 005c FFF7FEFF 		bl	__aeabi_dcmplt
 2217 0060 0346     		mov	r3, r0
 2218 0062 002B     		cmp	r3, #0
 2219 0064 10D0     		beq	.L120
 523:.\main.c      ****     {
 524:.\main.c      ****        // char mes[16];
 525:.\main.c      ****         //sprintf(mes, "left dir: %d\r\n", !direction);
 526:.\main.c      ****         //UART_PutString(mes);
 527:.\main.c      ****         setLeftDir(!direction);
 2220              		.loc 1 527 0
 2221 0066 204B     		ldr	r3, .L121+8
 2222 0068 1B78     		ldrb	r3, [r3]	@ zero_extendqisi2
 2223 006a 002B     		cmp	r3, #0
 2224 006c 0CBF     		ite	eq
 2225 006e 0123     		moveq	r3, #1
 2226 0070 0023     		movne	r3, #0
ARM GAS  C:\Users\Logan\AppData\Local\Temp\ccydAEbe.s 			page 50


 2227 0072 DBB2     		uxtb	r3, r3
 2228 0074 1846     		mov	r0, r3
 2229 0076 FFF7FEFF 		bl	setLeftDir
 528:.\main.c      ****         left = -left;
 2230              		.loc 1 528 0
 2231 007a BB68     		ldr	r3, [r7, #8]
 2232 007c BB60     		str	r3, [r7, #8]
 2233 007e FB68     		ldr	r3, [r7, #12]
 2234 0080 83F00043 		eor	r3, r3, #-2147483648
 2235 0084 FB60     		str	r3, [r7, #12]
 2236 0086 04E0     		b	.L116
 2237              	.L120:
 529:.\main.c      ****     }
 530:.\main.c      ****     else setLeftDir(direction);
 2238              		.loc 1 530 0
 2239 0088 174B     		ldr	r3, .L121+8
 2240 008a 1B78     		ldrb	r3, [r3]	@ zero_extendqisi2
 2241 008c 1846     		mov	r0, r3
 2242 008e FFF7FEFF 		bl	setLeftDir
 2243              	.L116:
 531:.\main.c      ****     
 532:.\main.c      ****     int16 countsLeft = left/QUAD_RATIO;
 2244              		.loc 1 532 0
 2245 0092 D7E90201 		ldrd	r0, [r7, #8]
 2246 0096 12A3     		adr	r3, .L121
 2247 0098 D3E90023 		ldrd	r2, [r3]
 2248 009c FFF7FEFF 		bl	__aeabi_ddiv
 2249 00a0 0246     		mov	r2, r0
 2250 00a2 0B46     		mov	r3, r1
 2251 00a4 1046     		mov	r0, r2
 2252 00a6 1946     		mov	r1, r3
 2253 00a8 FFF7FEFF 		bl	__aeabi_d2iz
 2254 00ac 0346     		mov	r3, r0
 2255 00ae FB82     		strh	r3, [r7, #22]	@ movhi
 533:.\main.c      ****     int16 countsRight = right/QUAD_RATIO;
 2256              		.loc 1 533 0
 2257 00b0 D7E90001 		ldrd	r0, [r7]
 2258 00b4 0AA3     		adr	r3, .L121
 2259 00b6 D3E90023 		ldrd	r2, [r3]
 2260 00ba FFF7FEFF 		bl	__aeabi_ddiv
 2261 00be 0246     		mov	r2, r0
 2262 00c0 0B46     		mov	r3, r1
 2263 00c2 1046     		mov	r0, r2
 2264 00c4 1946     		mov	r1, r3
 2265 00c6 FFF7FEFF 		bl	__aeabi_d2iz
 2266 00ca 0346     		mov	r3, r0
 2267 00cc BB82     		strh	r3, [r7, #20]	@ movhi
 534:.\main.c      ****     
 535:.\main.c      ****     leftSpeedLimit = countsRight;
 2268              		.loc 1 535 0
 2269 00ce 074A     		ldr	r2, .L121+12
 2270 00d0 BB8A     		ldrh	r3, [r7, #20]	@ movhi
 2271 00d2 1380     		strh	r3, [r2]	@ movhi
 536:.\main.c      ****     rightSpeedLimit = countsLeft;
 2272              		.loc 1 536 0
 2273 00d4 064A     		ldr	r2, .L121+16
 2274 00d6 FB8A     		ldrh	r3, [r7, #22]	@ movhi
ARM GAS  C:\Users\Logan\AppData\Local\Temp\ccydAEbe.s 			page 51


 2275 00d8 1380     		strh	r3, [r2]	@ movhi
 537:.\main.c      **** }
 2276              		.loc 1 537 0
 2277 00da 1837     		adds	r7, r7, #24
 2278              		.cfi_def_cfa_offset 8
 2279 00dc BD46     		mov	sp, r7
 2280              		.cfi_def_cfa_register 13
 2281              		@ sp needed
 2282 00de 80BD     		pop	{r7, pc}
 2283              	.L122:
 2284              		.align	3
 2285              	.L121:
 2286 00e0 969526A5 		.word	-1524197994
 2287 00e4 A0DBEF3F 		.word	1072683936
 2288 00e8 00000000 		.word	direction
 2289 00ec 00000000 		.word	leftSpeedLimit
 2290 00f0 00000000 		.word	rightSpeedLimit
 2291              		.cfi_endproc
 2292              	.LFE76:
 2293              		.size	setSpeed, .-setSpeed
 2294 00f4 AFF30080 		.section	.text.brakeLeft,"ax",%progbits
 2295              		.align	2
 2296              		.global	brakeLeft
 2297              		.thumb
 2298              		.thumb_func
 2299              		.type	brakeLeft, %function
 2300              	brakeLeft:
 2301              	.LFB77:
 538:.\main.c      **** 
 539:.\main.c      **** void brakeLeft()
 540:.\main.c      **** {
 2302              		.loc 1 540 0
 2303              		.cfi_startproc
 2304              		@ args = 0, pretend = 0, frame = 0
 2305              		@ frame_needed = 1, uses_anonymous_args = 0
 2306 0000 80B5     		push	{r7, lr}
 2307              		.cfi_def_cfa_offset 8
 2308              		.cfi_offset 7, -8
 2309              		.cfi_offset 14, -4
 2310 0002 00AF     		add	r7, sp, #0
 2311              		.cfi_def_cfa_register 7
 541:.\main.c      ****     PWM_1_WriteCompare(0);
 2312              		.loc 1 541 0
 2313 0004 0020     		movs	r0, #0
 2314 0006 FFF7FEFF 		bl	PWM_1_WriteCompare
 542:.\main.c      ****     left_duty_cycle = 0;
 2315              		.loc 1 542 0
 2316 000a 024B     		ldr	r3, .L124
 2317 000c 0022     		movs	r2, #0
 2318 000e 1A80     		strh	r2, [r3]	@ movhi
 543:.\main.c      **** }
 2319              		.loc 1 543 0
 2320 0010 80BD     		pop	{r7, pc}
 2321              	.L125:
 2322 0012 00BF     		.align	2
 2323              	.L124:
 2324 0014 00000000 		.word	left_duty_cycle
ARM GAS  C:\Users\Logan\AppData\Local\Temp\ccydAEbe.s 			page 52


 2325              		.cfi_endproc
 2326              	.LFE77:
 2327              		.size	brakeLeft, .-brakeLeft
 2328              		.section	.text.brakeRight,"ax",%progbits
 2329              		.align	2
 2330              		.global	brakeRight
 2331              		.thumb
 2332              		.thumb_func
 2333              		.type	brakeRight, %function
 2334              	brakeRight:
 2335              	.LFB78:
 544:.\main.c      **** 
 545:.\main.c      **** void brakeRight()
 546:.\main.c      **** {
 2336              		.loc 1 546 0
 2337              		.cfi_startproc
 2338              		@ args = 0, pretend = 0, frame = 0
 2339              		@ frame_needed = 1, uses_anonymous_args = 0
 2340 0000 80B5     		push	{r7, lr}
 2341              		.cfi_def_cfa_offset 8
 2342              		.cfi_offset 7, -8
 2343              		.cfi_offset 14, -4
 2344 0002 00AF     		add	r7, sp, #0
 2345              		.cfi_def_cfa_register 7
 547:.\main.c      ****      PWM_2_WriteCompare(0);
 2346              		.loc 1 547 0
 2347 0004 0020     		movs	r0, #0
 2348 0006 FFF7FEFF 		bl	PWM_2_WriteCompare
 548:.\main.c      ****      right_duty_cycle = 0;
 2349              		.loc 1 548 0
 2350 000a 024B     		ldr	r3, .L127
 2351 000c 0022     		movs	r2, #0
 2352 000e 1A80     		strh	r2, [r3]	@ movhi
 549:.\main.c      **** }
 2353              		.loc 1 549 0
 2354 0010 80BD     		pop	{r7, pc}
 2355              	.L128:
 2356 0012 00BF     		.align	2
 2357              	.L127:
 2358 0014 00000000 		.word	right_duty_cycle
 2359              		.cfi_endproc
 2360              	.LFE78:
 2361              		.size	brakeRight, .-brakeRight
 2362              		.section	.text.brakeMotor,"ax",%progbits
 2363              		.align	2
 2364              		.global	brakeMotor
 2365              		.thumb
 2366              		.thumb_func
 2367              		.type	brakeMotor, %function
 2368              	brakeMotor:
 2369              	.LFB79:
 550:.\main.c      **** 
 551:.\main.c      **** void brakeMotor(){
 2370              		.loc 1 551 0
 2371              		.cfi_startproc
 2372              		@ args = 0, pretend = 0, frame = 0
 2373              		@ frame_needed = 1, uses_anonymous_args = 0
ARM GAS  C:\Users\Logan\AppData\Local\Temp\ccydAEbe.s 			page 53


 2374 0000 80B5     		push	{r7, lr}
 2375              		.cfi_def_cfa_offset 8
 2376              		.cfi_offset 7, -8
 2377              		.cfi_offset 14, -4
 2378 0002 00AF     		add	r7, sp, #0
 2379              		.cfi_def_cfa_register 7
 552:.\main.c      ****     setSpeed(0, 0);
 2380              		.loc 1 552 0
 2381 0004 4FF00000 		mov	r0, #0
 2382 0008 4FF00001 		mov	r1, #0
 2383 000c 4FF00002 		mov	r2, #0
 2384 0010 4FF00003 		mov	r3, #0
 2385 0014 FFF7FEFF 		bl	setSpeed
 553:.\main.c      ****     brakeLeft();
 2386              		.loc 1 553 0
 2387 0018 FFF7FEFF 		bl	brakeLeft
 554:.\main.c      ****     brakeRight();
 2388              		.loc 1 554 0
 2389 001c FFF7FEFF 		bl	brakeRight
 555:.\main.c      **** }
 2390              		.loc 1 555 0
 2391 0020 80BD     		pop	{r7, pc}
 2392              		.cfi_endproc
 2393              	.LFE79:
 2394              		.size	brakeMotor, .-brakeMotor
 2395 0022 00BF     		.section	.text.driveForwards,"ax",%progbits
 2396              		.align	2
 2397              		.global	driveForwards
 2398              		.thumb
 2399              		.thumb_func
 2400              		.type	driveForwards, %function
 2401              	driveForwards:
 2402              	.LFB80:
 556:.\main.c      **** 
 557:.\main.c      **** void driveForwards()
 558:.\main.c      **** {
 2403              		.loc 1 558 0
 2404              		.cfi_startproc
 2405              		@ args = 0, pretend = 0, frame = 0
 2406              		@ frame_needed = 1, uses_anonymous_args = 0
 2407 0000 80B5     		push	{r7, lr}
 2408              		.cfi_def_cfa_offset 8
 2409              		.cfi_offset 7, -8
 2410              		.cfi_offset 14, -4
 2411 0002 00AF     		add	r7, sp, #0
 2412              		.cfi_def_cfa_register 7
 559:.\main.c      ****     setSpeed(speed, speed);
 2413              		.loc 1 559 0
 2414 0004 044B     		ldr	r3, .L131
 2415 0006 D3E90001 		ldrd	r0, [r3]
 2416 000a 034B     		ldr	r3, .L131
 2417 000c D3E90023 		ldrd	r2, [r3]
 2418 0010 FFF7FEFF 		bl	setSpeed
 560:.\main.c      **** }
 2419              		.loc 1 560 0
 2420 0014 80BD     		pop	{r7, pc}
 2421              	.L132:
ARM GAS  C:\Users\Logan\AppData\Local\Temp\ccydAEbe.s 			page 54


 2422 0016 00BF     		.align	2
 2423              	.L131:
 2424 0018 00000000 		.word	speed
 2425              		.cfi_endproc
 2426              	.LFE80:
 2427              		.size	driveForwards, .-driveForwards
 2428              		.global	__aeabi_dadd
 2429              		.section	.text.turnRight,"ax",%progbits
 2430              		.align	2
 2431              		.global	turnRight
 2432              		.thumb
 2433              		.thumb_func
 2434              		.type	turnRight, %function
 2435              	turnRight:
 2436              	.LFB81:
 561:.\main.c      **** 
 562:.\main.c      **** void turnRight()
 563:.\main.c      **** {
 2437              		.loc 1 563 0
 2438              		.cfi_startproc
 2439              		@ args = 0, pretend = 0, frame = 0
 2440              		@ frame_needed = 1, uses_anonymous_args = 0
 2441 0000 80B5     		push	{r7, lr}
 2442              		.cfi_def_cfa_offset 8
 2443              		.cfi_offset 7, -8
 2444              		.cfi_offset 14, -4
 2445 0002 00AF     		add	r7, sp, #0
 2446              		.cfi_def_cfa_register 7
 564:.\main.c      ****     setSpeed(0,speed*2.0);
 2447              		.loc 1 564 0
 2448 0004 074B     		ldr	r3, .L134
 2449 0006 D3E90023 		ldrd	r2, [r3]
 2450 000a 1046     		mov	r0, r2
 2451 000c 1946     		mov	r1, r3
 2452 000e FFF7FEFF 		bl	__aeabi_dadd
 2453 0012 0246     		mov	r2, r0
 2454 0014 0B46     		mov	r3, r1
 2455 0016 4FF00000 		mov	r0, #0
 2456 001a 4FF00001 		mov	r1, #0
 2457 001e FFF7FEFF 		bl	setSpeed
 565:.\main.c      **** }
 2458              		.loc 1 565 0
 2459 0022 80BD     		pop	{r7, pc}
 2460              	.L135:
 2461              		.align	2
 2462              	.L134:
 2463 0024 00000000 		.word	speed
 2464              		.cfi_endproc
 2465              	.LFE81:
 2466              		.size	turnRight, .-turnRight
 2467              		.section	.text.turnLeft,"ax",%progbits
 2468              		.align	2
 2469              		.global	turnLeft
 2470              		.thumb
 2471              		.thumb_func
 2472              		.type	turnLeft, %function
 2473              	turnLeft:
ARM GAS  C:\Users\Logan\AppData\Local\Temp\ccydAEbe.s 			page 55


 2474              	.LFB82:
 566:.\main.c      **** 
 567:.\main.c      **** void turnLeft()
 568:.\main.c      **** {
 2475              		.loc 1 568 0
 2476              		.cfi_startproc
 2477              		@ args = 0, pretend = 0, frame = 0
 2478              		@ frame_needed = 1, uses_anonymous_args = 0
 2479 0000 80B5     		push	{r7, lr}
 2480              		.cfi_def_cfa_offset 8
 2481              		.cfi_offset 7, -8
 2482              		.cfi_offset 14, -4
 2483 0002 00AF     		add	r7, sp, #0
 2484              		.cfi_def_cfa_register 7
 569:.\main.c      ****     setSpeed(speed*2.0,0);
 2485              		.loc 1 569 0
 2486 0004 084B     		ldr	r3, .L137
 2487 0006 D3E90023 		ldrd	r2, [r3]
 2488 000a 1046     		mov	r0, r2
 2489 000c 1946     		mov	r1, r3
 2490 000e FFF7FEFF 		bl	__aeabi_dadd
 2491 0012 0246     		mov	r2, r0
 2492 0014 0B46     		mov	r3, r1
 2493 0016 1046     		mov	r0, r2
 2494 0018 1946     		mov	r1, r3
 2495 001a 4FF00002 		mov	r2, #0
 2496 001e 4FF00003 		mov	r3, #0
 2497 0022 FFF7FEFF 		bl	setSpeed
 570:.\main.c      **** }
 2498              		.loc 1 570 0
 2499 0026 80BD     		pop	{r7, pc}
 2500              	.L138:
 2501              		.align	2
 2502              	.L137:
 2503 0028 00000000 		.word	speed
 2504              		.cfi_endproc
 2505              	.LFE82:
 2506              		.size	turnLeft, .-turnLeft
 2507              		.section	.text.turnU,"ax",%progbits
 2508              		.align	2
 2509              		.global	turnU
 2510              		.thumb
 2511              		.thumb_func
 2512              		.type	turnU, %function
 2513              	turnU:
 2514              	.LFB83:
 571:.\main.c      **** 
 572:.\main.c      **** void turnU()
 573:.\main.c      **** {
 2515              		.loc 1 573 0
 2516              		.cfi_startproc
 2517              		@ args = 0, pretend = 0, frame = 0
 2518              		@ frame_needed = 1, uses_anonymous_args = 0
 2519 0000 B0B5     		push	{r4, r5, r7, lr}
 2520              		.cfi_def_cfa_offset 16
 2521              		.cfi_offset 4, -16
 2522              		.cfi_offset 5, -12
ARM GAS  C:\Users\Logan\AppData\Local\Temp\ccydAEbe.s 			page 56


 2523              		.cfi_offset 7, -8
 2524              		.cfi_offset 14, -4
 2525 0002 00AF     		add	r7, sp, #0
 2526              		.cfi_def_cfa_register 7
 574:.\main.c      ****     setSpeed(-speed*2.0,speed*2.0);
 2527              		.loc 1 574 0
 2528 0004 0E4B     		ldr	r3, .L140
 2529 0006 D3E90023 		ldrd	r2, [r3]
 2530 000a 1446     		mov	r4, r2
 2531 000c 83F00045 		eor	r5, r3, #-2147483648
 2532 0010 2046     		mov	r0, r4
 2533 0012 2946     		mov	r1, r5
 2534 0014 2246     		mov	r2, r4
 2535 0016 2B46     		mov	r3, r5
 2536 0018 FFF7FEFF 		bl	__aeabi_dadd
 2537 001c 0246     		mov	r2, r0
 2538 001e 0B46     		mov	r3, r1
 2539 0020 1446     		mov	r4, r2
 2540 0022 1D46     		mov	r5, r3
 2541 0024 064B     		ldr	r3, .L140
 2542 0026 D3E90023 		ldrd	r2, [r3]
 2543 002a 1046     		mov	r0, r2
 2544 002c 1946     		mov	r1, r3
 2545 002e FFF7FEFF 		bl	__aeabi_dadd
 2546 0032 0246     		mov	r2, r0
 2547 0034 0B46     		mov	r3, r1
 2548 0036 2046     		mov	r0, r4
 2549 0038 2946     		mov	r1, r5
 2550 003a FFF7FEFF 		bl	setSpeed
 575:.\main.c      **** }
 2551              		.loc 1 575 0
 2552 003e B0BD     		pop	{r4, r5, r7, pc}
 2553              	.L141:
 2554              		.align	2
 2555              	.L140:
 2556 0040 00000000 		.word	speed
 2557              		.cfi_endproc
 2558              	.LFE83:
 2559              		.size	turnU, .-turnU
 2560              		.section	.text.initTurnLeft,"ax",%progbits
 2561              		.align	2
 2562              		.global	initTurnLeft
 2563              		.thumb
 2564              		.thumb_func
 2565              		.type	initTurnLeft, %function
 2566              	initTurnLeft:
 2567              	.LFB84:
 576:.\main.c      **** 
 577:.\main.c      **** void initTurnLeft(){
 2568              		.loc 1 577 0
 2569              		.cfi_startproc
 2570              		@ args = 0, pretend = 0, frame = 0
 2571              		@ frame_needed = 1, uses_anonymous_args = 0
 2572 0000 80B5     		push	{r7, lr}
 2573              		.cfi_def_cfa_offset 8
 2574              		.cfi_offset 7, -8
 2575              		.cfi_offset 14, -4
ARM GAS  C:\Users\Logan\AppData\Local\Temp\ccydAEbe.s 			page 57


 2576 0002 00AF     		add	r7, sp, #0
 2577              		.cfi_def_cfa_register 7
 578:.\main.c      ****     Timer_2_Stop();
 2578              		.loc 1 578 0
 2579 0004 FFF7FEFF 		bl	Timer_2_Stop
 579:.\main.c      ****     prev_movement_state = movement_state;
 2580              		.loc 1 579 0
 2581 0008 084B     		ldr	r3, .L143
 2582 000a 1A78     		ldrb	r2, [r3]	@ zero_extendqisi2
 2583 000c 084B     		ldr	r3, .L143+4
 2584 000e 1A70     		strb	r2, [r3]
 580:.\main.c      ****     movement_state = LTURN;
 2585              		.loc 1 580 0
 2586 0010 064B     		ldr	r3, .L143
 2587 0012 0122     		movs	r2, #1
 2588 0014 1A70     		strb	r2, [r3]
 581:.\main.c      ****     brakeLeft();
 2589              		.loc 1 581 0
 2590 0016 FFF7FEFF 		bl	brakeLeft
 582:.\main.c      ****     start_turn_count = QuadDec_M2_GetCounter();
 2591              		.loc 1 582 0
 2592 001a FFF7FEFF 		bl	QuadDec_M2_GetCounter
 2593 001e 0346     		mov	r3, r0
 2594 0020 1A46     		mov	r2, r3
 2595 0022 044B     		ldr	r3, .L143+8
 2596 0024 1A80     		strh	r2, [r3]	@ movhi
 583:.\main.c      ****     Timer_2_Start();
 2597              		.loc 1 583 0
 2598 0026 FFF7FEFF 		bl	Timer_2_Start
 584:.\main.c      **** }
 2599              		.loc 1 584 0
 2600 002a 80BD     		pop	{r7, pc}
 2601              	.L144:
 2602              		.align	2
 2603              	.L143:
 2604 002c 00000000 		.word	movement_state
 2605 0030 00000000 		.word	prev_movement_state
 2606 0034 00000000 		.word	start_turn_count
 2607              		.cfi_endproc
 2608              	.LFE84:
 2609              		.size	initTurnLeft, .-initTurnLeft
 2610              		.section	.text.initTurnRight,"ax",%progbits
 2611              		.align	2
 2612              		.global	initTurnRight
 2613              		.thumb
 2614              		.thumb_func
 2615              		.type	initTurnRight, %function
 2616              	initTurnRight:
 2617              	.LFB85:
 585:.\main.c      **** 
 586:.\main.c      **** void initTurnRight(){
 2618              		.loc 1 586 0
 2619              		.cfi_startproc
 2620              		@ args = 0, pretend = 0, frame = 0
 2621              		@ frame_needed = 1, uses_anonymous_args = 0
 2622 0000 80B5     		push	{r7, lr}
 2623              		.cfi_def_cfa_offset 8
ARM GAS  C:\Users\Logan\AppData\Local\Temp\ccydAEbe.s 			page 58


 2624              		.cfi_offset 7, -8
 2625              		.cfi_offset 14, -4
 2626 0002 00AF     		add	r7, sp, #0
 2627              		.cfi_def_cfa_register 7
 587:.\main.c      ****     Timer_2_Stop();
 2628              		.loc 1 587 0
 2629 0004 FFF7FEFF 		bl	Timer_2_Stop
 588:.\main.c      ****     prev_movement_state = movement_state;
 2630              		.loc 1 588 0
 2631 0008 084B     		ldr	r3, .L146
 2632 000a 1A78     		ldrb	r2, [r3]	@ zero_extendqisi2
 2633 000c 084B     		ldr	r3, .L146+4
 2634 000e 1A70     		strb	r2, [r3]
 589:.\main.c      ****     movement_state = RTURN;
 2635              		.loc 1 589 0
 2636 0010 064B     		ldr	r3, .L146
 2637 0012 0222     		movs	r2, #2
 2638 0014 1A70     		strb	r2, [r3]
 590:.\main.c      ****     brakeRight();
 2639              		.loc 1 590 0
 2640 0016 FFF7FEFF 		bl	brakeRight
 591:.\main.c      ****     start_turn_count = QuadDec_M1_GetCounter();
 2641              		.loc 1 591 0
 2642 001a FFF7FEFF 		bl	QuadDec_M1_GetCounter
 2643 001e 0346     		mov	r3, r0
 2644 0020 1A46     		mov	r2, r3
 2645 0022 044B     		ldr	r3, .L146+8
 2646 0024 1A80     		strh	r2, [r3]	@ movhi
 592:.\main.c      ****     Timer_2_Start();
 2647              		.loc 1 592 0
 2648 0026 FFF7FEFF 		bl	Timer_2_Start
 593:.\main.c      **** }
 2649              		.loc 1 593 0
 2650 002a 80BD     		pop	{r7, pc}
 2651              	.L147:
 2652              		.align	2
 2653              	.L146:
 2654 002c 00000000 		.word	movement_state
 2655 0030 00000000 		.word	prev_movement_state
 2656 0034 00000000 		.word	start_turn_count
 2657              		.cfi_endproc
 2658              	.LFE85:
 2659              		.size	initTurnRight, .-initTurnRight
 2660              		.section	.text.initTurnU,"ax",%progbits
 2661              		.align	2
 2662              		.global	initTurnU
 2663              		.thumb
 2664              		.thumb_func
 2665              		.type	initTurnU, %function
 2666              	initTurnU:
 2667              	.LFB86:
 594:.\main.c      **** 
 595:.\main.c      **** void initTurnU(){
 2668              		.loc 1 595 0
 2669              		.cfi_startproc
 2670              		@ args = 0, pretend = 0, frame = 0
 2671              		@ frame_needed = 1, uses_anonymous_args = 0
ARM GAS  C:\Users\Logan\AppData\Local\Temp\ccydAEbe.s 			page 59


 2672 0000 80B5     		push	{r7, lr}
 2673              		.cfi_def_cfa_offset 8
 2674              		.cfi_offset 7, -8
 2675              		.cfi_offset 14, -4
 2676 0002 00AF     		add	r7, sp, #0
 2677              		.cfi_def_cfa_register 7
 596:.\main.c      ****     Timer_2_Stop();
 2678              		.loc 1 596 0
 2679 0004 FFF7FEFF 		bl	Timer_2_Stop
 597:.\main.c      ****     prev_movement_state = movement_state;
 2680              		.loc 1 597 0
 2681 0008 084B     		ldr	r3, .L149
 2682 000a 1A78     		ldrb	r2, [r3]	@ zero_extendqisi2
 2683 000c 084B     		ldr	r3, .L149+4
 2684 000e 1A70     		strb	r2, [r3]
 598:.\main.c      ****     movement_state = UTURN;
 2685              		.loc 1 598 0
 2686 0010 064B     		ldr	r3, .L149
 2687 0012 0722     		movs	r2, #7
 2688 0014 1A70     		strb	r2, [r3]
 599:.\main.c      ****     brakeMotor();
 2689              		.loc 1 599 0
 2690 0016 FFF7FEFF 		bl	brakeMotor
 600:.\main.c      ****     start_turn_count = QuadDec_M1_GetCounter();
 2691              		.loc 1 600 0
 2692 001a FFF7FEFF 		bl	QuadDec_M1_GetCounter
 2693 001e 0346     		mov	r3, r0
 2694 0020 1A46     		mov	r2, r3
 2695 0022 044B     		ldr	r3, .L149+8
 2696 0024 1A80     		strh	r2, [r3]	@ movhi
 601:.\main.c      ****     Timer_2_Start();
 2697              		.loc 1 601 0
 2698 0026 FFF7FEFF 		bl	Timer_2_Start
 602:.\main.c      **** }
 2699              		.loc 1 602 0
 2700 002a 80BD     		pop	{r7, pc}
 2701              	.L150:
 2702              		.align	2
 2703              	.L149:
 2704 002c 00000000 		.word	movement_state
 2705 0030 00000000 		.word	prev_movement_state
 2706 0034 00000000 		.word	start_turn_count
 2707              		.cfi_endproc
 2708              	.LFE86:
 2709              		.size	initTurnU, .-initTurnU
 2710              		.section	.text.initForward,"ax",%progbits
 2711              		.align	2
 2712              		.global	initForward
 2713              		.thumb
 2714              		.thumb_func
 2715              		.type	initForward, %function
 2716              	initForward:
 2717              	.LFB87:
 603:.\main.c      **** 
 604:.\main.c      **** void initForward(){
 2718              		.loc 1 604 0
 2719              		.cfi_startproc
ARM GAS  C:\Users\Logan\AppData\Local\Temp\ccydAEbe.s 			page 60


 2720              		@ args = 0, pretend = 0, frame = 0
 2721              		@ frame_needed = 1, uses_anonymous_args = 0
 2722 0000 80B5     		push	{r7, lr}
 2723              		.cfi_def_cfa_offset 8
 2724              		.cfi_offset 7, -8
 2725              		.cfi_offset 14, -4
 2726 0002 00AF     		add	r7, sp, #0
 2727              		.cfi_def_cfa_register 7
 605:.\main.c      ****     brakeMotor();
 2728              		.loc 1 605 0
 2729 0004 FFF7FEFF 		bl	brakeMotor
 606:.\main.c      ****     movement_state = DRIVE;
 2730              		.loc 1 606 0
 2731 0008 014B     		ldr	r3, .L152
 2732 000a 0022     		movs	r2, #0
 2733 000c 1A70     		strb	r2, [r3]
 607:.\main.c      **** }
 2734              		.loc 1 607 0
 2735 000e 80BD     		pop	{r7, pc}
 2736              	.L153:
 2737              		.align	2
 2738              	.L152:
 2739 0010 00000000 		.word	movement_state
 2740              		.cfi_endproc
 2741              	.LFE87:
 2742              		.size	initForward, .-initForward
 2743              		.section	.text.initBrake,"ax",%progbits
 2744              		.align	2
 2745              		.global	initBrake
 2746              		.thumb
 2747              		.thumb_func
 2748              		.type	initBrake, %function
 2749              	initBrake:
 2750              	.LFB88:
 608:.\main.c      **** 
 609:.\main.c      **** void initBrake(){
 2751              		.loc 1 609 0
 2752              		.cfi_startproc
 2753              		@ args = 0, pretend = 0, frame = 0
 2754              		@ frame_needed = 1, uses_anonymous_args = 0
 2755              		@ link register save eliminated.
 2756 0000 80B4     		push	{r7}
 2757              		.cfi_def_cfa_offset 4
 2758              		.cfi_offset 7, -4
 2759 0002 00AF     		add	r7, sp, #0
 2760              		.cfi_def_cfa_register 7
 610:.\main.c      ****     movement_state = STOPPED;
 2761              		.loc 1 610 0
 2762 0004 034B     		ldr	r3, .L155
 2763 0006 0322     		movs	r2, #3
 2764 0008 1A70     		strb	r2, [r3]
 611:.\main.c      **** }
 2765              		.loc 1 611 0
 2766 000a BD46     		mov	sp, r7
 2767              		.cfi_def_cfa_register 13
 2768              		@ sp needed
 2769 000c 5DF8047B 		ldr	r7, [sp], #4
ARM GAS  C:\Users\Logan\AppData\Local\Temp\ccydAEbe.s 			page 61


 2770              		.cfi_restore 7
 2771              		.cfi_def_cfa_offset 0
 2772 0010 7047     		bx	lr
 2773              	.L156:
 2774 0012 00BF     		.align	2
 2775              	.L155:
 2776 0014 00000000 		.word	movement_state
 2777              		.cfi_endproc
 2778              	.LFE88:
 2779              		.size	initBrake, .-initBrake
 2780              		.section	.text.initTrack,"ax",%progbits
 2781              		.align	2
 2782              		.global	initTrack
 2783              		.thumb
 2784              		.thumb_func
 2785              		.type	initTrack, %function
 2786              	initTrack:
 2787              	.LFB89:
 612:.\main.c      **** 
 613:.\main.c      **** void initTrack()
 614:.\main.c      **** {
 2788              		.loc 1 614 0
 2789              		.cfi_startproc
 2790              		@ args = 0, pretend = 0, frame = 0
 2791              		@ frame_needed = 1, uses_anonymous_args = 0
 2792              		@ link register save eliminated.
 2793 0000 80B4     		push	{r7}
 2794              		.cfi_def_cfa_offset 4
 2795              		.cfi_offset 7, -4
 2796 0002 00AF     		add	r7, sp, #0
 2797              		.cfi_def_cfa_register 7
 615:.\main.c      ****     movement_state = TRACKING;
 2798              		.loc 1 615 0
 2799 0004 034B     		ldr	r3, .L158
 2800 0006 0422     		movs	r2, #4
 2801 0008 1A70     		strb	r2, [r3]
 616:.\main.c      **** }
 2802              		.loc 1 616 0
 2803 000a BD46     		mov	sp, r7
 2804              		.cfi_def_cfa_register 13
 2805              		@ sp needed
 2806 000c 5DF8047B 		ldr	r7, [sp], #4
 2807              		.cfi_restore 7
 2808              		.cfi_def_cfa_offset 0
 2809 0010 7047     		bx	lr
 2810              	.L159:
 2811 0012 00BF     		.align	2
 2812              	.L158:
 2813 0014 00000000 		.word	movement_state
 2814              		.cfi_endproc
 2815              	.LFE89:
 2816              		.size	initTrack, .-initTrack
 2817              		.section	.text.initTrackU,"ax",%progbits
 2818              		.align	2
 2819              		.global	initTrackU
 2820              		.thumb
 2821              		.thumb_func
ARM GAS  C:\Users\Logan\AppData\Local\Temp\ccydAEbe.s 			page 62


 2822              		.type	initTrackU, %function
 2823              	initTrackU:
 2824              	.LFB90:
 617:.\main.c      **** 
 618:.\main.c      **** void initTrackU(){
 2825              		.loc 1 618 0
 2826              		.cfi_startproc
 2827              		@ args = 0, pretend = 0, frame = 0
 2828              		@ frame_needed = 1, uses_anonymous_args = 0
 2829              		@ link register save eliminated.
 2830 0000 80B4     		push	{r7}
 2831              		.cfi_def_cfa_offset 4
 2832              		.cfi_offset 7, -4
 2833 0002 00AF     		add	r7, sp, #0
 2834              		.cfi_def_cfa_register 7
 619:.\main.c      ****     movement_state = TRACKING_U;
 2835              		.loc 1 619 0
 2836 0004 034B     		ldr	r3, .L161
 2837 0006 0522     		movs	r2, #5
 2838 0008 1A70     		strb	r2, [r3]
 620:.\main.c      **** }
 2839              		.loc 1 620 0
 2840 000a BD46     		mov	sp, r7
 2841              		.cfi_def_cfa_register 13
 2842              		@ sp needed
 2843 000c 5DF8047B 		ldr	r7, [sp], #4
 2844              		.cfi_restore 7
 2845              		.cfi_def_cfa_offset 0
 2846 0010 7047     		bx	lr
 2847              	.L162:
 2848 0012 00BF     		.align	2
 2849              	.L161:
 2850 0014 00000000 		.word	movement_state
 2851              		.cfi_endproc
 2852              	.LFE90:
 2853              		.size	initTrackU, .-initTrackU
 2854              		.section	.text.inittrackLineZ,"ax",%progbits
 2855              		.align	2
 2856              		.global	inittrackLineZ
 2857              		.thumb
 2858              		.thumb_func
 2859              		.type	inittrackLineZ, %function
 2860              	inittrackLineZ:
 2861              	.LFB91:
 621:.\main.c      **** 
 622:.\main.c      **** void inittrackLineZ(){
 2862              		.loc 1 622 0
 2863              		.cfi_startproc
 2864              		@ args = 0, pretend = 0, frame = 0
 2865              		@ frame_needed = 1, uses_anonymous_args = 0
 2866              		@ link register save eliminated.
 2867 0000 80B4     		push	{r7}
 2868              		.cfi_def_cfa_offset 4
 2869              		.cfi_offset 7, -4
 2870 0002 00AF     		add	r7, sp, #0
 2871              		.cfi_def_cfa_register 7
 623:.\main.c      ****     movement_state = TRACKING_SOFT;
ARM GAS  C:\Users\Logan\AppData\Local\Temp\ccydAEbe.s 			page 63


 2872              		.loc 1 623 0
 2873 0004 034B     		ldr	r3, .L164
 2874 0006 0622     		movs	r2, #6
 2875 0008 1A70     		strb	r2, [r3]
 624:.\main.c      **** }
 2876              		.loc 1 624 0
 2877 000a BD46     		mov	sp, r7
 2878              		.cfi_def_cfa_register 13
 2879              		@ sp needed
 2880 000c 5DF8047B 		ldr	r7, [sp], #4
 2881              		.cfi_restore 7
 2882              		.cfi_def_cfa_offset 0
 2883 0010 7047     		bx	lr
 2884              	.L165:
 2885 0012 00BF     		.align	2
 2886              	.L164:
 2887 0014 00000000 		.word	movement_state
 2888              		.cfi_endproc
 2889              	.LFE91:
 2890              		.size	inittrackLineZ, .-inittrackLineZ
 2891              		.section	.text.rxInt,"ax",%progbits
 2892              		.align	2
 2893              		.global	rxInt
 2894              		.thumb
 2895              		.thumb_func
 2896              		.type	rxInt, %function
 2897              	rxInt:
 2898              	.LFB92:
 625:.\main.c      **** 
 626:.\main.c      **** 
 627:.\main.c      **** 
 628:.\main.c      **** //Binary RF Data
 629:.\main.c      **** CY_ISR(rxInt){
 2899              		.loc 1 629 0
 2900              		.cfi_startproc
 2901              		@ args = 0, pretend = 0, frame = 8
 2902              		@ frame_needed = 1, uses_anonymous_args = 0
 2903 0000 B0B5     		push	{r4, r5, r7, lr}
 2904              		.cfi_def_cfa_offset 16
 2905              		.cfi_offset 4, -16
 2906              		.cfi_offset 5, -12
 2907              		.cfi_offset 7, -8
 2908              		.cfi_offset 14, -4
 2909 0002 82B0     		sub	sp, sp, #8
 2910              		.cfi_def_cfa_offset 24
 2911 0004 00AF     		add	r7, sp, #0
 2912              		.cfi_def_cfa_register 7
 630:.\main.c      ****     char rf_char = UART_GetChar();
 2913              		.loc 1 630 0
 2914 0006 FFF7FEFF 		bl	UART_GetChar
 2915 000a 0346     		mov	r3, r0
 2916 000c FB71     		strb	r3, [r7, #7]
 631:.\main.c      ****     if(rf_char == SOP){
 2917              		.loc 1 631 0
 2918 000e FB79     		ldrb	r3, [r7, #7]	@ zero_extendqisi2
 2919 0010 AA2B     		cmp	r3, #170
 2920 0012 2BD1     		bne	.L167
ARM GAS  C:\Users\Logan\AppData\Local\Temp\ccydAEbe.s 			page 64


 632:.\main.c      ****             //we should evalute whether the last packet was valid by measuring the length of data
 633:.\main.c      ****             if(byteCount == 34)
 2921              		.loc 1 633 0
 2922 0014 224B     		ldr	r3, .L171
 2923 0016 1B78     		ldrb	r3, [r3]	@ zero_extendqisi2
 2924 0018 222B     		cmp	r3, #34
 2925 001a 20D1     		bne	.L168
 634:.\main.c      ****             {
 635:.\main.c      ****                 system_state = buffer_state;
 2926              		.loc 1 635 0
 2927 001c 214B     		ldr	r3, .L171+4
 2928 001e 224A     		ldr	r2, .L171+8
 2929 0020 1568     		ldr	r5, [r2]	@ unaligned
 2930 0022 5468     		ldr	r4, [r2, #4]	@ unaligned
 2931 0024 9068     		ldr	r0, [r2, #8]	@ unaligned
 2932 0026 D168     		ldr	r1, [r2, #12]	@ unaligned
 2933 0028 1D60     		str	r5, [r3]	@ unaligned
 2934 002a 5C60     		str	r4, [r3, #4]	@ unaligned
 2935 002c 9860     		str	r0, [r3, #8]	@ unaligned
 2936 002e D960     		str	r1, [r3, #12]	@ unaligned
 2937 0030 1569     		ldr	r5, [r2, #16]	@ unaligned
 2938 0032 5469     		ldr	r4, [r2, #20]	@ unaligned
 2939 0034 9069     		ldr	r0, [r2, #24]	@ unaligned
 2940 0036 D169     		ldr	r1, [r2, #28]	@ unaligned
 2941 0038 1D61     		str	r5, [r3, #16]	@ unaligned
 2942 003a 5C61     		str	r4, [r3, #20]	@ unaligned
 2943 003c 9861     		str	r0, [r3, #24]	@ unaligned
 2944 003e D961     		str	r1, [r3, #28]	@ unaligned
 636:.\main.c      ****                 if(initial_pos_valid == 0)
 2945              		.loc 1 636 0
 2946 0040 1A4B     		ldr	r3, .L171+12
 2947 0042 1B78     		ldrb	r3, [r3]	@ zero_extendqisi2
 2948 0044 002B     		cmp	r3, #0
 2949 0046 0AD1     		bne	.L168
 637:.\main.c      ****                 {
 638:.\main.c      ****                     LED_Write(~LED_Read());
 2950              		.loc 1 638 0
 2951 0048 FFF7FEFF 		bl	LED_Read
 2952 004c 0346     		mov	r3, r0
 2953 004e DB43     		mvns	r3, r3
 2954 0050 DBB2     		uxtb	r3, r3
 2955 0052 1846     		mov	r0, r3
 2956 0054 FFF7FEFF 		bl	LED_Write
 639:.\main.c      ****                     initial_pos_valid = 1;
 2957              		.loc 1 639 0
 2958 0058 144B     		ldr	r3, .L171+12
 2959 005a 0122     		movs	r2, #1
 2960 005c 1A70     		strb	r2, [r3]
 2961              	.L168:
 640:.\main.c      ****                 }
 641:.\main.c      ****             }
 642:.\main.c      ****             byteCount = 2; //2 for legacy purposes - fix this
 2962              		.loc 1 642 0
 2963 005e 104B     		ldr	r3, .L171
 2964 0060 0222     		movs	r2, #2
 2965 0062 1A70     		strb	r2, [r3]
 643:.\main.c      ****             flag_rx = 0;
ARM GAS  C:\Users\Logan\AppData\Local\Temp\ccydAEbe.s 			page 65


 2966              		.loc 1 643 0
 2967 0064 124B     		ldr	r3, .L171+16
 2968 0066 0022     		movs	r2, #0
 2969 0068 1A70     		strb	r2, [r3]
 2970 006a 16E0     		b	.L166
 2971              	.L167:
 644:.\main.c      ****              //LED_Write(~LED_Read()); //flash an LED so we know the interrupt is called
 645:.\main.c      ****         }
 646:.\main.c      ****         else
 647:.\main.c      ****         {
 648:.\main.c      ****             packet[byteCount % 2] = rf_char;
 2972              		.loc 1 648 0
 2973 006c 0C4B     		ldr	r3, .L171
 2974 006e 1B78     		ldrb	r3, [r3]	@ zero_extendqisi2
 2975 0070 03F00103 		and	r3, r3, #1
 2976 0074 0F49     		ldr	r1, .L171+20
 2977 0076 FA79     		ldrb	r2, [r7, #7]
 2978 0078 CA54     		strb	r2, [r1, r3]
 649:.\main.c      ****            
 650:.\main.c      ****             if(byteCount % 2 == 1) //we have received a whole 16-bit packet
 2979              		.loc 1 650 0
 2980 007a 094B     		ldr	r3, .L171
 2981 007c 1B78     		ldrb	r3, [r3]	@ zero_extendqisi2
 2982 007e 03F00103 		and	r3, r3, #1
 2983 0082 DBB2     		uxtb	r3, r3
 2984 0084 002B     		cmp	r3, #0
 2985 0086 02D0     		beq	.L170
 651:.\main.c      ****             {
 652:.\main.c      ****                 flag_rx = 1;
 2986              		.loc 1 652 0
 2987 0088 094B     		ldr	r3, .L171+16
 2988 008a 0122     		movs	r2, #1
 2989 008c 1A70     		strb	r2, [r3]
 2990              	.L170:
 653:.\main.c      ****             }
 654:.\main.c      ****             byteCount = (byteCount + 1);
 2991              		.loc 1 654 0
 2992 008e 044B     		ldr	r3, .L171
 2993 0090 1B78     		ldrb	r3, [r3]	@ zero_extendqisi2
 2994 0092 0133     		adds	r3, r3, #1
 2995 0094 DAB2     		uxtb	r2, r3
 2996 0096 024B     		ldr	r3, .L171
 2997 0098 1A70     		strb	r2, [r3]
 2998              	.L166:
 655:.\main.c      ****         }
 656:.\main.c      **** }
 2999              		.loc 1 656 0
 3000 009a 0837     		adds	r7, r7, #8
 3001              		.cfi_def_cfa_offset 16
 3002 009c BD46     		mov	sp, r7
 3003              		.cfi_def_cfa_register 13
 3004              		@ sp needed
 3005 009e B0BD     		pop	{r4, r5, r7, pc}
 3006              	.L172:
 3007              		.align	2
 3008              	.L171:
 3009 00a0 00000000 		.word	byteCount
ARM GAS  C:\Users\Logan\AppData\Local\Temp\ccydAEbe.s 			page 66


 3010 00a4 00000000 		.word	system_state
 3011 00a8 00000000 		.word	buffer_state
 3012 00ac 00000000 		.word	initial_pos_valid
 3013 00b0 00000000 		.word	flag_rx
 3014 00b4 00000000 		.word	packet
 3015              		.cfi_endproc
 3016              	.LFE92:
 3017              		.size	rxInt, .-rxInt
 3018              		.global	__aeabi_i2f
 3019              		.global	__aeabi_fmul
 3020              		.global	__aeabi_f2iz
 3021              		.section	.rodata
 3022 008a 0000     		.align	2
 3023              	.LC7:
 3024 008c 74617267 		.ascii	"target quad: %d\015\012\000"
 3024      65742071 
 3024      7561643A 
 3024      2025640D 
 3024      0A00
 3025 009e 0000     		.align	2
 3026              	.LC8:
 3027 00a0 703A2573 		.ascii	"p:%s\015\012\000"
 3027      0D0A00
 3028              		.section	.text.BT_rxInt,"ax",%progbits
 3029              		.align	2
 3030              		.global	BT_rxInt
 3031              		.thumb
 3032              		.thumb_func
 3033              		.type	BT_rxInt, %function
 3034              	BT_rxInt:
 3035              	.LFB93:
 657:.\main.c      **** 
 658:.\main.c      **** CY_ISR(BT_rxInt)
 659:.\main.c      **** {
 3036              		.loc 1 659 0
 3037              		.cfi_startproc
 3038              		@ args = 0, pretend = 0, frame = 152
 3039              		@ frame_needed = 1, uses_anonymous_args = 0
 3040 0000 80B5     		push	{r7, lr}
 3041              		.cfi_def_cfa_offset 8
 3042              		.cfi_offset 7, -8
 3043              		.cfi_offset 14, -4
 3044 0002 A6B0     		sub	sp, sp, #152
 3045              		.cfi_def_cfa_offset 160
 3046 0004 00AF     		add	r7, sp, #0
 3047              		.cfi_def_cfa_register 7
 660:.\main.c      ****     char rf_char = UART_GetChar();
 3048              		.loc 1 660 0
 3049 0006 FFF7FEFF 		bl	UART_GetChar
 3050 000a 0346     		mov	r3, r0
 3051 000c 87F89730 		strb	r3, [r7, #151]
 661:.\main.c      ****     switch(rf_char){
 3052              		.loc 1 661 0
 3053 0010 97F89730 		ldrb	r3, [r7, #151]	@ zero_extendqisi2
 3054 0014 613B     		subs	r3, r3, #97
 3055 0016 192B     		cmp	r3, #25
 3056 0018 00F2B680 		bhi	.L173
ARM GAS  C:\Users\Logan\AppData\Local\Temp\ccydAEbe.s 			page 67


 3057 001c 01A2     		adr	r2, .L176
 3058 001e 52F823F0 		ldr	pc, [r2, r3, lsl #2]
 3059 0022 00BF     		.p2align 2
 3060              	.L176:
 3061 0024 8D000000 		.word	.L175+1
 3062 0028 89010000 		.word	.L173+1
 3063 002c 89010000 		.word	.L173+1
 3064 0030 B1000000 		.word	.L177+1
 3065 0034 89010000 		.word	.L173+1
 3066 0038 BD000000 		.word	.L178+1
 3067 003c 89010000 		.word	.L173+1
 3068 0040 89010000 		.word	.L173+1
 3069 0044 89010000 		.word	.L173+1
 3070 0048 89010000 		.word	.L173+1
 3071 004c 89010000 		.word	.L173+1
 3072 0050 89010000 		.word	.L173+1
 3073 0054 89010000 		.word	.L173+1
 3074 0058 89010000 		.word	.L173+1
 3075 005c 89010000 		.word	.L173+1
 3076 0060 89010000 		.word	.L173+1
 3077 0064 ED000000 		.word	.L179+1
 3078 0068 47010000 		.word	.L180+1
 3079 006c A5000000 		.word	.L181+1
 3080 0070 C9000000 		.word	.L182+1
 3081 0074 D5000000 		.word	.L183+1
 3082 0078 89010000 		.word	.L173+1
 3083 007c 99000000 		.word	.L184+1
 3084 0080 5D010000 		.word	.L185+1
 3085 0084 89010000 		.word	.L173+1
 3086 0088 E1000000 		.word	.L186+1
 3087              		.p2align 1
 3088              	.L175:
 3089              	.LBB7:
 662:.\main.c      ****     case 'a':
 663:.\main.c      ****         initTurnLeft();
 3090              		.loc 1 663 0
 3091 008c FFF7FEFF 		bl	initTurnLeft
 664:.\main.c      ****         track_mode = NO_TRACK;
 3092              		.loc 1 664 0
 3093 0090 3F4B     		ldr	r3, .L188
 3094 0092 0022     		movs	r2, #0
 3095 0094 1A70     		strb	r2, [r3]
 665:.\main.c      ****         break;
 3096              		.loc 1 665 0
 3097 0096 77E0     		b	.L173
 3098              	.L184:
 666:.\main.c      ****     case 'w':
 667:.\main.c      ****         initForward();
 3099              		.loc 1 667 0
 3100 0098 FFF7FEFF 		bl	initForward
 668:.\main.c      ****         track_mode = NO_TRACK;
 3101              		.loc 1 668 0
 3102 009c 3C4B     		ldr	r3, .L188
 3103 009e 0022     		movs	r2, #0
 3104 00a0 1A70     		strb	r2, [r3]
 669:.\main.c      ****         break;
 3105              		.loc 1 669 0
ARM GAS  C:\Users\Logan\AppData\Local\Temp\ccydAEbe.s 			page 68


 3106 00a2 71E0     		b	.L173
 3107              	.L181:
 670:.\main.c      ****     case 's': 
 671:.\main.c      ****         reverseDirection();
 3108              		.loc 1 671 0
 3109 00a4 FFF7FEFF 		bl	reverseDirection
 672:.\main.c      ****         track_mode = NO_TRACK;
 3110              		.loc 1 672 0
 3111 00a8 394B     		ldr	r3, .L188
 3112 00aa 0022     		movs	r2, #0
 3113 00ac 1A70     		strb	r2, [r3]
 673:.\main.c      ****         break;
 3114              		.loc 1 673 0
 3115 00ae 6BE0     		b	.L173
 3116              	.L177:
 674:.\main.c      ****     case 'd':
 675:.\main.c      ****         initTurnRight();
 3117              		.loc 1 675 0
 3118 00b0 FFF7FEFF 		bl	initTurnRight
 676:.\main.c      ****         track_mode = NO_TRACK;
 3119              		.loc 1 676 0
 3120 00b4 364B     		ldr	r3, .L188
 3121 00b6 0022     		movs	r2, #0
 3122 00b8 1A70     		strb	r2, [r3]
 677:.\main.c      ****         break;
 3123              		.loc 1 677 0
 3124 00ba 65E0     		b	.L173
 3125              	.L178:
 678:.\main.c      ****     case 'f':
 679:.\main.c      ****         initBrake();
 3126              		.loc 1 679 0
 3127 00bc FFF7FEFF 		bl	initBrake
 680:.\main.c      ****         track_mode = NO_TRACK;
 3128              		.loc 1 680 0
 3129 00c0 334B     		ldr	r3, .L188
 3130 00c2 0022     		movs	r2, #0
 3131 00c4 1A70     		strb	r2, [r3]
 681:.\main.c      ****         break;
 3132              		.loc 1 681 0
 3133 00c6 5FE0     		b	.L173
 3134              	.L182:
 682:.\main.c      ****     case('t'):
 683:.\main.c      ****         track_mode = CURVE_TRACK;
 3135              		.loc 1 683 0
 3136 00c8 314B     		ldr	r3, .L188
 3137 00ca 0122     		movs	r2, #1
 3138 00cc 1A70     		strb	r2, [r3]
 684:.\main.c      ****         initTrack();
 3139              		.loc 1 684 0
 3140 00ce FFF7FEFF 		bl	initTrack
 685:.\main.c      ****         break;
 3141              		.loc 1 685 0
 3142 00d2 59E0     		b	.L173
 3143              	.L183:
 686:.\main.c      ****     case('u'):
 687:.\main.c      ****         initTrackU();
 3144              		.loc 1 687 0
ARM GAS  C:\Users\Logan\AppData\Local\Temp\ccydAEbe.s 			page 69


 3145 00d4 FFF7FEFF 		bl	initTrackU
 688:.\main.c      ****         track_mode = U_TRACK;
 3146              		.loc 1 688 0
 3147 00d8 2D4B     		ldr	r3, .L188
 3148 00da 0222     		movs	r2, #2
 3149 00dc 1A70     		strb	r2, [r3]
 689:.\main.c      ****         break;
 3150              		.loc 1 689 0
 3151 00de 53E0     		b	.L173
 3152              	.L186:
 690:.\main.c      ****     case('z'):
 691:.\main.c      ****         track_mode = SQUARE_TRACK;
 3153              		.loc 1 691 0
 3154 00e0 2B4B     		ldr	r3, .L188
 3155 00e2 0322     		movs	r2, #3
 3156 00e4 1A70     		strb	r2, [r3]
 692:.\main.c      ****         inittrackLineZ();
 3157              		.loc 1 692 0
 3158 00e6 FFF7FEFF 		bl	inittrackLineZ
 693:.\main.c      ****         break;
 3159              		.loc 1 693 0
 3160 00ea 4DE0     		b	.L173
 3161              	.L179:
 694:.\main.c      ****     case('q'):
 695:.\main.c      ****         track_mode = QUAD_STOP;
 3162              		.loc 1 695 0
 3163 00ec 284B     		ldr	r3, .L188
 3164 00ee 0422     		movs	r2, #4
 3165 00f0 1A70     		strb	r2, [r3]
 696:.\main.c      ****         accum_dist = 0;
 3166              		.loc 1 696 0
 3167 00f2 284B     		ldr	r3, .L188+4
 3168 00f4 0022     		movs	r2, #0
 3169 00f6 1A80     		strh	r2, [r3]	@ movhi
 697:.\main.c      ****         target_distance_quad = target_distance_cm * quad_per_cm;
 3170              		.loc 1 697 0
 3171 00f8 274B     		ldr	r3, .L188+8
 3172 00fa 1B88     		ldrh	r3, [r3]
 3173 00fc 1BB2     		sxth	r3, r3
 3174 00fe 1846     		mov	r0, r3
 3175 0100 FFF7FEFF 		bl	__aeabi_i2f
 3176 0104 0246     		mov	r2, r0
 3177 0106 254B     		ldr	r3, .L188+12
 3178 0108 1B68     		ldr	r3, [r3]	@ float
 3179 010a 1046     		mov	r0, r2
 3180 010c 1946     		mov	r1, r3
 3181 010e FFF7FEFF 		bl	__aeabi_fmul
 3182 0112 0346     		mov	r3, r0
 3183 0114 1846     		mov	r0, r3
 3184 0116 FFF7FEFF 		bl	__aeabi_f2iz
 3185 011a 0346     		mov	r3, r0
 3186 011c 9AB2     		uxth	r2, r3
 3187 011e 204B     		ldr	r3, .L188+16
 3188 0120 1A80     		strh	r2, [r3]	@ movhi
 698:.\main.c      ****         char mes[16];
 699:.\main.c      ****         sprintf(mes, "target quad: %d\r\n", target_distance_quad);
 3189              		.loc 1 699 0
ARM GAS  C:\Users\Logan\AppData\Local\Temp\ccydAEbe.s 			page 70


 3190 0122 1F4B     		ldr	r3, .L188+16
 3191 0124 1B88     		ldrh	r3, [r3]
 3192 0126 1BB2     		sxth	r3, r3
 3193 0128 07F18402 		add	r2, r7, #132
 3194 012c 1046     		mov	r0, r2
 3195 012e 1D49     		ldr	r1, .L188+20
 3196 0130 1A46     		mov	r2, r3
 3197 0132 FFF7FEFF 		bl	sprintf
 700:.\main.c      ****         UART_PutString(mes);
 3198              		.loc 1 700 0
 3199 0136 07F18403 		add	r3, r7, #132
 3200 013a 1846     		mov	r0, r3
 3201 013c FFF7FEFF 		bl	UART_PutString
 701:.\main.c      ****         initForward();
 3202              		.loc 1 701 0
 3203 0140 FFF7FEFF 		bl	initForward
 702:.\main.c      ****         break;
 3204              		.loc 1 702 0
 3205 0144 20E0     		b	.L173
 3206              	.L180:
 703:.\main.c      ****     case ('r'):
 704:.\main.c      ****         track_mode = RF_STOP;
 3207              		.loc 1 704 0
 3208 0146 124B     		ldr	r3, .L188
 3209 0148 0522     		movs	r2, #5
 3210 014a 1A70     		strb	r2, [r3]
 705:.\main.c      ****         changeToRF();
 3211              		.loc 1 705 0
 3212 014c FFF7FEFF 		bl	changeToRF
 706:.\main.c      ****         // Make initial position
 707:.\main.c      ****         initial_pos_valid = 0;
 3213              		.loc 1 707 0
 3214 0150 154B     		ldr	r3, .L188+24
 3215 0152 0022     		movs	r2, #0
 3216 0154 1A70     		strb	r2, [r3]
 708:.\main.c      ****         initBrake();
 3217              		.loc 1 708 0
 3218 0156 FFF7FEFF 		bl	initBrake
 709:.\main.c      ****         break;
 3219              		.loc 1 709 0
 3220 015a 15E0     		b	.L173
 3221              	.L185:
 710:.\main.c      ****     case ('x'):
 711:.\main.c      ****         track_mode = DEST_TEST;
 3222              		.loc 1 711 0
 3223 015c 0C4B     		ldr	r3, .L188
 3224 015e 0622     		movs	r2, #6
 3225 0160 1A70     		strb	r2, [r3]
 712:.\main.c      ****         tracked_direction = robot_direction;
 3226              		.loc 1 712 0
 3227 0162 124B     		ldr	r3, .L188+28
 3228 0164 1B68     		ldr	r3, [r3]
 3229 0166 124A     		ldr	r2, .L188+32
 3230 0168 1360     		str	r3, [r2]
 713:.\main.c      ****         //generateDirections();
 714:.\main.c      ****         generateEntireMapDirections();
 3231              		.loc 1 714 0
ARM GAS  C:\Users\Logan\AppData\Local\Temp\ccydAEbe.s 			page 71


 3232 016a FFF7FEFF 		bl	generateEntireMapDirections
 715:.\main.c      ****         char message[128];
 716:.\main.c      ****         sprintf(message, "p:%s\r\n", instructions);
 3233              		.loc 1 716 0
 3234 016e 3B1D     		adds	r3, r7, #4
 3235 0170 1846     		mov	r0, r3
 3236 0172 1049     		ldr	r1, .L188+36
 3237 0174 104A     		ldr	r2, .L188+40
 3238 0176 FFF7FEFF 		bl	sprintf
 717:.\main.c      ****         UART_PutString(message);
 3239              		.loc 1 717 0
 3240 017a 3B1D     		adds	r3, r7, #4
 3241 017c 1846     		mov	r0, r3
 3242 017e FFF7FEFF 		bl	UART_PutString
 718:.\main.c      ****         inittrackLineZ();
 3243              		.loc 1 718 0
 3244 0182 FFF7FEFF 		bl	inittrackLineZ
 719:.\main.c      ****         break;
 3245              		.loc 1 719 0
 3246 0186 00BF     		nop
 3247              	.L173:
 3248              	.LBE7:
 720:.\main.c      ****     }
 721:.\main.c      **** }
 3249              		.loc 1 721 0
 3250 0188 9837     		adds	r7, r7, #152
 3251              		.cfi_def_cfa_offset 8
 3252 018a BD46     		mov	sp, r7
 3253              		.cfi_def_cfa_register 13
 3254              		@ sp needed
 3255 018c 80BD     		pop	{r7, pc}
 3256              	.L189:
 3257 018e 00BF     		.align	2
 3258              	.L188:
 3259 0190 00000000 		.word	track_mode
 3260 0194 00000000 		.word	accum_dist
 3261 0198 00000000 		.word	target_distance_cm
 3262 019c 00000000 		.word	quad_per_cm
 3263 01a0 00000000 		.word	target_distance_quad
 3264 01a4 8C000000 		.word	.LC7
 3265 01a8 00000000 		.word	initial_pos_valid
 3266 01ac 00000000 		.word	robot_direction
 3267 01b0 00000000 		.word	tracked_direction
 3268 01b4 A0000000 		.word	.LC8
 3269 01b8 00000000 		.word	instructions
 3270              		.cfi_endproc
 3271              	.LFE93:
 3272              		.size	BT_rxInt, .-BT_rxInt
 3273              		.section	.text.changeToRF,"ax",%progbits
 3274              		.align	2
 3275              		.global	changeToRF
 3276              		.thumb
 3277              		.thumb_func
 3278              		.type	changeToRF, %function
 3279              	changeToRF:
 3280              	.LFB94:
 722:.\main.c      **** 
ARM GAS  C:\Users\Logan\AppData\Local\Temp\ccydAEbe.s 			page 72


 723:.\main.c      **** 
 724:.\main.c      **** void changeToRF()
 725:.\main.c      **** {
 3281              		.loc 1 725 0
 3282              		.cfi_startproc
 3283              		@ args = 0, pretend = 0, frame = 0
 3284              		@ frame_needed = 1, uses_anonymous_args = 0
 3285 0000 80B5     		push	{r7, lr}
 3286              		.cfi_def_cfa_offset 8
 3287              		.cfi_offset 7, -8
 3288              		.cfi_offset 14, -4
 3289 0002 00AF     		add	r7, sp, #0
 3290              		.cfi_def_cfa_register 7
 726:.\main.c      ****         //disable BT
 727:.\main.c      ****         BT_ENABLED = 0;
 3291              		.loc 1 727 0
 3292 0004 0B4B     		ldr	r3, .L191
 3293 0006 0022     		movs	r2, #0
 3294 0008 1A70     		strb	r2, [r3]
 728:.\main.c      ****         isrRF_RX_Stop();
 3295              		.loc 1 728 0
 3296 000a FFF7FEFF 		bl	isrRF_RX_Stop
 729:.\main.c      ****         UART_Stop();
 3297              		.loc 1 729 0
 3298 000e FFF7FEFF 		bl	UART_Stop
 730:.\main.c      ****         
 731:.\main.c      ****         //enable RF
 732:.\main.c      ****         BIN_ENABLED = 1;
 3299              		.loc 1 732 0
 3300 0012 094B     		ldr	r3, .L191+4
 3301 0014 0122     		movs	r2, #1
 3302 0016 1A70     		strb	r2, [r3]
 733:.\main.c      ****         UART_clk_SetDividerValue(130);
 3303              		.loc 1 733 0
 3304 0018 8120     		movs	r0, #129
 3305 001a 0121     		movs	r1, #1
 3306 001c FFF7FEFF 		bl	UART_clk_SetDividerRegister
 734:.\main.c      ****         isrRF_RX_StartEx(rxInt);
 3307              		.loc 1 734 0
 3308 0020 0648     		ldr	r0, .L191+8
 3309 0022 FFF7FEFF 		bl	isrRF_RX_StartEx
 735:.\main.c      ****         UART_Start();
 3310              		.loc 1 735 0
 3311 0026 FFF7FEFF 		bl	UART_Start
 736:.\main.c      ****         RF_BT_SELECT_Write(0);
 3312              		.loc 1 736 0
 3313 002a 0020     		movs	r0, #0
 3314 002c FFF7FEFF 		bl	RF_BT_SELECT_Write
 737:.\main.c      **** }
 3315              		.loc 1 737 0
 3316 0030 80BD     		pop	{r7, pc}
 3317              	.L192:
 3318 0032 00BF     		.align	2
 3319              	.L191:
 3320 0034 00000000 		.word	BT_ENABLED
 3321 0038 00000000 		.word	BIN_ENABLED
 3322 003c 00000000 		.word	rxInt
ARM GAS  C:\Users\Logan\AppData\Local\Temp\ccydAEbe.s 			page 73


 3323              		.cfi_endproc
 3324              	.LFE94:
 3325              		.size	changeToRF, .-changeToRF
 3326              		.section	.text.changeToBT,"ax",%progbits
 3327              		.align	2
 3328              		.global	changeToBT
 3329              		.thumb
 3330              		.thumb_func
 3331              		.type	changeToBT, %function
 3332              	changeToBT:
 3333              	.LFB95:
 738:.\main.c      **** 
 739:.\main.c      **** void changeToBT()
 740:.\main.c      **** {
 3334              		.loc 1 740 0
 3335              		.cfi_startproc
 3336              		@ args = 0, pretend = 0, frame = 0
 3337              		@ frame_needed = 1, uses_anonymous_args = 0
 3338 0000 80B5     		push	{r7, lr}
 3339              		.cfi_def_cfa_offset 8
 3340              		.cfi_offset 7, -8
 3341              		.cfi_offset 14, -4
 3342 0002 00AF     		add	r7, sp, #0
 3343              		.cfi_def_cfa_register 7
 741:.\main.c      ****         //disable RF
 742:.\main.c      ****         BIN_ENABLED = 0;
 3344              		.loc 1 742 0
 3345 0004 0B4B     		ldr	r3, .L194
 3346 0006 0022     		movs	r2, #0
 3347 0008 1A70     		strb	r2, [r3]
 743:.\main.c      ****         isrRF_RX_Stop();
 3348              		.loc 1 743 0
 3349 000a FFF7FEFF 		bl	isrRF_RX_Stop
 744:.\main.c      ****         UART_Stop();
 3350              		.loc 1 744 0
 3351 000e FFF7FEFF 		bl	UART_Stop
 745:.\main.c      ****         
 746:.\main.c      ****         //enable BT
 747:.\main.c      ****         BT_ENABLED = 1;
 3352              		.loc 1 747 0
 3353 0012 094B     		ldr	r3, .L194+4
 3354 0014 0122     		movs	r2, #1
 3355 0016 1A70     		strb	r2, [r3]
 748:.\main.c      ****         UART_clk_SetDividerValue(781);
 3356              		.loc 1 748 0
 3357 0018 4FF44370 		mov	r0, #780
 3358 001c 0121     		movs	r1, #1
 3359 001e FFF7FEFF 		bl	UART_clk_SetDividerRegister
 749:.\main.c      ****         isrRF_RX_StartEx(BT_rxInt);
 3360              		.loc 1 749 0
 3361 0022 0648     		ldr	r0, .L194+8
 3362 0024 FFF7FEFF 		bl	isrRF_RX_StartEx
 750:.\main.c      ****         UART_Start();
 3363              		.loc 1 750 0
 3364 0028 FFF7FEFF 		bl	UART_Start
 751:.\main.c      ****         RF_BT_SELECT_Write(1);
 3365              		.loc 1 751 0
ARM GAS  C:\Users\Logan\AppData\Local\Temp\ccydAEbe.s 			page 74


 3366 002c 0120     		movs	r0, #1
 3367 002e FFF7FEFF 		bl	RF_BT_SELECT_Write
 752:.\main.c      **** }
 3368              		.loc 1 752 0
 3369 0032 80BD     		pop	{r7, pc}
 3370              	.L195:
 3371              		.align	2
 3372              	.L194:
 3373 0034 00000000 		.word	BIN_ENABLED
 3374 0038 00000000 		.word	BT_ENABLED
 3375 003c 00000000 		.word	BT_rxInt
 3376              		.cfi_endproc
 3377              	.LFE95:
 3378              		.size	changeToBT, .-changeToBT
 3379              		.global	__aeabi_dmul
 3380              		.section	.text.Quad_Dec_response,"ax",%progbits
 3381              		.align	2
 3382              		.global	Quad_Dec_response
 3383              		.thumb
 3384              		.thumb_func
 3385              		.type	Quad_Dec_response, %function
 3386              	Quad_Dec_response:
 3387              	.LFB96:
 753:.\main.c      **** 
 754:.\main.c      **** 
 755:.\main.c      **** void Quad_Dec_response()
 756:.\main.c      **** {
 3388              		.loc 1 756 0
 3389              		.cfi_startproc
 3390              		@ args = 0, pretend = 0, frame = 32
 3391              		@ frame_needed = 1, uses_anonymous_args = 0
 3392 0000 B0B5     		push	{r4, r5, r7, lr}
 3393              		.cfi_def_cfa_offset 16
 3394              		.cfi_offset 4, -16
 3395              		.cfi_offset 5, -12
 3396              		.cfi_offset 7, -8
 3397              		.cfi_offset 14, -4
 3398 0002 88B0     		sub	sp, sp, #32
 3399              		.cfi_def_cfa_offset 48
 3400 0004 00AF     		add	r7, sp, #0
 3401              		.cfi_def_cfa_register 7
 757:.\main.c      ****     //Check if the flag has been set
 758:.\main.c      ****     if (!flag_calc_wheelspeed) return;
 3402              		.loc 1 758 0
 3403 0006 824B     		ldr	r3, .L204
 3404 0008 1B78     		ldrb	r3, [r3]	@ zero_extendqisi2
 3405 000a 002B     		cmp	r3, #0
 3406 000c 00D1     		bne	.L197
 3407 000e FCE0     		b	.L196
 3408              	.L197:
 759:.\main.c      ****     flag_calc_wheelspeed = 0;
 3409              		.loc 1 759 0
 3410 0010 7F4B     		ldr	r3, .L204
 3411 0012 0022     		movs	r2, #0
 3412 0014 1A70     		strb	r2, [r3]
 760:.\main.c      ****     
 761:.\main.c      ****     //char wheel_1_str [64];
ARM GAS  C:\Users\Logan\AppData\Local\Temp\ccydAEbe.s 			page 75


 762:.\main.c      ****     //char wheel_2_str [64];
 763:.\main.c      ****     //sprintf(wheel_1_str, "quad count 1 is: %d\n\r", quad_diff1);
 764:.\main.c      ****     //usbPutString(wheel_1_str);
 765:.\main.c      ****     //sprintf(wheel_2_str, "quad count 2 is: %d\n\r", quad_diff2);
 766:.\main.c      ****     
 767:.\main.c      ****     //usbPutString(wheel_2_str);
 768:.\main.c      ****     
 769:.\main.c      ****     int16 leftSpeed = quad_diff1;
 3413              		.loc 1 769 0
 3414 0016 7F4B     		ldr	r3, .L204+4
 3415 0018 1B88     		ldrh	r3, [r3]	@ movhi
 3416 001a FB81     		strh	r3, [r7, #14]	@ movhi
 770:.\main.c      ****     int16 rightSpeed = quad_diff2;
 3417              		.loc 1 770 0
 3418 001c 7E4B     		ldr	r3, .L204+8
 3419 001e 1B88     		ldrh	r3, [r3]	@ movhi
 3420 0020 BB81     		strh	r3, [r7, #12]	@ movhi
 771:.\main.c      ****     double scalingLeft = 1;
 3421              		.loc 1 771 0
 3422 0022 4FF00002 		mov	r2, #0
 3423 0026 7D4B     		ldr	r3, .L204+12
 3424 0028 C7E90623 		strd	r2, [r7, #24]
 772:.\main.c      ****     double scalingRight = 1;
 3425              		.loc 1 772 0
 3426 002c 4FF00002 		mov	r2, #0
 3427 0030 7A4B     		ldr	r3, .L204+12
 3428 0032 C7E90423 		strd	r2, [r7, #16]
 773:.\main.c      ****     
 774:.\main.c      ****     //there's an initial right tilt by default, so we want to decrease the initial left speed
 775:.\main.c      ****     if(leftSpeed == 0 && rightSpeed == 0){ 
 3429              		.loc 1 775 0
 3430 0036 B7F90E30 		ldrsh	r3, [r7, #14]
 3431 003a 002B     		cmp	r3, #0
 3432 003c 0FD1     		bne	.L199
 3433              		.loc 1 775 0 is_stmt 0 discriminator 1
 3434 003e B7F90C30 		ldrsh	r3, [r7, #12]
 3435 0042 002B     		cmp	r3, #0
 3436 0044 0BD1     		bne	.L199
 776:.\main.c      ****        //leftSpeed = 3;
 777:.\main.c      ****         scalingLeft = 2;
 3437              		.loc 1 777 0 is_stmt 1
 3438 0046 4FF00002 		mov	r2, #0
 3439 004a 4FF08043 		mov	r3, #1073741824
 3440 004e C7E90623 		strd	r2, [r7, #24]
 778:.\main.c      ****         scalingRight = 2;
 3441              		.loc 1 778 0
 3442 0052 4FF00002 		mov	r2, #0
 3443 0056 4FF08043 		mov	r3, #1073741824
 3444 005a C7E90423 		strd	r2, [r7, #16]
 3445              	.L199:
 779:.\main.c      ****     }
 780:.\main.c      **** 
 781:.\main.c      ****     int interCalc = leftSpeedLimit - abs(leftSpeed);
 3446              		.loc 1 781 0
 3447 005e 704B     		ldr	r3, .L204+16
 3448 0060 1B88     		ldrh	r3, [r3]
 3449 0062 1AB2     		sxth	r2, r3
ARM GAS  C:\Users\Logan\AppData\Local\Temp\ccydAEbe.s 			page 76


 3450 0064 B7F90E30 		ldrsh	r3, [r7, #14]
 3451 0068 002B     		cmp	r3, #0
 3452 006a B8BF     		it	lt
 3453 006c 5B42     		rsblt	r3, r3, #0
 3454 006e D31A     		subs	r3, r2, r3
 3455 0070 BB60     		str	r3, [r7, #8]
 782:.\main.c      ****     int nextSpeed = (abs(interCalc) / interCalc) * sqrt(abs((int)(interCalc)));
 3456              		.loc 1 782 0
 3457 0072 BB68     		ldr	r3, [r7, #8]
 3458 0074 83EAE372 		eor	r2, r3, r3, asr #31
 3459 0078 A2EBE372 		sub	r2, r2, r3, asr #31
 3460 007c BB68     		ldr	r3, [r7, #8]
 3461 007e 92FBF3F3 		sdiv	r3, r2, r3
 3462 0082 1846     		mov	r0, r3
 3463 0084 FFF7FEFF 		bl	__aeabi_i2d
 3464 0088 0446     		mov	r4, r0
 3465 008a 0D46     		mov	r5, r1
 3466 008c BB68     		ldr	r3, [r7, #8]
 3467 008e 002B     		cmp	r3, #0
 3468 0090 B8BF     		it	lt
 3469 0092 5B42     		rsblt	r3, r3, #0
 3470 0094 1846     		mov	r0, r3
 3471 0096 FFF7FEFF 		bl	__aeabi_i2d
 3472 009a 0246     		mov	r2, r0
 3473 009c 0B46     		mov	r3, r1
 3474 009e 1046     		mov	r0, r2
 3475 00a0 1946     		mov	r1, r3
 3476 00a2 FFF7FEFF 		bl	sqrt
 3477 00a6 0246     		mov	r2, r0
 3478 00a8 0B46     		mov	r3, r1
 3479 00aa 2046     		mov	r0, r4
 3480 00ac 2946     		mov	r1, r5
 3481 00ae FFF7FEFF 		bl	__aeabi_dmul
 3482 00b2 0246     		mov	r2, r0
 3483 00b4 0B46     		mov	r3, r1
 3484 00b6 1046     		mov	r0, r2
 3485 00b8 1946     		mov	r1, r3
 3486 00ba FFF7FEFF 		bl	__aeabi_d2iz
 3487 00be 0346     		mov	r3, r0
 3488 00c0 7B60     		str	r3, [r7, #4]
 783:.\main.c      ****     left_duty_cycle = left_duty_cycle + scalingLeft*nextSpeed;
 3489              		.loc 1 783 0
 3490 00c2 584B     		ldr	r3, .L204+20
 3491 00c4 1B88     		ldrh	r3, [r3]
 3492 00c6 1BB2     		sxth	r3, r3
 3493 00c8 1846     		mov	r0, r3
 3494 00ca FFF7FEFF 		bl	__aeabi_i2d
 3495 00ce 0446     		mov	r4, r0
 3496 00d0 0D46     		mov	r5, r1
 3497 00d2 7868     		ldr	r0, [r7, #4]
 3498 00d4 FFF7FEFF 		bl	__aeabi_i2d
 3499 00d8 0246     		mov	r2, r0
 3500 00da 0B46     		mov	r3, r1
 3501 00dc 1046     		mov	r0, r2
 3502 00de 1946     		mov	r1, r3
 3503 00e0 D7E90623 		ldrd	r2, [r7, #24]
 3504 00e4 FFF7FEFF 		bl	__aeabi_dmul
ARM GAS  C:\Users\Logan\AppData\Local\Temp\ccydAEbe.s 			page 77


 3505 00e8 0246     		mov	r2, r0
 3506 00ea 0B46     		mov	r3, r1
 3507 00ec 2046     		mov	r0, r4
 3508 00ee 2946     		mov	r1, r5
 3509 00f0 FFF7FEFF 		bl	__aeabi_dadd
 3510 00f4 0246     		mov	r2, r0
 3511 00f6 0B46     		mov	r3, r1
 3512 00f8 1046     		mov	r0, r2
 3513 00fa 1946     		mov	r1, r3
 3514 00fc FFF7FEFF 		bl	__aeabi_d2iz
 3515 0100 0346     		mov	r3, r0
 3516 0102 9AB2     		uxth	r2, r3
 3517 0104 474B     		ldr	r3, .L204+20
 3518 0106 1A80     		strh	r2, [r3]	@ movhi
 784:.\main.c      ****     interCalc = rightSpeedLimit - abs(rightSpeed);
 3519              		.loc 1 784 0
 3520 0108 474B     		ldr	r3, .L204+24
 3521 010a 1B88     		ldrh	r3, [r3]
 3522 010c 1AB2     		sxth	r2, r3
 3523 010e B7F90C30 		ldrsh	r3, [r7, #12]
 3524 0112 002B     		cmp	r3, #0
 3525 0114 B8BF     		it	lt
 3526 0116 5B42     		rsblt	r3, r3, #0
 3527 0118 D31A     		subs	r3, r2, r3
 3528 011a BB60     		str	r3, [r7, #8]
 785:.\main.c      ****     nextSpeed = (abs(interCalc) / interCalc) * sqrt(abs(interCalc));
 3529              		.loc 1 785 0
 3530 011c BB68     		ldr	r3, [r7, #8]
 3531 011e 83EAE372 		eor	r2, r3, r3, asr #31
 3532 0122 A2EBE372 		sub	r2, r2, r3, asr #31
 3533 0126 BB68     		ldr	r3, [r7, #8]
 3534 0128 92FBF3F3 		sdiv	r3, r2, r3
 3535 012c 1846     		mov	r0, r3
 3536 012e FFF7FEFF 		bl	__aeabi_i2d
 3537 0132 0446     		mov	r4, r0
 3538 0134 0D46     		mov	r5, r1
 3539 0136 BB68     		ldr	r3, [r7, #8]
 3540 0138 002B     		cmp	r3, #0
 3541 013a B8BF     		it	lt
 3542 013c 5B42     		rsblt	r3, r3, #0
 3543 013e 1846     		mov	r0, r3
 3544 0140 FFF7FEFF 		bl	__aeabi_i2d
 3545 0144 0246     		mov	r2, r0
 3546 0146 0B46     		mov	r3, r1
 3547 0148 1046     		mov	r0, r2
 3548 014a 1946     		mov	r1, r3
 3549 014c FFF7FEFF 		bl	sqrt
 3550 0150 0246     		mov	r2, r0
 3551 0152 0B46     		mov	r3, r1
 3552 0154 2046     		mov	r0, r4
 3553 0156 2946     		mov	r1, r5
 3554 0158 FFF7FEFF 		bl	__aeabi_dmul
 3555 015c 0246     		mov	r2, r0
 3556 015e 0B46     		mov	r3, r1
 3557 0160 1046     		mov	r0, r2
 3558 0162 1946     		mov	r1, r3
 3559 0164 FFF7FEFF 		bl	__aeabi_d2iz
ARM GAS  C:\Users\Logan\AppData\Local\Temp\ccydAEbe.s 			page 78


 3560 0168 0346     		mov	r3, r0
 3561 016a 7B60     		str	r3, [r7, #4]
 786:.\main.c      ****     right_duty_cycle = right_duty_cycle + scalingRight*nextSpeed;
 3562              		.loc 1 786 0
 3563 016c 2F4B     		ldr	r3, .L204+28
 3564 016e 1B88     		ldrh	r3, [r3]
 3565 0170 1BB2     		sxth	r3, r3
 3566 0172 1846     		mov	r0, r3
 3567 0174 FFF7FEFF 		bl	__aeabi_i2d
 3568 0178 0446     		mov	r4, r0
 3569 017a 0D46     		mov	r5, r1
 3570 017c 7868     		ldr	r0, [r7, #4]
 3571 017e FFF7FEFF 		bl	__aeabi_i2d
 3572 0182 0246     		mov	r2, r0
 3573 0184 0B46     		mov	r3, r1
 3574 0186 1046     		mov	r0, r2
 3575 0188 1946     		mov	r1, r3
 3576 018a D7E90423 		ldrd	r2, [r7, #16]
 3577 018e FFF7FEFF 		bl	__aeabi_dmul
 3578 0192 0246     		mov	r2, r0
 3579 0194 0B46     		mov	r3, r1
 3580 0196 2046     		mov	r0, r4
 3581 0198 2946     		mov	r1, r5
 3582 019a FFF7FEFF 		bl	__aeabi_dadd
 3583 019e 0246     		mov	r2, r0
 3584 01a0 0B46     		mov	r3, r1
 3585 01a2 1046     		mov	r0, r2
 3586 01a4 1946     		mov	r1, r3
 3587 01a6 FFF7FEFF 		bl	__aeabi_d2iz
 3588 01aa 0346     		mov	r3, r0
 3589 01ac 9AB2     		uxth	r2, r3
 3590 01ae 1F4B     		ldr	r3, .L204+28
 3591 01b0 1A80     		strh	r2, [r3]	@ movhi
 787:.\main.c      ****     
 788:.\main.c      ****     if(right_duty_cycle < 0) right_duty_cycle = 0;
 3592              		.loc 1 788 0
 3593 01b2 1E4B     		ldr	r3, .L204+28
 3594 01b4 1B88     		ldrh	r3, [r3]
 3595 01b6 1BB2     		sxth	r3, r3
 3596 01b8 002B     		cmp	r3, #0
 3597 01ba 02DA     		bge	.L200
 3598              		.loc 1 788 0 is_stmt 0 discriminator 1
 3599 01bc 1B4B     		ldr	r3, .L204+28
 3600 01be 0022     		movs	r2, #0
 3601 01c0 1A80     		strh	r2, [r3]	@ movhi
 3602              	.L200:
 789:.\main.c      ****     if(left_duty_cycle < 0) left_duty_cycle = 0;
 3603              		.loc 1 789 0 is_stmt 1
 3604 01c2 184B     		ldr	r3, .L204+20
 3605 01c4 1B88     		ldrh	r3, [r3]
 3606 01c6 1BB2     		sxth	r3, r3
 3607 01c8 002B     		cmp	r3, #0
 3608 01ca 02DA     		bge	.L201
 3609              		.loc 1 789 0 is_stmt 0 discriminator 1
 3610 01cc 154B     		ldr	r3, .L204+20
 3611 01ce 0022     		movs	r2, #0
 3612 01d0 1A80     		strh	r2, [r3]	@ movhi
ARM GAS  C:\Users\Logan\AppData\Local\Temp\ccydAEbe.s 			page 79


 3613              	.L201:
 790:.\main.c      ****     if(right_duty_cycle > 100) right_duty_cycle = 100;
 3614              		.loc 1 790 0 is_stmt 1
 3615 01d2 164B     		ldr	r3, .L204+28
 3616 01d4 1B88     		ldrh	r3, [r3]
 3617 01d6 1BB2     		sxth	r3, r3
 3618 01d8 642B     		cmp	r3, #100
 3619 01da 02DD     		ble	.L202
 3620              		.loc 1 790 0 is_stmt 0 discriminator 1
 3621 01dc 134B     		ldr	r3, .L204+28
 3622 01de 6422     		movs	r2, #100
 3623 01e0 1A80     		strh	r2, [r3]	@ movhi
 3624              	.L202:
 791:.\main.c      ****     if(left_duty_cycle > 100) left_duty_cycle = 100;
 3625              		.loc 1 791 0 is_stmt 1
 3626 01e2 104B     		ldr	r3, .L204+20
 3627 01e4 1B88     		ldrh	r3, [r3]
 3628 01e6 1BB2     		sxth	r3, r3
 3629 01e8 642B     		cmp	r3, #100
 3630 01ea 02DD     		ble	.L203
 3631              		.loc 1 791 0 is_stmt 0 discriminator 1
 3632 01ec 0D4B     		ldr	r3, .L204+20
 3633 01ee 6422     		movs	r2, #100
 3634 01f0 1A80     		strh	r2, [r3]	@ movhi
 3635              	.L203:
 792:.\main.c      ****     PWM_1_WriteCompare(left_duty_cycle);
 3636              		.loc 1 792 0 is_stmt 1
 3637 01f2 0C4B     		ldr	r3, .L204+20
 3638 01f4 1B88     		ldrh	r3, [r3]
 3639 01f6 DBB2     		uxtb	r3, r3
 3640 01f8 1846     		mov	r0, r3
 3641 01fa FFF7FEFF 		bl	PWM_1_WriteCompare
 793:.\main.c      ****     PWM_2_WriteCompare(right_duty_cycle);
 3642              		.loc 1 793 0
 3643 01fe 0B4B     		ldr	r3, .L204+28
 3644 0200 1B88     		ldrh	r3, [r3]
 3645 0202 DBB2     		uxtb	r3, r3
 3646 0204 1846     		mov	r0, r3
 3647 0206 FFF7FEFF 		bl	PWM_2_WriteCompare
 3648              	.L196:
 794:.\main.c      **** }
 3649              		.loc 1 794 0
 3650 020a 2037     		adds	r7, r7, #32
 3651              		.cfi_def_cfa_offset 16
 3652 020c BD46     		mov	sp, r7
 3653              		.cfi_def_cfa_register 13
 3654              		@ sp needed
 3655 020e B0BD     		pop	{r4, r5, r7, pc}
 3656              	.L205:
 3657              		.align	2
 3658              	.L204:
 3659 0210 00000000 		.word	flag_calc_wheelspeed
 3660 0214 00000000 		.word	quad_diff1
 3661 0218 00000000 		.word	quad_diff2
 3662 021c 0000F03F 		.word	1072693248
 3663 0220 00000000 		.word	leftSpeedLimit
 3664 0224 00000000 		.word	left_duty_cycle
ARM GAS  C:\Users\Logan\AppData\Local\Temp\ccydAEbe.s 			page 80


 3665 0228 00000000 		.word	rightSpeedLimit
 3666 022c 00000000 		.word	right_duty_cycle
 3667              		.cfi_endproc
 3668              	.LFE96:
 3669              		.size	Quad_Dec_response, .-Quad_Dec_response
 3670              		.section	.text.trackLine,"ax",%progbits
 3671              		.align	2
 3672              		.global	trackLine
 3673              		.thumb
 3674              		.thumb_func
 3675              		.type	trackLine, %function
 3676              	trackLine:
 3677              	.LFB97:
 795:.\main.c      **** 
 796:.\main.c      **** void trackLine()
 797:.\main.c      **** {
 3678              		.loc 1 797 0
 3679              		.cfi_startproc
 3680              		@ args = 0, pretend = 0, frame = 0
 3681              		@ frame_needed = 1, uses_anonymous_args = 0
 3682              		@ link register save eliminated.
 3683 0000 80B4     		push	{r7}
 3684              		.cfi_def_cfa_offset 4
 3685              		.cfi_offset 7, -4
 3686 0002 00AF     		add	r7, sp, #0
 3687              		.cfi_def_cfa_register 7
 798:.\main.c      ****  //removed from implementation
 799:.\main.c      **** }
 3688              		.loc 1 799 0
 3689 0004 BD46     		mov	sp, r7
 3690              		.cfi_def_cfa_register 13
 3691              		@ sp needed
 3692 0006 5DF8047B 		ldr	r7, [sp], #4
 3693              		.cfi_restore 7
 3694              		.cfi_def_cfa_offset 0
 3695 000a 7047     		bx	lr
 3696              		.cfi_endproc
 3697              	.LFE97:
 3698              		.size	trackLine, .-trackLine
 3699              		.global	leftTurnCount
 3700              		.bss
 3701              		.align	1
 3702              		.type	leftTurnCount, %object
 3703              		.size	leftTurnCount, 2
 3704              	leftTurnCount:
 3705 28e4 0000     		.space	2
 3706              		.global	rightTurnCount
 3707              		.align	1
 3708              		.type	rightTurnCount, %object
 3709              		.size	rightTurnCount, 2
 3710              	rightTurnCount:
 3711 28e6 0000     		.space	2
 3712              		.section	.text.trackLineZ,"ax",%progbits
 3713              		.align	2
 3714              		.global	trackLineZ
 3715              		.thumb
 3716              		.thumb_func
ARM GAS  C:\Users\Logan\AppData\Local\Temp\ccydAEbe.s 			page 81


 3717              		.type	trackLineZ, %function
 3718              	trackLineZ:
 3719              	.LFB98:
 800:.\main.c      **** uint16 leftTurnCount = 0;
 801:.\main.c      **** uint16 rightTurnCount = 0;
 802:.\main.c      **** void trackLineZ()
 803:.\main.c      **** {
 3720              		.loc 1 803 0
 3721              		.cfi_startproc
 3722              		@ args = 0, pretend = 0, frame = 8
 3723              		@ frame_needed = 1, uses_anonymous_args = 0
 3724 0000 2DE9B043 		push	{r4, r5, r7, r8, r9, lr}
 3725              		.cfi_def_cfa_offset 24
 3726              		.cfi_offset 4, -24
 3727              		.cfi_offset 5, -20
 3728              		.cfi_offset 7, -16
 3729              		.cfi_offset 8, -12
 3730              		.cfi_offset 9, -8
 3731              		.cfi_offset 14, -4
 3732 0004 82B0     		sub	sp, sp, #8
 3733              		.cfi_def_cfa_offset 32
 3734 0006 00AF     		add	r7, sp, #0
 3735              		.cfi_def_cfa_register 7
 804:.\main.c      ****     //read the value of the three central-front sensors
 805:.\main.c      ****     
 806:.\main.c      ****     uint8 nl = NLSens_out_Read();
 3736              		.loc 1 806 0
 3737 0008 FFF7FEFF 		bl	NLSens_out_Read
 3738 000c 0346     		mov	r3, r0
 3739 000e FB71     		strb	r3, [r7, #7]
 807:.\main.c      ****     uint8 nr = NRSens_out_Read();
 3740              		.loc 1 807 0
 3741 0010 FFF7FEFF 		bl	NRSens_out_Read
 3742 0014 0346     		mov	r3, r0
 3743 0016 BB71     		strb	r3, [r7, #6]
 808:.\main.c      ****     uint8 mid = MSens_out_Read();
 3744              		.loc 1 808 0
 3745 0018 FFF7FEFF 		bl	MSens_out_Read
 3746 001c 0346     		mov	r3, r0
 3747 001e 7B71     		strb	r3, [r7, #5]
 809:.\main.c      ****     
 810:.\main.c      ****         //if only the left one, hard left
 811:.\main.c      ****     if(nl && !nr && !mid)// && trackTurnCount > 0)
 3748              		.loc 1 811 0
 3749 0020 FB79     		ldrb	r3, [r7, #7]	@ zero_extendqisi2
 3750 0022 002B     		cmp	r3, #0
 3751 0024 27D0     		beq	.L208
 3752              		.loc 1 811 0 is_stmt 0 discriminator 1
 3753 0026 BB79     		ldrb	r3, [r7, #6]	@ zero_extendqisi2
 3754 0028 002B     		cmp	r3, #0
 3755 002a 24D1     		bne	.L208
 3756              		.loc 1 811 0 discriminator 2
 3757 002c 7B79     		ldrb	r3, [r7, #5]	@ zero_extendqisi2
 3758 002e 002B     		cmp	r3, #0
 3759 0030 21D1     		bne	.L208
 812:.\main.c      ****     {
 813:.\main.c      ****         setSpeed(speed / 1.6,-speed / 1.6);
ARM GAS  C:\Users\Logan\AppData\Local\Temp\ccydAEbe.s 			page 82


 3760              		.loc 1 813 0 is_stmt 1
 3761 0032 454B     		ldr	r3, .L213+8
 3762 0034 D3E90023 		ldrd	r2, [r3]
 3763 0038 1046     		mov	r0, r2
 3764 003a 1946     		mov	r1, r3
 3765 003c 40A3     		adr	r3, .L213
 3766 003e D3E90023 		ldrd	r2, [r3]
 3767 0042 FFF7FEFF 		bl	__aeabi_ddiv
 3768 0046 0246     		mov	r2, r0
 3769 0048 0B46     		mov	r3, r1
 3770 004a 1446     		mov	r4, r2
 3771 004c 1D46     		mov	r5, r3
 3772 004e 3E4B     		ldr	r3, .L213+8
 3773 0050 D3E90023 		ldrd	r2, [r3]
 3774 0054 9046     		mov	r8, r2
 3775 0056 83F00049 		eor	r9, r3, #-2147483648
 3776 005a 4046     		mov	r0, r8
 3777 005c 4946     		mov	r1, r9
 3778 005e 38A3     		adr	r3, .L213
 3779 0060 D3E90023 		ldrd	r2, [r3]
 3780 0064 FFF7FEFF 		bl	__aeabi_ddiv
 3781 0068 0246     		mov	r2, r0
 3782 006a 0B46     		mov	r3, r1
 3783 006c 2046     		mov	r0, r4
 3784 006e 2946     		mov	r1, r5
 3785 0070 FFF7FEFF 		bl	setSpeed
 3786 0074 5FE0     		b	.L207
 3787              	.L208:
 814:.\main.c      ****     }
 815:.\main.c      ****     else if(nl && mid && !nr)   //if centre/middle, soft left
 3788              		.loc 1 815 0
 3789 0076 FB79     		ldrb	r3, [r7, #7]	@ zero_extendqisi2
 3790 0078 002B     		cmp	r3, #0
 3791 007a 0ED0     		beq	.L210
 3792              		.loc 1 815 0 is_stmt 0 discriminator 1
 3793 007c 7B79     		ldrb	r3, [r7, #5]	@ zero_extendqisi2
 3794 007e 002B     		cmp	r3, #0
 3795 0080 0BD0     		beq	.L210
 3796              		.loc 1 815 0 discriminator 2
 3797 0082 BB79     		ldrb	r3, [r7, #6]	@ zero_extendqisi2
 3798 0084 002B     		cmp	r3, #0
 3799 0086 08D1     		bne	.L210
 816:.\main.c      ****     {
 817:.\main.c      ****         setSpeed(speed,speed);
 3800              		.loc 1 817 0 is_stmt 1
 3801 0088 2F4B     		ldr	r3, .L213+8
 3802 008a D3E90001 		ldrd	r0, [r3]
 3803 008e 2E4B     		ldr	r3, .L213+8
 3804 0090 D3E90023 		ldrd	r2, [r3]
 3805 0094 FFF7FEFF 		bl	setSpeed
 3806 0098 4DE0     		b	.L207
 3807              	.L210:
 818:.\main.c      ****     }
 819:.\main.c      ****     else if (nr && mid && !nl)//if centre/right, soft right
 3808              		.loc 1 819 0
 3809 009a BB79     		ldrb	r3, [r7, #6]	@ zero_extendqisi2
 3810 009c 002B     		cmp	r3, #0
ARM GAS  C:\Users\Logan\AppData\Local\Temp\ccydAEbe.s 			page 83


 3811 009e 0ED0     		beq	.L211
 3812              		.loc 1 819 0 is_stmt 0 discriminator 1
 3813 00a0 7B79     		ldrb	r3, [r7, #5]	@ zero_extendqisi2
 3814 00a2 002B     		cmp	r3, #0
 3815 00a4 0BD0     		beq	.L211
 3816              		.loc 1 819 0 discriminator 2
 3817 00a6 FB79     		ldrb	r3, [r7, #7]	@ zero_extendqisi2
 3818 00a8 002B     		cmp	r3, #0
 3819 00aa 08D1     		bne	.L211
 820:.\main.c      ****     {
 821:.\main.c      ****         setSpeed(speed ,speed);
 3820              		.loc 1 821 0 is_stmt 1
 3821 00ac 264B     		ldr	r3, .L213+8
 3822 00ae D3E90001 		ldrd	r0, [r3]
 3823 00b2 254B     		ldr	r3, .L213+8
 3824 00b4 D3E90023 		ldrd	r2, [r3]
 3825 00b8 FFF7FEFF 		bl	setSpeed
 3826 00bc 3BE0     		b	.L207
 3827              	.L211:
 822:.\main.c      ****     }
 823:.\main.c      ****    else if (nr && !mid && !nl)    //if only right, hard right
 3828              		.loc 1 823 0
 3829 00be BB79     		ldrb	r3, [r7, #6]	@ zero_extendqisi2
 3830 00c0 002B     		cmp	r3, #0
 3831 00c2 27D0     		beq	.L212
 3832              		.loc 1 823 0 is_stmt 0 discriminator 1
 3833 00c4 7B79     		ldrb	r3, [r7, #5]	@ zero_extendqisi2
 3834 00c6 002B     		cmp	r3, #0
 3835 00c8 24D1     		bne	.L212
 3836              		.loc 1 823 0 discriminator 2
 3837 00ca FB79     		ldrb	r3, [r7, #7]	@ zero_extendqisi2
 3838 00cc 002B     		cmp	r3, #0
 3839 00ce 21D1     		bne	.L212
 824:.\main.c      ****     {
 825:.\main.c      ****         setSpeed(-speed / 1.6,speed / 1.6);
 3840              		.loc 1 825 0 is_stmt 1
 3841 00d0 1D4B     		ldr	r3, .L213+8
 3842 00d2 D3E90023 		ldrd	r2, [r3]
 3843 00d6 1446     		mov	r4, r2
 3844 00d8 83F00045 		eor	r5, r3, #-2147483648
 3845 00dc 2046     		mov	r0, r4
 3846 00de 2946     		mov	r1, r5
 3847 00e0 17A3     		adr	r3, .L213
 3848 00e2 D3E90023 		ldrd	r2, [r3]
 3849 00e6 FFF7FEFF 		bl	__aeabi_ddiv
 3850 00ea 0246     		mov	r2, r0
 3851 00ec 0B46     		mov	r3, r1
 3852 00ee 1446     		mov	r4, r2
 3853 00f0 1D46     		mov	r5, r3
 3854 00f2 154B     		ldr	r3, .L213+8
 3855 00f4 D3E90023 		ldrd	r2, [r3]
 3856 00f8 1046     		mov	r0, r2
 3857 00fa 1946     		mov	r1, r3
 3858 00fc 10A3     		adr	r3, .L213
 3859 00fe D3E90023 		ldrd	r2, [r3]
 3860 0102 FFF7FEFF 		bl	__aeabi_ddiv
 3861 0106 0246     		mov	r2, r0
ARM GAS  C:\Users\Logan\AppData\Local\Temp\ccydAEbe.s 			page 84


 3862 0108 0B46     		mov	r3, r1
 3863 010a 2046     		mov	r0, r4
 3864 010c 2946     		mov	r1, r5
 3865 010e FFF7FEFF 		bl	setSpeed
 3866 0112 10E0     		b	.L207
 3867              	.L212:
 826:.\main.c      ****     }
 827:.\main.c      ****     else if (mid && !nr && !nl)
 3868              		.loc 1 827 0
 3869 0114 7B79     		ldrb	r3, [r7, #5]	@ zero_extendqisi2
 3870 0116 002B     		cmp	r3, #0
 3871 0118 0DD0     		beq	.L207
 3872              		.loc 1 827 0 is_stmt 0 discriminator 1
 3873 011a BB79     		ldrb	r3, [r7, #6]	@ zero_extendqisi2
 3874 011c 002B     		cmp	r3, #0
 3875 011e 0AD1     		bne	.L207
 3876              		.loc 1 827 0 discriminator 2
 3877 0120 FB79     		ldrb	r3, [r7, #7]	@ zero_extendqisi2
 3878 0122 002B     		cmp	r3, #0
 3879 0124 07D1     		bne	.L207
 828:.\main.c      ****     {
 829:.\main.c      ****         setSpeed(speed,speed);
 3880              		.loc 1 829 0 is_stmt 1
 3881 0126 084B     		ldr	r3, .L213+8
 3882 0128 D3E90001 		ldrd	r0, [r3]
 3883 012c 064B     		ldr	r3, .L213+8
 3884 012e D3E90023 		ldrd	r2, [r3]
 3885 0132 FFF7FEFF 		bl	setSpeed
 3886              	.L207:
 830:.\main.c      ****     }
 831:.\main.c      **** }
 3887              		.loc 1 831 0
 3888 0136 0837     		adds	r7, r7, #8
 3889              		.cfi_def_cfa_offset 24
 3890 0138 BD46     		mov	sp, r7
 3891              		.cfi_def_cfa_register 13
 3892              		@ sp needed
 3893 013a BDE8B083 		pop	{r4, r5, r7, r8, r9, pc}
 3894              	.L214:
 3895 013e 00BF     		.align	3
 3896              	.L213:
 3897 0140 9A999999 		.word	-1717986918
 3898 0144 9999F93F 		.word	1073322393
 3899 0148 00000000 		.word	speed
 3900              		.cfi_endproc
 3901              	.LFE98:
 3902              		.size	trackLineZ, .-trackLineZ
 3903 014c AFF30080 		.section	.text.trackLineU,"ax",%progbits
 3904              		.align	2
 3905              		.global	trackLineU
 3906              		.thumb
 3907              		.thumb_func
 3908              		.type	trackLineU, %function
 3909              	trackLineU:
 3910              	.LFB99:
 832:.\main.c      **** 
 833:.\main.c      **** 
ARM GAS  C:\Users\Logan\AppData\Local\Temp\ccydAEbe.s 			page 85


 834:.\main.c      **** void trackLineU()
 835:.\main.c      **** { 
 3911              		.loc 1 835 0
 3912              		.cfi_startproc
 3913              		@ args = 0, pretend = 0, frame = 0
 3914              		@ frame_needed = 1, uses_anonymous_args = 0
 3915              		@ link register save eliminated.
 3916 0000 80B4     		push	{r7}
 3917              		.cfi_def_cfa_offset 4
 3918              		.cfi_offset 7, -4
 3919 0002 00AF     		add	r7, sp, #0
 3920              		.cfi_def_cfa_register 7
 836:.\main.c      **** //removed from final implementation
 837:.\main.c      **** }
 3921              		.loc 1 837 0
 3922 0004 BD46     		mov	sp, r7
 3923              		.cfi_def_cfa_register 13
 3924              		@ sp needed
 3925 0006 5DF8047B 		ldr	r7, [sp], #4
 3926              		.cfi_restore 7
 3927              		.cfi_def_cfa_offset 0
 3928 000a 7047     		bx	lr
 3929              		.cfi_endproc
 3930              	.LFE99:
 3931              		.size	trackLineU, .-trackLineU
 3932              		.global	__aeabi_fadd
 3933              		.section	.rodata
 3934 00a7 00       		.align	2
 3935              	.LC9:
 3936 00a8 42617474 		.ascii	"Battery Voltage: %dmv\012\015\000"
 3936      65727920 
 3936      566F6C74 
 3936      6167653A 
 3936      2025646D 
 3937              		.section	.text.print_ADC,"ax",%progbits
 3938              		.align	2
 3939              		.global	print_ADC
 3940              		.thumb
 3941              		.thumb_func
 3942              		.type	print_ADC, %function
 3943              	print_ADC:
 3944              	.LFB100:
 838:.\main.c      **** 
 839:.\main.c      **** void print_ADC()
 840:.\main.c      **** {
 3945              		.loc 1 840 0
 3946              		.cfi_startproc
 3947              		@ args = 0, pretend = 0, frame = 24
 3948              		@ frame_needed = 1, uses_anonymous_args = 0
 3949 0000 80B5     		push	{r7, lr}
 3950              		.cfi_def_cfa_offset 8
 3951              		.cfi_offset 7, -8
 3952              		.cfi_offset 14, -4
 3953 0002 86B0     		sub	sp, sp, #24
 3954              		.cfi_def_cfa_offset 32
 3955 0004 00AF     		add	r7, sp, #0
 3956              		.cfi_def_cfa_register 7
ARM GAS  C:\Users\Logan\AppData\Local\Temp\ccydAEbe.s 			page 86


 841:.\main.c      ****    //usbPutString("HII\n");
 842:.\main.c      ****     if(flag_receive_ADC == 1)
 3957              		.loc 1 842 0
 3958 0006 274B     		ldr	r3, .L219
 3959 0008 1B78     		ldrb	r3, [r3]	@ zero_extendqisi2
 3960 000a 012B     		cmp	r3, #1
 3961 000c 46D1     		bne	.L216
 3962              	.LBB8:
 843:.\main.c      ****     {
 844:.\main.c      ****         //usbPutString("AAA\r\n");
 845:.\main.c      ****         flag_receive_ADC = 0;
 3963              		.loc 1 845 0
 3964 000e 254B     		ldr	r3, .L219
 3965 0010 0022     		movs	r2, #0
 3966 0012 1A70     		strb	r2, [r3]
 846:.\main.c      ****         
 847:.\main.c      ****        // int8 channel = ADC_
 848:.\main.c      ****         float scalingFactor = 0.972;
 3967              		.loc 1 848 0
 3968 0014 244B     		ldr	r3, .L219+4
 3969 0016 7B61     		str	r3, [r7, #20]	@ float
 849:.\main.c      ****         int16 converted_val = (5000 * adc_result) / 4096 * scalingFactor * 2;
 3970              		.loc 1 849 0
 3971 0018 244B     		ldr	r3, .L219+8
 3972 001a 1B88     		ldrh	r3, [r3]
 3973 001c 1BB2     		sxth	r3, r3
 3974 001e 41F28832 		movw	r2, #5000
 3975 0022 02FB03F3 		mul	r3, r2, r3
 3976 0026 002B     		cmp	r3, #0
 3977 0028 01DA     		bge	.L218
 3978 002a 03F6FF73 		addw	r3, r3, #4095
 3979              	.L218:
 3980 002e 1B13     		asrs	r3, r3, #12
 3981 0030 1846     		mov	r0, r3
 3982 0032 FFF7FEFF 		bl	__aeabi_i2f
 3983 0036 0346     		mov	r3, r0
 3984 0038 1846     		mov	r0, r3
 3985 003a 7969     		ldr	r1, [r7, #20]	@ float
 3986 003c FFF7FEFF 		bl	__aeabi_fmul
 3987 0040 0346     		mov	r3, r0
 3988 0042 1846     		mov	r0, r3
 3989 0044 1946     		mov	r1, r3
 3990 0046 FFF7FEFF 		bl	__aeabi_fadd
 3991 004a 0346     		mov	r3, r0
 3992 004c 1846     		mov	r0, r3
 3993 004e FFF7FEFF 		bl	__aeabi_f2iz
 3994 0052 0346     		mov	r3, r0
 3995 0054 7B82     		strh	r3, [r7, #18]	@ movhi
 850:.\main.c      ****         converted_val = (converted_val + prevVoltage + prevVoltage2) / 3; //smooth rapid changes in
 3996              		.loc 1 850 0
 3997 0056 B7F91220 		ldrsh	r2, [r7, #18]
 3998 005a 154B     		ldr	r3, .L219+12
 3999 005c 1B88     		ldrh	r3, [r3]
 4000 005e 1BB2     		sxth	r3, r3
 4001 0060 1A44     		add	r2, r2, r3
 4002 0062 144B     		ldr	r3, .L219+16
 4003 0064 1B88     		ldrh	r3, [r3]
ARM GAS  C:\Users\Logan\AppData\Local\Temp\ccydAEbe.s 			page 87


 4004 0066 1BB2     		sxth	r3, r3
 4005 0068 1344     		add	r3, r3, r2
 4006 006a 134A     		ldr	r2, .L219+20
 4007 006c 82FB0312 		smull	r1, r2, r2, r3
 4008 0070 DB17     		asrs	r3, r3, #31
 4009 0072 D31A     		subs	r3, r2, r3
 4010 0074 7B82     		strh	r3, [r7, #18]	@ movhi
 851:.\main.c      ****         prevVoltage2 = prevVoltage;
 4011              		.loc 1 851 0
 4012 0076 0E4B     		ldr	r3, .L219+12
 4013 0078 1A88     		ldrh	r2, [r3]
 4014 007a 0E4B     		ldr	r3, .L219+16
 4015 007c 1A80     		strh	r2, [r3]	@ movhi
 852:.\main.c      ****         prevVoltage = converted_val;
 4016              		.loc 1 852 0
 4017 007e 0C4A     		ldr	r2, .L219+12
 4018 0080 7B8A     		ldrh	r3, [r7, #18]	@ movhi
 4019 0082 1380     		strh	r3, [r2]	@ movhi
 853:.\main.c      ****         
 854:.\main.c      ****         char result_str[16];
 855:.\main.c      ****         sprintf(result_str, "Battery Voltage: %dmv\n\r", converted_val);
 4020              		.loc 1 855 0
 4021 0084 B7F91230 		ldrsh	r3, [r7, #18]
 4022 0088 3A46     		mov	r2, r7
 4023 008a 1046     		mov	r0, r2
 4024 008c 0B49     		ldr	r1, .L219+24
 4025 008e 1A46     		mov	r2, r3
 4026 0090 FFF7FEFF 		bl	sprintf
 856:.\main.c      ****         
 857:.\main.c      ****         usbPutString(result_str);
 4027              		.loc 1 857 0
 4028 0094 3B46     		mov	r3, r7
 4029 0096 1846     		mov	r0, r3
 4030 0098 FFF7FEFF 		bl	usbPutString
 4031              	.L216:
 4032              	.LBE8:
 858:.\main.c      ****     }
 859:.\main.c      **** }
 4033              		.loc 1 859 0
 4034 009c 1837     		adds	r7, r7, #24
 4035              		.cfi_def_cfa_offset 8
 4036 009e BD46     		mov	sp, r7
 4037              		.cfi_def_cfa_register 13
 4038              		@ sp needed
 4039 00a0 80BD     		pop	{r7, pc}
 4040              	.L220:
 4041 00a2 00BF     		.align	2
 4042              	.L219:
 4043 00a4 00000000 		.word	flag_receive_ADC
 4044 00a8 FED4783F 		.word	1064883454
 4045 00ac 00000000 		.word	adc_result
 4046 00b0 00000000 		.word	prevVoltage
 4047 00b4 00000000 		.word	prevVoltage2
 4048 00b8 56555555 		.word	1431655766
 4049 00bc A8000000 		.word	.LC9
 4050              		.cfi_endproc
 4051              	.LFE100:
ARM GAS  C:\Users\Logan\AppData\Local\Temp\ccydAEbe.s 			page 88


 4052              		.size	print_ADC, .-print_ADC
 4053              		.section	.rodata
 4054              		.align	2
 4055              	.LC10:
 4056 00c0 52535349 		.ascii	"RSSI:\000"
 4056      3A00
 4057 00c6 0000     		.align	2
 4058              	.LC11:
 4059 00c8 25640D0A 		.ascii	"%d\015\012\000"
 4059      00
 4060 00cd 000000   		.align	2
 4061              	.LC12:
 4062 00d0 726F626F 		.ascii	"robot_x:\000"
 4062      745F783A 
 4062      00
 4063 00d9 000000   		.align	2
 4064              	.LC13:
 4065 00dc 726F626F 		.ascii	"robot_y:\000"
 4065      745F793A 
 4065      00
 4066 00e5 000000   		.align	2
 4067              	.LC14:
 4068 00e8 726F626F 		.ascii	"robot_dir:\000"
 4068      745F6469 
 4068      723A00
 4069 00f3 00       		.section	.text.print_RF,"ax",%progbits
 4070              		.align	2
 4071              		.global	print_RF
 4072              		.thumb
 4073              		.thumb_func
 4074              		.type	print_RF, %function
 4075              	print_RF:
 4076              	.LFB101:
 860:.\main.c      **** 
 861:.\main.c      **** void print_RF()
 862:.\main.c      **** {
 4077              		.loc 1 862 0
 4078              		.cfi_startproc
 4079              		@ args = 0, pretend = 0, frame = 16
 4080              		@ frame_needed = 1, uses_anonymous_args = 0
 4081 0000 80B5     		push	{r7, lr}
 4082              		.cfi_def_cfa_offset 8
 4083              		.cfi_offset 7, -8
 4084              		.cfi_offset 14, -4
 4085 0002 84B0     		sub	sp, sp, #16
 4086              		.cfi_def_cfa_offset 24
 4087 0004 00AF     		add	r7, sp, #0
 4088              		.cfi_def_cfa_register 7
 863:.\main.c      ****     if(flag_print_rf == 1)
 4089              		.loc 1 863 0
 4090 0006 254B     		ldr	r3, .L223
 4091 0008 1B78     		ldrb	r3, [r3]	@ zero_extendqisi2
 4092 000a 012B     		cmp	r3, #1
 4093 000c 42D1     		bne	.L221
 4094              	.LBB9:
 864:.\main.c      ****     {
 865:.\main.c      ****         char printString[16];
ARM GAS  C:\Users\Logan\AppData\Local\Temp\ccydAEbe.s 			page 89


 866:.\main.c      ****         flag_print_rf = 0;
 4095              		.loc 1 866 0
 4096 000e 234B     		ldr	r3, .L223
 4097 0010 0022     		movs	r2, #0
 4098 0012 1A70     		strb	r2, [r3]
 867:.\main.c      ****         usbPutString("RSSI:");
 4099              		.loc 1 867 0
 4100 0014 2248     		ldr	r0, .L223+4
 4101 0016 FFF7FEFF 		bl	usbPutString
 868:.\main.c      ****         sprintf(printString, "%d\r\n", system_state.rssi);
 4102              		.loc 1 868 0
 4103 001a 224B     		ldr	r3, .L223+8
 4104 001c 1B78     		ldrb	r3, [r3]	@ zero_extendqisi2
 4105 001e 5BB2     		sxtb	r3, r3
 4106 0020 3A46     		mov	r2, r7
 4107 0022 1046     		mov	r0, r2
 4108 0024 2049     		ldr	r1, .L223+12
 4109 0026 1A46     		mov	r2, r3
 4110 0028 FFF7FEFF 		bl	sprintf
 869:.\main.c      ****         usbPutString(printString);
 4111              		.loc 1 869 0
 4112 002c 3B46     		mov	r3, r7
 4113 002e 1846     		mov	r0, r3
 4114 0030 FFF7FEFF 		bl	usbPutString
 870:.\main.c      ****         usbPutString("robot_x:");
 4115              		.loc 1 870 0
 4116 0034 1D48     		ldr	r0, .L223+16
 4117 0036 FFF7FEFF 		bl	usbPutString
 871:.\main.c      ****         sprintf(printString, "%d\r\n", system_state.robot_xpos);
 4118              		.loc 1 871 0
 4119 003a 1A4B     		ldr	r3, .L223+8
 4120 003c 5B88     		ldrh	r3, [r3, #2]
 4121 003e 1BB2     		sxth	r3, r3
 4122 0040 3A46     		mov	r2, r7
 4123 0042 1046     		mov	r0, r2
 4124 0044 1849     		ldr	r1, .L223+12
 4125 0046 1A46     		mov	r2, r3
 4126 0048 FFF7FEFF 		bl	sprintf
 872:.\main.c      ****         usbPutString(printString);
 4127              		.loc 1 872 0
 4128 004c 3B46     		mov	r3, r7
 4129 004e 1846     		mov	r0, r3
 4130 0050 FFF7FEFF 		bl	usbPutString
 873:.\main.c      ****         usbPutString("robot_y:");
 4131              		.loc 1 873 0
 4132 0054 1648     		ldr	r0, .L223+20
 4133 0056 FFF7FEFF 		bl	usbPutString
 874:.\main.c      ****         sprintf(printString, "%d\r\n", system_state.robot_ypos);
 4134              		.loc 1 874 0
 4135 005a 124B     		ldr	r3, .L223+8
 4136 005c 9B88     		ldrh	r3, [r3, #4]
 4137 005e 1BB2     		sxth	r3, r3
 4138 0060 3A46     		mov	r2, r7
 4139 0062 1046     		mov	r0, r2
 4140 0064 1049     		ldr	r1, .L223+12
 4141 0066 1A46     		mov	r2, r3
 4142 0068 FFF7FEFF 		bl	sprintf
ARM GAS  C:\Users\Logan\AppData\Local\Temp\ccydAEbe.s 			page 90


 875:.\main.c      ****         usbPutString(printString);
 4143              		.loc 1 875 0
 4144 006c 3B46     		mov	r3, r7
 4145 006e 1846     		mov	r0, r3
 4146 0070 FFF7FEFF 		bl	usbPutString
 876:.\main.c      ****         usbPutString("robot_dir:");
 4147              		.loc 1 876 0
 4148 0074 0F48     		ldr	r0, .L223+24
 4149 0076 FFF7FEFF 		bl	usbPutString
 877:.\main.c      ****         sprintf(printString, "%d\r\n", system_state.robot_orientation);
 4150              		.loc 1 877 0
 4151 007a 0A4B     		ldr	r3, .L223+8
 4152 007c DB88     		ldrh	r3, [r3, #6]
 4153 007e 1BB2     		sxth	r3, r3
 4154 0080 3A46     		mov	r2, r7
 4155 0082 1046     		mov	r0, r2
 4156 0084 0849     		ldr	r1, .L223+12
 4157 0086 1A46     		mov	r2, r3
 4158 0088 FFF7FEFF 		bl	sprintf
 878:.\main.c      ****         usbPutString(printString);
 4159              		.loc 1 878 0
 4160 008c 3B46     		mov	r3, r7
 4161 008e 1846     		mov	r0, r3
 4162 0090 FFF7FEFF 		bl	usbPutString
 4163              	.L221:
 4164              	.LBE9:
 879:.\main.c      ****     }
 880:.\main.c      **** }
 4165              		.loc 1 880 0
 4166 0094 1037     		adds	r7, r7, #16
 4167              		.cfi_def_cfa_offset 8
 4168 0096 BD46     		mov	sp, r7
 4169              		.cfi_def_cfa_register 13
 4170              		@ sp needed
 4171 0098 80BD     		pop	{r7, pc}
 4172              	.L224:
 4173 009a 00BF     		.align	2
 4174              	.L223:
 4175 009c 00000000 		.word	flag_print_rf
 4176 00a0 C0000000 		.word	.LC10
 4177 00a4 00000000 		.word	system_state
 4178 00a8 C8000000 		.word	.LC11
 4179 00ac D0000000 		.word	.LC12
 4180 00b0 DC000000 		.word	.LC13
 4181 00b4 E8000000 		.word	.LC14
 4182              		.cfi_endproc
 4183              	.LFE101:
 4184              		.size	print_RF, .-print_RF
 4185              		.section	.text.readFrontSensors,"ax",%progbits
 4186              		.align	2
 4187              		.global	readFrontSensors
 4188              		.thumb
 4189              		.thumb_func
 4190              		.type	readFrontSensors, %function
 4191              	readFrontSensors:
 4192              	.LFB102:
 881:.\main.c      **** 
ARM GAS  C:\Users\Logan\AppData\Local\Temp\ccydAEbe.s 			page 91


 882:.\main.c      **** void readFrontSensors(uint8 sensorVals[5])
 883:.\main.c      **** {
 4193              		.loc 1 883 0
 4194              		.cfi_startproc
 4195              		@ args = 0, pretend = 0, frame = 8
 4196              		@ frame_needed = 1, uses_anonymous_args = 0
 4197 0000 90B5     		push	{r4, r7, lr}
 4198              		.cfi_def_cfa_offset 12
 4199              		.cfi_offset 4, -12
 4200              		.cfi_offset 7, -8
 4201              		.cfi_offset 14, -4
 4202 0002 83B0     		sub	sp, sp, #12
 4203              		.cfi_def_cfa_offset 24
 4204 0004 00AF     		add	r7, sp, #0
 4205              		.cfi_def_cfa_register 7
 4206 0006 7860     		str	r0, [r7, #4]
 884:.\main.c      ****     sensorVals[0] = FLSens_out_Read();
 4207              		.loc 1 884 0
 4208 0008 FFF7FEFF 		bl	FLSens_out_Read
 4209 000c 0346     		mov	r3, r0
 4210 000e 1A46     		mov	r2, r3
 4211 0010 7B68     		ldr	r3, [r7, #4]
 4212 0012 1A70     		strb	r2, [r3]
 885:.\main.c      ****     sensorVals[1] = NLSens_out_Read();
 4213              		.loc 1 885 0
 4214 0014 7B68     		ldr	r3, [r7, #4]
 4215 0016 5C1C     		adds	r4, r3, #1
 4216 0018 FFF7FEFF 		bl	NLSens_out_Read
 4217 001c 0346     		mov	r3, r0
 4218 001e 2370     		strb	r3, [r4]
 886:.\main.c      ****     sensorVals[2] = MSens_out_Read();
 4219              		.loc 1 886 0
 4220 0020 7B68     		ldr	r3, [r7, #4]
 4221 0022 9C1C     		adds	r4, r3, #2
 4222 0024 FFF7FEFF 		bl	MSens_out_Read
 4223 0028 0346     		mov	r3, r0
 4224 002a 2370     		strb	r3, [r4]
 887:.\main.c      ****     sensorVals[3] = NRSens_out_Read();
 4225              		.loc 1 887 0
 4226 002c 7B68     		ldr	r3, [r7, #4]
 4227 002e DC1C     		adds	r4, r3, #3
 4228 0030 FFF7FEFF 		bl	NRSens_out_Read
 4229 0034 0346     		mov	r3, r0
 4230 0036 2370     		strb	r3, [r4]
 888:.\main.c      ****     sensorVals[4] = FRSens_out_Read();
 4231              		.loc 1 888 0
 4232 0038 7B68     		ldr	r3, [r7, #4]
 4233 003a 1C1D     		adds	r4, r3, #4
 4234 003c FFF7FEFF 		bl	FRSens_out_Read
 4235 0040 0346     		mov	r3, r0
 4236 0042 2370     		strb	r3, [r4]
 889:.\main.c      **** }
 4237              		.loc 1 889 0
 4238 0044 0C37     		adds	r7, r7, #12
 4239              		.cfi_def_cfa_offset 12
 4240 0046 BD46     		mov	sp, r7
 4241              		.cfi_def_cfa_register 13
ARM GAS  C:\Users\Logan\AppData\Local\Temp\ccydAEbe.s 			page 92


 4242              		@ sp needed
 4243 0048 90BD     		pop	{r4, r7, pc}
 4244              		.cfi_endproc
 4245              	.LFE102:
 4246              		.size	readFrontSensors, .-readFrontSensors
 4247 004a 00BF     		.section	.text.usbPutString,"ax",%progbits
 4248              		.align	2
 4249              		.global	usbPutString
 4250              		.thumb
 4251              		.thumb_func
 4252              		.type	usbPutString, %function
 4253              	usbPutString:
 4254              	.LFB103:
 890:.\main.c      **** 
 891:.\main.c      **** 
 892:.\main.c      **** //* ========================================
 893:.\main.c      **** void usbPutString(char *s)
 894:.\main.c      **** {
 4255              		.loc 1 894 0
 4256              		.cfi_startproc
 4257              		@ args = 0, pretend = 0, frame = 16
 4258              		@ frame_needed = 1, uses_anonymous_args = 0
 4259 0000 80B5     		push	{r7, lr}
 4260              		.cfi_def_cfa_offset 8
 4261              		.cfi_offset 7, -8
 4262              		.cfi_offset 14, -4
 4263 0002 84B0     		sub	sp, sp, #16
 4264              		.cfi_def_cfa_offset 24
 4265 0004 00AF     		add	r7, sp, #0
 4266              		.cfi_def_cfa_register 7
 4267 0006 7860     		str	r0, [r7, #4]
 895:.\main.c      **** // !! Assumes that *s is a string with allocated space >=64 chars     
 896:.\main.c      **** //  Since USB implementation retricts data packets to 64 chars, this function truncates the
 897:.\main.c      **** //  length to 62 char (63rd char is a '!')
 898:.\main.c      ****     if (USE_USB && portOpen)    
 4268              		.loc 1 898 0
 4269 0008 154B     		ldr	r3, .L230
 4270 000a 1B78     		ldrb	r3, [r3]	@ zero_extendqisi2
 4271 000c 002B     		cmp	r3, #0
 4272 000e 23D0     		beq	.L226
 4273              	.LBB10:
 899:.\main.c      ****     {
 900:.\main.c      ****             uint32 cnt = 0;
 4274              		.loc 1 900 0
 4275 0010 0023     		movs	r3, #0
 4276 0012 FB60     		str	r3, [r7, #12]
 901:.\main.c      ****             while (USBUART_CDCIsReady() == 0)
 4277              		.loc 1 901 0
 4278 0014 0AE0     		b	.L228
 4279              	.L229:
 902:.\main.c      ****             {
 903:.\main.c      ****                 cnt++;
 4280              		.loc 1 903 0
 4281 0016 FB68     		ldr	r3, [r7, #12]
 4282 0018 0133     		adds	r3, r3, #1
 4283 001a FB60     		str	r3, [r7, #12]
 904:.\main.c      ****                 if(cnt == 3000000){
ARM GAS  C:\Users\Logan\AppData\Local\Temp\ccydAEbe.s 			page 93


 4284              		.loc 1 904 0
 4285 001c FB68     		ldr	r3, [r7, #12]
 4286 001e 114A     		ldr	r2, .L230+4
 4287 0020 9342     		cmp	r3, r2
 4288 0022 03D1     		bne	.L228
 905:.\main.c      ****                     portOpen = 0;
 4289              		.loc 1 905 0
 4290 0024 0E4B     		ldr	r3, .L230
 4291 0026 0022     		movs	r2, #0
 4292 0028 1A70     		strb	r2, [r3]
 906:.\main.c      ****                     return;
 4293              		.loc 1 906 0
 4294 002a 15E0     		b	.L226
 4295              	.L228:
 901:.\main.c      ****             {
 4296              		.loc 1 901 0
 4297 002c FFF7FEFF 		bl	USBUART_CDCIsReady
 4298 0030 0346     		mov	r3, r0
 4299 0032 002B     		cmp	r3, #0
 4300 0034 EFD0     		beq	.L229
 907:.\main.c      ****                 }
 908:.\main.c      ****             }
 909:.\main.c      ****             s[63]='\0';
 4301              		.loc 1 909 0
 4302 0036 7B68     		ldr	r3, [r7, #4]
 4303 0038 3F33     		adds	r3, r3, #63
 4304 003a 0022     		movs	r2, #0
 4305 003c 1A70     		strb	r2, [r3]
 910:.\main.c      ****             s[62]='!';
 4306              		.loc 1 910 0
 4307 003e 7B68     		ldr	r3, [r7, #4]
 4308 0040 3E33     		adds	r3, r3, #62
 4309 0042 2122     		movs	r2, #33
 4310 0044 1A70     		strb	r2, [r3]
 911:.\main.c      ****             USBUART_PutData((uint8*)s,strlen(s));
 4311              		.loc 1 911 0
 4312 0046 7868     		ldr	r0, [r7, #4]
 4313 0048 FFF7FEFF 		bl	strlen
 4314 004c 0346     		mov	r3, r0
 4315 004e 9BB2     		uxth	r3, r3
 4316 0050 7868     		ldr	r0, [r7, #4]
 4317 0052 1946     		mov	r1, r3
 4318 0054 FFF7FEFF 		bl	USBUART_PutData
 4319              	.L226:
 4320              	.LBE10:
 912:.\main.c      ****     }
 913:.\main.c      **** }
 4321              		.loc 1 913 0
 4322 0058 1037     		adds	r7, r7, #16
 4323              		.cfi_def_cfa_offset 8
 4324 005a BD46     		mov	sp, r7
 4325              		.cfi_def_cfa_register 13
 4326              		@ sp needed
 4327 005c 80BD     		pop	{r7, pc}
 4328              	.L231:
 4329 005e 00BF     		.align	2
 4330              	.L230:
ARM GAS  C:\Users\Logan\AppData\Local\Temp\ccydAEbe.s 			page 94


 4331 0060 00000000 		.word	portOpen
 4332 0064 C0C62D00 		.word	3000000
 4333              		.cfi_endproc
 4334              	.LFE103:
 4335              		.size	usbPutString, .-usbPutString
 4336              		.section	.text.usbPutChar,"ax",%progbits
 4337              		.align	2
 4338              		.global	usbPutChar
 4339              		.thumb
 4340              		.thumb_func
 4341              		.type	usbPutChar, %function
 4342              	usbPutChar:
 4343              	.LFB104:
 914:.\main.c      **** //* ========================================
 915:.\main.c      **** void usbPutChar(char c)
 916:.\main.c      **** {
 4344              		.loc 1 916 0
 4345              		.cfi_startproc
 4346              		@ args = 0, pretend = 0, frame = 16
 4347              		@ frame_needed = 1, uses_anonymous_args = 0
 4348 0000 80B5     		push	{r7, lr}
 4349              		.cfi_def_cfa_offset 8
 4350              		.cfi_offset 7, -8
 4351              		.cfi_offset 14, -4
 4352 0002 84B0     		sub	sp, sp, #16
 4353              		.cfi_def_cfa_offset 24
 4354 0004 00AF     		add	r7, sp, #0
 4355              		.cfi_def_cfa_register 7
 4356 0006 0346     		mov	r3, r0
 4357 0008 FB71     		strb	r3, [r7, #7]
 917:.\main.c      ****     if (USE_USB && portOpen)    
 4358              		.loc 1 917 0
 4359 000a 0F4B     		ldr	r3, .L236
 4360 000c 1B78     		ldrb	r3, [r3]	@ zero_extendqisi2
 4361 000e 002B     		cmp	r3, #0
 4362 0010 16D0     		beq	.L232
 4363              	.LBB11:
 918:.\main.c      ****     {    
 919:.\main.c      ****         uint32 cnt = 0;
 4364              		.loc 1 919 0
 4365 0012 0023     		movs	r3, #0
 4366 0014 FB60     		str	r3, [r7, #12]
 920:.\main.c      ****         while (USBUART_CDCIsReady() == 0){
 4367              		.loc 1 920 0
 4368 0016 0AE0     		b	.L234
 4369              	.L235:
 921:.\main.c      ****             cnt++;
 4370              		.loc 1 921 0
 4371 0018 FB68     		ldr	r3, [r7, #12]
 4372 001a 0133     		adds	r3, r3, #1
 4373 001c FB60     		str	r3, [r7, #12]
 922:.\main.c      ****             if(cnt == 3000000){
 4374              		.loc 1 922 0
 4375 001e FB68     		ldr	r3, [r7, #12]
 4376 0020 0A4A     		ldr	r2, .L236+4
 4377 0022 9342     		cmp	r3, r2
 4378 0024 03D1     		bne	.L234
ARM GAS  C:\Users\Logan\AppData\Local\Temp\ccydAEbe.s 			page 95


 923:.\main.c      ****                 portOpen = 0;
 4379              		.loc 1 923 0
 4380 0026 084B     		ldr	r3, .L236
 4381 0028 0022     		movs	r2, #0
 4382 002a 1A70     		strb	r2, [r3]
 924:.\main.c      ****                 return;
 4383              		.loc 1 924 0
 4384 002c 08E0     		b	.L232
 4385              	.L234:
 920:.\main.c      ****             cnt++;
 4386              		.loc 1 920 0
 4387 002e FFF7FEFF 		bl	USBUART_CDCIsReady
 4388 0032 0346     		mov	r3, r0
 4389 0034 002B     		cmp	r3, #0
 4390 0036 EFD0     		beq	.L235
 925:.\main.c      ****             }
 926:.\main.c      ****         }
 927:.\main.c      ****         USBUART_PutChar(c);
 4391              		.loc 1 927 0
 4392 0038 FB79     		ldrb	r3, [r7, #7]	@ zero_extendqisi2
 4393 003a 1846     		mov	r0, r3
 4394 003c FFF7FEFF 		bl	USBUART_PutChar
 4395              	.L232:
 4396              	.LBE11:
 928:.\main.c      ****     }    
 929:.\main.c      **** }
 4397              		.loc 1 929 0
 4398 0040 1037     		adds	r7, r7, #16
 4399              		.cfi_def_cfa_offset 8
 4400 0042 BD46     		mov	sp, r7
 4401              		.cfi_def_cfa_register 13
 4402              		@ sp needed
 4403 0044 80BD     		pop	{r7, pc}
 4404              	.L237:
 4405 0046 00BF     		.align	2
 4406              	.L236:
 4407 0048 00000000 		.word	portOpen
 4408 004c C0C62D00 		.word	3000000
 4409              		.cfi_endproc
 4410              	.LFE104:
 4411              		.size	usbPutChar, .-usbPutChar
 4412              		.section	.text.uart_set_PWM,"ax",%progbits
 4413              		.align	2
 4414              		.global	uart_set_PWM
 4415              		.thumb
 4416              		.thumb_func
 4417              		.type	uart_set_PWM, %function
 4418              	uart_set_PWM:
 4419              	.LFB105:
 930:.\main.c      **** //* ========================================
 931:.\main.c      **** 
 932:.\main.c      **** void uart_set_PWM()
 933:.\main.c      **** {
 4420              		.loc 1 933 0
 4421              		.cfi_startproc
 4422              		@ args = 0, pretend = 0, frame = 0
 4423              		@ frame_needed = 1, uses_anonymous_args = 0
ARM GAS  C:\Users\Logan\AppData\Local\Temp\ccydAEbe.s 			page 96


 4424              		@ link register save eliminated.
 4425 0000 80B4     		push	{r7}
 4426              		.cfi_def_cfa_offset 4
 4427              		.cfi_offset 7, -4
 4428 0002 00AF     		add	r7, sp, #0
 4429              		.cfi_def_cfa_register 7
 934:.\main.c      ****     //removed from final implementation
 935:.\main.c      **** }
 4430              		.loc 1 935 0
 4431 0004 BD46     		mov	sp, r7
 4432              		.cfi_def_cfa_register 13
 4433              		@ sp needed
 4434 0006 5DF8047B 		ldr	r7, [sp], #4
 4435              		.cfi_restore 7
 4436              		.cfi_def_cfa_offset 0
 4437 000a 7047     		bx	lr
 4438              		.cfi_endproc
 4439              	.LFE105:
 4440              		.size	uart_set_PWM, .-uart_set_PWM
 4441              		.text
 4442              	.Letext0:
 4443              		.file 2 "c:\\program files (x86)\\cypress\\psoc creator\\3.3\\psoc creator\\import\\gnu\\arm\\4.9.
 4444              		.file 3 "c:\\program files (x86)\\cypress\\psoc creator\\3.3\\psoc creator\\import\\gnu\\arm\\4.9.
 4445              		.file 4 "Generated_Source\\PSoC5/cytypes.h"
 4446              		.file 5 ".\\vars.h"
 4447              		.file 6 "Generated_Source\\PSoC5/core_cm3.h"
 4448              		.file 7 ".\\pathfinder.h"
 4449              		.section	.debug_info,"",%progbits
 4450              	.Ldebug_info0:
 4451 0000 AA0D0000 		.4byte	0xdaa
 4452 0004 0400     		.2byte	0x4
 4453 0006 00000000 		.4byte	.Ldebug_abbrev0
 4454 000a 04       		.byte	0x4
 4455 000b 01       		.uleb128 0x1
 4456 000c 96040000 		.4byte	.LASF193
 4457 0010 01       		.byte	0x1
 4458 0011 48090000 		.4byte	.LASF194
 4459 0015 1C000000 		.4byte	.LASF195
 4460 0019 00000000 		.4byte	.Ldebug_ranges0+0
 4461 001d 00000000 		.4byte	0
 4462 0021 00000000 		.4byte	.Ldebug_line0
 4463 0025 02       		.uleb128 0x2
 4464 0026 01       		.byte	0x1
 4465 0027 06       		.byte	0x6
 4466 0028 7D080000 		.4byte	.LASF0
 4467 002c 02       		.uleb128 0x2
 4468 002d 01       		.byte	0x1
 4469 002e 08       		.byte	0x8
 4470 002f C9070000 		.4byte	.LASF1
 4471 0033 02       		.uleb128 0x2
 4472 0034 02       		.byte	0x2
 4473 0035 05       		.byte	0x5
 4474 0036 4C060000 		.4byte	.LASF2
 4475 003a 02       		.uleb128 0x2
 4476 003b 02       		.byte	0x2
 4477 003c 07       		.byte	0x7
 4478 003d 89080000 		.4byte	.LASF3
ARM GAS  C:\Users\Logan\AppData\Local\Temp\ccydAEbe.s 			page 97


 4479 0041 03       		.uleb128 0x3
 4480 0042 DF000000 		.4byte	.LASF5
 4481 0046 02       		.byte	0x2
 4482 0047 3F       		.byte	0x3f
 4483 0048 4C000000 		.4byte	0x4c
 4484 004c 02       		.uleb128 0x2
 4485 004d 04       		.byte	0x4
 4486 004e 05       		.byte	0x5
 4487 004f 80060000 		.4byte	.LASF4
 4488 0053 03       		.uleb128 0x3
 4489 0054 D7070000 		.4byte	.LASF6
 4490 0058 02       		.byte	0x2
 4491 0059 41       		.byte	0x41
 4492 005a 5E000000 		.4byte	0x5e
 4493 005e 02       		.uleb128 0x2
 4494 005f 04       		.byte	0x4
 4495 0060 07       		.byte	0x7
 4496 0061 74070000 		.4byte	.LASF7
 4497 0065 02       		.uleb128 0x2
 4498 0066 08       		.byte	0x8
 4499 0067 05       		.byte	0x5
 4500 0068 60040000 		.4byte	.LASF8
 4501 006c 02       		.uleb128 0x2
 4502 006d 08       		.byte	0x8
 4503 006e 07       		.byte	0x7
 4504 006f 86020000 		.4byte	.LASF9
 4505 0073 04       		.uleb128 0x4
 4506 0074 04       		.byte	0x4
 4507 0075 05       		.byte	0x5
 4508 0076 696E7400 		.ascii	"int\000"
 4509 007a 02       		.uleb128 0x2
 4510 007b 04       		.byte	0x4
 4511 007c 07       		.byte	0x7
 4512 007d C7000000 		.4byte	.LASF10
 4513 0081 02       		.uleb128 0x2
 4514 0082 04       		.byte	0x4
 4515 0083 07       		.byte	0x7
 4516 0084 6B070000 		.4byte	.LASF11
 4517 0088 05       		.uleb128 0x5
 4518 0089 04       		.byte	0x4
 4519 008a 8E000000 		.4byte	0x8e
 4520 008e 02       		.uleb128 0x2
 4521 008f 01       		.byte	0x1
 4522 0090 08       		.byte	0x8
 4523 0091 B5030000 		.4byte	.LASF12
 4524 0095 03       		.uleb128 0x3
 4525 0096 92070000 		.4byte	.LASF13
 4526 009a 03       		.byte	0x3
 4527 009b 2C       		.byte	0x2c
 4528 009c 41000000 		.4byte	0x41
 4529 00a0 03       		.uleb128 0x3
 4530 00a1 06020000 		.4byte	.LASF14
 4531 00a5 03       		.byte	0x3
 4532 00a6 2D       		.byte	0x2d
 4533 00a7 53000000 		.4byte	0x53
 4534 00ab 06       		.uleb128 0x6
 4535 00ac D5080000 		.4byte	.LASF15
ARM GAS  C:\Users\Logan\AppData\Local\Temp\ccydAEbe.s 			page 98


 4536 00b0 04       		.byte	0x4
 4537 00b1 9201     		.2byte	0x192
 4538 00b3 2C000000 		.4byte	0x2c
 4539 00b7 06       		.uleb128 0x6
 4540 00b8 FD030000 		.4byte	.LASF16
 4541 00bc 04       		.byte	0x4
 4542 00bd 9301     		.2byte	0x193
 4543 00bf 3A000000 		.4byte	0x3a
 4544 00c3 06       		.uleb128 0x6
 4545 00c4 67050000 		.4byte	.LASF17
 4546 00c8 04       		.byte	0x4
 4547 00c9 9401     		.2byte	0x194
 4548 00cb 5E000000 		.4byte	0x5e
 4549 00cf 06       		.uleb128 0x6
 4550 00d0 04040000 		.4byte	.LASF18
 4551 00d4 04       		.byte	0x4
 4552 00d5 9501     		.2byte	0x195
 4553 00d7 25000000 		.4byte	0x25
 4554 00db 06       		.uleb128 0x6
 4555 00dc E9000000 		.4byte	.LASF19
 4556 00e0 04       		.byte	0x4
 4557 00e1 9601     		.2byte	0x196
 4558 00e3 33000000 		.4byte	0x33
 4559 00e7 02       		.uleb128 0x2
 4560 00e8 04       		.byte	0x4
 4561 00e9 04       		.byte	0x4
 4562 00ea 26020000 		.4byte	.LASF20
 4563 00ee 02       		.uleb128 0x2
 4564 00ef 08       		.byte	0x8
 4565 00f0 04       		.byte	0x4
 4566 00f1 DB080000 		.4byte	.LASF21
 4567 00f5 07       		.uleb128 0x7
 4568 00f6 A0000000 		.4byte	0xa0
 4569 00fa 05010000 		.4byte	0x105
 4570 00fe 08       		.uleb128 0x8
 4571 00ff 81000000 		.4byte	0x81
 4572 0103 01       		.byte	0x1
 4573 0104 00       		.byte	0
 4574 0105 02       		.uleb128 0x2
 4575 0106 08       		.byte	0x8
 4576 0107 04       		.byte	0x4
 4577 0108 E3050000 		.4byte	.LASF22
 4578 010c 09       		.uleb128 0x9
 4579 010d 15080000 		.4byte	.LASF31
 4580 0111 01       		.byte	0x1
 4581 0112 05       		.byte	0x5
 4582 0113 5B       		.byte	0x5b
 4583 0114 49010000 		.4byte	0x149
 4584 0118 0A       		.uleb128 0xa
 4585 0119 45020000 		.4byte	.LASF23
 4586 011d 00       		.sleb128 0
 4587 011e 0A       		.uleb128 0xa
 4588 011f FC000000 		.4byte	.LASF24
 4589 0123 01       		.sleb128 1
 4590 0124 0A       		.uleb128 0xa
 4591 0125 5B000000 		.4byte	.LASF25
 4592 0129 02       		.sleb128 2
ARM GAS  C:\Users\Logan\AppData\Local\Temp\ccydAEbe.s 			page 99


 4593 012a 0A       		.uleb128 0xa
 4594 012b D2050000 		.4byte	.LASF26
 4595 012f 03       		.sleb128 3
 4596 0130 0A       		.uleb128 0xa
 4597 0131 17010000 		.4byte	.LASF27
 4598 0135 04       		.sleb128 4
 4599 0136 0A       		.uleb128 0xa
 4600 0137 EF010000 		.4byte	.LASF28
 4601 013b 05       		.sleb128 5
 4602 013c 0A       		.uleb128 0xa
 4603 013d F6060000 		.4byte	.LASF29
 4604 0141 06       		.sleb128 6
 4605 0142 0A       		.uleb128 0xa
 4606 0143 15090000 		.4byte	.LASF30
 4607 0147 07       		.sleb128 7
 4608 0148 00       		.byte	0
 4609 0149 09       		.uleb128 0x9
 4610 014a 52010000 		.4byte	.LASF32
 4611 014e 01       		.byte	0x1
 4612 014f 05       		.byte	0x5
 4613 0150 5C       		.byte	0x5c
 4614 0151 86010000 		.4byte	0x186
 4615 0155 0A       		.uleb128 0xa
 4616 0156 C8060000 		.4byte	.LASF33
 4617 015a 00       		.sleb128 0
 4618 015b 0A       		.uleb128 0xa
 4619 015c 27040000 		.4byte	.LASF34
 4620 0160 01       		.sleb128 1
 4621 0161 0A       		.uleb128 0xa
 4622 0162 97060000 		.4byte	.LASF35
 4623 0166 02       		.sleb128 2
 4624 0167 0A       		.uleb128 0xa
 4625 0168 A9010000 		.4byte	.LASF36
 4626 016c 03       		.sleb128 3
 4627 016d 0A       		.uleb128 0xa
 4628 016e AE080000 		.4byte	.LASF37
 4629 0172 04       		.sleb128 4
 4630 0173 0A       		.uleb128 0xa
 4631 0174 F3080000 		.4byte	.LASF38
 4632 0178 05       		.sleb128 5
 4633 0179 0A       		.uleb128 0xa
 4634 017a 70000000 		.4byte	.LASF39
 4635 017e 06       		.sleb128 6
 4636 017f 0A       		.uleb128 0xa
 4637 0180 E9060000 		.4byte	.LASF40
 4638 0184 07       		.sleb128 7
 4639 0185 00       		.byte	0
 4640 0186 0B       		.uleb128 0xb
 4641 0187 87050000 		.4byte	.LASF196
 4642 018b 20       		.byte	0x20
 4643 018c 05       		.byte	0x5
 4644 018d 62       		.byte	0x62
 4645 018e 5F020000 		.4byte	0x25f
 4646 0192 0C       		.uleb128 0xc
 4647 0193 A5050000 		.4byte	.LASF41
 4648 0197 05       		.byte	0x5
 4649 0198 63       		.byte	0x63
ARM GAS  C:\Users\Logan\AppData\Local\Temp\ccydAEbe.s 			page 100


 4650 0199 CF000000 		.4byte	0xcf
 4651 019d 00       		.byte	0
 4652 019e 0C       		.uleb128 0xc
 4653 019f 3F020000 		.4byte	.LASF42
 4654 01a3 05       		.byte	0x5
 4655 01a4 64       		.byte	0x64
 4656 01a5 AB000000 		.4byte	0xab
 4657 01a9 01       		.byte	0x1
 4658 01aa 0C       		.uleb128 0xc
 4659 01ab A1070000 		.4byte	.LASF43
 4660 01af 05       		.byte	0x5
 4661 01b0 65       		.byte	0x65
 4662 01b1 DB000000 		.4byte	0xdb
 4663 01b5 02       		.byte	0x2
 4664 01b6 0C       		.uleb128 0xc
 4665 01b7 89030000 		.4byte	.LASF44
 4666 01bb 05       		.byte	0x5
 4667 01bc 66       		.byte	0x66
 4668 01bd DB000000 		.4byte	0xdb
 4669 01c1 04       		.byte	0x4
 4670 01c2 0C       		.uleb128 0xc
 4671 01c3 9C080000 		.4byte	.LASF45
 4672 01c7 05       		.byte	0x5
 4673 01c8 67       		.byte	0x67
 4674 01c9 DB000000 		.4byte	0xdb
 4675 01cd 06       		.byte	0x6
 4676 01ce 0C       		.uleb128 0xc
 4677 01cf 1B090000 		.4byte	.LASF46
 4678 01d3 05       		.byte	0x5
 4679 01d4 68       		.byte	0x68
 4680 01d5 DB000000 		.4byte	0xdb
 4681 01d9 08       		.byte	0x8
 4682 01da 0C       		.uleb128 0xc
 4683 01db 2D050000 		.4byte	.LASF47
 4684 01df 05       		.byte	0x5
 4685 01e0 69       		.byte	0x69
 4686 01e1 DB000000 		.4byte	0xdb
 4687 01e5 0A       		.byte	0xa
 4688 01e6 0C       		.uleb128 0xc
 4689 01e7 BA030000 		.4byte	.LASF48
 4690 01eb 05       		.byte	0x5
 4691 01ec 6A       		.byte	0x6a
 4692 01ed DB000000 		.4byte	0xdb
 4693 01f1 0C       		.byte	0xc
 4694 01f2 0C       		.uleb128 0xc
 4695 01f3 B4050000 		.4byte	.LASF49
 4696 01f7 05       		.byte	0x5
 4697 01f8 6B       		.byte	0x6b
 4698 01f9 DB000000 		.4byte	0xdb
 4699 01fd 0E       		.byte	0xe
 4700 01fe 0C       		.uleb128 0xc
 4701 01ff 7B040000 		.4byte	.LASF50
 4702 0203 05       		.byte	0x5
 4703 0204 6C       		.byte	0x6c
 4704 0205 DB000000 		.4byte	0xdb
 4705 0209 10       		.byte	0x10
 4706 020a 0C       		.uleb128 0xc
ARM GAS  C:\Users\Logan\AppData\Local\Temp\ccydAEbe.s 			page 101


 4707 020b 2B070000 		.4byte	.LASF51
 4708 020f 05       		.byte	0x5
 4709 0210 6D       		.byte	0x6d
 4710 0211 DB000000 		.4byte	0xdb
 4711 0215 12       		.byte	0x12
 4712 0216 0C       		.uleb128 0xc
 4713 0217 3F090000 		.4byte	.LASF52
 4714 021b 05       		.byte	0x5
 4715 021c 6E       		.byte	0x6e
 4716 021d DB000000 		.4byte	0xdb
 4717 0221 14       		.byte	0x14
 4718 0222 0C       		.uleb128 0xc
 4719 0223 09040000 		.4byte	.LASF53
 4720 0227 05       		.byte	0x5
 4721 0228 6F       		.byte	0x6f
 4722 0229 DB000000 		.4byte	0xdb
 4723 022d 16       		.byte	0x16
 4724 022e 0C       		.uleb128 0xc
 4725 022f 4A010000 		.4byte	.LASF54
 4726 0233 05       		.byte	0x5
 4727 0234 70       		.byte	0x70
 4728 0235 DB000000 		.4byte	0xdb
 4729 0239 18       		.byte	0x18
 4730 023a 0C       		.uleb128 0xc
 4731 023b F5030000 		.4byte	.LASF55
 4732 023f 05       		.byte	0x5
 4733 0240 71       		.byte	0x71
 4734 0241 DB000000 		.4byte	0xdb
 4735 0245 1A       		.byte	0x1a
 4736 0246 0C       		.uleb128 0xc
 4737 0247 24050000 		.4byte	.LASF56
 4738 024b 05       		.byte	0x5
 4739 024c 72       		.byte	0x72
 4740 024d DB000000 		.4byte	0xdb
 4741 0251 1C       		.byte	0x1c
 4742 0252 0C       		.uleb128 0xc
 4743 0253 0F020000 		.4byte	.LASF57
 4744 0257 05       		.byte	0x5
 4745 0258 73       		.byte	0x73
 4746 0259 DB000000 		.4byte	0xdb
 4747 025d 1E       		.byte	0x1e
 4748 025e 00       		.byte	0
 4749 025f 0D       		.uleb128 0xd
 4750 0260 BD080000 		.4byte	.LASF58
 4751 0264 01       		.byte	0x1
 4752 0265 58       		.byte	0x58
 4753 0266 00000000 		.4byte	.LFB63
 4754 026a 0C000000 		.4byte	.LFE63-.LFB63
 4755 026e 01       		.uleb128 0x1
 4756 026f 9C       		.byte	0x9c
 4757 0270 0E       		.uleb128 0xe
 4758 0271 33070000 		.4byte	.LASF59
 4759 0275 01       		.byte	0x1
 4760 0276 5E       		.byte	0x5e
 4761 0277 00000000 		.4byte	.LFB64
 4762 027b 2C000000 		.4byte	.LFE64-.LFB64
 4763 027f 01       		.uleb128 0x1
ARM GAS  C:\Users\Logan\AppData\Local\Temp\ccydAEbe.s 			page 102


 4764 0280 9C       		.byte	0x9c
 4765 0281 0F       		.uleb128 0xf
 4766 0282 1C020000 		.4byte	.LASF66
 4767 0286 01       		.byte	0x1
 4768 0287 67       		.byte	0x67
 4769 0288 00000000 		.4byte	.LFB65
 4770 028c EC010000 		.4byte	.LFE65-.LFB65
 4771 0290 01       		.uleb128 0x1
 4772 0291 9C       		.byte	0x9c
 4773 0292 CB020000 		.4byte	0x2cb
 4774 0296 10       		.uleb128 0x10
 4775 0297 B4000000 		.4byte	.LBB2
 4776 029b 52000000 		.4byte	.LBE2-.LBB2
 4777 029f B2020000 		.4byte	0x2b2
 4778 02a3 11       		.uleb128 0x11
 4779 02a4 6D657300 		.ascii	"mes\000"
 4780 02a8 01       		.byte	0x1
 4781 02a9 7E       		.byte	0x7e
 4782 02aa CB020000 		.4byte	0x2cb
 4783 02ae 02       		.uleb128 0x2
 4784 02af 91       		.byte	0x91
 4785 02b0 58       		.sleb128 -40
 4786 02b1 00       		.byte	0
 4787 02b2 12       		.uleb128 0x12
 4788 02b3 12010000 		.4byte	.LBB3
 4789 02b7 90000000 		.4byte	.LBE3-.LBB3
 4790 02bb 13       		.uleb128 0x13
 4791 02bc D0080000 		.4byte	.LASF60
 4792 02c0 01       		.byte	0x1
 4793 02c1 89       		.byte	0x89
 4794 02c2 EE000000 		.4byte	0xee
 4795 02c6 02       		.uleb128 0x2
 4796 02c7 91       		.byte	0x91
 4797 02c8 68       		.sleb128 -24
 4798 02c9 00       		.byte	0
 4799 02ca 00       		.byte	0
 4800 02cb 07       		.uleb128 0x7
 4801 02cc 8E000000 		.4byte	0x8e
 4802 02d0 DB020000 		.4byte	0x2db
 4803 02d4 08       		.uleb128 0x8
 4804 02d5 81000000 		.4byte	0x81
 4805 02d9 0F       		.byte	0xf
 4806 02da 00       		.byte	0
 4807 02db 0E       		.uleb128 0xe
 4808 02dc B6020000 		.4byte	.LASF61
 4809 02e0 01       		.byte	0x1
 4810 02e1 92       		.byte	0x92
 4811 02e2 00000000 		.4byte	.LFB66
 4812 02e6 AC000000 		.4byte	.LFE66-.LFB66
 4813 02ea 01       		.uleb128 0x1
 4814 02eb 9C       		.byte	0x9c
 4815 02ec 0D       		.uleb128 0xd
 4816 02ed E7070000 		.4byte	.LASF62
 4817 02f1 01       		.byte	0x1
 4818 02f2 B5       		.byte	0xb5
 4819 02f3 00000000 		.4byte	.LFB67
 4820 02f7 20000000 		.4byte	.LFE67-.LFB67
ARM GAS  C:\Users\Logan\AppData\Local\Temp\ccydAEbe.s 			page 103


 4821 02fb 01       		.uleb128 0x1
 4822 02fc 9C       		.byte	0x9c
 4823 02fd 0E       		.uleb128 0xe
 4824 02fe 3C030000 		.4byte	.LASF63
 4825 0302 01       		.byte	0x1
 4826 0303 BC       		.byte	0xbc
 4827 0304 00000000 		.4byte	.LFB68
 4828 0308 28000000 		.4byte	.LFE68-.LFB68
 4829 030c 01       		.uleb128 0x1
 4830 030d 9C       		.byte	0x9c
 4831 030e 0E       		.uleb128 0xe
 4832 030f EF050000 		.4byte	.LASF64
 4833 0313 01       		.byte	0x1
 4834 0314 C5       		.byte	0xc5
 4835 0315 00000000 		.4byte	.LFB69
 4836 0319 0A000000 		.4byte	.LFE69-.LFB69
 4837 031d 01       		.uleb128 0x1
 4838 031e 9C       		.byte	0x9c
 4839 031f 0E       		.uleb128 0xe
 4840 0320 0C060000 		.4byte	.LASF65
 4841 0324 01       		.byte	0x1
 4842 0325 CA       		.byte	0xca
 4843 0326 00000000 		.4byte	.LFB70
 4844 032a 28000000 		.4byte	.LFE70-.LFB70
 4845 032e 01       		.uleb128 0x1
 4846 032f 9C       		.byte	0x9c
 4847 0330 14       		.uleb128 0x14
 4848 0331 B8080000 		.4byte	.LASF67
 4849 0335 01       		.byte	0x1
 4850 0336 D5       		.byte	0xd5
 4851 0337 73000000 		.4byte	0x73
 4852 033b 00000000 		.4byte	.LFB71
 4853 033f 34030000 		.4byte	.LFE71-.LFB71
 4854 0343 01       		.uleb128 0x1
 4855 0344 9C       		.byte	0x9c
 4856 0345 8B030000 		.4byte	0x38b
 4857 0349 15       		.uleb128 0x15
 4858 034a 2D030000 		.4byte	.LASF68
 4859 034e 01       		.byte	0x1
 4860 034f 0E01     		.2byte	0x10e
 4861 0351 B7000000 		.4byte	0xb7
 4862 0355 02       		.uleb128 0x2
 4863 0356 91       		.byte	0x91
 4864 0357 76       		.sleb128 -10
 4865 0358 12       		.uleb128 0x12
 4866 0359 66000000 		.4byte	.LBB4
 4867 035d 80020000 		.4byte	.LBE4-.LBB4
 4868 0361 15       		.uleb128 0x15
 4869 0362 A9020000 		.4byte	.LASF69
 4870 0366 01       		.byte	0x1
 4871 0367 1C01     		.2byte	0x11c
 4872 0369 8B030000 		.4byte	0x38b
 4873 036d 02       		.uleb128 0x2
 4874 036e 91       		.byte	0x91
 4875 036f 70       		.sleb128 -16
 4876 0370 12       		.uleb128 0x12
 4877 0371 34010000 		.4byte	.LBB5
ARM GAS  C:\Users\Logan\AppData\Local\Temp\ccydAEbe.s 			page 104


 4878 0375 4E010000 		.4byte	.LBE5-.LBB5
 4879 0379 15       		.uleb128 0x15
 4880 037a 8D040000 		.4byte	.LASF70
 4881 037e 01       		.byte	0x1
 4882 037f 4601     		.2byte	0x146
 4883 0381 8E000000 		.4byte	0x8e
 4884 0385 02       		.uleb128 0x2
 4885 0386 91       		.byte	0x91
 4886 0387 75       		.sleb128 -11
 4887 0388 00       		.byte	0
 4888 0389 00       		.byte	0
 4889 038a 00       		.byte	0
 4890 038b 07       		.uleb128 0x7
 4891 038c AB000000 		.4byte	0xab
 4892 0390 9B030000 		.4byte	0x39b
 4893 0394 08       		.uleb128 0x8
 4894 0395 81000000 		.4byte	0x81
 4895 0399 04       		.byte	0x4
 4896 039a 00       		.byte	0
 4897 039b 16       		.uleb128 0x16
 4898 039c FB080000 		.4byte	.LASF76
 4899 03a0 01       		.byte	0x1
 4900 03a1 AA01     		.2byte	0x1aa
 4901 03a3 00000000 		.4byte	.LFB72
 4902 03a7 60010000 		.4byte	.LFE72-.LFB72
 4903 03ab 01       		.uleb128 0x1
 4904 03ac 9C       		.byte	0x9c
 4905 03ad E9030000 		.4byte	0x3e9
 4906 03b1 12       		.uleb128 0x12
 4907 03b2 10000000 		.4byte	.LBB6
 4908 03b6 34010000 		.4byte	.LBE6-.LBB6
 4909 03ba 15       		.uleb128 0x15
 4910 03bb 3D010000 		.4byte	.LASF71
 4911 03bf 01       		.byte	0x1
 4912 03c0 B001     		.2byte	0x1b0
 4913 03c2 B7000000 		.4byte	0xb7
 4914 03c6 02       		.uleb128 0x2
 4915 03c7 91       		.byte	0x91
 4916 03c8 76       		.sleb128 -10
 4917 03c9 15       		.uleb128 0x15
 4918 03ca 86070000 		.4byte	.LASF72
 4919 03ce 01       		.byte	0x1
 4920 03cf B101     		.2byte	0x1b1
 4921 03d1 E9030000 		.4byte	0x3e9
 4922 03d5 02       		.uleb128 0x2
 4923 03d6 91       		.byte	0x91
 4924 03d7 68       		.sleb128 -24
 4925 03d8 15       		.uleb128 0x15
 4926 03d9 4B020000 		.4byte	.LASF73
 4927 03dd 01       		.byte	0x1
 4928 03de B201     		.2byte	0x1b2
 4929 03e0 E9030000 		.4byte	0x3e9
 4930 03e4 02       		.uleb128 0x2
 4931 03e5 91       		.byte	0x91
 4932 03e6 5C       		.sleb128 -36
 4933 03e7 00       		.byte	0
 4934 03e8 00       		.byte	0
ARM GAS  C:\Users\Logan\AppData\Local\Temp\ccydAEbe.s 			page 105


 4935 03e9 07       		.uleb128 0x7
 4936 03ea 8E000000 		.4byte	0x8e
 4937 03ee F9030000 		.4byte	0x3f9
 4938 03f2 08       		.uleb128 0x8
 4939 03f3 81000000 		.4byte	0x81
 4940 03f7 0B       		.byte	0xb
 4941 03f8 00       		.byte	0
 4942 03f9 17       		.uleb128 0x17
 4943 03fa D3030000 		.4byte	.LASF74
 4944 03fe 01       		.byte	0x1
 4945 03ff EB01     		.2byte	0x1eb
 4946 0401 00000000 		.4byte	.LFB73
 4947 0405 18000000 		.4byte	.LFE73-.LFB73
 4948 0409 01       		.uleb128 0x1
 4949 040a 9C       		.byte	0x9c
 4950 040b 1F040000 		.4byte	0x41f
 4951 040f 18       		.uleb128 0x18
 4952 0410 64697200 		.ascii	"dir\000"
 4953 0414 01       		.byte	0x1
 4954 0415 EB01     		.2byte	0x1eb
 4955 0417 AB000000 		.4byte	0xab
 4956 041b 02       		.uleb128 0x2
 4957 041c 91       		.byte	0x91
 4958 041d 77       		.sleb128 -9
 4959 041e 00       		.byte	0
 4960 041f 17       		.uleb128 0x17
 4961 0420 1B040000 		.4byte	.LASF75
 4962 0424 01       		.byte	0x1
 4963 0425 F001     		.2byte	0x1f0
 4964 0427 00000000 		.4byte	.LFB74
 4965 042b 18000000 		.4byte	.LFE74-.LFB74
 4966 042f 01       		.uleb128 0x1
 4967 0430 9C       		.byte	0x9c
 4968 0431 45040000 		.4byte	0x445
 4969 0435 18       		.uleb128 0x18
 4970 0436 64697200 		.ascii	"dir\000"
 4971 043a 01       		.byte	0x1
 4972 043b F001     		.2byte	0x1f0
 4973 043d AB000000 		.4byte	0xab
 4974 0441 02       		.uleb128 0x2
 4975 0442 91       		.byte	0x91
 4976 0443 77       		.sleb128 -9
 4977 0444 00       		.byte	0
 4978 0445 19       		.uleb128 0x19
 4979 0446 1B080000 		.4byte	.LASF77
 4980 044a 01       		.byte	0x1
 4981 044b F501     		.2byte	0x1f5
 4982 044d 00000000 		.4byte	.LFB75
 4983 0451 54000000 		.4byte	.LFE75-.LFB75
 4984 0455 01       		.uleb128 0x1
 4985 0456 9C       		.byte	0x9c
 4986 0457 6B040000 		.4byte	0x46b
 4987 045b 1A       		.uleb128 0x1a
 4988 045c 6D657300 		.ascii	"mes\000"
 4989 0460 01       		.byte	0x1
 4990 0461 FA01     		.2byte	0x1fa
 4991 0463 CB020000 		.4byte	0x2cb
ARM GAS  C:\Users\Logan\AppData\Local\Temp\ccydAEbe.s 			page 106


 4992 0467 02       		.uleb128 0x2
 4993 0468 91       		.byte	0x91
 4994 0469 68       		.sleb128 -24
 4995 046a 00       		.byte	0
 4996 046b 17       		.uleb128 0x17
 4997 046c 2C020000 		.4byte	.LASF78
 4998 0470 01       		.byte	0x1
 4999 0471 FF01     		.2byte	0x1ff
 5000 0473 00000000 		.4byte	.LFB76
 5001 0477 F4000000 		.4byte	.LFE76-.LFB76
 5002 047b 01       		.uleb128 0x1
 5003 047c 9C       		.byte	0x9c
 5004 047d BE040000 		.4byte	0x4be
 5005 0481 1B       		.uleb128 0x1b
 5006 0482 04070000 		.4byte	.LASF79
 5007 0486 01       		.byte	0x1
 5008 0487 FF01     		.2byte	0x1ff
 5009 0489 EE000000 		.4byte	0xee
 5010 048d 02       		.uleb128 0x2
 5011 048e 91       		.byte	0x91
 5012 048f 68       		.sleb128 -24
 5013 0490 1B       		.uleb128 0x1b
 5014 0491 48040000 		.4byte	.LASF80
 5015 0495 01       		.byte	0x1
 5016 0496 FF01     		.2byte	0x1ff
 5017 0498 EE000000 		.4byte	0xee
 5018 049c 02       		.uleb128 0x2
 5019 049d 91       		.byte	0x91
 5020 049e 60       		.sleb128 -32
 5021 049f 15       		.uleb128 0x15
 5022 04a0 64020000 		.4byte	.LASF81
 5023 04a4 01       		.byte	0x1
 5024 04a5 1402     		.2byte	0x214
 5025 04a7 DB000000 		.4byte	0xdb
 5026 04ab 02       		.uleb128 0x2
 5027 04ac 91       		.byte	0x91
 5028 04ad 76       		.sleb128 -10
 5029 04ae 15       		.uleb128 0x15
 5030 04af 7B050000 		.4byte	.LASF82
 5031 04b3 01       		.byte	0x1
 5032 04b4 1502     		.2byte	0x215
 5033 04b6 DB000000 		.4byte	0xdb
 5034 04ba 02       		.uleb128 0x2
 5035 04bb 91       		.byte	0x91
 5036 04bc 74       		.sleb128 -12
 5037 04bd 00       		.byte	0
 5038 04be 1C       		.uleb128 0x1c
 5039 04bf 2C080000 		.4byte	.LASF83
 5040 04c3 01       		.byte	0x1
 5041 04c4 1B02     		.2byte	0x21b
 5042 04c6 00000000 		.4byte	.LFB77
 5043 04ca 18000000 		.4byte	.LFE77-.LFB77
 5044 04ce 01       		.uleb128 0x1
 5045 04cf 9C       		.byte	0x9c
 5046 04d0 1C       		.uleb128 0x1c
 5047 04d1 5F090000 		.4byte	.LASF84
 5048 04d5 01       		.byte	0x1
ARM GAS  C:\Users\Logan\AppData\Local\Temp\ccydAEbe.s 			page 107


 5049 04d6 2102     		.2byte	0x221
 5050 04d8 00000000 		.4byte	.LFB78
 5051 04dc 18000000 		.4byte	.LFE78-.LFB78
 5052 04e0 01       		.uleb128 0x1
 5053 04e1 9C       		.byte	0x9c
 5054 04e2 1C       		.uleb128 0x1c
 5055 04e3 AC070000 		.4byte	.LASF85
 5056 04e7 01       		.byte	0x1
 5057 04e8 2702     		.2byte	0x227
 5058 04ea 00000000 		.4byte	.LFB79
 5059 04ee 22000000 		.4byte	.LFE79-.LFB79
 5060 04f2 01       		.uleb128 0x1
 5061 04f3 9C       		.byte	0x9c
 5062 04f4 1C       		.uleb128 0x1c
 5063 04f5 6F020000 		.4byte	.LASF86
 5064 04f9 01       		.byte	0x1
 5065 04fa 2D02     		.2byte	0x22d
 5066 04fc 00000000 		.4byte	.LFB80
 5067 0500 1C000000 		.4byte	.LFE80-.LFB80
 5068 0504 01       		.uleb128 0x1
 5069 0505 9C       		.byte	0x9c
 5070 0506 1C       		.uleb128 0x1c
 5071 0507 21070000 		.4byte	.LASF87
 5072 050b 01       		.byte	0x1
 5073 050c 3202     		.2byte	0x232
 5074 050e 00000000 		.4byte	.LFB81
 5075 0512 28000000 		.4byte	.LFE81-.LFB81
 5076 0516 01       		.uleb128 0x1
 5077 0517 9C       		.byte	0x9c
 5078 0518 1C       		.uleb128 0x1c
 5079 0519 7D020000 		.4byte	.LASF88
 5080 051d 01       		.byte	0x1
 5081 051e 3702     		.2byte	0x237
 5082 0520 00000000 		.4byte	.LFB82
 5083 0524 2C000000 		.4byte	.LFE82-.LFB82
 5084 0528 01       		.uleb128 0x1
 5085 0529 9C       		.byte	0x9c
 5086 052a 1C       		.uleb128 0x1c
 5087 052b EF030000 		.4byte	.LASF89
 5088 052f 01       		.byte	0x1
 5089 0530 3C02     		.2byte	0x23c
 5090 0532 00000000 		.4byte	.LFB83
 5091 0536 44000000 		.4byte	.LFE83-.LFB83
 5092 053a 01       		.uleb128 0x1
 5093 053b 9C       		.byte	0x9c
 5094 053c 1C       		.uleb128 0x1c
 5095 053d D0020000 		.4byte	.LASF90
 5096 0541 01       		.byte	0x1
 5097 0542 4102     		.2byte	0x241
 5098 0544 00000000 		.4byte	.LFB84
 5099 0548 38000000 		.4byte	.LFE84-.LFB84
 5100 054c 01       		.uleb128 0x1
 5101 054d 9C       		.byte	0x9c
 5102 054e 1C       		.uleb128 0x1c
 5103 054f 89060000 		.4byte	.LASF91
 5104 0553 01       		.byte	0x1
 5105 0554 4A02     		.2byte	0x24a
ARM GAS  C:\Users\Logan\AppData\Local\Temp\ccydAEbe.s 			page 108


 5106 0556 00000000 		.4byte	.LFB85
 5107 055a 38000000 		.4byte	.LFE85-.LFB85
 5108 055e 01       		.uleb128 0x1
 5109 055f 9C       		.byte	0x9c
 5110 0560 1C       		.uleb128 0x1c
 5111 0561 61060000 		.4byte	.LASF92
 5112 0565 01       		.byte	0x1
 5113 0566 5302     		.2byte	0x253
 5114 0568 00000000 		.4byte	.LFB86
 5115 056c 38000000 		.4byte	.LFE86-.LFB86
 5116 0570 01       		.uleb128 0x1
 5117 0571 9C       		.byte	0x9c
 5118 0572 1C       		.uleb128 0x1c
 5119 0573 FA010000 		.4byte	.LASF93
 5120 0577 01       		.byte	0x1
 5121 0578 5C02     		.2byte	0x25c
 5122 057a 00000000 		.4byte	.LFB87
 5123 057e 14000000 		.4byte	.LFE87-.LFB87
 5124 0582 01       		.uleb128 0x1
 5125 0583 9C       		.byte	0x9c
 5126 0584 1D       		.uleb128 0x1d
 5127 0585 E6020000 		.4byte	.LASF94
 5128 0589 01       		.byte	0x1
 5129 058a 6102     		.2byte	0x261
 5130 058c 00000000 		.4byte	.LFB88
 5131 0590 18000000 		.4byte	.LFE88-.LFB88
 5132 0594 01       		.uleb128 0x1
 5133 0595 9C       		.byte	0x9c
 5134 0596 1D       		.uleb128 0x1d
 5135 0597 83040000 		.4byte	.LASF95
 5136 059b 01       		.byte	0x1
 5137 059c 6502     		.2byte	0x265
 5138 059e 00000000 		.4byte	.LFB89
 5139 05a2 18000000 		.4byte	.LFE89-.LFB89
 5140 05a6 01       		.uleb128 0x1
 5141 05a7 9C       		.byte	0x9c
 5142 05a8 1D       		.uleb128 0x1d
 5143 05a9 6A090000 		.4byte	.LASF96
 5144 05ad 01       		.byte	0x1
 5145 05ae 6A02     		.2byte	0x26a
 5146 05b0 00000000 		.4byte	.LFB90
 5147 05b4 18000000 		.4byte	.LFE90-.LFB90
 5148 05b8 01       		.uleb128 0x1
 5149 05b9 9C       		.byte	0x9c
 5150 05ba 1D       		.uleb128 0x1d
 5151 05bb 7A030000 		.4byte	.LASF97
 5152 05bf 01       		.byte	0x1
 5153 05c0 6E02     		.2byte	0x26e
 5154 05c2 00000000 		.4byte	.LFB91
 5155 05c6 18000000 		.4byte	.LFE91-.LFB91
 5156 05ca 01       		.uleb128 0x1
 5157 05cb 9C       		.byte	0x9c
 5158 05cc 17       		.uleb128 0x17
 5159 05cd B8060000 		.4byte	.LASF98
 5160 05d1 01       		.byte	0x1
 5161 05d2 7502     		.2byte	0x275
 5162 05d4 00000000 		.4byte	.LFB92
ARM GAS  C:\Users\Logan\AppData\Local\Temp\ccydAEbe.s 			page 109


 5163 05d8 B8000000 		.4byte	.LFE92-.LFB92
 5164 05dc 01       		.uleb128 0x1
 5165 05dd 9C       		.byte	0x9c
 5166 05de F2050000 		.4byte	0x5f2
 5167 05e2 15       		.uleb128 0x15
 5168 05e3 35050000 		.4byte	.LASF99
 5169 05e7 01       		.byte	0x1
 5170 05e8 7602     		.2byte	0x276
 5171 05ea 8E000000 		.4byte	0x8e
 5172 05ee 02       		.uleb128 0x2
 5173 05ef 91       		.byte	0x91
 5174 05f0 6F       		.sleb128 -17
 5175 05f1 00       		.byte	0
 5176 05f2 17       		.uleb128 0x17
 5177 05f3 DA050000 		.4byte	.LASF100
 5178 05f7 01       		.byte	0x1
 5179 05f8 9202     		.2byte	0x292
 5180 05fa 00000000 		.4byte	.LFB93
 5181 05fe BC010000 		.4byte	.LFE93-.LFB93
 5182 0602 01       		.uleb128 0x1
 5183 0603 9C       		.byte	0x9c
 5184 0604 41060000 		.4byte	0x641
 5185 0608 15       		.uleb128 0x15
 5186 0609 35050000 		.4byte	.LASF99
 5187 060d 01       		.byte	0x1
 5188 060e 9402     		.2byte	0x294
 5189 0610 8E000000 		.4byte	0x8e
 5190 0614 02       		.uleb128 0x2
 5191 0615 91       		.byte	0x91
 5192 0616 77       		.sleb128 -9
 5193 0617 12       		.uleb128 0x12
 5194 0618 8C000000 		.4byte	.LBB7
 5195 061c FC000000 		.4byte	.LBE7-.LBB7
 5196 0620 1A       		.uleb128 0x1a
 5197 0621 6D657300 		.ascii	"mes\000"
 5198 0625 01       		.byte	0x1
 5199 0626 BA02     		.2byte	0x2ba
 5200 0628 CB020000 		.4byte	0x2cb
 5201 062c 02       		.uleb128 0x2
 5202 062d 91       		.byte	0x91
 5203 062e 64       		.sleb128 -28
 5204 062f 15       		.uleb128 0x15
 5205 0630 90000000 		.4byte	.LASF101
 5206 0634 01       		.byte	0x1
 5207 0635 CB02     		.2byte	0x2cb
 5208 0637 41060000 		.4byte	0x641
 5209 063b 03       		.uleb128 0x3
 5210 063c 91       		.byte	0x91
 5211 063d E47E     		.sleb128 -156
 5212 063f 00       		.byte	0
 5213 0640 00       		.byte	0
 5214 0641 07       		.uleb128 0x7
 5215 0642 8E000000 		.4byte	0x8e
 5216 0646 51060000 		.4byte	0x651
 5217 064a 08       		.uleb128 0x8
 5218 064b 81000000 		.4byte	0x81
 5219 064f 7F       		.byte	0x7f
ARM GAS  C:\Users\Logan\AppData\Local\Temp\ccydAEbe.s 			page 110


 5220 0650 00       		.byte	0
 5221 0651 1C       		.uleb128 0x1c
 5222 0652 C5020000 		.4byte	.LASF102
 5223 0656 01       		.byte	0x1
 5224 0657 D402     		.2byte	0x2d4
 5225 0659 00000000 		.4byte	.LFB94
 5226 065d 40000000 		.4byte	.LFE94-.LFB94
 5227 0661 01       		.uleb128 0x1
 5228 0662 9C       		.byte	0x9c
 5229 0663 1C       		.uleb128 0x1c
 5230 0664 59020000 		.4byte	.LASF103
 5231 0668 01       		.byte	0x1
 5232 0669 E302     		.2byte	0x2e3
 5233 066b 00000000 		.4byte	.LFB95
 5234 066f 40000000 		.4byte	.LFE95-.LFB95
 5235 0673 01       		.uleb128 0x1
 5236 0674 9C       		.byte	0x9c
 5237 0675 19       		.uleb128 0x19
 5238 0676 98000000 		.4byte	.LASF104
 5239 067a 01       		.byte	0x1
 5240 067b F302     		.2byte	0x2f3
 5241 067d 00000000 		.4byte	.LFB96
 5242 0681 30020000 		.4byte	.LFE96-.LFB96
 5243 0685 01       		.uleb128 0x1
 5244 0686 9C       		.byte	0x9c
 5245 0687 E6060000 		.4byte	0x6e6
 5246 068b 15       		.uleb128 0x15
 5247 068c 0D030000 		.4byte	.LASF105
 5248 0690 01       		.byte	0x1
 5249 0691 0103     		.2byte	0x301
 5250 0693 DB000000 		.4byte	0xdb
 5251 0697 02       		.uleb128 0x2
 5252 0698 91       		.byte	0x91
 5253 0699 5E       		.sleb128 -34
 5254 069a 15       		.uleb128 0x15
 5255 069b 53050000 		.4byte	.LASF106
 5256 069f 01       		.byte	0x1
 5257 06a0 0203     		.2byte	0x302
 5258 06a2 DB000000 		.4byte	0xdb
 5259 06a6 02       		.uleb128 0x2
 5260 06a7 91       		.byte	0x91
 5261 06a8 5C       		.sleb128 -36
 5262 06a9 15       		.uleb128 0x15
 5263 06aa A9030000 		.4byte	.LASF107
 5264 06ae 01       		.byte	0x1
 5265 06af 0303     		.2byte	0x303
 5266 06b1 EE000000 		.4byte	0xee
 5267 06b5 02       		.uleb128 0x2
 5268 06b6 91       		.byte	0x91
 5269 06b7 68       		.sleb128 -24
 5270 06b8 15       		.uleb128 0x15
 5271 06b9 23090000 		.4byte	.LASF108
 5272 06bd 01       		.byte	0x1
 5273 06be 0403     		.2byte	0x304
 5274 06c0 EE000000 		.4byte	0xee
 5275 06c4 02       		.uleb128 0x2
 5276 06c5 91       		.byte	0x91
ARM GAS  C:\Users\Logan\AppData\Local\Temp\ccydAEbe.s 			page 111


 5277 06c6 60       		.sleb128 -32
 5278 06c7 15       		.uleb128 0x15
 5279 06c8 33040000 		.4byte	.LASF109
 5280 06cc 01       		.byte	0x1
 5281 06cd 0D03     		.2byte	0x30d
 5282 06cf 73000000 		.4byte	0x73
 5283 06d3 02       		.uleb128 0x2
 5284 06d4 91       		.byte	0x91
 5285 06d5 58       		.sleb128 -40
 5286 06d6 15       		.uleb128 0x15
 5287 06d7 C6080000 		.4byte	.LASF110
 5288 06db 01       		.byte	0x1
 5289 06dc 0E03     		.2byte	0x30e
 5290 06de 73000000 		.4byte	0x73
 5291 06e2 02       		.uleb128 0x2
 5292 06e3 91       		.byte	0x91
 5293 06e4 54       		.sleb128 -44
 5294 06e5 00       		.byte	0
 5295 06e6 1D       		.uleb128 0x1d
 5296 06e7 AA050000 		.4byte	.LASF111
 5297 06eb 01       		.byte	0x1
 5298 06ec 1C03     		.2byte	0x31c
 5299 06ee 00000000 		.4byte	.LFB97
 5300 06f2 0C000000 		.4byte	.LFE97-.LFB97
 5301 06f6 01       		.uleb128 0x1
 5302 06f7 9C       		.byte	0x9c
 5303 06f8 19       		.uleb128 0x19
 5304 06f9 8A010000 		.4byte	.LASF112
 5305 06fd 01       		.byte	0x1
 5306 06fe 2203     		.2byte	0x322
 5307 0700 00000000 		.4byte	.LFB98
 5308 0704 4C010000 		.4byte	.LFE98-.LFB98
 5309 0708 01       		.uleb128 0x1
 5310 0709 9C       		.byte	0x9c
 5311 070a 3A070000 		.4byte	0x73a
 5312 070e 1A       		.uleb128 0x1a
 5313 070f 6E6C00   		.ascii	"nl\000"
 5314 0712 01       		.byte	0x1
 5315 0713 2603     		.2byte	0x326
 5316 0715 AB000000 		.4byte	0xab
 5317 0719 02       		.uleb128 0x2
 5318 071a 91       		.byte	0x91
 5319 071b 67       		.sleb128 -25
 5320 071c 1A       		.uleb128 0x1a
 5321 071d 6E7200   		.ascii	"nr\000"
 5322 0720 01       		.byte	0x1
 5323 0721 2703     		.2byte	0x327
 5324 0723 AB000000 		.4byte	0xab
 5325 0727 02       		.uleb128 0x2
 5326 0728 91       		.byte	0x91
 5327 0729 66       		.sleb128 -26
 5328 072a 1A       		.uleb128 0x1a
 5329 072b 6D696400 		.ascii	"mid\000"
 5330 072f 01       		.byte	0x1
 5331 0730 2803     		.2byte	0x328
 5332 0732 AB000000 		.4byte	0xab
 5333 0736 02       		.uleb128 0x2
ARM GAS  C:\Users\Logan\AppData\Local\Temp\ccydAEbe.s 			page 112


 5334 0737 91       		.byte	0x91
 5335 0738 65       		.sleb128 -27
 5336 0739 00       		.byte	0
 5337 073a 1D       		.uleb128 0x1d
 5338 073b 6F010000 		.4byte	.LASF113
 5339 073f 01       		.byte	0x1
 5340 0740 4203     		.2byte	0x342
 5341 0742 00000000 		.4byte	.LFB99
 5342 0746 0C000000 		.4byte	.LFE99-.LFB99
 5343 074a 01       		.uleb128 0x1
 5344 074b 9C       		.byte	0x9c
 5345 074c 19       		.uleb128 0x19
 5346 074d 9F030000 		.4byte	.LASF114
 5347 0751 01       		.byte	0x1
 5348 0752 4703     		.2byte	0x347
 5349 0754 00000000 		.4byte	.LFB100
 5350 0758 C0000000 		.4byte	.LFE100-.LFB100
 5351 075c 01       		.uleb128 0x1
 5352 075d 9C       		.byte	0x9c
 5353 075e 9A070000 		.4byte	0x79a
 5354 0762 12       		.uleb128 0x12
 5355 0763 0E000000 		.4byte	.LBB8
 5356 0767 8E000000 		.4byte	.LBE8-.LBB8
 5357 076b 15       		.uleb128 0x15
 5358 076c FF020000 		.4byte	.LASF115
 5359 0770 01       		.byte	0x1
 5360 0771 5003     		.2byte	0x350
 5361 0773 E7000000 		.4byte	0xe7
 5362 0777 02       		.uleb128 0x2
 5363 0778 91       		.byte	0x91
 5364 0779 74       		.sleb128 -12
 5365 077a 15       		.uleb128 0x15
 5366 077b 91050000 		.4byte	.LASF116
 5367 077f 01       		.byte	0x1
 5368 0780 5103     		.2byte	0x351
 5369 0782 DB000000 		.4byte	0xdb
 5370 0786 02       		.uleb128 0x2
 5371 0787 91       		.byte	0x91
 5372 0788 72       		.sleb128 -14
 5373 0789 15       		.uleb128 0x15
 5374 078a 62030000 		.4byte	.LASF117
 5375 078e 01       		.byte	0x1
 5376 078f 5603     		.2byte	0x356
 5377 0791 CB020000 		.4byte	0x2cb
 5378 0795 02       		.uleb128 0x2
 5379 0796 91       		.byte	0x91
 5380 0797 60       		.sleb128 -32
 5381 0798 00       		.byte	0
 5382 0799 00       		.byte	0
 5383 079a 19       		.uleb128 0x19
 5384 079b 0C090000 		.4byte	.LASF118
 5385 079f 01       		.byte	0x1
 5386 07a0 5D03     		.2byte	0x35d
 5387 07a2 00000000 		.4byte	.LFB101
 5388 07a6 B8000000 		.4byte	.LFE101-.LFB101
 5389 07aa 01       		.uleb128 0x1
 5390 07ab 9C       		.byte	0x9c
ARM GAS  C:\Users\Logan\AppData\Local\Temp\ccydAEbe.s 			page 113


 5391 07ac CA070000 		.4byte	0x7ca
 5392 07b0 12       		.uleb128 0x12
 5393 07b1 0E000000 		.4byte	.LBB9
 5394 07b5 86000000 		.4byte	.LBE9-.LBB9
 5395 07b9 15       		.uleb128 0x15
 5396 07ba AC060000 		.4byte	.LASF119
 5397 07be 01       		.byte	0x1
 5398 07bf 6103     		.2byte	0x361
 5399 07c1 CB020000 		.4byte	0x2cb
 5400 07c5 02       		.uleb128 0x2
 5401 07c6 91       		.byte	0x91
 5402 07c7 68       		.sleb128 -24
 5403 07c8 00       		.byte	0
 5404 07c9 00       		.byte	0
 5405 07ca 17       		.uleb128 0x17
 5406 07cb 3B070000 		.4byte	.LASF120
 5407 07cf 01       		.byte	0x1
 5408 07d0 7203     		.2byte	0x372
 5409 07d2 00000000 		.4byte	.LFB102
 5410 07d6 4A000000 		.4byte	.LFE102-.LFB102
 5411 07da 01       		.uleb128 0x1
 5412 07db 9C       		.byte	0x9c
 5413 07dc F0070000 		.4byte	0x7f0
 5414 07e0 1B       		.uleb128 0x1b
 5415 07e1 57030000 		.4byte	.LASF121
 5416 07e5 01       		.byte	0x1
 5417 07e6 7203     		.2byte	0x372
 5418 07e8 F0070000 		.4byte	0x7f0
 5419 07ec 02       		.uleb128 0x2
 5420 07ed 91       		.byte	0x91
 5421 07ee 6C       		.sleb128 -20
 5422 07ef 00       		.byte	0
 5423 07f0 05       		.uleb128 0x5
 5424 07f1 04       		.byte	0x4
 5425 07f2 AB000000 		.4byte	0xab
 5426 07f6 17       		.uleb128 0x17
 5427 07f7 14070000 		.4byte	.LASF122
 5428 07fb 01       		.byte	0x1
 5429 07fc 7D03     		.2byte	0x37d
 5430 07fe 00000000 		.4byte	.LFB103
 5431 0802 68000000 		.4byte	.LFE103-.LFB103
 5432 0806 01       		.uleb128 0x1
 5433 0807 9C       		.byte	0x9c
 5434 0808 33080000 		.4byte	0x833
 5435 080c 18       		.uleb128 0x18
 5436 080d 7300     		.ascii	"s\000"
 5437 080f 01       		.byte	0x1
 5438 0810 7D03     		.2byte	0x37d
 5439 0812 88000000 		.4byte	0x88
 5440 0816 02       		.uleb128 0x2
 5441 0817 91       		.byte	0x91
 5442 0818 6C       		.sleb128 -20
 5443 0819 12       		.uleb128 0x12
 5444 081a 10000000 		.4byte	.LBB10
 5445 081e 48000000 		.4byte	.LBE10-.LBB10
 5446 0822 1A       		.uleb128 0x1a
 5447 0823 636E7400 		.ascii	"cnt\000"
ARM GAS  C:\Users\Logan\AppData\Local\Temp\ccydAEbe.s 			page 114


 5448 0827 01       		.byte	0x1
 5449 0828 8403     		.2byte	0x384
 5450 082a C3000000 		.4byte	0xc3
 5451 082e 02       		.uleb128 0x2
 5452 082f 91       		.byte	0x91
 5453 0830 74       		.sleb128 -12
 5454 0831 00       		.byte	0
 5455 0832 00       		.byte	0
 5456 0833 17       		.uleb128 0x17
 5457 0834 72080000 		.4byte	.LASF123
 5458 0838 01       		.byte	0x1
 5459 0839 9303     		.2byte	0x393
 5460 083b 00000000 		.4byte	.LFB104
 5461 083f 50000000 		.4byte	.LFE104-.LFB104
 5462 0843 01       		.uleb128 0x1
 5463 0844 9C       		.byte	0x9c
 5464 0845 70080000 		.4byte	0x870
 5465 0849 18       		.uleb128 0x18
 5466 084a 6300     		.ascii	"c\000"
 5467 084c 01       		.byte	0x1
 5468 084d 9303     		.2byte	0x393
 5469 084f 8E000000 		.4byte	0x8e
 5470 0853 02       		.uleb128 0x2
 5471 0854 91       		.byte	0x91
 5472 0855 6F       		.sleb128 -17
 5473 0856 12       		.uleb128 0x12
 5474 0857 12000000 		.4byte	.LBB11
 5475 085b 2E000000 		.4byte	.LBE11-.LBB11
 5476 085f 1A       		.uleb128 0x1a
 5477 0860 636E7400 		.ascii	"cnt\000"
 5478 0864 01       		.byte	0x1
 5479 0865 9703     		.2byte	0x397
 5480 0867 C3000000 		.4byte	0xc3
 5481 086b 02       		.uleb128 0x2
 5482 086c 91       		.byte	0x91
 5483 086d 74       		.sleb128 -12
 5484 086e 00       		.byte	0
 5485 086f 00       		.byte	0
 5486 0870 1D       		.uleb128 0x1d
 5487 0871 6D030000 		.4byte	.LASF124
 5488 0875 01       		.byte	0x1
 5489 0876 A403     		.2byte	0x3a4
 5490 0878 00000000 		.4byte	.LFB105
 5491 087c 0C000000 		.4byte	.LFE105-.LFB105
 5492 0880 01       		.uleb128 0x1
 5493 0881 9C       		.byte	0x9c
 5494 0882 1E       		.uleb128 0x1e
 5495 0883 9F060000 		.4byte	.LASF125
 5496 0887 06       		.byte	0x6
 5497 0888 9606     		.2byte	0x696
 5498 088a 8E080000 		.4byte	0x88e
 5499 088e 1F       		.uleb128 0x1f
 5500 088f 95000000 		.4byte	0x95
 5501 0893 20       		.uleb128 0x20
 5502 0894 747300   		.ascii	"ts\000"
 5503 0897 05       		.byte	0x5
 5504 0898 10       		.byte	0x10
ARM GAS  C:\Users\Logan\AppData\Local\Temp\ccydAEbe.s 			page 115


 5505 0899 AB000000 		.4byte	0xab
 5506 089d 05       		.uleb128 0x5
 5507 089e 03       		.byte	0x3
 5508 089f 00000000 		.4byte	ts
 5509 08a3 21       		.uleb128 0x21
 5510 08a4 F4070000 		.4byte	.LASF126
 5511 08a8 05       		.byte	0x5
 5512 08a9 11       		.byte	0x11
 5513 08aa B7000000 		.4byte	0xb7
 5514 08ae 05       		.uleb128 0x5
 5515 08af 03       		.byte	0x3
 5516 08b0 00000000 		.4byte	ts_enc
 5517 08b4 21       		.uleb128 0x21
 5518 08b5 BE060000 		.4byte	.LASF127
 5519 08b9 05       		.byte	0x5
 5520 08ba 12       		.byte	0x12
 5521 08bb B7000000 		.4byte	0xb7
 5522 08bf 05       		.uleb128 0x5
 5523 08c0 03       		.byte	0x3
 5524 08c1 00000000 		.4byte	ts_update
 5525 08c5 21       		.uleb128 0x21
 5526 08c6 5E050000 		.4byte	.LASF128
 5527 08ca 05       		.byte	0x5
 5528 08cb 13       		.byte	0x13
 5529 08cc B7000000 		.4byte	0xb7
 5530 08d0 05       		.uleb128 0x5
 5531 08d1 03       		.byte	0x3
 5532 08d2 00000000 		.4byte	ts_speed
 5533 08d6 21       		.uleb128 0x21
 5534 08d7 94030000 		.4byte	.LASF129
 5535 08db 05       		.byte	0x5
 5536 08dc 14       		.byte	0x14
 5537 08dd B7000000 		.4byte	0xb7
 5538 08e1 05       		.uleb128 0x5
 5539 08e2 03       		.byte	0x3
 5540 08e3 00000000 		.4byte	ts_display
 5541 08e7 21       		.uleb128 0x21
 5542 08e8 17030000 		.4byte	.LASF130
 5543 08ec 05       		.byte	0x5
 5544 08ed 16       		.byte	0x16
 5545 08ee AB000000 		.4byte	0xab
 5546 08f2 05       		.uleb128 0x5
 5547 08f3 03       		.byte	0x3
 5548 08f4 00000000 		.4byte	flag_ts_enc
 5549 08f8 21       		.uleb128 0x21
 5550 08f9 F0020000 		.4byte	.LASF131
 5551 08fd 05       		.byte	0x5
 5552 08fe 17       		.byte	0x17
 5553 08ff AB000000 		.4byte	0xab
 5554 0903 05       		.uleb128 0x5
 5555 0904 03       		.byte	0x3
 5556 0905 00000000 		.4byte	flag_ts_update
 5557 0909 21       		.uleb128 0x21
 5558 090a 19060000 		.4byte	.LASF132
 5559 090e 05       		.byte	0x5
 5560 090f 18       		.byte	0x18
 5561 0910 AB000000 		.4byte	0xab
ARM GAS  C:\Users\Logan\AppData\Local\Temp\ccydAEbe.s 			page 116


 5562 0914 05       		.uleb128 0x5
 5563 0915 03       		.byte	0x3
 5564 0916 00000000 		.4byte	flag_ts_speed
 5565 091a 21       		.uleb128 0x21
 5566 091b 05080000 		.4byte	.LASF133
 5567 091f 05       		.byte	0x5
 5568 0920 19       		.byte	0x19
 5569 0921 AB000000 		.4byte	0xab
 5570 0925 05       		.uleb128 0x5
 5571 0926 03       		.byte	0x3
 5572 0927 00000000 		.4byte	flag_ts_display
 5573 092b 21       		.uleb128 0x21
 5574 092c 44060000 		.4byte	.LASF134
 5575 0930 05       		.byte	0x5
 5576 0931 1C       		.byte	0x1c
 5577 0932 AB000000 		.4byte	0xab
 5578 0936 05       		.uleb128 0x5
 5579 0937 03       		.byte	0x3
 5580 0938 00000000 		.4byte	flag_rx
 5581 093c 21       		.uleb128 0x21
 5582 093d 9D020000 		.4byte	.LASF135
 5583 0941 05       		.byte	0x5
 5584 0942 1D       		.byte	0x1d
 5585 0943 AB000000 		.4byte	0xab
 5586 0947 05       		.uleb128 0x5
 5587 0948 03       		.byte	0x3
 5588 0949 00000000 		.4byte	flag_packet
 5589 094d 21       		.uleb128 0x21
 5590 094e 30090000 		.4byte	.LASF136
 5591 0952 05       		.byte	0x5
 5592 0953 1E       		.byte	0x1e
 5593 0954 AB000000 		.4byte	0xab
 5594 0958 05       		.uleb128 0x5
 5595 0959 03       		.byte	0x3
 5596 095a 00000000 		.4byte	flag_KB_string
 5597 095e 21       		.uleb128 0x21
 5598 095f 27060000 		.4byte	.LASF137
 5599 0963 05       		.byte	0x5
 5600 0964 20       		.byte	0x20
 5601 0965 AB000000 		.4byte	0xab
 5602 0969 05       		.uleb128 0x5
 5603 096a 03       		.byte	0x3
 5604 096b 00000000 		.4byte	dataready_flag
 5605 096f 21       		.uleb128 0x21
 5606 0970 B6010000 		.4byte	.LASF138
 5607 0974 05       		.byte	0x5
 5608 0975 22       		.byte	0x22
 5609 0976 AB000000 		.4byte	0xab
 5610 097a 05       		.uleb128 0x5
 5611 097b 03       		.byte	0x3
 5612 097c 00000000 		.4byte	flag_rf_transmission_active
 5613 0980 21       		.uleb128 0x21
 5614 0981 D2010000 		.4byte	.LASF139
 5615 0985 05       		.byte	0x5
 5616 0986 23       		.byte	0x23
 5617 0987 AB000000 		.4byte	0xab
 5618 098b 05       		.uleb128 0x5
ARM GAS  C:\Users\Logan\AppData\Local\Temp\ccydAEbe.s 			page 117


 5619 098c 03       		.byte	0x3
 5620 098d 00000000 		.4byte	flag_print_rf
 5621 0991 21       		.uleb128 0x21
 5622 0992 C1050000 		.4byte	.LASF140
 5623 0996 05       		.byte	0x5
 5624 0997 25       		.byte	0x25
 5625 0998 AB000000 		.4byte	0xab
 5626 099c 05       		.uleb128 0x5
 5627 099d 03       		.byte	0x3
 5628 099e 00000000 		.4byte	flag_receive_ADC
 5629 09a2 21       		.uleb128 0x21
 5630 09a3 56060000 		.4byte	.LASF141
 5631 09a7 05       		.byte	0x5
 5632 09a8 26       		.byte	0x26
 5633 09a9 DB000000 		.4byte	0xdb
 5634 09ad 05       		.uleb128 0x5
 5635 09ae 03       		.byte	0x3
 5636 09af 00000000 		.4byte	adc_result
 5637 09b3 21       		.uleb128 0x21
 5638 09b4 00000000 		.4byte	.LASF142
 5639 09b8 05       		.byte	0x5
 5640 09b9 28       		.byte	0x28
 5641 09ba AB000000 		.4byte	0xab
 5642 09be 05       		.uleb128 0x5
 5643 09bf 03       		.byte	0x3
 5644 09c0 00000000 		.4byte	direction
 5645 09c4 21       		.uleb128 0x21
 5646 09c5 47050000 		.4byte	.LASF143
 5647 09c9 05       		.byte	0x5
 5648 09ca 2B       		.byte	0x2b
 5649 09cb AB000000 		.4byte	0xab
 5650 09cf 05       		.uleb128 0x5
 5651 09d0 03       		.byte	0x3
 5652 09d1 00000000 		.4byte	BIN_ENABLED
 5653 09d5 21       		.uleb128 0x21
 5654 09d6 3D040000 		.4byte	.LASF144
 5655 09da 05       		.byte	0x5
 5656 09db 2D       		.byte	0x2d
 5657 09dc AB000000 		.4byte	0xab
 5658 09e0 05       		.uleb128 0x5
 5659 09e1 03       		.byte	0x3
 5660 09e2 00000000 		.4byte	BT_ENABLED
 5661 09e6 21       		.uleb128 0x21
 5662 09e7 6B060000 		.4byte	.LASF145
 5663 09eb 05       		.byte	0x5
 5664 09ec 32       		.byte	0x32
 5665 09ed AB000000 		.4byte	0xab
 5666 09f1 05       		.uleb128 0x5
 5667 09f2 03       		.byte	0x3
 5668 09f3 00000000 		.4byte	flag_calc_wheelspeed
 5669 09f7 21       		.uleb128 0x21
 5670 09f8 57010000 		.4byte	.LASF146
 5671 09fc 05       		.byte	0x5
 5672 09fd 33       		.byte	0x33
 5673 09fe DB000000 		.4byte	0xdb
 5674 0a02 05       		.uleb128 0x5
 5675 0a03 03       		.byte	0x3
ARM GAS  C:\Users\Logan\AppData\Local\Temp\ccydAEbe.s 			page 118


 5676 0a04 00000000 		.4byte	quad_count1
 5677 0a08 21       		.uleb128 0x21
 5678 0a09 63010000 		.4byte	.LASF147
 5679 0a0d 05       		.byte	0x5
 5680 0a0e 34       		.byte	0x34
 5681 0a0f DB000000 		.4byte	0xdb
 5682 0a13 05       		.uleb128 0x5
 5683 0a14 03       		.byte	0x3
 5684 0a15 00000000 		.4byte	quad_count2
 5685 0a19 21       		.uleb128 0x21
 5686 0a1a 44080000 		.4byte	.LASF148
 5687 0a1e 05       		.byte	0x5
 5688 0a1f 35       		.byte	0x35
 5689 0a20 DB000000 		.4byte	0xdb
 5690 0a24 05       		.uleb128 0x5
 5691 0a25 03       		.byte	0x3
 5692 0a26 00000000 		.4byte	last_quad_count1
 5693 0a2a 21       		.uleb128 0x21
 5694 0a2b 55080000 		.4byte	.LASF149
 5695 0a2f 05       		.byte	0x5
 5696 0a30 36       		.byte	0x36
 5697 0a31 DB000000 		.4byte	0xdb
 5698 0a35 05       		.uleb128 0x5
 5699 0a36 03       		.byte	0x3
 5700 0a37 00000000 		.4byte	last_quad_count2
 5701 0a3b 21       		.uleb128 0x21
 5702 0a3c 7A000000 		.4byte	.LASF150
 5703 0a40 05       		.byte	0x5
 5704 0a41 37       		.byte	0x37
 5705 0a42 DB000000 		.4byte	0xdb
 5706 0a46 05       		.uleb128 0x5
 5707 0a47 03       		.byte	0x3
 5708 0a48 00000000 		.4byte	quad_diff1
 5709 0a4c 21       		.uleb128 0x21
 5710 0a4d 85000000 		.4byte	.LASF151
 5711 0a51 05       		.byte	0x5
 5712 0a52 38       		.byte	0x38
 5713 0a53 DB000000 		.4byte	0xdb
 5714 0a57 05       		.uleb128 0x5
 5715 0a58 03       		.byte	0x3
 5716 0a59 00000000 		.4byte	quad_diff2
 5717 0a5d 21       		.uleb128 0x21
 5718 0a5e D1060000 		.4byte	.LASF152
 5719 0a62 05       		.byte	0x5
 5720 0a63 39       		.byte	0x39
 5721 0a64 AB000000 		.4byte	0xab
 5722 0a68 05       		.uleb128 0x5
 5723 0a69 03       		.byte	0x3
 5724 0a6a 00000000 		.4byte	deadzone
 5725 0a6e 21       		.uleb128 0x21
 5726 0a6f B6000000 		.4byte	.LASF153
 5727 0a73 05       		.byte	0x5
 5728 0a74 3C       		.byte	0x3c
 5729 0a75 DB000000 		.4byte	0xdb
 5730 0a79 05       		.uleb128 0x5
 5731 0a7a 03       		.byte	0x3
 5732 0a7b 00000000 		.4byte	start_turn_count
ARM GAS  C:\Users\Logan\AppData\Local\Temp\ccydAEbe.s 			page 119


 5733 0a7f 21       		.uleb128 0x21
 5734 0a80 FC050000 		.4byte	.LASF154
 5735 0a84 05       		.byte	0x5
 5736 0a85 3F       		.byte	0x3f
 5737 0a86 DB000000 		.4byte	0xdb
 5738 0a8a 05       		.uleb128 0x5
 5739 0a8b 03       		.byte	0x3
 5740 0a8c 00000000 		.4byte	left_duty_cycle
 5741 0a90 21       		.uleb128 0x21
 5742 0a91 E2080000 		.4byte	.LASF155
 5743 0a95 05       		.byte	0x5
 5744 0a96 40       		.byte	0x40
 5745 0a97 DB000000 		.4byte	0xdb
 5746 0a9b 05       		.uleb128 0x5
 5747 0a9c 03       		.byte	0x3
 5748 0a9d 00000000 		.4byte	right_duty_cycle
 5749 0aa1 21       		.uleb128 0x21
 5750 0aa2 DA060000 		.4byte	.LASF156
 5751 0aa6 05       		.byte	0x5
 5752 0aa7 43       		.byte	0x43
 5753 0aa8 DB000000 		.4byte	0xdb
 5754 0aac 05       		.uleb128 0x5
 5755 0aad 03       		.byte	0x3
 5756 0aae 00000000 		.4byte	leftSpeedLimit
 5757 0ab2 21       		.uleb128 0x21
 5758 0ab3 C3030000 		.4byte	.LASF157
 5759 0ab7 05       		.byte	0x5
 5760 0ab8 44       		.byte	0x44
 5761 0ab9 DB000000 		.4byte	0xdb
 5762 0abd 05       		.uleb128 0x5
 5763 0abe 03       		.byte	0x3
 5764 0abf 00000000 		.4byte	rightSpeedLimit
 5765 0ac3 21       		.uleb128 0x21
 5766 0ac4 58070000 		.4byte	.LASF158
 5767 0ac8 05       		.byte	0x5
 5768 0ac9 47       		.byte	0x47
 5769 0aca DB000000 		.4byte	0xdb
 5770 0ace 05       		.uleb128 0x5
 5771 0acf 03       		.byte	0x3
 5772 0ad0 00000000 		.4byte	target_distance_cm
 5773 0ad4 21       		.uleb128 0x21
 5774 0ad5 09070000 		.4byte	.LASF159
 5775 0ad9 05       		.byte	0x5
 5776 0ada 49       		.byte	0x49
 5777 0adb DB000000 		.4byte	0xdb
 5778 0adf 05       		.uleb128 0x5
 5779 0ae0 03       		.byte	0x3
 5780 0ae1 00000000 		.4byte	accum_dist
 5781 0ae5 21       		.uleb128 0x21
 5782 0ae6 02010000 		.4byte	.LASF160
 5783 0aea 05       		.byte	0x5
 5784 0aeb 4A       		.byte	0x4a
 5785 0aec DB000000 		.4byte	0xdb
 5786 0af0 05       		.uleb128 0x5
 5787 0af1 03       		.byte	0x3
 5788 0af2 00000000 		.4byte	target_distance_quad
 5789 0af6 21       		.uleb128 0x21
ARM GAS  C:\Users\Logan\AppData\Local\Temp\ccydAEbe.s 			page 120


 5790 0af7 4C070000 		.4byte	.LASF161
 5791 0afb 05       		.byte	0x5
 5792 0afc 4B       		.byte	0x4b
 5793 0afd E7000000 		.4byte	0xe7
 5794 0b01 05       		.uleb128 0x5
 5795 0b02 03       		.byte	0x3
 5796 0b03 00000000 		.4byte	quad_per_cm
 5797 0b07 21       		.uleb128 0x21
 5798 0b08 4E040000 		.4byte	.LASF162
 5799 0b0c 05       		.byte	0x5
 5800 0b0d 4E       		.byte	0x4e
 5801 0b0e AB000000 		.4byte	0xab
 5802 0b12 05       		.uleb128 0x5
 5803 0b13 03       		.byte	0x3
 5804 0b14 00000000 		.4byte	initial_pos_valid
 5805 0b18 21       		.uleb128 0x21
 5806 0b19 51090000 		.4byte	.LASF163
 5807 0b1d 05       		.byte	0x5
 5808 0b1e 4F       		.byte	0x4f
 5809 0b1f DB000000 		.4byte	0xdb
 5810 0b23 05       		.uleb128 0x5
 5811 0b24 03       		.byte	0x3
 5812 0b25 00000000 		.4byte	initial_x_pos
 5813 0b29 21       		.uleb128 0x21
 5814 0b2a 36060000 		.4byte	.LASF164
 5815 0b2e 05       		.byte	0x5
 5816 0b2f 50       		.byte	0x50
 5817 0b30 DB000000 		.4byte	0xdb
 5818 0b34 05       		.uleb128 0x5
 5819 0b35 03       		.byte	0x3
 5820 0b36 00000000 		.4byte	initial_y_pos
 5821 0b3a 21       		.uleb128 0x21
 5822 0b3b FB070000 		.4byte	.LASF165
 5823 0b3f 05       		.byte	0x5
 5824 0b40 53       		.byte	0x53
 5825 0b41 AB000000 		.4byte	0xab
 5826 0b45 05       		.uleb128 0x5
 5827 0b46 03       		.byte	0x3
 5828 0b47 00000000 		.4byte	brakeFlag
 5829 0b4b 21       		.uleb128 0x21
 5830 0b4c DD020000 		.4byte	.LASF166
 5831 0b50 05       		.byte	0x5
 5832 0b51 54       		.byte	0x54
 5833 0b52 AB000000 		.4byte	0xab
 5834 0b56 05       		.uleb128 0x5
 5835 0b57 03       		.byte	0x3
 5836 0b58 00000000 		.4byte	portOpen
 5837 0b5c 21       		.uleb128 0x21
 5838 0b5d AA000000 		.4byte	.LASF167
 5839 0b61 05       		.byte	0x5
 5840 0b62 57       		.byte	0x57
 5841 0b63 DB000000 		.4byte	0xdb
 5842 0b67 05       		.uleb128 0x5
 5843 0b68 03       		.byte	0x3
 5844 0b69 00000000 		.4byte	prevVoltage
 5845 0b6d 21       		.uleb128 0x21
 5846 0b6e 20010000 		.4byte	.LASF168
ARM GAS  C:\Users\Logan\AppData\Local\Temp\ccydAEbe.s 			page 121


 5847 0b72 05       		.byte	0x5
 5848 0b73 58       		.byte	0x58
 5849 0b74 DB000000 		.4byte	0xdb
 5850 0b78 05       		.uleb128 0x5
 5851 0b79 03       		.byte	0x3
 5852 0b7a 00000000 		.4byte	prevVoltage2
 5853 0b7e 07       		.uleb128 0x7
 5854 0b7f 8E000000 		.4byte	0x8e
 5855 0b83 8E0B0000 		.4byte	0xb8e
 5856 0b87 08       		.uleb128 0x8
 5857 0b88 81000000 		.4byte	0x81
 5858 0b8c 3F       		.byte	0x3f
 5859 0b8d 00       		.byte	0
 5860 0b8e 21       		.uleb128 0x21
 5861 0b8f 36080000 		.4byte	.LASF169
 5862 0b93 05       		.byte	0x5
 5863 0b94 5E       		.byte	0x5e
 5864 0b95 7E0B0000 		.4byte	0xb7e
 5865 0b99 05       		.uleb128 0x5
 5866 0b9a 03       		.byte	0x3
 5867 0b9b 00000000 		.4byte	displaystring
 5868 0b9f 21       		.uleb128 0x21
 5869 0ba0 E2070000 		.4byte	.LASF170
 5870 0ba4 05       		.byte	0x5
 5871 0ba5 5F       		.byte	0x5f
 5872 0ba6 7E0B0000 		.4byte	0xb7e
 5873 0baa 05       		.uleb128 0x5
 5874 0bab 03       		.byte	0x3
 5875 0bac 00000000 		.4byte	line
 5876 0bb0 21       		.uleb128 0x21
 5877 0bb1 C3070000 		.4byte	.LASF171
 5878 0bb5 05       		.byte	0x5
 5879 0bb6 5F       		.byte	0x5f
 5880 0bb7 7E0B0000 		.4byte	0xb7e
 5881 0bbb 05       		.uleb128 0x5
 5882 0bbc 03       		.byte	0x3
 5883 0bbd 00000000 		.4byte	entry
 5884 0bc1 07       		.uleb128 0x7
 5885 0bc2 AB000000 		.4byte	0xab
 5886 0bc6 D10B0000 		.4byte	0xbd1
 5887 0bca 08       		.uleb128 0x8
 5888 0bcb 81000000 		.4byte	0x81
 5889 0bcf 3F       		.byte	0x3f
 5890 0bd0 00       		.byte	0
 5891 0bd1 21       		.uleb128 0x21
 5892 0bd2 35020000 		.4byte	.LASF172
 5893 0bd6 05       		.byte	0x5
 5894 0bd7 60       		.byte	0x60
 5895 0bd8 C10B0000 		.4byte	0xbc1
 5896 0bdc 05       		.uleb128 0x5
 5897 0bdd 03       		.byte	0x3
 5898 0bde 00000000 		.4byte	usbBuffer
 5899 0be2 21       		.uleb128 0x21
 5900 0be3 6E040000 		.4byte	.LASF173
 5901 0be7 05       		.byte	0x5
 5902 0be8 75       		.byte	0x75
 5903 0be9 86010000 		.4byte	0x186
ARM GAS  C:\Users\Logan\AppData\Local\Temp\ccydAEbe.s 			page 122


 5904 0bed 05       		.uleb128 0x5
 5905 0bee 03       		.byte	0x3
 5906 0bef 00000000 		.4byte	buffer_state
 5907 0bf3 21       		.uleb128 0x21
 5908 0bf4 EF000000 		.4byte	.LASF174
 5909 0bf8 05       		.byte	0x5
 5910 0bf9 76       		.byte	0x76
 5911 0bfa 86010000 		.4byte	0x186
 5912 0bfe 05       		.uleb128 0x5
 5913 0bff 03       		.byte	0x3
 5914 0c00 00000000 		.4byte	system_state
 5915 0c04 21       		.uleb128 0x21
 5916 0c05 43030000 		.4byte	.LASF175
 5917 0c09 05       		.byte	0x5
 5918 0c0a 78       		.byte	0x78
 5919 0c0b 0C010000 		.4byte	0x10c
 5920 0c0f 05       		.uleb128 0x5
 5921 0c10 03       		.byte	0x3
 5922 0c11 00000000 		.4byte	prev_movement_state
 5923 0c15 21       		.uleb128 0x21
 5924 0c16 E0010000 		.4byte	.LASF176
 5925 0c1a 05       		.byte	0x5
 5926 0c1b 79       		.byte	0x79
 5927 0c1c 0C010000 		.4byte	0x10c
 5928 0c20 05       		.uleb128 0x5
 5929 0c21 03       		.byte	0x3
 5930 0c22 00000000 		.4byte	movement_state
 5931 0c26 21       		.uleb128 0x21
 5932 0c27 D4000000 		.4byte	.LASF177
 5933 0c2b 05       		.byte	0x5
 5934 0c2c 7A       		.byte	0x7a
 5935 0c2d 49010000 		.4byte	0x149
 5936 0c31 05       		.uleb128 0x5
 5937 0c32 03       		.byte	0x3
 5938 0c33 00000000 		.4byte	track_mode
 5939 0c37 21       		.uleb128 0x21
 5940 0c38 23030000 		.4byte	.LASF178
 5941 0c3c 05       		.byte	0x5
 5942 0c3d 7C       		.byte	0x7c
 5943 0c3e AB000000 		.4byte	0xab
 5944 0c42 05       		.uleb128 0x5
 5945 0c43 03       		.byte	0x3
 5946 0c44 00000000 		.4byte	byteCount
 5947 0c48 07       		.uleb128 0x7
 5948 0c49 8E000000 		.4byte	0x8e
 5949 0c4d 580C0000 		.4byte	0xc58
 5950 0c51 08       		.uleb128 0x8
 5951 0c52 81000000 		.4byte	0x81
 5952 0c56 01       		.byte	0x1
 5953 0c57 00       		.byte	0
 5954 0c58 21       		.uleb128 0x21
 5955 0c59 9A070000 		.4byte	.LASF179
 5956 0c5d 05       		.byte	0x5
 5957 0c5e 7D       		.byte	0x7d
 5958 0c5f 480C0000 		.4byte	0xc48
 5959 0c63 05       		.uleb128 0x5
 5960 0c64 03       		.byte	0x3
ARM GAS  C:\Users\Logan\AppData\Local\Temp\ccydAEbe.s 			page 123


 5961 0c65 00000000 		.4byte	packet
 5962 0c69 21       		.uleb128 0x21
 5963 0c6a A3010000 		.4byte	.LASF180
 5964 0c6e 05       		.byte	0x5
 5965 0c6f 81       		.byte	0x81
 5966 0c70 EE000000 		.4byte	0xee
 5967 0c74 05       		.uleb128 0x5
 5968 0c75 03       		.byte	0x3
 5969 0c76 00000000 		.4byte	speed
 5970 0c7a 21       		.uleb128 0x21
 5971 0c7b DE030000 		.4byte	.LASF181
 5972 0c7f 01       		.byte	0x1
 5973 0c80 1E       		.byte	0x1e
 5974 0c81 B7000000 		.4byte	0xb7
 5975 0c85 05       		.uleb128 0x5
 5976 0c86 03       		.byte	0x3
 5977 0c87 00000000 		.4byte	instructionCount
 5978 0c8b 21       		.uleb128 0x21
 5979 0c8c 2D010000 		.4byte	.LASF182
 5980 0c90 01       		.byte	0x1
 5981 0c91 1F       		.byte	0x1f
 5982 0c92 A0000000 		.4byte	0xa0
 5983 0c96 05       		.uleb128 0x5
 5984 0c97 03       		.byte	0x3
 5985 0c98 00000000 		.4byte	sensorsDisabled
 5986 0c9c 07       		.uleb128 0x7
 5987 0c9d A0000000 		.4byte	0xa0
 5988 0ca1 B20C0000 		.4byte	0xcb2
 5989 0ca5 08       		.uleb128 0x8
 5990 0ca6 81000000 		.4byte	0x81
 5991 0caa 0E       		.byte	0xe
 5992 0cab 08       		.uleb128 0x8
 5993 0cac 81000000 		.4byte	0x81
 5994 0cb0 12       		.byte	0x12
 5995 0cb1 00       		.byte	0
 5996 0cb2 20       		.uleb128 0x20
 5997 0cb3 6D617000 		.ascii	"map\000"
 5998 0cb7 01       		.byte	0x1
 5999 0cb8 27       		.byte	0x27
 6000 0cb9 9C0C0000 		.4byte	0xc9c
 6001 0cbd 05       		.uleb128 0x5
 6002 0cbe 03       		.byte	0x3
 6003 0cbf 00000000 		.4byte	map
 6004 0cc3 07       		.uleb128 0x7
 6005 0cc4 A0000000 		.4byte	0xa0
 6006 0cc8 D90C0000 		.4byte	0xcd9
 6007 0ccc 08       		.uleb128 0x8
 6008 0ccd 81000000 		.4byte	0x81
 6009 0cd1 05       		.byte	0x5
 6010 0cd2 08       		.uleb128 0x8
 6011 0cd3 81000000 		.4byte	0x81
 6012 0cd7 01       		.byte	0x1
 6013 0cd8 00       		.byte	0
 6014 0cd9 21       		.uleb128 0x21
 6015 0cda 3D050000 		.4byte	.LASF183
 6016 0cde 01       		.byte	0x1
 6017 0cdf 3B       		.byte	0x3b
ARM GAS  C:\Users\Logan\AppData\Local\Temp\ccydAEbe.s 			page 124


 6018 0ce0 C30C0000 		.4byte	0xcc3
 6019 0ce4 05       		.uleb128 0x5
 6020 0ce5 03       		.byte	0x3
 6021 0ce6 00000000 		.4byte	food_list
 6022 0cea 07       		.uleb128 0x7
 6023 0ceb A0000000 		.4byte	0xa0
 6024 0cef 010D0000 		.4byte	0xd01
 6025 0cf3 22       		.uleb128 0x22
 6026 0cf4 81000000 		.4byte	0x81
 6027 0cf8 1F03     		.2byte	0x31f
 6028 0cfa 08       		.uleb128 0x8
 6029 0cfb 81000000 		.4byte	0x81
 6030 0cff 02       		.byte	0x2
 6031 0d00 00       		.byte	0
 6032 0d01 21       		.uleb128 0x21
 6033 0d02 16040000 		.4byte	.LASF184
 6034 0d06 01       		.byte	0x1
 6035 0d07 23       		.byte	0x23
 6036 0d08 EA0C0000 		.4byte	0xcea
 6037 0d0c 05       		.uleb128 0x5
 6038 0d0d 03       		.byte	0x3
 6039 0d0e 00000000 		.4byte	path
 6040 0d12 21       		.uleb128 0x21
 6041 0d13 9F050000 		.4byte	.LASF185
 6042 0d17 01       		.byte	0x1
 6043 0d18 24       		.byte	0x24
 6044 0d19 F5000000 		.4byte	0xf5
 6045 0d1d 05       		.uleb128 0x5
 6046 0d1e 03       		.byte	0x3
 6047 0d1f 00000000 		.4byte	start
 6048 0d23 21       		.uleb128 0x21
 6049 0d24 66080000 		.4byte	.LASF186
 6050 0d28 01       		.byte	0x1
 6051 0d29 25       		.byte	0x25
 6052 0d2a F5000000 		.4byte	0xf5
 6053 0d2e 05       		.uleb128 0x5
 6054 0d2f 03       		.byte	0x3
 6055 0d30 00000000 		.4byte	destination
 6056 0d34 21       		.uleb128 0x21
 6057 0d35 7A010000 		.4byte	.LASF187
 6058 0d39 01       		.byte	0x1
 6059 0d3a 21       		.byte	0x21
 6060 0d3b A0000000 		.4byte	0xa0
 6061 0d3f 05       		.uleb128 0x5
 6062 0d40 03       		.byte	0x3
 6063 0d41 00000000 		.4byte	robot_direction
 6064 0d45 21       		.uleb128 0x21
 6065 0d46 0A000000 		.4byte	.LASF188
 6066 0d4a 07       		.byte	0x7
 6067 0d4b 22       		.byte	0x22
 6068 0d4c A0000000 		.4byte	0xa0
 6069 0d50 05       		.uleb128 0x5
 6070 0d51 03       		.byte	0x3
 6071 0d52 00000000 		.4byte	tracked_direction
 6072 0d56 21       		.uleb128 0x21
 6073 0d57 B7070000 		.4byte	.LASF189
 6074 0d5b 01       		.byte	0x1
ARM GAS  C:\Users\Logan\AppData\Local\Temp\ccydAEbe.s 			page 125


 6075 0d5c 3D       		.byte	0x3d
 6076 0d5d A0000000 		.4byte	0xa0
 6077 0d61 05       		.uleb128 0x5
 6078 0d62 03       		.byte	0x3
 6079 0d63 00000000 		.4byte	food_length
 6080 0d67 07       		.uleb128 0x7
 6081 0d68 8E000000 		.4byte	0x8e
 6082 0d6c 780D0000 		.4byte	0xd78
 6083 0d70 22       		.uleb128 0x22
 6084 0d71 81000000 		.4byte	0x81
 6085 0d75 1F03     		.2byte	0x31f
 6086 0d77 00       		.byte	0
 6087 0d78 21       		.uleb128 0x21
 6088 0d79 6E050000 		.4byte	.LASF190
 6089 0d7d 01       		.byte	0x1
 6090 0d7e 1D       		.byte	0x1d
 6091 0d7f 670D0000 		.4byte	0xd67
 6092 0d83 05       		.uleb128 0x5
 6093 0d84 03       		.byte	0x3
 6094 0d85 00000000 		.4byte	instructions
 6095 0d89 23       		.uleb128 0x23
 6096 0d8a 95010000 		.4byte	.LASF191
 6097 0d8e 01       		.byte	0x1
 6098 0d8f 2003     		.2byte	0x320
 6099 0d91 B7000000 		.4byte	0xb7
 6100 0d95 05       		.uleb128 0x5
 6101 0d96 03       		.byte	0x3
 6102 0d97 00000000 		.4byte	leftTurnCount
 6103 0d9b 23       		.uleb128 0x23
 6104 0d9c 61000000 		.4byte	.LASF192
 6105 0da0 01       		.byte	0x1
 6106 0da1 2103     		.2byte	0x321
 6107 0da3 B7000000 		.4byte	0xb7
 6108 0da7 05       		.uleb128 0x5
 6109 0da8 03       		.byte	0x3
 6110 0da9 00000000 		.4byte	rightTurnCount
 6111 0dad 00       		.byte	0
 6112              		.section	.debug_abbrev,"",%progbits
 6113              	.Ldebug_abbrev0:
 6114 0000 01       		.uleb128 0x1
 6115 0001 11       		.uleb128 0x11
 6116 0002 01       		.byte	0x1
 6117 0003 25       		.uleb128 0x25
 6118 0004 0E       		.uleb128 0xe
 6119 0005 13       		.uleb128 0x13
 6120 0006 0B       		.uleb128 0xb
 6121 0007 03       		.uleb128 0x3
 6122 0008 0E       		.uleb128 0xe
 6123 0009 1B       		.uleb128 0x1b
 6124 000a 0E       		.uleb128 0xe
 6125 000b 55       		.uleb128 0x55
 6126 000c 17       		.uleb128 0x17
 6127 000d 11       		.uleb128 0x11
 6128 000e 01       		.uleb128 0x1
 6129 000f 10       		.uleb128 0x10
 6130 0010 17       		.uleb128 0x17
 6131 0011 00       		.byte	0
ARM GAS  C:\Users\Logan\AppData\Local\Temp\ccydAEbe.s 			page 126


 6132 0012 00       		.byte	0
 6133 0013 02       		.uleb128 0x2
 6134 0014 24       		.uleb128 0x24
 6135 0015 00       		.byte	0
 6136 0016 0B       		.uleb128 0xb
 6137 0017 0B       		.uleb128 0xb
 6138 0018 3E       		.uleb128 0x3e
 6139 0019 0B       		.uleb128 0xb
 6140 001a 03       		.uleb128 0x3
 6141 001b 0E       		.uleb128 0xe
 6142 001c 00       		.byte	0
 6143 001d 00       		.byte	0
 6144 001e 03       		.uleb128 0x3
 6145 001f 16       		.uleb128 0x16
 6146 0020 00       		.byte	0
 6147 0021 03       		.uleb128 0x3
 6148 0022 0E       		.uleb128 0xe
 6149 0023 3A       		.uleb128 0x3a
 6150 0024 0B       		.uleb128 0xb
 6151 0025 3B       		.uleb128 0x3b
 6152 0026 0B       		.uleb128 0xb
 6153 0027 49       		.uleb128 0x49
 6154 0028 13       		.uleb128 0x13
 6155 0029 00       		.byte	0
 6156 002a 00       		.byte	0
 6157 002b 04       		.uleb128 0x4
 6158 002c 24       		.uleb128 0x24
 6159 002d 00       		.byte	0
 6160 002e 0B       		.uleb128 0xb
 6161 002f 0B       		.uleb128 0xb
 6162 0030 3E       		.uleb128 0x3e
 6163 0031 0B       		.uleb128 0xb
 6164 0032 03       		.uleb128 0x3
 6165 0033 08       		.uleb128 0x8
 6166 0034 00       		.byte	0
 6167 0035 00       		.byte	0
 6168 0036 05       		.uleb128 0x5
 6169 0037 0F       		.uleb128 0xf
 6170 0038 00       		.byte	0
 6171 0039 0B       		.uleb128 0xb
 6172 003a 0B       		.uleb128 0xb
 6173 003b 49       		.uleb128 0x49
 6174 003c 13       		.uleb128 0x13
 6175 003d 00       		.byte	0
 6176 003e 00       		.byte	0
 6177 003f 06       		.uleb128 0x6
 6178 0040 16       		.uleb128 0x16
 6179 0041 00       		.byte	0
 6180 0042 03       		.uleb128 0x3
 6181 0043 0E       		.uleb128 0xe
 6182 0044 3A       		.uleb128 0x3a
 6183 0045 0B       		.uleb128 0xb
 6184 0046 3B       		.uleb128 0x3b
 6185 0047 05       		.uleb128 0x5
 6186 0048 49       		.uleb128 0x49
 6187 0049 13       		.uleb128 0x13
 6188 004a 00       		.byte	0
ARM GAS  C:\Users\Logan\AppData\Local\Temp\ccydAEbe.s 			page 127


 6189 004b 00       		.byte	0
 6190 004c 07       		.uleb128 0x7
 6191 004d 01       		.uleb128 0x1
 6192 004e 01       		.byte	0x1
 6193 004f 49       		.uleb128 0x49
 6194 0050 13       		.uleb128 0x13
 6195 0051 01       		.uleb128 0x1
 6196 0052 13       		.uleb128 0x13
 6197 0053 00       		.byte	0
 6198 0054 00       		.byte	0
 6199 0055 08       		.uleb128 0x8
 6200 0056 21       		.uleb128 0x21
 6201 0057 00       		.byte	0
 6202 0058 49       		.uleb128 0x49
 6203 0059 13       		.uleb128 0x13
 6204 005a 2F       		.uleb128 0x2f
 6205 005b 0B       		.uleb128 0xb
 6206 005c 00       		.byte	0
 6207 005d 00       		.byte	0
 6208 005e 09       		.uleb128 0x9
 6209 005f 04       		.uleb128 0x4
 6210 0060 01       		.byte	0x1
 6211 0061 03       		.uleb128 0x3
 6212 0062 0E       		.uleb128 0xe
 6213 0063 0B       		.uleb128 0xb
 6214 0064 0B       		.uleb128 0xb
 6215 0065 3A       		.uleb128 0x3a
 6216 0066 0B       		.uleb128 0xb
 6217 0067 3B       		.uleb128 0x3b
 6218 0068 0B       		.uleb128 0xb
 6219 0069 01       		.uleb128 0x1
 6220 006a 13       		.uleb128 0x13
 6221 006b 00       		.byte	0
 6222 006c 00       		.byte	0
 6223 006d 0A       		.uleb128 0xa
 6224 006e 28       		.uleb128 0x28
 6225 006f 00       		.byte	0
 6226 0070 03       		.uleb128 0x3
 6227 0071 0E       		.uleb128 0xe
 6228 0072 1C       		.uleb128 0x1c
 6229 0073 0D       		.uleb128 0xd
 6230 0074 00       		.byte	0
 6231 0075 00       		.byte	0
 6232 0076 0B       		.uleb128 0xb
 6233 0077 13       		.uleb128 0x13
 6234 0078 01       		.byte	0x1
 6235 0079 03       		.uleb128 0x3
 6236 007a 0E       		.uleb128 0xe
 6237 007b 0B       		.uleb128 0xb
 6238 007c 0B       		.uleb128 0xb
 6239 007d 3A       		.uleb128 0x3a
 6240 007e 0B       		.uleb128 0xb
 6241 007f 3B       		.uleb128 0x3b
 6242 0080 0B       		.uleb128 0xb
 6243 0081 01       		.uleb128 0x1
 6244 0082 13       		.uleb128 0x13
 6245 0083 00       		.byte	0
ARM GAS  C:\Users\Logan\AppData\Local\Temp\ccydAEbe.s 			page 128


 6246 0084 00       		.byte	0
 6247 0085 0C       		.uleb128 0xc
 6248 0086 0D       		.uleb128 0xd
 6249 0087 00       		.byte	0
 6250 0088 03       		.uleb128 0x3
 6251 0089 0E       		.uleb128 0xe
 6252 008a 3A       		.uleb128 0x3a
 6253 008b 0B       		.uleb128 0xb
 6254 008c 3B       		.uleb128 0x3b
 6255 008d 0B       		.uleb128 0xb
 6256 008e 49       		.uleb128 0x49
 6257 008f 13       		.uleb128 0x13
 6258 0090 38       		.uleb128 0x38
 6259 0091 0B       		.uleb128 0xb
 6260 0092 00       		.byte	0
 6261 0093 00       		.byte	0
 6262 0094 0D       		.uleb128 0xd
 6263 0095 2E       		.uleb128 0x2e
 6264 0096 00       		.byte	0
 6265 0097 3F       		.uleb128 0x3f
 6266 0098 19       		.uleb128 0x19
 6267 0099 03       		.uleb128 0x3
 6268 009a 0E       		.uleb128 0xe
 6269 009b 3A       		.uleb128 0x3a
 6270 009c 0B       		.uleb128 0xb
 6271 009d 3B       		.uleb128 0x3b
 6272 009e 0B       		.uleb128 0xb
 6273 009f 27       		.uleb128 0x27
 6274 00a0 19       		.uleb128 0x19
 6275 00a1 11       		.uleb128 0x11
 6276 00a2 01       		.uleb128 0x1
 6277 00a3 12       		.uleb128 0x12
 6278 00a4 06       		.uleb128 0x6
 6279 00a5 40       		.uleb128 0x40
 6280 00a6 18       		.uleb128 0x18
 6281 00a7 9742     		.uleb128 0x2117
 6282 00a9 19       		.uleb128 0x19
 6283 00aa 00       		.byte	0
 6284 00ab 00       		.byte	0
 6285 00ac 0E       		.uleb128 0xe
 6286 00ad 2E       		.uleb128 0x2e
 6287 00ae 00       		.byte	0
 6288 00af 3F       		.uleb128 0x3f
 6289 00b0 19       		.uleb128 0x19
 6290 00b1 03       		.uleb128 0x3
 6291 00b2 0E       		.uleb128 0xe
 6292 00b3 3A       		.uleb128 0x3a
 6293 00b4 0B       		.uleb128 0xb
 6294 00b5 3B       		.uleb128 0x3b
 6295 00b6 0B       		.uleb128 0xb
 6296 00b7 27       		.uleb128 0x27
 6297 00b8 19       		.uleb128 0x19
 6298 00b9 11       		.uleb128 0x11
 6299 00ba 01       		.uleb128 0x1
 6300 00bb 12       		.uleb128 0x12
 6301 00bc 06       		.uleb128 0x6
 6302 00bd 40       		.uleb128 0x40
ARM GAS  C:\Users\Logan\AppData\Local\Temp\ccydAEbe.s 			page 129


 6303 00be 18       		.uleb128 0x18
 6304 00bf 9642     		.uleb128 0x2116
 6305 00c1 19       		.uleb128 0x19
 6306 00c2 00       		.byte	0
 6307 00c3 00       		.byte	0
 6308 00c4 0F       		.uleb128 0xf
 6309 00c5 2E       		.uleb128 0x2e
 6310 00c6 01       		.byte	0x1
 6311 00c7 3F       		.uleb128 0x3f
 6312 00c8 19       		.uleb128 0x19
 6313 00c9 03       		.uleb128 0x3
 6314 00ca 0E       		.uleb128 0xe
 6315 00cb 3A       		.uleb128 0x3a
 6316 00cc 0B       		.uleb128 0xb
 6317 00cd 3B       		.uleb128 0x3b
 6318 00ce 0B       		.uleb128 0xb
 6319 00cf 27       		.uleb128 0x27
 6320 00d0 19       		.uleb128 0x19
 6321 00d1 11       		.uleb128 0x11
 6322 00d2 01       		.uleb128 0x1
 6323 00d3 12       		.uleb128 0x12
 6324 00d4 06       		.uleb128 0x6
 6325 00d5 40       		.uleb128 0x40
 6326 00d6 18       		.uleb128 0x18
 6327 00d7 9642     		.uleb128 0x2116
 6328 00d9 19       		.uleb128 0x19
 6329 00da 01       		.uleb128 0x1
 6330 00db 13       		.uleb128 0x13
 6331 00dc 00       		.byte	0
 6332 00dd 00       		.byte	0
 6333 00de 10       		.uleb128 0x10
 6334 00df 0B       		.uleb128 0xb
 6335 00e0 01       		.byte	0x1
 6336 00e1 11       		.uleb128 0x11
 6337 00e2 01       		.uleb128 0x1
 6338 00e3 12       		.uleb128 0x12
 6339 00e4 06       		.uleb128 0x6
 6340 00e5 01       		.uleb128 0x1
 6341 00e6 13       		.uleb128 0x13
 6342 00e7 00       		.byte	0
 6343 00e8 00       		.byte	0
 6344 00e9 11       		.uleb128 0x11
 6345 00ea 34       		.uleb128 0x34
 6346 00eb 00       		.byte	0
 6347 00ec 03       		.uleb128 0x3
 6348 00ed 08       		.uleb128 0x8
 6349 00ee 3A       		.uleb128 0x3a
 6350 00ef 0B       		.uleb128 0xb
 6351 00f0 3B       		.uleb128 0x3b
 6352 00f1 0B       		.uleb128 0xb
 6353 00f2 49       		.uleb128 0x49
 6354 00f3 13       		.uleb128 0x13
 6355 00f4 02       		.uleb128 0x2
 6356 00f5 18       		.uleb128 0x18
 6357 00f6 00       		.byte	0
 6358 00f7 00       		.byte	0
 6359 00f8 12       		.uleb128 0x12
ARM GAS  C:\Users\Logan\AppData\Local\Temp\ccydAEbe.s 			page 130


 6360 00f9 0B       		.uleb128 0xb
 6361 00fa 01       		.byte	0x1
 6362 00fb 11       		.uleb128 0x11
 6363 00fc 01       		.uleb128 0x1
 6364 00fd 12       		.uleb128 0x12
 6365 00fe 06       		.uleb128 0x6
 6366 00ff 00       		.byte	0
 6367 0100 00       		.byte	0
 6368 0101 13       		.uleb128 0x13
 6369 0102 34       		.uleb128 0x34
 6370 0103 00       		.byte	0
 6371 0104 03       		.uleb128 0x3
 6372 0105 0E       		.uleb128 0xe
 6373 0106 3A       		.uleb128 0x3a
 6374 0107 0B       		.uleb128 0xb
 6375 0108 3B       		.uleb128 0x3b
 6376 0109 0B       		.uleb128 0xb
 6377 010a 49       		.uleb128 0x49
 6378 010b 13       		.uleb128 0x13
 6379 010c 02       		.uleb128 0x2
 6380 010d 18       		.uleb128 0x18
 6381 010e 00       		.byte	0
 6382 010f 00       		.byte	0
 6383 0110 14       		.uleb128 0x14
 6384 0111 2E       		.uleb128 0x2e
 6385 0112 01       		.byte	0x1
 6386 0113 3F       		.uleb128 0x3f
 6387 0114 19       		.uleb128 0x19
 6388 0115 03       		.uleb128 0x3
 6389 0116 0E       		.uleb128 0xe
 6390 0117 3A       		.uleb128 0x3a
 6391 0118 0B       		.uleb128 0xb
 6392 0119 3B       		.uleb128 0x3b
 6393 011a 0B       		.uleb128 0xb
 6394 011b 49       		.uleb128 0x49
 6395 011c 13       		.uleb128 0x13
 6396 011d 11       		.uleb128 0x11
 6397 011e 01       		.uleb128 0x1
 6398 011f 12       		.uleb128 0x12
 6399 0120 06       		.uleb128 0x6
 6400 0121 40       		.uleb128 0x40
 6401 0122 18       		.uleb128 0x18
 6402 0123 9642     		.uleb128 0x2116
 6403 0125 19       		.uleb128 0x19
 6404 0126 01       		.uleb128 0x1
 6405 0127 13       		.uleb128 0x13
 6406 0128 00       		.byte	0
 6407 0129 00       		.byte	0
 6408 012a 15       		.uleb128 0x15
 6409 012b 34       		.uleb128 0x34
 6410 012c 00       		.byte	0
 6411 012d 03       		.uleb128 0x3
 6412 012e 0E       		.uleb128 0xe
 6413 012f 3A       		.uleb128 0x3a
 6414 0130 0B       		.uleb128 0xb
 6415 0131 3B       		.uleb128 0x3b
 6416 0132 05       		.uleb128 0x5
ARM GAS  C:\Users\Logan\AppData\Local\Temp\ccydAEbe.s 			page 131


 6417 0133 49       		.uleb128 0x49
 6418 0134 13       		.uleb128 0x13
 6419 0135 02       		.uleb128 0x2
 6420 0136 18       		.uleb128 0x18
 6421 0137 00       		.byte	0
 6422 0138 00       		.byte	0
 6423 0139 16       		.uleb128 0x16
 6424 013a 2E       		.uleb128 0x2e
 6425 013b 01       		.byte	0x1
 6426 013c 3F       		.uleb128 0x3f
 6427 013d 19       		.uleb128 0x19
 6428 013e 03       		.uleb128 0x3
 6429 013f 0E       		.uleb128 0xe
 6430 0140 3A       		.uleb128 0x3a
 6431 0141 0B       		.uleb128 0xb
 6432 0142 3B       		.uleb128 0x3b
 6433 0143 05       		.uleb128 0x5
 6434 0144 11       		.uleb128 0x11
 6435 0145 01       		.uleb128 0x1
 6436 0146 12       		.uleb128 0x12
 6437 0147 06       		.uleb128 0x6
 6438 0148 40       		.uleb128 0x40
 6439 0149 18       		.uleb128 0x18
 6440 014a 9742     		.uleb128 0x2117
 6441 014c 19       		.uleb128 0x19
 6442 014d 01       		.uleb128 0x1
 6443 014e 13       		.uleb128 0x13
 6444 014f 00       		.byte	0
 6445 0150 00       		.byte	0
 6446 0151 17       		.uleb128 0x17
 6447 0152 2E       		.uleb128 0x2e
 6448 0153 01       		.byte	0x1
 6449 0154 3F       		.uleb128 0x3f
 6450 0155 19       		.uleb128 0x19
 6451 0156 03       		.uleb128 0x3
 6452 0157 0E       		.uleb128 0xe
 6453 0158 3A       		.uleb128 0x3a
 6454 0159 0B       		.uleb128 0xb
 6455 015a 3B       		.uleb128 0x3b
 6456 015b 05       		.uleb128 0x5
 6457 015c 27       		.uleb128 0x27
 6458 015d 19       		.uleb128 0x19
 6459 015e 11       		.uleb128 0x11
 6460 015f 01       		.uleb128 0x1
 6461 0160 12       		.uleb128 0x12
 6462 0161 06       		.uleb128 0x6
 6463 0162 40       		.uleb128 0x40
 6464 0163 18       		.uleb128 0x18
 6465 0164 9642     		.uleb128 0x2116
 6466 0166 19       		.uleb128 0x19
 6467 0167 01       		.uleb128 0x1
 6468 0168 13       		.uleb128 0x13
 6469 0169 00       		.byte	0
 6470 016a 00       		.byte	0
 6471 016b 18       		.uleb128 0x18
 6472 016c 05       		.uleb128 0x5
 6473 016d 00       		.byte	0
ARM GAS  C:\Users\Logan\AppData\Local\Temp\ccydAEbe.s 			page 132


 6474 016e 03       		.uleb128 0x3
 6475 016f 08       		.uleb128 0x8
 6476 0170 3A       		.uleb128 0x3a
 6477 0171 0B       		.uleb128 0xb
 6478 0172 3B       		.uleb128 0x3b
 6479 0173 05       		.uleb128 0x5
 6480 0174 49       		.uleb128 0x49
 6481 0175 13       		.uleb128 0x13
 6482 0176 02       		.uleb128 0x2
 6483 0177 18       		.uleb128 0x18
 6484 0178 00       		.byte	0
 6485 0179 00       		.byte	0
 6486 017a 19       		.uleb128 0x19
 6487 017b 2E       		.uleb128 0x2e
 6488 017c 01       		.byte	0x1
 6489 017d 3F       		.uleb128 0x3f
 6490 017e 19       		.uleb128 0x19
 6491 017f 03       		.uleb128 0x3
 6492 0180 0E       		.uleb128 0xe
 6493 0181 3A       		.uleb128 0x3a
 6494 0182 0B       		.uleb128 0xb
 6495 0183 3B       		.uleb128 0x3b
 6496 0184 05       		.uleb128 0x5
 6497 0185 11       		.uleb128 0x11
 6498 0186 01       		.uleb128 0x1
 6499 0187 12       		.uleb128 0x12
 6500 0188 06       		.uleb128 0x6
 6501 0189 40       		.uleb128 0x40
 6502 018a 18       		.uleb128 0x18
 6503 018b 9642     		.uleb128 0x2116
 6504 018d 19       		.uleb128 0x19
 6505 018e 01       		.uleb128 0x1
 6506 018f 13       		.uleb128 0x13
 6507 0190 00       		.byte	0
 6508 0191 00       		.byte	0
 6509 0192 1A       		.uleb128 0x1a
 6510 0193 34       		.uleb128 0x34
 6511 0194 00       		.byte	0
 6512 0195 03       		.uleb128 0x3
 6513 0196 08       		.uleb128 0x8
 6514 0197 3A       		.uleb128 0x3a
 6515 0198 0B       		.uleb128 0xb
 6516 0199 3B       		.uleb128 0x3b
 6517 019a 05       		.uleb128 0x5
 6518 019b 49       		.uleb128 0x49
 6519 019c 13       		.uleb128 0x13
 6520 019d 02       		.uleb128 0x2
 6521 019e 18       		.uleb128 0x18
 6522 019f 00       		.byte	0
 6523 01a0 00       		.byte	0
 6524 01a1 1B       		.uleb128 0x1b
 6525 01a2 05       		.uleb128 0x5
 6526 01a3 00       		.byte	0
 6527 01a4 03       		.uleb128 0x3
 6528 01a5 0E       		.uleb128 0xe
 6529 01a6 3A       		.uleb128 0x3a
 6530 01a7 0B       		.uleb128 0xb
ARM GAS  C:\Users\Logan\AppData\Local\Temp\ccydAEbe.s 			page 133


 6531 01a8 3B       		.uleb128 0x3b
 6532 01a9 05       		.uleb128 0x5
 6533 01aa 49       		.uleb128 0x49
 6534 01ab 13       		.uleb128 0x13
 6535 01ac 02       		.uleb128 0x2
 6536 01ad 18       		.uleb128 0x18
 6537 01ae 00       		.byte	0
 6538 01af 00       		.byte	0
 6539 01b0 1C       		.uleb128 0x1c
 6540 01b1 2E       		.uleb128 0x2e
 6541 01b2 00       		.byte	0
 6542 01b3 3F       		.uleb128 0x3f
 6543 01b4 19       		.uleb128 0x19
 6544 01b5 03       		.uleb128 0x3
 6545 01b6 0E       		.uleb128 0xe
 6546 01b7 3A       		.uleb128 0x3a
 6547 01b8 0B       		.uleb128 0xb
 6548 01b9 3B       		.uleb128 0x3b
 6549 01ba 05       		.uleb128 0x5
 6550 01bb 11       		.uleb128 0x11
 6551 01bc 01       		.uleb128 0x1
 6552 01bd 12       		.uleb128 0x12
 6553 01be 06       		.uleb128 0x6
 6554 01bf 40       		.uleb128 0x40
 6555 01c0 18       		.uleb128 0x18
 6556 01c1 9642     		.uleb128 0x2116
 6557 01c3 19       		.uleb128 0x19
 6558 01c4 00       		.byte	0
 6559 01c5 00       		.byte	0
 6560 01c6 1D       		.uleb128 0x1d
 6561 01c7 2E       		.uleb128 0x2e
 6562 01c8 00       		.byte	0
 6563 01c9 3F       		.uleb128 0x3f
 6564 01ca 19       		.uleb128 0x19
 6565 01cb 03       		.uleb128 0x3
 6566 01cc 0E       		.uleb128 0xe
 6567 01cd 3A       		.uleb128 0x3a
 6568 01ce 0B       		.uleb128 0xb
 6569 01cf 3B       		.uleb128 0x3b
 6570 01d0 05       		.uleb128 0x5
 6571 01d1 11       		.uleb128 0x11
 6572 01d2 01       		.uleb128 0x1
 6573 01d3 12       		.uleb128 0x12
 6574 01d4 06       		.uleb128 0x6
 6575 01d5 40       		.uleb128 0x40
 6576 01d6 18       		.uleb128 0x18
 6577 01d7 9742     		.uleb128 0x2117
 6578 01d9 19       		.uleb128 0x19
 6579 01da 00       		.byte	0
 6580 01db 00       		.byte	0
 6581 01dc 1E       		.uleb128 0x1e
 6582 01dd 34       		.uleb128 0x34
 6583 01de 00       		.byte	0
 6584 01df 03       		.uleb128 0x3
 6585 01e0 0E       		.uleb128 0xe
 6586 01e1 3A       		.uleb128 0x3a
 6587 01e2 0B       		.uleb128 0xb
ARM GAS  C:\Users\Logan\AppData\Local\Temp\ccydAEbe.s 			page 134


 6588 01e3 3B       		.uleb128 0x3b
 6589 01e4 05       		.uleb128 0x5
 6590 01e5 49       		.uleb128 0x49
 6591 01e6 13       		.uleb128 0x13
 6592 01e7 3F       		.uleb128 0x3f
 6593 01e8 19       		.uleb128 0x19
 6594 01e9 3C       		.uleb128 0x3c
 6595 01ea 19       		.uleb128 0x19
 6596 01eb 00       		.byte	0
 6597 01ec 00       		.byte	0
 6598 01ed 1F       		.uleb128 0x1f
 6599 01ee 35       		.uleb128 0x35
 6600 01ef 00       		.byte	0
 6601 01f0 49       		.uleb128 0x49
 6602 01f1 13       		.uleb128 0x13
 6603 01f2 00       		.byte	0
 6604 01f3 00       		.byte	0
 6605 01f4 20       		.uleb128 0x20
 6606 01f5 34       		.uleb128 0x34
 6607 01f6 00       		.byte	0
 6608 01f7 03       		.uleb128 0x3
 6609 01f8 08       		.uleb128 0x8
 6610 01f9 3A       		.uleb128 0x3a
 6611 01fa 0B       		.uleb128 0xb
 6612 01fb 3B       		.uleb128 0x3b
 6613 01fc 0B       		.uleb128 0xb
 6614 01fd 49       		.uleb128 0x49
 6615 01fe 13       		.uleb128 0x13
 6616 01ff 3F       		.uleb128 0x3f
 6617 0200 19       		.uleb128 0x19
 6618 0201 02       		.uleb128 0x2
 6619 0202 18       		.uleb128 0x18
 6620 0203 00       		.byte	0
 6621 0204 00       		.byte	0
 6622 0205 21       		.uleb128 0x21
 6623 0206 34       		.uleb128 0x34
 6624 0207 00       		.byte	0
 6625 0208 03       		.uleb128 0x3
 6626 0209 0E       		.uleb128 0xe
 6627 020a 3A       		.uleb128 0x3a
 6628 020b 0B       		.uleb128 0xb
 6629 020c 3B       		.uleb128 0x3b
 6630 020d 0B       		.uleb128 0xb
 6631 020e 49       		.uleb128 0x49
 6632 020f 13       		.uleb128 0x13
 6633 0210 3F       		.uleb128 0x3f
 6634 0211 19       		.uleb128 0x19
 6635 0212 02       		.uleb128 0x2
 6636 0213 18       		.uleb128 0x18
 6637 0214 00       		.byte	0
 6638 0215 00       		.byte	0
 6639 0216 22       		.uleb128 0x22
 6640 0217 21       		.uleb128 0x21
 6641 0218 00       		.byte	0
 6642 0219 49       		.uleb128 0x49
 6643 021a 13       		.uleb128 0x13
 6644 021b 2F       		.uleb128 0x2f
ARM GAS  C:\Users\Logan\AppData\Local\Temp\ccydAEbe.s 			page 135


 6645 021c 05       		.uleb128 0x5
 6646 021d 00       		.byte	0
 6647 021e 00       		.byte	0
 6648 021f 23       		.uleb128 0x23
 6649 0220 34       		.uleb128 0x34
 6650 0221 00       		.byte	0
 6651 0222 03       		.uleb128 0x3
 6652 0223 0E       		.uleb128 0xe
 6653 0224 3A       		.uleb128 0x3a
 6654 0225 0B       		.uleb128 0xb
 6655 0226 3B       		.uleb128 0x3b
 6656 0227 05       		.uleb128 0x5
 6657 0228 49       		.uleb128 0x49
 6658 0229 13       		.uleb128 0x13
 6659 022a 3F       		.uleb128 0x3f
 6660 022b 19       		.uleb128 0x19
 6661 022c 02       		.uleb128 0x2
 6662 022d 18       		.uleb128 0x18
 6663 022e 00       		.byte	0
 6664 022f 00       		.byte	0
 6665 0230 00       		.byte	0
 6666              		.section	.debug_aranges,"",%progbits
 6667 0000 6C010000 		.4byte	0x16c
 6668 0004 0200     		.2byte	0x2
 6669 0006 00000000 		.4byte	.Ldebug_info0
 6670 000a 04       		.byte	0x4
 6671 000b 00       		.byte	0
 6672 000c 0000     		.2byte	0
 6673 000e 0000     		.2byte	0
 6674 0010 00000000 		.4byte	.LFB63
 6675 0014 0C000000 		.4byte	.LFE63-.LFB63
 6676 0018 00000000 		.4byte	.LFB64
 6677 001c 2C000000 		.4byte	.LFE64-.LFB64
 6678 0020 00000000 		.4byte	.LFB65
 6679 0024 EC010000 		.4byte	.LFE65-.LFB65
 6680 0028 00000000 		.4byte	.LFB66
 6681 002c AC000000 		.4byte	.LFE66-.LFB66
 6682 0030 00000000 		.4byte	.LFB67
 6683 0034 20000000 		.4byte	.LFE67-.LFB67
 6684 0038 00000000 		.4byte	.LFB68
 6685 003c 28000000 		.4byte	.LFE68-.LFB68
 6686 0040 00000000 		.4byte	.LFB69
 6687 0044 0A000000 		.4byte	.LFE69-.LFB69
 6688 0048 00000000 		.4byte	.LFB70
 6689 004c 28000000 		.4byte	.LFE70-.LFB70
 6690 0050 00000000 		.4byte	.LFB71
 6691 0054 34030000 		.4byte	.LFE71-.LFB71
 6692 0058 00000000 		.4byte	.LFB72
 6693 005c 60010000 		.4byte	.LFE72-.LFB72
 6694 0060 00000000 		.4byte	.LFB73
 6695 0064 18000000 		.4byte	.LFE73-.LFB73
 6696 0068 00000000 		.4byte	.LFB74
 6697 006c 18000000 		.4byte	.LFE74-.LFB74
 6698 0070 00000000 		.4byte	.LFB75
 6699 0074 54000000 		.4byte	.LFE75-.LFB75
 6700 0078 00000000 		.4byte	.LFB76
 6701 007c F4000000 		.4byte	.LFE76-.LFB76
ARM GAS  C:\Users\Logan\AppData\Local\Temp\ccydAEbe.s 			page 136


 6702 0080 00000000 		.4byte	.LFB77
 6703 0084 18000000 		.4byte	.LFE77-.LFB77
 6704 0088 00000000 		.4byte	.LFB78
 6705 008c 18000000 		.4byte	.LFE78-.LFB78
 6706 0090 00000000 		.4byte	.LFB79
 6707 0094 22000000 		.4byte	.LFE79-.LFB79
 6708 0098 00000000 		.4byte	.LFB80
 6709 009c 1C000000 		.4byte	.LFE80-.LFB80
 6710 00a0 00000000 		.4byte	.LFB81
 6711 00a4 28000000 		.4byte	.LFE81-.LFB81
 6712 00a8 00000000 		.4byte	.LFB82
 6713 00ac 2C000000 		.4byte	.LFE82-.LFB82
 6714 00b0 00000000 		.4byte	.LFB83
 6715 00b4 44000000 		.4byte	.LFE83-.LFB83
 6716 00b8 00000000 		.4byte	.LFB84
 6717 00bc 38000000 		.4byte	.LFE84-.LFB84
 6718 00c0 00000000 		.4byte	.LFB85
 6719 00c4 38000000 		.4byte	.LFE85-.LFB85
 6720 00c8 00000000 		.4byte	.LFB86
 6721 00cc 38000000 		.4byte	.LFE86-.LFB86
 6722 00d0 00000000 		.4byte	.LFB87
 6723 00d4 14000000 		.4byte	.LFE87-.LFB87
 6724 00d8 00000000 		.4byte	.LFB88
 6725 00dc 18000000 		.4byte	.LFE88-.LFB88
 6726 00e0 00000000 		.4byte	.LFB89
 6727 00e4 18000000 		.4byte	.LFE89-.LFB89
 6728 00e8 00000000 		.4byte	.LFB90
 6729 00ec 18000000 		.4byte	.LFE90-.LFB90
 6730 00f0 00000000 		.4byte	.LFB91
 6731 00f4 18000000 		.4byte	.LFE91-.LFB91
 6732 00f8 00000000 		.4byte	.LFB92
 6733 00fc B8000000 		.4byte	.LFE92-.LFB92
 6734 0100 00000000 		.4byte	.LFB93
 6735 0104 BC010000 		.4byte	.LFE93-.LFB93
 6736 0108 00000000 		.4byte	.LFB94
 6737 010c 40000000 		.4byte	.LFE94-.LFB94
 6738 0110 00000000 		.4byte	.LFB95
 6739 0114 40000000 		.4byte	.LFE95-.LFB95
 6740 0118 00000000 		.4byte	.LFB96
 6741 011c 30020000 		.4byte	.LFE96-.LFB96
 6742 0120 00000000 		.4byte	.LFB97
 6743 0124 0C000000 		.4byte	.LFE97-.LFB97
 6744 0128 00000000 		.4byte	.LFB98
 6745 012c 4C010000 		.4byte	.LFE98-.LFB98
 6746 0130 00000000 		.4byte	.LFB99
 6747 0134 0C000000 		.4byte	.LFE99-.LFB99
 6748 0138 00000000 		.4byte	.LFB100
 6749 013c C0000000 		.4byte	.LFE100-.LFB100
 6750 0140 00000000 		.4byte	.LFB101
 6751 0144 B8000000 		.4byte	.LFE101-.LFB101
 6752 0148 00000000 		.4byte	.LFB102
 6753 014c 4A000000 		.4byte	.LFE102-.LFB102
 6754 0150 00000000 		.4byte	.LFB103
 6755 0154 68000000 		.4byte	.LFE103-.LFB103
 6756 0158 00000000 		.4byte	.LFB104
 6757 015c 50000000 		.4byte	.LFE104-.LFB104
 6758 0160 00000000 		.4byte	.LFB105
ARM GAS  C:\Users\Logan\AppData\Local\Temp\ccydAEbe.s 			page 137


 6759 0164 0C000000 		.4byte	.LFE105-.LFB105
 6760 0168 00000000 		.4byte	0
 6761 016c 00000000 		.4byte	0
 6762              		.section	.debug_ranges,"",%progbits
 6763              	.Ldebug_ranges0:
 6764 0000 00000000 		.4byte	.LFB63
 6765 0004 0C000000 		.4byte	.LFE63
 6766 0008 00000000 		.4byte	.LFB64
 6767 000c 2C000000 		.4byte	.LFE64
 6768 0010 00000000 		.4byte	.LFB65
 6769 0014 EC010000 		.4byte	.LFE65
 6770 0018 00000000 		.4byte	.LFB66
 6771 001c AC000000 		.4byte	.LFE66
 6772 0020 00000000 		.4byte	.LFB67
 6773 0024 20000000 		.4byte	.LFE67
 6774 0028 00000000 		.4byte	.LFB68
 6775 002c 28000000 		.4byte	.LFE68
 6776 0030 00000000 		.4byte	.LFB69
 6777 0034 0A000000 		.4byte	.LFE69
 6778 0038 00000000 		.4byte	.LFB70
 6779 003c 28000000 		.4byte	.LFE70
 6780 0040 00000000 		.4byte	.LFB71
 6781 0044 34030000 		.4byte	.LFE71
 6782 0048 00000000 		.4byte	.LFB72
 6783 004c 60010000 		.4byte	.LFE72
 6784 0050 00000000 		.4byte	.LFB73
 6785 0054 18000000 		.4byte	.LFE73
 6786 0058 00000000 		.4byte	.LFB74
 6787 005c 18000000 		.4byte	.LFE74
 6788 0060 00000000 		.4byte	.LFB75
 6789 0064 54000000 		.4byte	.LFE75
 6790 0068 00000000 		.4byte	.LFB76
 6791 006c F4000000 		.4byte	.LFE76
 6792 0070 00000000 		.4byte	.LFB77
 6793 0074 18000000 		.4byte	.LFE77
 6794 0078 00000000 		.4byte	.LFB78
 6795 007c 18000000 		.4byte	.LFE78
 6796 0080 00000000 		.4byte	.LFB79
 6797 0084 22000000 		.4byte	.LFE79
 6798 0088 00000000 		.4byte	.LFB80
 6799 008c 1C000000 		.4byte	.LFE80
 6800 0090 00000000 		.4byte	.LFB81
 6801 0094 28000000 		.4byte	.LFE81
 6802 0098 00000000 		.4byte	.LFB82
 6803 009c 2C000000 		.4byte	.LFE82
 6804 00a0 00000000 		.4byte	.LFB83
 6805 00a4 44000000 		.4byte	.LFE83
 6806 00a8 00000000 		.4byte	.LFB84
 6807 00ac 38000000 		.4byte	.LFE84
 6808 00b0 00000000 		.4byte	.LFB85
 6809 00b4 38000000 		.4byte	.LFE85
 6810 00b8 00000000 		.4byte	.LFB86
 6811 00bc 38000000 		.4byte	.LFE86
 6812 00c0 00000000 		.4byte	.LFB87
 6813 00c4 14000000 		.4byte	.LFE87
 6814 00c8 00000000 		.4byte	.LFB88
 6815 00cc 18000000 		.4byte	.LFE88
ARM GAS  C:\Users\Logan\AppData\Local\Temp\ccydAEbe.s 			page 138


 6816 00d0 00000000 		.4byte	.LFB89
 6817 00d4 18000000 		.4byte	.LFE89
 6818 00d8 00000000 		.4byte	.LFB90
 6819 00dc 18000000 		.4byte	.LFE90
 6820 00e0 00000000 		.4byte	.LFB91
 6821 00e4 18000000 		.4byte	.LFE91
 6822 00e8 00000000 		.4byte	.LFB92
 6823 00ec B8000000 		.4byte	.LFE92
 6824 00f0 00000000 		.4byte	.LFB93
 6825 00f4 BC010000 		.4byte	.LFE93
 6826 00f8 00000000 		.4byte	.LFB94
 6827 00fc 40000000 		.4byte	.LFE94
 6828 0100 00000000 		.4byte	.LFB95
 6829 0104 40000000 		.4byte	.LFE95
 6830 0108 00000000 		.4byte	.LFB96
 6831 010c 30020000 		.4byte	.LFE96
 6832 0110 00000000 		.4byte	.LFB97
 6833 0114 0C000000 		.4byte	.LFE97
 6834 0118 00000000 		.4byte	.LFB98
 6835 011c 4C010000 		.4byte	.LFE98
 6836 0120 00000000 		.4byte	.LFB99
 6837 0124 0C000000 		.4byte	.LFE99
 6838 0128 00000000 		.4byte	.LFB100
 6839 012c C0000000 		.4byte	.LFE100
 6840 0130 00000000 		.4byte	.LFB101
 6841 0134 B8000000 		.4byte	.LFE101
 6842 0138 00000000 		.4byte	.LFB102
 6843 013c 4A000000 		.4byte	.LFE102
 6844 0140 00000000 		.4byte	.LFB103
 6845 0144 68000000 		.4byte	.LFE103
 6846 0148 00000000 		.4byte	.LFB104
 6847 014c 50000000 		.4byte	.LFE104
 6848 0150 00000000 		.4byte	.LFB105
 6849 0154 0C000000 		.4byte	.LFE105
 6850 0158 00000000 		.4byte	0
 6851 015c 00000000 		.4byte	0
 6852              		.section	.debug_line,"",%progbits
 6853              	.Ldebug_line0:
 6854 0000 CB060000 		.section	.debug_str,"MS",%progbits,1
 6854      02006701 
 6854      00000201 
 6854      FB0E0D00 
 6854      01010101 
 6855              	.LASF142:
 6856 0000 64697265 		.ascii	"direction\000"
 6856      6374696F 
 6856      6E00
 6857              	.LASF188:
 6858 000a 74726163 		.ascii	"tracked_direction\000"
 6858      6B65645F 
 6858      64697265 
 6858      6374696F 
 6858      6E00
 6859              	.LASF195:
 6860 001c 433A5C55 		.ascii	"C:\\Users\\Logan\\Desktop\\repos\\CS301-Team-Repo\\"
 6860      73657273 
 6860      5C4C6F67 
ARM GAS  C:\Users\Logan\AppData\Local\Temp\ccydAEbe.s 			page 139


 6860      616E5C44 
 6860      65736B74 
 6861 0049 43533330 		.ascii	"CS301_Class.cydsn\000"
 6861      315F436C 
 6861      6173732E 
 6861      63796473 
 6861      6E00
 6862              	.LASF25:
 6863 005b 52545552 		.ascii	"RTURN\000"
 6863      4E00
 6864              	.LASF192:
 6865 0061 72696768 		.ascii	"rightTurnCount\000"
 6865      74547572 
 6865      6E436F75 
 6865      6E7400
 6866              	.LASF39:
 6867 0070 44455354 		.ascii	"DEST_TEST\000"
 6867      5F544553 
 6867      5400
 6868              	.LASF150:
 6869 007a 71756164 		.ascii	"quad_diff1\000"
 6869      5F646966 
 6869      663100
 6870              	.LASF151:
 6871 0085 71756164 		.ascii	"quad_diff2\000"
 6871      5F646966 
 6871      663200
 6872              	.LASF101:
 6873 0090 6D657373 		.ascii	"message\000"
 6873      61676500 
 6874              	.LASF104:
 6875 0098 51756164 		.ascii	"Quad_Dec_response\000"
 6875      5F446563 
 6875      5F726573 
 6875      706F6E73 
 6875      6500
 6876              	.LASF167:
 6877 00aa 70726576 		.ascii	"prevVoltage\000"
 6877      566F6C74 
 6877      61676500 
 6878              	.LASF153:
 6879 00b6 73746172 		.ascii	"start_turn_count\000"
 6879      745F7475 
 6879      726E5F63 
 6879      6F756E74 
 6879      00
 6880              	.LASF10:
 6881 00c7 756E7369 		.ascii	"unsigned int\000"
 6881      676E6564 
 6881      20696E74 
 6881      00
 6882              	.LASF177:
 6883 00d4 74726163 		.ascii	"track_mode\000"
 6883      6B5F6D6F 
 6883      646500
 6884              	.LASF5:
 6885 00df 5F5F696E 		.ascii	"__int32_t\000"
ARM GAS  C:\Users\Logan\AppData\Local\Temp\ccydAEbe.s 			page 140


 6885      7433325F 
 6885      7400
 6886              	.LASF19:
 6887 00e9 696E7431 		.ascii	"int16\000"
 6887      3600
 6888              	.LASF174:
 6889 00ef 73797374 		.ascii	"system_state\000"
 6889      656D5F73 
 6889      74617465 
 6889      00
 6890              	.LASF24:
 6891 00fc 4C545552 		.ascii	"LTURN\000"
 6891      4E00
 6892              	.LASF160:
 6893 0102 74617267 		.ascii	"target_distance_quad\000"
 6893      65745F64 
 6893      69737461 
 6893      6E63655F 
 6893      71756164 
 6894              	.LASF27:
 6895 0117 54524143 		.ascii	"TRACKING\000"
 6895      4B494E47 
 6895      00
 6896              	.LASF168:
 6897 0120 70726576 		.ascii	"prevVoltage2\000"
 6897      566F6C74 
 6897      61676532 
 6897      00
 6898              	.LASF182:
 6899 012d 73656E73 		.ascii	"sensorsDisabled\000"
 6899      6F727344 
 6899      69736162 
 6899      6C656400 
 6900              	.LASF71:
 6901 013d 7061636B 		.ascii	"packet_bytes\000"
 6901      65745F62 
 6901      79746573 
 6901      00
 6902              	.LASF54:
 6903 014a 67325F78 		.ascii	"g2_xpos\000"
 6903      706F7300 
 6904              	.LASF32:
 6905 0152 6D6F6465 		.ascii	"mode\000"
 6905      00
 6906              	.LASF146:
 6907 0157 71756164 		.ascii	"quad_count1\000"
 6907      5F636F75 
 6907      6E743100 
 6908              	.LASF147:
 6909 0163 71756164 		.ascii	"quad_count2\000"
 6909      5F636F75 
 6909      6E743200 
 6910              	.LASF113:
 6911 016f 74726163 		.ascii	"trackLineU\000"
 6911      6B4C696E 
 6911      655500
 6912              	.LASF187:
ARM GAS  C:\Users\Logan\AppData\Local\Temp\ccydAEbe.s 			page 141


 6913 017a 726F626F 		.ascii	"robot_direction\000"
 6913      745F6469 
 6913      72656374 
 6913      696F6E00 
 6914              	.LASF112:
 6915 018a 74726163 		.ascii	"trackLineZ\000"
 6915      6B4C696E 
 6915      655A00
 6916              	.LASF191:
 6917 0195 6C656674 		.ascii	"leftTurnCount\000"
 6917      5475726E 
 6917      436F756E 
 6917      7400
 6918              	.LASF180:
 6919 01a3 73706565 		.ascii	"speed\000"
 6919      6400
 6920              	.LASF36:
 6921 01a9 53515541 		.ascii	"SQUARE_TRACK\000"
 6921      52455F54 
 6921      5241434B 
 6921      00
 6922              	.LASF138:
 6923 01b6 666C6167 		.ascii	"flag_rf_transmission_active\000"
 6923      5F72665F 
 6923      7472616E 
 6923      736D6973 
 6923      73696F6E 
 6924              	.LASF139:
 6925 01d2 666C6167 		.ascii	"flag_print_rf\000"
 6925      5F707269 
 6925      6E745F72 
 6925      6600
 6926              	.LASF176:
 6927 01e0 6D6F7665 		.ascii	"movement_state\000"
 6927      6D656E74 
 6927      5F737461 
 6927      746500
 6928              	.LASF28:
 6929 01ef 54524143 		.ascii	"TRACKING_U\000"
 6929      4B494E47 
 6929      5F5500
 6930              	.LASF93:
 6931 01fa 696E6974 		.ascii	"initForward\000"
 6931      466F7277 
 6931      61726400 
 6932              	.LASF14:
 6933 0206 75696E74 		.ascii	"uint32_t\000"
 6933      33325F74 
 6933      00
 6934              	.LASF57:
 6935 020f 67325F64 		.ascii	"g2_direction\000"
 6935      69726563 
 6935      74696F6E 
 6935      00
 6936              	.LASF66:
 6937 021c 6973725F 		.ascii	"isr_quad1\000"
 6937      71756164 
ARM GAS  C:\Users\Logan\AppData\Local\Temp\ccydAEbe.s 			page 142


 6937      3100
 6938              	.LASF20:
 6939 0226 666C6F61 		.ascii	"float\000"
 6939      7400
 6940              	.LASF78:
 6941 022c 73657453 		.ascii	"setSpeed\000"
 6941      70656564 
 6941      00
 6942              	.LASF172:
 6943 0235 75736242 		.ascii	"usbBuffer\000"
 6943      75666665 
 6943      7200
 6944              	.LASF42:
 6945 023f 696E6465 		.ascii	"index\000"
 6945      7800
 6946              	.LASF23:
 6947 0245 44524956 		.ascii	"DRIVE\000"
 6947      4500
 6948              	.LASF73:
 6949 024b 73747269 		.ascii	"string_packet\000"
 6949      6E675F70 
 6949      61636B65 
 6949      7400
 6950              	.LASF103:
 6951 0259 6368616E 		.ascii	"changeToBT\000"
 6951      6765546F 
 6951      425400
 6952              	.LASF81:
 6953 0264 636F756E 		.ascii	"countsLeft\000"
 6953      74734C65 
 6953      667400
 6954              	.LASF86:
 6955 026f 64726976 		.ascii	"driveForwards\000"
 6955      65466F72 
 6955      77617264 
 6955      7300
 6956              	.LASF88:
 6957 027d 7475726E 		.ascii	"turnLeft\000"
 6957      4C656674 
 6957      00
 6958              	.LASF9:
 6959 0286 6C6F6E67 		.ascii	"long long unsigned int\000"
 6959      206C6F6E 
 6959      6720756E 
 6959      7369676E 
 6959      65642069 
 6960              	.LASF135:
 6961 029d 666C6167 		.ascii	"flag_packet\000"
 6961      5F706163 
 6961      6B657400 
 6962              	.LASF69:
 6963 02a9 66726F6E 		.ascii	"frontSensors\000"
 6963      7453656E 
 6963      736F7273 
 6963      00
 6964              	.LASF61:
 6965 02b6 6973725F 		.ascii	"isr_turn_timer\000"
ARM GAS  C:\Users\Logan\AppData\Local\Temp\ccydAEbe.s 			page 143


 6965      7475726E 
 6965      5F74696D 
 6965      657200
 6966              	.LASF102:
 6967 02c5 6368616E 		.ascii	"changeToRF\000"
 6967      6765546F 
 6967      524600
 6968              	.LASF90:
 6969 02d0 696E6974 		.ascii	"initTurnLeft\000"
 6969      5475726E 
 6969      4C656674 
 6969      00
 6970              	.LASF166:
 6971 02dd 706F7274 		.ascii	"portOpen\000"
 6971      4F70656E 
 6971      00
 6972              	.LASF94:
 6973 02e6 696E6974 		.ascii	"initBrake\000"
 6973      4272616B 
 6973      6500
 6974              	.LASF131:
 6975 02f0 666C6167 		.ascii	"flag_ts_update\000"
 6975      5F74735F 
 6975      75706461 
 6975      746500
 6976              	.LASF115:
 6977 02ff 7363616C 		.ascii	"scalingFactor\000"
 6977      696E6746 
 6977      6163746F 
 6977      7200
 6978              	.LASF105:
 6979 030d 6C656674 		.ascii	"leftSpeed\000"
 6979      53706565 
 6979      6400
 6980              	.LASF130:
 6981 0317 666C6167 		.ascii	"flag_ts_enc\000"
 6981      5F74735F 
 6981      656E6300 
 6982              	.LASF178:
 6983 0323 62797465 		.ascii	"byteCount\000"
 6983      436F756E 
 6983      7400
 6984              	.LASF68:
 6985 032d 61637469 		.ascii	"actionDebounce\000"
 6985      6F6E4465 
 6985      626F756E 
 6985      636500
 6986              	.LASF63:
 6987 033c 62757474 		.ascii	"button\000"
 6987      6F6E00
 6988              	.LASF175:
 6989 0343 70726576 		.ascii	"prev_movement_state\000"
 6989      5F6D6F76 
 6989      656D656E 
 6989      745F7374 
 6989      61746500 
 6990              	.LASF121:
ARM GAS  C:\Users\Logan\AppData\Local\Temp\ccydAEbe.s 			page 144


 6991 0357 73656E73 		.ascii	"sensorVals\000"
 6991      6F725661 
 6991      6C7300
 6992              	.LASF117:
 6993 0362 72657375 		.ascii	"result_str\000"
 6993      6C745F73 
 6993      747200
 6994              	.LASF124:
 6995 036d 75617274 		.ascii	"uart_set_PWM\000"
 6995      5F736574 
 6995      5F50574D 
 6995      00
 6996              	.LASF97:
 6997 037a 696E6974 		.ascii	"inittrackLineZ\000"
 6997      74726163 
 6997      6B4C696E 
 6997      655A00
 6998              	.LASF44:
 6999 0389 726F626F 		.ascii	"robot_ypos\000"
 6999      745F7970 
 6999      6F7300
 7000              	.LASF129:
 7001 0394 74735F64 		.ascii	"ts_display\000"
 7001      6973706C 
 7001      617900
 7002              	.LASF114:
 7003 039f 7072696E 		.ascii	"print_ADC\000"
 7003      745F4144 
 7003      4300
 7004              	.LASF107:
 7005 03a9 7363616C 		.ascii	"scalingLeft\000"
 7005      696E674C 
 7005      65667400 
 7006              	.LASF12:
 7007 03b5 63686172 		.ascii	"char\000"
 7007      00
 7008              	.LASF48:
 7009 03ba 67305F73 		.ascii	"g0_speed\000"
 7009      70656564 
 7009      00
 7010              	.LASF157:
 7011 03c3 72696768 		.ascii	"rightSpeedLimit\000"
 7011      74537065 
 7011      65644C69 
 7011      6D697400 
 7012              	.LASF74:
 7013 03d3 7365744C 		.ascii	"setLeftDir\000"
 7013      65667444 
 7013      697200
 7014              	.LASF181:
 7015 03de 696E7374 		.ascii	"instructionCount\000"
 7015      72756374 
 7015      696F6E43 
 7015      6F756E74 
 7015      00
 7016              	.LASF89:
 7017 03ef 7475726E 		.ascii	"turnU\000"
ARM GAS  C:\Users\Logan\AppData\Local\Temp\ccydAEbe.s 			page 145


 7017      5500
 7018              	.LASF55:
 7019 03f5 67325F79 		.ascii	"g2_ypos\000"
 7019      706F7300 
 7020              	.LASF16:
 7021 03fd 75696E74 		.ascii	"uint16\000"
 7021      313600
 7022              	.LASF18:
 7023 0404 696E7438 		.ascii	"int8\000"
 7023      00
 7024              	.LASF53:
 7025 0409 67315F64 		.ascii	"g1_direction\000"
 7025      69726563 
 7025      74696F6E 
 7025      00
 7026              	.LASF184:
 7027 0416 70617468 		.ascii	"path\000"
 7027      00
 7028              	.LASF75:
 7029 041b 73657452 		.ascii	"setRightDir\000"
 7029      69676874 
 7029      44697200 
 7030              	.LASF34:
 7031 0427 43555256 		.ascii	"CURVE_TRACK\000"
 7031      455F5452 
 7031      41434B00 
 7032              	.LASF109:
 7033 0433 696E7465 		.ascii	"interCalc\000"
 7033      7243616C 
 7033      6300
 7034              	.LASF144:
 7035 043d 42545F45 		.ascii	"BT_ENABLED\000"
 7035      4E41424C 
 7035      454400
 7036              	.LASF80:
 7037 0448 72696768 		.ascii	"right\000"
 7037      7400
 7038              	.LASF162:
 7039 044e 696E6974 		.ascii	"initial_pos_valid\000"
 7039      69616C5F 
 7039      706F735F 
 7039      76616C69 
 7039      6400
 7040              	.LASF8:
 7041 0460 6C6F6E67 		.ascii	"long long int\000"
 7041      206C6F6E 
 7041      6720696E 
 7041      7400
 7042              	.LASF173:
 7043 046e 62756666 		.ascii	"buffer_state\000"
 7043      65725F73 
 7043      74617465 
 7043      00
 7044              	.LASF50:
 7045 047b 67315F78 		.ascii	"g1_xpos\000"
 7045      706F7300 
 7046              	.LASF95:
ARM GAS  C:\Users\Logan\AppData\Local\Temp\ccydAEbe.s 			page 146


 7047 0483 696E6974 		.ascii	"initTrack\000"
 7047      54726163 
 7047      6B00
 7048              	.LASF70:
 7049 048d 6E657874 		.ascii	"nextStep\000"
 7049      53746570 
 7049      00
 7050              	.LASF193:
 7051 0496 474E5520 		.ascii	"GNU C 4.9.3 20150303 (release) [ARM/embedded-4_9-br"
 7051      4320342E 
 7051      392E3320 
 7051      32303135 
 7051      30333033 
 7052 04c9 616E6368 		.ascii	"anch revision 221220] -mcpu=cortex-m3 -mthumb -g -O"
 7052      20726576 
 7052      6973696F 
 7052      6E203232 
 7052      31323230 
 7053 04fc 30202D66 		.ascii	"0 -ffunction-sections -ffat-lto-objects\000"
 7053      66756E63 
 7053      74696F6E 
 7053      2D736563 
 7053      74696F6E 
 7054              	.LASF56:
 7055 0524 67325F73 		.ascii	"g2_speed\000"
 7055      70656564 
 7055      00
 7056              	.LASF47:
 7057 052d 67305F79 		.ascii	"g0_ypos\000"
 7057      706F7300 
 7058              	.LASF99:
 7059 0535 72665F63 		.ascii	"rf_char\000"
 7059      68617200 
 7060              	.LASF183:
 7061 053d 666F6F64 		.ascii	"food_list\000"
 7061      5F6C6973 
 7061      7400
 7062              	.LASF143:
 7063 0547 42494E5F 		.ascii	"BIN_ENABLED\000"
 7063      454E4142 
 7063      4C454400 
 7064              	.LASF106:
 7065 0553 72696768 		.ascii	"rightSpeed\000"
 7065      74537065 
 7065      656400
 7066              	.LASF128:
 7067 055e 74735F73 		.ascii	"ts_speed\000"
 7067      70656564 
 7067      00
 7068              	.LASF17:
 7069 0567 75696E74 		.ascii	"uint32\000"
 7069      333200
 7070              	.LASF190:
 7071 056e 696E7374 		.ascii	"instructions\000"
 7071      72756374 
 7071      696F6E73 
 7071      00
ARM GAS  C:\Users\Logan\AppData\Local\Temp\ccydAEbe.s 			page 147


 7072              	.LASF82:
 7073 057b 636F756E 		.ascii	"countsRight\000"
 7073      74735269 
 7073      67687400 
 7074              	.LASF196:
 7075 0587 64617461 		.ascii	"data_main\000"
 7075      5F6D6169 
 7075      6E00
 7076              	.LASF116:
 7077 0591 636F6E76 		.ascii	"converted_val\000"
 7077      65727465 
 7077      645F7661 
 7077      6C00
 7078              	.LASF185:
 7079 059f 73746172 		.ascii	"start\000"
 7079      7400
 7080              	.LASF41:
 7081 05a5 72737369 		.ascii	"rssi\000"
 7081      00
 7082              	.LASF111:
 7083 05aa 74726163 		.ascii	"trackLine\000"
 7083      6B4C696E 
 7083      6500
 7084              	.LASF49:
 7085 05b4 67305F64 		.ascii	"g0_direction\000"
 7085      69726563 
 7085      74696F6E 
 7085      00
 7086              	.LASF140:
 7087 05c1 666C6167 		.ascii	"flag_receive_ADC\000"
 7087      5F726563 
 7087      65697665 
 7087      5F414443 
 7087      00
 7088              	.LASF26:
 7089 05d2 53544F50 		.ascii	"STOPPED\000"
 7089      50454400 
 7090              	.LASF100:
 7091 05da 42545F72 		.ascii	"BT_rxInt\000"
 7091      78496E74 
 7091      00
 7092              	.LASF22:
 7093 05e3 6C6F6E67 		.ascii	"long double\000"
 7093      20646F75 
 7093      626C6500 
 7094              	.LASF64:
 7095 05ef 6973725F 		.ascii	"isr_adcTimer\000"
 7095      61646354 
 7095      696D6572 
 7095      00
 7096              	.LASF154:
 7097 05fc 6C656674 		.ascii	"left_duty_cycle\000"
 7097      5F647574 
 7097      795F6379 
 7097      636C6500 
 7098              	.LASF65:
 7099 060c 6973725F 		.ascii	"isr_deadzone\000"
ARM GAS  C:\Users\Logan\AppData\Local\Temp\ccydAEbe.s 			page 148


 7099      64656164 
 7099      7A6F6E65 
 7099      00
 7100              	.LASF132:
 7101 0619 666C6167 		.ascii	"flag_ts_speed\000"
 7101      5F74735F 
 7101      73706565 
 7101      6400
 7102              	.LASF137:
 7103 0627 64617461 		.ascii	"dataready_flag\000"
 7103      72656164 
 7103      795F666C 
 7103      616700
 7104              	.LASF164:
 7105 0636 696E6974 		.ascii	"initial_y_pos\000"
 7105      69616C5F 
 7105      795F706F 
 7105      7300
 7106              	.LASF134:
 7107 0644 666C6167 		.ascii	"flag_rx\000"
 7107      5F727800 
 7108              	.LASF2:
 7109 064c 73686F72 		.ascii	"short int\000"
 7109      7420696E 
 7109      7400
 7110              	.LASF141:
 7111 0656 6164635F 		.ascii	"adc_result\000"
 7111      72657375 
 7111      6C7400
 7112              	.LASF92:
 7113 0661 696E6974 		.ascii	"initTurnU\000"
 7113      5475726E 
 7113      5500
 7114              	.LASF145:
 7115 066b 666C6167 		.ascii	"flag_calc_wheelspeed\000"
 7115      5F63616C 
 7115      635F7768 
 7115      65656C73 
 7115      70656564 
 7116              	.LASF4:
 7117 0680 6C6F6E67 		.ascii	"long int\000"
 7117      20696E74 
 7117      00
 7118              	.LASF91:
 7119 0689 696E6974 		.ascii	"initTurnRight\000"
 7119      5475726E 
 7119      52696768 
 7119      7400
 7120              	.LASF35:
 7121 0697 555F5452 		.ascii	"U_TRACK\000"
 7121      41434B00 
 7122              	.LASF125:
 7123 069f 49544D5F 		.ascii	"ITM_RxBuffer\000"
 7123      52784275 
 7123      66666572 
 7123      00
 7124              	.LASF119:
ARM GAS  C:\Users\Logan\AppData\Local\Temp\ccydAEbe.s 			page 149


 7125 06ac 7072696E 		.ascii	"printString\000"
 7125      74537472 
 7125      696E6700 
 7126              	.LASF98:
 7127 06b8 7278496E 		.ascii	"rxInt\000"
 7127      7400
 7128              	.LASF127:
 7129 06be 74735F75 		.ascii	"ts_update\000"
 7129      70646174 
 7129      6500
 7130              	.LASF33:
 7131 06c8 4E4F5F54 		.ascii	"NO_TRACK\000"
 7131      5241434B 
 7131      00
 7132              	.LASF152:
 7133 06d1 64656164 		.ascii	"deadzone\000"
 7133      7A6F6E65 
 7133      00
 7134              	.LASF156:
 7135 06da 6C656674 		.ascii	"leftSpeedLimit\000"
 7135      53706565 
 7135      644C696D 
 7135      697400
 7136              	.LASF40:
 7137 06e9 4D41505F 		.ascii	"MAP_TRAVERSE\000"
 7137      54524156 
 7137      45525345 
 7137      00
 7138              	.LASF29:
 7139 06f6 54524143 		.ascii	"TRACKING_SOFT\000"
 7139      4B494E47 
 7139      5F534F46 
 7139      5400
 7140              	.LASF79:
 7141 0704 6C656674 		.ascii	"left\000"
 7141      00
 7142              	.LASF159:
 7143 0709 61636375 		.ascii	"accum_dist\000"
 7143      6D5F6469 
 7143      737400
 7144              	.LASF122:
 7145 0714 75736250 		.ascii	"usbPutString\000"
 7145      75745374 
 7145      72696E67 
 7145      00
 7146              	.LASF87:
 7147 0721 7475726E 		.ascii	"turnRight\000"
 7147      52696768 
 7147      7400
 7148              	.LASF51:
 7149 072b 67315F79 		.ascii	"g1_ypos\000"
 7149      706F7300 
 7150              	.LASF59:
 7151 0733 6164635F 		.ascii	"adc_isr\000"
 7151      69737200 
 7152              	.LASF120:
 7153 073b 72656164 		.ascii	"readFrontSensors\000"
ARM GAS  C:\Users\Logan\AppData\Local\Temp\ccydAEbe.s 			page 150


 7153      46726F6E 
 7153      7453656E 
 7153      736F7273 
 7153      00
 7154              	.LASF161:
 7155 074c 71756164 		.ascii	"quad_per_cm\000"
 7155      5F706572 
 7155      5F636D00 
 7156              	.LASF158:
 7157 0758 74617267 		.ascii	"target_distance_cm\000"
 7157      65745F64 
 7157      69737461 
 7157      6E63655F 
 7157      636D00
 7158              	.LASF11:
 7159 076b 73697A65 		.ascii	"sizetype\000"
 7159      74797065 
 7159      00
 7160              	.LASF7:
 7161 0774 6C6F6E67 		.ascii	"long unsigned int\000"
 7161      20756E73 
 7161      69676E65 
 7161      6420696E 
 7161      7400
 7162              	.LASF72:
 7163 0786 62797465 		.ascii	"byte_packet\000"
 7163      5F706163 
 7163      6B657400 
 7164              	.LASF13:
 7165 0792 696E7433 		.ascii	"int32_t\000"
 7165      325F7400 
 7166              	.LASF179:
 7167 079a 7061636B 		.ascii	"packet\000"
 7167      657400
 7168              	.LASF43:
 7169 07a1 726F626F 		.ascii	"robot_xpos\000"
 7169      745F7870 
 7169      6F7300
 7170              	.LASF85:
 7171 07ac 6272616B 		.ascii	"brakeMotor\000"
 7171      654D6F74 
 7171      6F7200
 7172              	.LASF189:
 7173 07b7 666F6F64 		.ascii	"food_length\000"
 7173      5F6C656E 
 7173      67746800 
 7174              	.LASF171:
 7175 07c3 656E7472 		.ascii	"entry\000"
 7175      7900
 7176              	.LASF1:
 7177 07c9 756E7369 		.ascii	"unsigned char\000"
 7177      676E6564 
 7177      20636861 
 7177      7200
 7178              	.LASF6:
 7179 07d7 5F5F7569 		.ascii	"__uint32_t\000"
 7179      6E743332 
ARM GAS  C:\Users\Logan\AppData\Local\Temp\ccydAEbe.s 			page 151


 7179      5F7400
 7180              	.LASF170:
 7181 07e2 6C696E65 		.ascii	"line\000"
 7181      00
 7182              	.LASF62:
 7183 07e7 53746F70 		.ascii	"Stop_on_line\000"
 7183      5F6F6E5F 
 7183      6C696E65 
 7183      00
 7184              	.LASF126:
 7185 07f4 74735F65 		.ascii	"ts_enc\000"
 7185      6E6300
 7186              	.LASF165:
 7187 07fb 6272616B 		.ascii	"brakeFlag\000"
 7187      65466C61 
 7187      6700
 7188              	.LASF133:
 7189 0805 666C6167 		.ascii	"flag_ts_display\000"
 7189      5F74735F 
 7189      64697370 
 7189      6C617900 
 7190              	.LASF31:
 7191 0815 73746174 		.ascii	"state\000"
 7191      6500
 7192              	.LASF77:
 7193 081b 72657665 		.ascii	"reverseDirection\000"
 7193      72736544 
 7193      69726563 
 7193      74696F6E 
 7193      00
 7194              	.LASF83:
 7195 082c 6272616B 		.ascii	"brakeLeft\000"
 7195      654C6566 
 7195      7400
 7196              	.LASF169:
 7197 0836 64697370 		.ascii	"displaystring\000"
 7197      6C617973 
 7197      7472696E 
 7197      6700
 7198              	.LASF148:
 7199 0844 6C617374 		.ascii	"last_quad_count1\000"
 7199      5F717561 
 7199      645F636F 
 7199      756E7431 
 7199      00
 7200              	.LASF149:
 7201 0855 6C617374 		.ascii	"last_quad_count2\000"
 7201      5F717561 
 7201      645F636F 
 7201      756E7432 
 7201      00
 7202              	.LASF186:
 7203 0866 64657374 		.ascii	"destination\000"
 7203      696E6174 
 7203      696F6E00 
 7204              	.LASF123:
 7205 0872 75736250 		.ascii	"usbPutChar\000"
ARM GAS  C:\Users\Logan\AppData\Local\Temp\ccydAEbe.s 			page 152


 7205      75744368 
 7205      617200
 7206              	.LASF0:
 7207 087d 7369676E 		.ascii	"signed char\000"
 7207      65642063 
 7207      68617200 
 7208              	.LASF3:
 7209 0889 73686F72 		.ascii	"short unsigned int\000"
 7209      7420756E 
 7209      7369676E 
 7209      65642069 
 7209      6E7400
 7210              	.LASF45:
 7211 089c 726F626F 		.ascii	"robot_orientation\000"
 7211      745F6F72 
 7211      69656E74 
 7211      6174696F 
 7211      6E00
 7212              	.LASF37:
 7213 08ae 51554144 		.ascii	"QUAD_STOP\000"
 7213      5F53544F 
 7213      5000
 7214              	.LASF67:
 7215 08b8 6D61696E 		.ascii	"main\000"
 7215      00
 7216              	.LASF58:
 7217 08bd 42545F74 		.ascii	"BT_txInt\000"
 7217      78496E74 
 7217      00
 7218              	.LASF110:
 7219 08c6 6E657874 		.ascii	"nextSpeed\000"
 7219      53706565 
 7219      6400
 7220              	.LASF60:
 7221 08d0 64697374 		.ascii	"dist\000"
 7221      00
 7222              	.LASF15:
 7223 08d5 75696E74 		.ascii	"uint8\000"
 7223      3800
 7224              	.LASF21:
 7225 08db 646F7562 		.ascii	"double\000"
 7225      6C6500
 7226              	.LASF155:
 7227 08e2 72696768 		.ascii	"right_duty_cycle\000"
 7227      745F6475 
 7227      74795F63 
 7227      79636C65 
 7227      00
 7228              	.LASF38:
 7229 08f3 52465F53 		.ascii	"RF_STOP\000"
 7229      544F5000 
 7230              	.LASF76:
 7231 08fb 68616E64 		.ascii	"handle_rx_binary\000"
 7231      6C655F72 
 7231      785F6269 
 7231      6E617279 
 7231      00
ARM GAS  C:\Users\Logan\AppData\Local\Temp\ccydAEbe.s 			page 153


 7232              	.LASF118:
 7233 090c 7072696E 		.ascii	"print_RF\000"
 7233      745F5246 
 7233      00
 7234              	.LASF30:
 7235 0915 55545552 		.ascii	"UTURN\000"
 7235      4E00
 7236              	.LASF46:
 7237 091b 67305F78 		.ascii	"g0_xpos\000"
 7237      706F7300 
 7238              	.LASF108:
 7239 0923 7363616C 		.ascii	"scalingRight\000"
 7239      696E6752 
 7239      69676874 
 7239      00
 7240              	.LASF136:
 7241 0930 666C6167 		.ascii	"flag_KB_string\000"
 7241      5F4B425F 
 7241      73747269 
 7241      6E6700
 7242              	.LASF52:
 7243 093f 67315F73 		.ascii	"g1_speed\000"
 7243      70656564 
 7243      00
 7244              	.LASF194:
 7245 0948 2E5C6D61 		.ascii	".\\main.c\000"
 7245      696E2E63 
 7245      00
 7246              	.LASF163:
 7247 0951 696E6974 		.ascii	"initial_x_pos\000"
 7247      69616C5F 
 7247      785F706F 
 7247      7300
 7248              	.LASF84:
 7249 095f 6272616B 		.ascii	"brakeRight\000"
 7249      65526967 
 7249      687400
 7250              	.LASF96:
 7251 096a 696E6974 		.ascii	"initTrackU\000"
 7251      54726163 
 7251      6B5500
 7252              		.ident	"GCC: (GNU Tools for ARM Embedded Processors) 4.9.3 20150303 (release) [ARM/embedded-4_9-br
