ARM GAS  C:\Users\Logan\AppData\Local\Temp\ccyYPcsP.s 			page 1


   1              		.syntax unified
   2              		.cpu cortex-m3
   3              		.fpu softvfp
   4              		.eabi_attribute 20, 1
   5              		.eabi_attribute 21, 1
   6              		.eabi_attribute 23, 3
   7              		.eabi_attribute 24, 1
   8              		.eabi_attribute 25, 1
   9              		.eabi_attribute 26, 1
  10              		.eabi_attribute 30, 6
  11              		.eabi_attribute 34, 1
  12              		.eabi_attribute 18, 4
  13              		.thumb
  14              		.file	"main.c"
  15              		.text
  16              	.Ltext0:
  17              		.cfi_sections	.debug_frame
  18              		.global	ts
  19              		.bss
  20              		.type	ts, %object
  21              		.size	ts, 1
  22              	ts:
  23 0000 00       		.space	1
  24              		.global	ts_enc
  25 0001 00       		.align	1
  26              		.type	ts_enc, %object
  27              		.size	ts_enc, 2
  28              	ts_enc:
  29 0002 0000     		.space	2
  30              		.global	ts_update
  31              		.align	1
  32              		.type	ts_update, %object
  33              		.size	ts_update, 2
  34              	ts_update:
  35 0004 0000     		.space	2
  36              		.global	ts_speed
  37              		.align	1
  38              		.type	ts_speed, %object
  39              		.size	ts_speed, 2
  40              	ts_speed:
  41 0006 0000     		.space	2
  42              		.global	ts_display
  43              		.align	1
  44              		.type	ts_display, %object
  45              		.size	ts_display, 2
  46              	ts_display:
  47 0008 0000     		.space	2
  48              		.global	flag_ts_enc
  49              		.type	flag_ts_enc, %object
  50              		.size	flag_ts_enc, 1
  51              	flag_ts_enc:
  52 000a 00       		.space	1
  53              		.global	flag_ts_update
  54              		.type	flag_ts_update, %object
  55              		.size	flag_ts_update, 1
  56              	flag_ts_update:
  57 000b 00       		.space	1
ARM GAS  C:\Users\Logan\AppData\Local\Temp\ccyYPcsP.s 			page 2


  58              		.global	flag_ts_speed
  59              		.type	flag_ts_speed, %object
  60              		.size	flag_ts_speed, 1
  61              	flag_ts_speed:
  62 000c 00       		.space	1
  63              		.global	flag_ts_display
  64              		.type	flag_ts_display, %object
  65              		.size	flag_ts_display, 1
  66              	flag_ts_display:
  67 000d 00       		.space	1
  68              		.global	flag_rx
  69              		.type	flag_rx, %object
  70              		.size	flag_rx, 1
  71              	flag_rx:
  72 000e 00       		.space	1
  73              		.global	flag_packet
  74              		.type	flag_packet, %object
  75              		.size	flag_packet, 1
  76              	flag_packet:
  77 000f 00       		.space	1
  78              		.global	flag_KB_string
  79              		.type	flag_KB_string, %object
  80              		.size	flag_KB_string, 1
  81              	flag_KB_string:
  82 0010 00       		.space	1
  83              		.global	dataready_flag
  84              		.type	dataready_flag, %object
  85              		.size	dataready_flag, 1
  86              	dataready_flag:
  87 0011 00       		.space	1
  88              		.global	flag_rf_transmission_active
  89              		.data
  90              		.type	flag_rf_transmission_active, %object
  91              		.size	flag_rf_transmission_active, 1
  92              	flag_rf_transmission_active:
  93 0000 0A       		.byte	10
  94              		.global	flag_print_rf
  95              		.bss
  96              		.type	flag_print_rf, %object
  97              		.size	flag_print_rf, 1
  98              	flag_print_rf:
  99 0012 00       		.space	1
 100              		.global	flag_receive_ADC
 101              		.type	flag_receive_ADC, %object
 102              		.size	flag_receive_ADC, 1
 103              	flag_receive_ADC:
 104 0013 00       		.space	1
 105              		.comm	adc_result,2,2
 106              		.global	direction
 107              		.type	direction, %object
 108              		.size	direction, 1
 109              	direction:
 110 0014 00       		.space	1
 111              		.global	BIN_ENABLED
 112              		.type	BIN_ENABLED, %object
 113              		.size	BIN_ENABLED, 1
 114              	BIN_ENABLED:
ARM GAS  C:\Users\Logan\AppData\Local\Temp\ccyYPcsP.s 			page 3


 115 0015 00       		.space	1
 116              		.global	BT_ENABLED
 117              		.data
 118              		.type	BT_ENABLED, %object
 119              		.size	BT_ENABLED, 1
 120              	BT_ENABLED:
 121 0001 01       		.byte	1
 122              		.global	flag_calc_wheelspeed
 123              		.bss
 124              		.type	flag_calc_wheelspeed, %object
 125              		.size	flag_calc_wheelspeed, 1
 126              	flag_calc_wheelspeed:
 127 0016 00       		.space	1
 128              		.global	quad_count1
 129 0017 00       		.align	1
 130              		.type	quad_count1, %object
 131              		.size	quad_count1, 2
 132              	quad_count1:
 133 0018 0000     		.space	2
 134              		.global	quad_count2
 135              		.align	1
 136              		.type	quad_count2, %object
 137              		.size	quad_count2, 2
 138              	quad_count2:
 139 001a 0000     		.space	2
 140              		.global	last_quad_count1
 141              		.align	1
 142              		.type	last_quad_count1, %object
 143              		.size	last_quad_count1, 2
 144              	last_quad_count1:
 145 001c 0000     		.space	2
 146              		.global	last_quad_count2
 147              		.align	1
 148              		.type	last_quad_count2, %object
 149              		.size	last_quad_count2, 2
 150              	last_quad_count2:
 151 001e 0000     		.space	2
 152              		.global	quad_diff1
 153              		.align	1
 154              		.type	quad_diff1, %object
 155              		.size	quad_diff1, 2
 156              	quad_diff1:
 157 0020 0000     		.space	2
 158              		.global	quad_diff2
 159              		.align	1
 160              		.type	quad_diff2, %object
 161              		.size	quad_diff2, 2
 162              	quad_diff2:
 163 0022 0000     		.space	2
 164              		.global	deadzone
 165              		.type	deadzone, %object
 166              		.size	deadzone, 1
 167              	deadzone:
 168 0024 00       		.space	1
 169              		.global	start_turn_count
 170 0025 00       		.align	1
 171              		.type	start_turn_count, %object
ARM GAS  C:\Users\Logan\AppData\Local\Temp\ccyYPcsP.s 			page 4


 172              		.size	start_turn_count, 2
 173              	start_turn_count:
 174 0026 0000     		.space	2
 175              		.global	left_duty_cycle
 176              		.align	1
 177              		.type	left_duty_cycle, %object
 178              		.size	left_duty_cycle, 2
 179              	left_duty_cycle:
 180 0028 0000     		.space	2
 181              		.global	right_duty_cycle
 182              		.align	1
 183              		.type	right_duty_cycle, %object
 184              		.size	right_duty_cycle, 2
 185              	right_duty_cycle:
 186 002a 0000     		.space	2
 187              		.global	leftSpeedLimit
 188              		.align	1
 189              		.type	leftSpeedLimit, %object
 190              		.size	leftSpeedLimit, 2
 191              	leftSpeedLimit:
 192 002c 0000     		.space	2
 193              		.global	rightSpeedLimit
 194              		.align	1
 195              		.type	rightSpeedLimit, %object
 196              		.size	rightSpeedLimit, 2
 197              	rightSpeedLimit:
 198 002e 0000     		.space	2
 199              		.global	target_distance_cm
 200              		.data
 201              		.align	1
 202              		.type	target_distance_cm, %object
 203              		.size	target_distance_cm, 2
 204              	target_distance_cm:
 205 0002 6400     		.short	100
 206              		.global	accum_dist
 207              		.bss
 208              		.align	1
 209              		.type	accum_dist, %object
 210              		.size	accum_dist, 2
 211              	accum_dist:
 212 0030 0000     		.space	2
 213              		.global	target_distance_quad
 214              		.align	1
 215              		.type	target_distance_quad, %object
 216              		.size	target_distance_quad, 2
 217              	target_distance_quad:
 218 0032 0000     		.space	2
 219              		.global	reached_target
 220              		.type	reached_target, %object
 221              		.size	reached_target, 1
 222              	reached_target:
 223 0034 00       		.space	1
 224              		.global	overshot_target
 225              		.type	overshot_target, %object
 226              		.size	overshot_target, 1
 227              	overshot_target:
 228 0035 00       		.space	1
ARM GAS  C:\Users\Logan\AppData\Local\Temp\ccyYPcsP.s 			page 5


 229              		.global	quad_per_cm
 230              		.data
 231              		.align	2
 232              		.type	quad_per_cm, %object
 233              		.size	quad_per_cm, 4
 234              	quad_per_cm:
 235 0004 F0A73241 		.word	1093838832
 236              		.global	initial_pos_valid
 237              		.bss
 238              		.type	initial_pos_valid, %object
 239              		.size	initial_pos_valid, 1
 240              	initial_pos_valid:
 241 0036 00       		.space	1
 242              		.global	initial_x_pos
 243 0037 00       		.align	1
 244              		.type	initial_x_pos, %object
 245              		.size	initial_x_pos, 2
 246              	initial_x_pos:
 247 0038 0000     		.space	2
 248              		.global	initial_y_pos
 249              		.align	1
 250              		.type	initial_y_pos, %object
 251              		.size	initial_y_pos, 2
 252              	initial_y_pos:
 253 003a 0000     		.space	2
 254              		.comm	brakeFlag,1,1
 255              		.global	portOpen
 256              		.data
 257              		.type	portOpen, %object
 258              		.size	portOpen, 1
 259              	portOpen:
 260 0008 01       		.byte	1
 261              		.comm	frontSensors,5,4
 262              		.comm	prevVoltage,2,2
 263              		.comm	prevVoltage2,2,2
 264              		.global	displaystring
 265 0009 000000   		.align	2
 266              		.type	displaystring, %object
 267              		.size	displaystring, 64
 268              	displaystring:
 269 000c 43533330 		.ascii	"CS301 2016\012\000"
 269      31203230 
 269      31360A00 
 270 0018 00000000 		.space	52
 270      00000000 
 270      00000000 
 270      00000000 
 270      00000000 
 271              		.comm	line,64,4
 272              		.comm	entry,64,4
 273              		.comm	usbBuffer,64,4
 274              		.comm	buffer_state,32,4
 275              		.comm	system_state,32,4
 276              		.global	prev_movement_state
 277              		.type	prev_movement_state, %object
 278              		.size	prev_movement_state, 1
 279              	prev_movement_state:
ARM GAS  C:\Users\Logan\AppData\Local\Temp\ccyYPcsP.s 			page 6


 280 004c 03       		.byte	3
 281              		.global	movement_state
 282              		.type	movement_state, %object
 283              		.size	movement_state, 1
 284              	movement_state:
 285 004d 03       		.byte	3
 286              		.global	track_mode
 287              		.bss
 288              		.type	track_mode, %object
 289              		.size	track_mode, 1
 290              	track_mode:
 291 003c 00       		.space	1
 292              		.global	byteCount
 293              		.type	byteCount, %object
 294              		.size	byteCount, 1
 295              	byteCount:
 296 003d 00       		.space	1
 297              		.comm	packet,2,4
 298              		.global	speed
 299              		.data
 300 004e 0000     		.align	3
 301              		.type	speed, %object
 302              		.size	speed, 8
 303              	speed:
 304 0050 00000000 		.word	0
 305 0054 00002E40 		.word	1076756480
 306              		.comm	tracked_direction,4,4
 307              		.global	instructions
 308              		.bss
 309 003e 0000     		.align	2
 310              		.type	instructions, %object
 311              		.size	instructions, 800
 312              	instructions:
 313 0040 00000000 		.space	800
 313      00000000 
 313      00000000 
 313      00000000 
 313      00000000 
 314              		.global	instructionCount
 315              		.align	1
 316              		.type	instructionCount, %object
 317              		.size	instructionCount, 2
 318              	instructionCount:
 319 0360 0000     		.space	2
 320              		.global	instructionLength
 321              		.align	1
 322              		.type	instructionLength, %object
 323              		.size	instructionLength, 2
 324              	instructionLength:
 325 0362 0000     		.space	2
 326              		.global	sensorsDisabled
 327              		.align	2
 328              		.type	sensorsDisabled, %object
 329              		.size	sensorsDisabled, 4
 330              	sensorsDisabled:
 331 0364 00000000 		.space	4
 332              		.global	robot_direction
ARM GAS  C:\Users\Logan\AppData\Local\Temp\ccyYPcsP.s 			page 7


 333              		.data
 334              		.align	2
 335              		.type	robot_direction, %object
 336              		.size	robot_direction, 4
 337              	robot_direction:
 338 0058 02000000 		.word	2
 339              		.global	path
 340              		.bss
 341              		.align	2
 342              		.type	path, %object
 343              		.size	path, 9600
 344              	path:
 345 0368 00000000 		.space	9600
 345      00000000 
 345      00000000 
 345      00000000 
 345      00000000 
 346              		.global	start
 347              		.data
 348              		.align	2
 349              		.type	start, %object
 350              		.size	start, 8
 351              	start:
 352 005c 01000000 		.word	1
 353 0060 01000000 		.word	1
 354              		.global	destination
 355              		.align	2
 356              		.type	destination, %object
 357              		.size	destination, 8
 358              	destination:
 359 0064 0D000000 		.word	13
 360 0068 0B000000 		.word	11
 361              		.global	map
 362              		.align	2
 363              		.type	map, %object
 364              		.size	map, 1140
 365              	map:
 366 006c 01000000 		.word	1
 367 0070 01000000 		.word	1
 368 0074 01000000 		.word	1
 369 0078 01000000 		.word	1
 370 007c 01000000 		.word	1
 371 0080 01000000 		.word	1
 372 0084 01000000 		.word	1
 373 0088 01000000 		.word	1
 374 008c 01000000 		.word	1
 375 0090 01000000 		.word	1
 376 0094 01000000 		.word	1
 377 0098 01000000 		.word	1
 378 009c 01000000 		.word	1
 379 00a0 01000000 		.word	1
 380 00a4 01000000 		.word	1
 381 00a8 01000000 		.word	1
 382 00ac 01000000 		.word	1
 383 00b0 01000000 		.word	1
 384 00b4 01000000 		.word	1
 385 00b8 01000000 		.word	1
ARM GAS  C:\Users\Logan\AppData\Local\Temp\ccyYPcsP.s 			page 8


 386 00bc 00000000 		.word	0
 387 00c0 00000000 		.word	0
 388 00c4 00000000 		.word	0
 389 00c8 00000000 		.word	0
 390 00cc 00000000 		.word	0
 391 00d0 01000000 		.word	1
 392 00d4 00000000 		.word	0
 393 00d8 01000000 		.word	1
 394 00dc 00000000 		.word	0
 395 00e0 00000000 		.word	0
 396 00e4 00000000 		.word	0
 397 00e8 00000000 		.word	0
 398 00ec 00000000 		.word	0
 399 00f0 00000000 		.word	0
 400 00f4 00000000 		.word	0
 401 00f8 00000000 		.word	0
 402 00fc 00000000 		.word	0
 403 0100 01000000 		.word	1
 404 0104 01000000 		.word	1
 405 0108 01000000 		.word	1
 406 010c 01000000 		.word	1
 407 0110 01000000 		.word	1
 408 0114 01000000 		.word	1
 409 0118 00000000 		.word	0
 410 011c 01000000 		.word	1
 411 0120 00000000 		.word	0
 412 0124 01000000 		.word	1
 413 0128 00000000 		.word	0
 414 012c 01000000 		.word	1
 415 0130 00000000 		.word	0
 416 0134 01000000 		.word	1
 417 0138 01000000 		.word	1
 418 013c 01000000 		.word	1
 419 0140 01000000 		.word	1
 420 0144 01000000 		.word	1
 421 0148 00000000 		.word	0
 422 014c 01000000 		.word	1
 423 0150 01000000 		.word	1
 424 0154 00000000 		.word	0
 425 0158 00000000 		.word	0
 426 015c 00000000 		.word	0
 427 0160 01000000 		.word	1
 428 0164 00000000 		.word	0
 429 0168 01000000 		.word	1
 430 016c 00000000 		.word	0
 431 0170 00000000 		.word	0
 432 0174 00000000 		.word	0
 433 0178 01000000 		.word	1
 434 017c 00000000 		.word	0
 435 0180 00000000 		.word	0
 436 0184 00000000 		.word	0
 437 0188 00000000 		.word	0
 438 018c 00000000 		.word	0
 439 0190 01000000 		.word	1
 440 0194 00000000 		.word	0
 441 0198 01000000 		.word	1
 442 019c 01000000 		.word	1
ARM GAS  C:\Users\Logan\AppData\Local\Temp\ccyYPcsP.s 			page 9


 443 01a0 00000000 		.word	0
 444 01a4 01000000 		.word	1
 445 01a8 00000000 		.word	0
 446 01ac 01000000 		.word	1
 447 01b0 00000000 		.word	0
 448 01b4 01000000 		.word	1
 449 01b8 00000000 		.word	0
 450 01bc 01000000 		.word	1
 451 01c0 01000000 		.word	1
 452 01c4 01000000 		.word	1
 453 01c8 01000000 		.word	1
 454 01cc 01000000 		.word	1
 455 01d0 01000000 		.word	1
 456 01d4 01000000 		.word	1
 457 01d8 00000000 		.word	0
 458 01dc 01000000 		.word	1
 459 01e0 00000000 		.word	0
 460 01e4 01000000 		.word	1
 461 01e8 01000000 		.word	1
 462 01ec 00000000 		.word	0
 463 01f0 01000000 		.word	1
 464 01f4 00000000 		.word	0
 465 01f8 00000000 		.word	0
 466 01fc 00000000 		.word	0
 467 0200 00000000 		.word	0
 468 0204 00000000 		.word	0
 469 0208 00000000 		.word	0
 470 020c 00000000 		.word	0
 471 0210 00000000 		.word	0
 472 0214 00000000 		.word	0
 473 0218 00000000 		.word	0
 474 021c 00000000 		.word	0
 475 0220 01000000 		.word	1
 476 0224 00000000 		.word	0
 477 0228 01000000 		.word	1
 478 022c 00000000 		.word	0
 479 0230 01000000 		.word	1
 480 0234 01000000 		.word	1
 481 0238 00000000 		.word	0
 482 023c 01000000 		.word	1
 483 0240 01000000 		.word	1
 484 0244 01000000 		.word	1
 485 0248 01000000 		.word	1
 486 024c 01000000 		.word	1
 487 0250 01000000 		.word	1
 488 0254 01000000 		.word	1
 489 0258 01000000 		.word	1
 490 025c 01000000 		.word	1
 491 0260 00000000 		.word	0
 492 0264 01000000 		.word	1
 493 0268 00000000 		.word	0
 494 026c 01000000 		.word	1
 495 0270 00000000 		.word	0
 496 0274 01000000 		.word	1
 497 0278 01000000 		.word	1
 498 027c 01000000 		.word	1
 499 0280 01000000 		.word	1
ARM GAS  C:\Users\Logan\AppData\Local\Temp\ccyYPcsP.s 			page 10


 500 0284 00000000 		.word	0
 501 0288 00000000 		.word	0
 502 028c 00000000 		.word	0
 503 0290 00000000 		.word	0
 504 0294 00000000 		.word	0
 505 0298 00000000 		.word	0
 506 029c 00000000 		.word	0
 507 02a0 00000000 		.word	0
 508 02a4 00000000 		.word	0
 509 02a8 00000000 		.word	0
 510 02ac 00000000 		.word	0
 511 02b0 01000000 		.word	1
 512 02b4 00000000 		.word	0
 513 02b8 01000000 		.word	1
 514 02bc 00000000 		.word	0
 515 02c0 00000000 		.word	0
 516 02c4 00000000 		.word	0
 517 02c8 01000000 		.word	1
 518 02cc 01000000 		.word	1
 519 02d0 01000000 		.word	1
 520 02d4 01000000 		.word	1
 521 02d8 01000000 		.word	1
 522 02dc 01000000 		.word	1
 523 02e0 01000000 		.word	1
 524 02e4 01000000 		.word	1
 525 02e8 00000000 		.word	0
 526 02ec 01000000 		.word	1
 527 02f0 01000000 		.word	1
 528 02f4 01000000 		.word	1
 529 02f8 01000000 		.word	1
 530 02fc 01000000 		.word	1
 531 0300 00000000 		.word	0
 532 0304 01000000 		.word	1
 533 0308 01000000 		.word	1
 534 030c 01000000 		.word	1
 535 0310 00000000 		.word	0
 536 0314 01000000 		.word	1
 537 0318 01000000 		.word	1
 538 031c 00000000 		.word	0
 539 0320 00000000 		.word	0
 540 0324 00000000 		.word	0
 541 0328 00000000 		.word	0
 542 032c 00000000 		.word	0
 543 0330 00000000 		.word	0
 544 0334 00000000 		.word	0
 545 0338 00000000 		.word	0
 546 033c 00000000 		.word	0
 547 0340 00000000 		.word	0
 548 0344 00000000 		.word	0
 549 0348 01000000 		.word	1
 550 034c 00000000 		.word	0
 551 0350 00000000 		.word	0
 552 0354 00000000 		.word	0
 553 0358 01000000 		.word	1
 554 035c 00000000 		.word	0
 555 0360 01000000 		.word	1
 556 0364 01000000 		.word	1
ARM GAS  C:\Users\Logan\AppData\Local\Temp\ccyYPcsP.s 			page 11


 557 0368 00000000 		.word	0
 558 036c 01000000 		.word	1
 559 0370 01000000 		.word	1
 560 0374 01000000 		.word	1
 561 0378 01000000 		.word	1
 562 037c 01000000 		.word	1
 563 0380 00000000 		.word	0
 564 0384 01000000 		.word	1
 565 0388 01000000 		.word	1
 566 038c 01000000 		.word	1
 567 0390 00000000 		.word	0
 568 0394 01000000 		.word	1
 569 0398 00000000 		.word	0
 570 039c 01000000 		.word	1
 571 03a0 00000000 		.word	0
 572 03a4 01000000 		.word	1
 573 03a8 00000000 		.word	0
 574 03ac 01000000 		.word	1
 575 03b0 01000000 		.word	1
 576 03b4 00000000 		.word	0
 577 03b8 00000000 		.word	0
 578 03bc 00000000 		.word	0
 579 03c0 00000000 		.word	0
 580 03c4 00000000 		.word	0
 581 03c8 01000000 		.word	1
 582 03cc 00000000 		.word	0
 583 03d0 00000000 		.word	0
 584 03d4 00000000 		.word	0
 585 03d8 01000000 		.word	1
 586 03dc 00000000 		.word	0
 587 03e0 00000000 		.word	0
 588 03e4 00000000 		.word	0
 589 03e8 01000000 		.word	1
 590 03ec 00000000 		.word	0
 591 03f0 00000000 		.word	0
 592 03f4 00000000 		.word	0
 593 03f8 01000000 		.word	1
 594 03fc 01000000 		.word	1
 595 0400 00000000 		.word	0
 596 0404 01000000 		.word	1
 597 0408 01000000 		.word	1
 598 040c 01000000 		.word	1
 599 0410 00000000 		.word	0
 600 0414 01000000 		.word	1
 601 0418 01000000 		.word	1
 602 041c 01000000 		.word	1
 603 0420 00000000 		.word	0
 604 0424 01000000 		.word	1
 605 0428 01000000 		.word	1
 606 042c 01000000 		.word	1
 607 0430 00000000 		.word	0
 608 0434 01000000 		.word	1
 609 0438 01000000 		.word	1
 610 043c 01000000 		.word	1
 611 0440 00000000 		.word	0
 612 0444 01000000 		.word	1
 613 0448 01000000 		.word	1
ARM GAS  C:\Users\Logan\AppData\Local\Temp\ccyYPcsP.s 			page 12


 614 044c 00000000 		.word	0
 615 0450 00000000 		.word	0
 616 0454 00000000 		.word	0
 617 0458 01000000 		.word	1
 618 045c 00000000 		.word	0
 619 0460 00000000 		.word	0
 620 0464 00000000 		.word	0
 621 0468 00000000 		.word	0
 622 046c 00000000 		.word	0
 623 0470 00000000 		.word	0
 624 0474 00000000 		.word	0
 625 0478 01000000 		.word	1
 626 047c 00000000 		.word	0
 627 0480 00000000 		.word	0
 628 0484 00000000 		.word	0
 629 0488 00000000 		.word	0
 630 048c 00000000 		.word	0
 631 0490 01000000 		.word	1
 632 0494 01000000 		.word	1
 633 0498 01000000 		.word	1
 634 049c 01000000 		.word	1
 635 04a0 01000000 		.word	1
 636 04a4 01000000 		.word	1
 637 04a8 01000000 		.word	1
 638 04ac 01000000 		.word	1
 639 04b0 01000000 		.word	1
 640 04b4 01000000 		.word	1
 641 04b8 01000000 		.word	1
 642 04bc 01000000 		.word	1
 643 04c0 01000000 		.word	1
 644 04c4 01000000 		.word	1
 645 04c8 01000000 		.word	1
 646 04cc 01000000 		.word	1
 647 04d0 01000000 		.word	1
 648 04d4 01000000 		.word	1
 649 04d8 01000000 		.word	1
 650 04dc 01000000 		.word	1
 651              		.global	food_list
 652              		.align	2
 653              		.type	food_list, %object
 654              		.size	food_list, 48
 655              	food_list:
 656 04e0 05000000 		.word	5
 657 04e4 0A000000 		.word	10
 658 04e8 05000000 		.word	5
 659 04ec 03000000 		.word	3
 660 04f0 0D000000 		.word	13
 661 04f4 02000000 		.word	2
 662 04f8 00000000 		.space	24
 662      00000000 
 662      00000000 
 662      00000000 
 662      00000000 
 663              		.global	food_length
 664              		.align	2
 665              		.type	food_length, %object
 666              		.size	food_length, 4
ARM GAS  C:\Users\Logan\AppData\Local\Temp\ccyYPcsP.s 			page 13


 667              	food_length:
 668 0510 03000000 		.word	3
 669 0514 00000000 		.section	.text.BT_txInt,"ax",%progbits
 670              		.align	2
 671              		.global	BT_txInt
 672              		.thumb
 673              		.thumb_func
 674              		.type	BT_txInt, %function
 675              	BT_txInt:
 676              	.LFB63:
 677              		.file 1 ".\\main.c"
   1:.\main.c      **** /* ========================================
   2:.\main.c      ****  *
   3:.\main.c      ****  * Copyright Univ of Auckland, 2016
   4:.\main.c      ****  * All Rights Reserved
   5:.\main.c      ****  * UNPUBLISHED, LICENSED SOFTWARE.
   6:.\main.c      ****  *
   7:.\main.c      ****  * CONFIDENTIAL AND PROPRIETARY INFORMATION
   8:.\main.c      ****  * WHICH IS THE PROPERTY OF Univ of Auckland.
   9:.\main.c      ****  *
  10:.\main.c      ****  * ========================================
  11:.\main.c      **** */
  12:.\main.c      **** #include <stdio.h>
  13:.\main.c      **** #include <string.h>
  14:.\main.c      **** #include <stdlib.h>
  15:.\main.c      **** #include <project.h>
  16:.\main.c      **** #include <math.h>
  17:.\main.c      **** //* ========================================
  18:.\main.c      **** #include "defines.h"
  19:.\main.c      **** #include "vars.h"
  20:.\main.c      **** #include "pathfinder.h"
  21:.\main.c      **** //* ========================================
  22:.\main.c      **** void usbPutString(char *s);
  23:.\main.c      **** void usbPutChar(char c);
  24:.\main.c      **** //void handle_usb();
  25:.\main.c      **** //* ========================================
  26:.\main.c      **** 
  27:.\main.c      **** #define QUAD_RATIO 0.99556
  28:.\main.c      **** #define TURN_OFFSET 50
  29:.\main.c      **** 
  30:.\main.c      **** #define U_DEADZONE 90000
  31:.\main.c      **** #define TURN_DEADZONE 50000
  32:.\main.c      **** #define S_DEADZONE 10000
  33:.\main.c      **** #define QUAD_PER_UNIT 145
  34:.\main.c      **** 
  35:.\main.c      **** char instructions[DEFAULT_ARRAY_SIZE] = {0};
  36:.\main.c      **** uint16 instructionCount = 0;
  37:.\main.c      **** uint16 instructionLength = 0;
  38:.\main.c      **** uint32_t sensorsDisabled = 0;
  39:.\main.c      **** 
  40:.\main.c      **** uint32_t robot_direction = 2;
  41:.\main.c      **** 
  42:.\main.c      **** uint32_t path[DEFAULT_ARRAY_SIZE][3] = {0};
  43:.\main.c      **** uint32_t start[2] = {1, 1};//(y, x) array starts at 0
  44:.\main.c      **** uint32_t destination[2] = {13, 11};//(y, x) DON'T HARDCODE THIS
  45:.\main.c      **** 
  46:.\main.c      **** uint32_t map[15][19] = {{1,1,1,1,1,1,1,1,1,1,1,1,1,1,1,1,1,1,1},
ARM GAS  C:\Users\Logan\AppData\Local\Temp\ccyYPcsP.s 			page 14


  47:.\main.c      ****                     {1,0,0,0,0,0,1,0,1,0,0,0,0,0,0,0,0,0,1},
  48:.\main.c      ****                     {1,1,1,1,1,0,1,0,1,0,1,0,1,1,1,1,1,0,1},
  49:.\main.c      ****                     {1,0,0,0,1,0,1,0,0,0,1,0,0,0,0,0,1,0,1},
  50:.\main.c      ****                     {1,0,1,0,1,0,1,0,1,1,1,1,1,1,1,0,1,0,1},
  51:.\main.c      ****                     {1,0,1,0,0,0,0,0,0,0,0,0,0,0,1,0,1,0,1},
  52:.\main.c      ****                     {1,0,1,1,1,1,1,1,1,1,1,0,1,0,1,0,1,1,1},
  53:.\main.c      ****                     {1,0,0,0,0,0,0,0,0,0,0,0,1,0,1,0,0,0,1},
  54:.\main.c      ****                     {1,1,1,1,1,1,1,0,1,1,1,1,1,0,1,1,1,0,1},
  55:.\main.c      ****                     {1,0,0,0,0,0,0,0,0,0,0,0,1,0,0,0,1,0,1},
  56:.\main.c      ****                     {1,0,1,1,1,1,1,0,1,1,1,0,1,0,1,0,1,0,1},
  57:.\main.c      ****                     {1,0,0,0,0,0,1,0,0,0,1,0,0,0,1,0,0,0,1},
  58:.\main.c      ****                     {1,0,1,1,1,0,1,1,1,0,1,1,1,0,1,1,1,0,1},
  59:.\main.c      ****                     {1,0,0,0,1,0,0,0,0,0,0,0,1,0,0,0,0,0,1},
  60:.\main.c      ****                     {1,1,1,1,1,1,1,1,1,1,1,1,1,1,1,1,1,1,1}};
  61:.\main.c      **** 
  62:.\main.c      **** //uint32_t map[15][19] = {{1,1,1,1,1,1,1,1,1,1,1,1,1,1,1,1,1,1,1},{1,0,0,0,0,0,1,1,1,0,0,0,0,0,0,0,
  63:.\main.c      **** //first number is the y coord, second is x
  64:.\main.c      **** //first number is row, second column
  65:.\main.c      **** 
  66:.\main.c      **** //uint32_t food_list[6][2]= {{4,5},{7,1},{11,5},{10,11},{5,8},{17,2}};
  67:.\main.c      **** uint32_t food_list[6][2] = {{5, 10},{5,3}, {13, 2}};
  68:.\main.c      **** //uint8 food_list[6][2]= {{10,1},{1,13},{9,7},{16,13},{17,1}};
  69:.\main.c      **** uint32_t food_length = 3;
  70:.\main.c      **** 
  71:.\main.c      **** void changeToRF();
  72:.\main.c      **** void changeToBT();
  73:.\main.c      **** void brakeMotor();
  74:.\main.c      **** void driveForwards();
  75:.\main.c      **** void initTurnLeft();
  76:.\main.c      **** void initTurnRight();
  77:.\main.c      **** void inittrackLineZ();
  78:.\main.c      **** void trackLineU();
  79:.\main.c      **** void trackLine();
  80:.\main.c      **** void trackLineZ();
  81:.\main.c      **** void initTrackU();
  82:.\main.c      **** void turnLeft();
  83:.\main.c      **** void turnRight();
  84:.\main.c      **** void initForward();
  85:.\main.c      **** void initTurnU();
  86:.\main.c      **** void turnU();
  87:.\main.c      **** void initBrake();
  88:.\main.c      **** void print_ADC();
  89:.\main.c      **** void Quad_Dec_response();
  90:.\main.c      **** void handle_rx_binary();
  91:.\main.c      **** void readFrontSensors();
  92:.\main.c      **** void print_RF();
  93:.\main.c      **** 
  94:.\main.c      **** /*--------------------------------------------ISRs-----------------------------------------------*/
  95:.\main.c      **** //BT
  96:.\main.c      **** CY_ISR(BT_txInt)
  97:.\main.c      **** {
 678              		.loc 1 97 0
 679              		.cfi_startproc
 680              		@ args = 0, pretend = 0, frame = 0
 681              		@ frame_needed = 1, uses_anonymous_args = 0
 682              		@ link register save eliminated.
 683 0000 80B4     		push	{r7}
ARM GAS  C:\Users\Logan\AppData\Local\Temp\ccyYPcsP.s 			page 15


 684              		.cfi_def_cfa_offset 4
 685              		.cfi_offset 7, -4
 686 0002 00AF     		add	r7, sp, #0
 687              		.cfi_def_cfa_register 7
  98:.\main.c      ****     
  99:.\main.c      **** }
 688              		.loc 1 99 0
 689 0004 BD46     		mov	sp, r7
 690              		.cfi_def_cfa_register 13
 691              		@ sp needed
 692 0006 5DF8047B 		ldr	r7, [sp], #4
 693              		.cfi_restore 7
 694              		.cfi_def_cfa_offset 0
 695 000a 7047     		bx	lr
 696              		.cfi_endproc
 697              	.LFE63:
 698              		.size	BT_txInt, .-BT_txInt
 699              		.section	.text.adc_isr,"ax",%progbits
 700              		.align	2
 701              		.global	adc_isr
 702              		.thumb
 703              		.thumb_func
 704              		.type	adc_isr, %function
 705              	adc_isr:
 706              	.LFB64:
 100:.\main.c      **** 
 101:.\main.c      **** //ADC:
 102:.\main.c      **** CY_ISR (adc_isr)
 103:.\main.c      **** {
 707              		.loc 1 103 0
 708              		.cfi_startproc
 709              		@ args = 0, pretend = 0, frame = 0
 710              		@ frame_needed = 1, uses_anonymous_args = 0
 711 0000 80B5     		push	{r7, lr}
 712              		.cfi_def_cfa_offset 8
 713              		.cfi_offset 7, -8
 714              		.cfi_offset 14, -4
 715 0002 00AF     		add	r7, sp, #0
 716              		.cfi_def_cfa_register 7
 104:.\main.c      ****     //adc_result = ADC_GetResult16(0);
 105:.\main.c      ****     adc_result = ADC_GetResult16();
 717              		.loc 1 105 0
 718 0004 FFF7FEFF 		bl	ADC_GetResult16
 719 0008 0346     		mov	r3, r0
 720 000a 1A46     		mov	r2, r3
 721 000c 044B     		ldr	r3, .L3
 722 000e 1A80     		strh	r2, [r3]	@ movhi
 106:.\main.c      ****     flag_receive_ADC = 1;
 723              		.loc 1 106 0
 724 0010 044B     		ldr	r3, .L3+4
 725 0012 0122     		movs	r2, #1
 726 0014 1A70     		strb	r2, [r3]
 107:.\main.c      ****     flag_print_rf = 1;
 727              		.loc 1 107 0
 728 0016 044B     		ldr	r3, .L3+8
 729 0018 0122     		movs	r2, #1
 730 001a 1A70     		strb	r2, [r3]
ARM GAS  C:\Users\Logan\AppData\Local\Temp\ccyYPcsP.s 			page 16


 108:.\main.c      ****     //LED_Write(~LED_Read());
 109:.\main.c      **** }
 731              		.loc 1 109 0
 732 001c 80BD     		pop	{r7, pc}
 733              	.L4:
 734 001e 00BF     		.align	2
 735              	.L3:
 736 0020 00000000 		.word	adc_result
 737 0024 00000000 		.word	flag_receive_ADC
 738 0028 00000000 		.word	flag_print_rf
 739              		.cfi_endproc
 740              	.LFE64:
 741              		.size	adc_isr, .-adc_isr
 742              		.global	__aeabi_i2d
 743              		.global	__aeabi_dsub
 744              		.global	__aeabi_dcmpge
 745              		.global	__aeabi_dadd
 746              		.section	.text.isr_quad1,"ax",%progbits
 747              		.align	2
 748              		.global	isr_quad1
 749              		.thumb
 750              		.thumb_func
 751              		.type	isr_quad1, %function
 752              	isr_quad1:
 753              	.LFB65:
 110:.\main.c      **** 
 111:.\main.c      **** CY_ISR (isr_quad1)
 112:.\main.c      **** {
 754              		.loc 1 112 0
 755              		.cfi_startproc
 756              		@ args = 0, pretend = 0, frame = 0
 757              		@ frame_needed = 1, uses_anonymous_args = 0
 758 0000 B0B5     		push	{r4, r5, r7, lr}
 759              		.cfi_def_cfa_offset 16
 760              		.cfi_offset 4, -16
 761              		.cfi_offset 5, -12
 762              		.cfi_offset 7, -8
 763              		.cfi_offset 14, -4
 764 0002 00AF     		add	r7, sp, #0
 765              		.cfi_def_cfa_register 7
 113:.\main.c      ****     //LED_Write(~LED_Read());
 114:.\main.c      ****     last_quad_count1 = quad_count1;
 766              		.loc 1 114 0
 767 0004 584B     		ldr	r3, .L13+8
 768 0006 1A88     		ldrh	r2, [r3]
 769 0008 584B     		ldr	r3, .L13+12
 770 000a 1A80     		strh	r2, [r3]	@ movhi
 115:.\main.c      ****     last_quad_count2 = quad_count2;
 771              		.loc 1 115 0
 772 000c 584B     		ldr	r3, .L13+16
 773 000e 1A88     		ldrh	r2, [r3]
 774 0010 584B     		ldr	r3, .L13+20
 775 0012 1A80     		strh	r2, [r3]	@ movhi
 116:.\main.c      ****     quad_count1 = QuadDec_M1_GetCounter();
 776              		.loc 1 116 0
 777 0014 FFF7FEFF 		bl	QuadDec_M1_GetCounter
 778 0018 0346     		mov	r3, r0
ARM GAS  C:\Users\Logan\AppData\Local\Temp\ccyYPcsP.s 			page 17


 779 001a 1A46     		mov	r2, r3
 780 001c 524B     		ldr	r3, .L13+8
 781 001e 1A80     		strh	r2, [r3]	@ movhi
 117:.\main.c      ****     quad_count2 = QuadDec_M2_GetCounter();
 782              		.loc 1 117 0
 783 0020 FFF7FEFF 		bl	QuadDec_M2_GetCounter
 784 0024 0346     		mov	r3, r0
 785 0026 1A46     		mov	r2, r3
 786 0028 514B     		ldr	r3, .L13+16
 787 002a 1A80     		strh	r2, [r3]	@ movhi
 118:.\main.c      ****     quad_diff1 = quad_count1 - last_quad_count1;
 788              		.loc 1 118 0
 789 002c 4E4B     		ldr	r3, .L13+8
 790 002e 1B88     		ldrh	r3, [r3]
 791 0030 9AB2     		uxth	r2, r3
 792 0032 4E4B     		ldr	r3, .L13+12
 793 0034 1B88     		ldrh	r3, [r3]
 794 0036 9BB2     		uxth	r3, r3
 795 0038 D31A     		subs	r3, r2, r3
 796 003a 9BB2     		uxth	r3, r3
 797 003c 9AB2     		uxth	r2, r3
 798 003e 4E4B     		ldr	r3, .L13+24
 799 0040 1A80     		strh	r2, [r3]	@ movhi
 119:.\main.c      ****     quad_diff2 = quad_count2 - last_quad_count2;
 800              		.loc 1 119 0
 801 0042 4B4B     		ldr	r3, .L13+16
 802 0044 1B88     		ldrh	r3, [r3]
 803 0046 9AB2     		uxth	r2, r3
 804 0048 4A4B     		ldr	r3, .L13+20
 805 004a 1B88     		ldrh	r3, [r3]
 806 004c 9BB2     		uxth	r3, r3
 807 004e D31A     		subs	r3, r2, r3
 808 0050 9BB2     		uxth	r3, r3
 809 0052 9AB2     		uxth	r2, r3
 810 0054 494B     		ldr	r3, .L13+28
 811 0056 1A80     		strh	r2, [r3]	@ movhi
 120:.\main.c      ****     
 121:.\main.c      ****     if(abs(quad_count1) > 3000 && movement_state != LTURN && movement_state != RTURN && movement_st
 812              		.loc 1 121 0
 813 0058 434B     		ldr	r3, .L13+8
 814 005a 1B88     		ldrh	r3, [r3]
 815 005c 1BB2     		sxth	r3, r3
 816 005e 002B     		cmp	r3, #0
 817 0060 B8BF     		it	lt
 818 0062 5B42     		rsblt	r3, r3, #0
 819 0064 40F6B832 		movw	r2, #3000
 820 0068 9342     		cmp	r3, r2
 821 006a 17DD     		ble	.L6
 822              		.loc 1 121 0 is_stmt 0 discriminator 1
 823 006c 444B     		ldr	r3, .L13+32
 824 006e 1B78     		ldrb	r3, [r3]	@ zero_extendqisi2
 825 0070 012B     		cmp	r3, #1
 826 0072 13D0     		beq	.L6
 827              		.loc 1 121 0 discriminator 2
 828 0074 424B     		ldr	r3, .L13+32
 829 0076 1B78     		ldrb	r3, [r3]	@ zero_extendqisi2
 830 0078 022B     		cmp	r3, #2
ARM GAS  C:\Users\Logan\AppData\Local\Temp\ccyYPcsP.s 			page 18


 831 007a 0FD0     		beq	.L6
 832              		.loc 1 121 0 discriminator 3
 833 007c 404B     		ldr	r3, .L13+32
 834 007e 1B78     		ldrb	r3, [r3]	@ zero_extendqisi2
 835 0080 072B     		cmp	r3, #7
 836 0082 0BD0     		beq	.L6
 122:.\main.c      ****     {
 123:.\main.c      ****         QuadDec_M1_SetCounter(0);
 837              		.loc 1 123 0 is_stmt 1
 838 0084 0020     		movs	r0, #0
 839 0086 FFF7FEFF 		bl	QuadDec_M1_SetCounter
 124:.\main.c      ****         QuadDec_M2_SetCounter(0);
 840              		.loc 1 124 0
 841 008a 0020     		movs	r0, #0
 842 008c FFF7FEFF 		bl	QuadDec_M2_SetCounter
 125:.\main.c      ****         quad_count1 = 0;
 843              		.loc 1 125 0
 844 0090 354B     		ldr	r3, .L13+8
 845 0092 0022     		movs	r2, #0
 846 0094 1A80     		strh	r2, [r3]	@ movhi
 126:.\main.c      ****         quad_count2 = 0;
 847              		.loc 1 126 0
 848 0096 364B     		ldr	r3, .L13+16
 849 0098 0022     		movs	r2, #0
 850 009a 1A80     		strh	r2, [r3]	@ movhi
 851              	.L6:
 127:.\main.c      ****     }
 128:.\main.c      **** 
 129:.\main.c      ****     flag_calc_wheelspeed = 1;
 852              		.loc 1 129 0
 853 009c 394B     		ldr	r3, .L13+36
 854 009e 0122     		movs	r2, #1
 855 00a0 1A70     		strb	r2, [r3]
 130:.\main.c      ****     
 131:.\main.c      ****     if(track_mode == DEST_TEST)
 856              		.loc 1 131 0
 857 00a2 394B     		ldr	r3, .L13+40
 858 00a4 1B78     		ldrb	r3, [r3]	@ zero_extendqisi2
 859 00a6 062B     		cmp	r3, #6
 860 00a8 56D1     		bne	.L5
 132:.\main.c      ****     {
 133:.\main.c      ****         //track the distance
 134:.\main.c      ****         accum_dist += quad_diff1;
 861              		.loc 1 134 0
 862 00aa 384B     		ldr	r3, .L13+44
 863 00ac 1B88     		ldrh	r3, [r3]
 864 00ae 9AB2     		uxth	r2, r3
 865 00b0 314B     		ldr	r3, .L13+24
 866 00b2 1B88     		ldrh	r3, [r3]
 867 00b4 9BB2     		uxth	r3, r3
 868 00b6 1344     		add	r3, r3, r2
 869 00b8 9BB2     		uxth	r3, r3
 870 00ba 9AB2     		uxth	r2, r3
 871 00bc 334B     		ldr	r3, .L13+44
 872 00be 1A80     		strh	r2, [r3]	@ movhi
 135:.\main.c      ****         if(abs(accum_dist) >= target_distance_quad - QUAD_PER_UNIT * 0.8)
 873              		.loc 1 135 0
ARM GAS  C:\Users\Logan\AppData\Local\Temp\ccyYPcsP.s 			page 19


 874 00c0 324B     		ldr	r3, .L13+44
 875 00c2 1B88     		ldrh	r3, [r3]
 876 00c4 1BB2     		sxth	r3, r3
 877 00c6 002B     		cmp	r3, #0
 878 00c8 B8BF     		it	lt
 879 00ca 5B42     		rsblt	r3, r3, #0
 880 00cc 1846     		mov	r0, r3
 881 00ce FFF7FEFF 		bl	__aeabi_i2d
 882 00d2 0446     		mov	r4, r0
 883 00d4 0D46     		mov	r5, r1
 884 00d6 2E4B     		ldr	r3, .L13+48
 885 00d8 1B88     		ldrh	r3, [r3]
 886 00da 1BB2     		sxth	r3, r3
 887 00dc 1846     		mov	r0, r3
 888 00de FFF7FEFF 		bl	__aeabi_i2d
 889 00e2 0246     		mov	r2, r0
 890 00e4 0B46     		mov	r3, r1
 891 00e6 1046     		mov	r0, r2
 892 00e8 1946     		mov	r1, r3
 893 00ea 4FF00002 		mov	r2, #0
 894 00ee 294B     		ldr	r3, .L13+52
 895 00f0 FFF7FEFF 		bl	__aeabi_dsub
 896 00f4 0246     		mov	r2, r0
 897 00f6 0B46     		mov	r3, r1
 898 00f8 2046     		mov	r0, r4
 899 00fa 2946     		mov	r1, r5
 900 00fc FFF7FEFF 		bl	__aeabi_dcmpge
 901 0100 0346     		mov	r3, r0
 902 0102 002B     		cmp	r3, #0
 903 0104 02D0     		beq	.L8
 136:.\main.c      ****         {
 137:.\main.c      ****             reached_target = 1;
 904              		.loc 1 137 0
 905 0106 244B     		ldr	r3, .L13+56
 906 0108 0122     		movs	r2, #1
 907 010a 1A70     		strb	r2, [r3]
 908              	.L8:
 138:.\main.c      ****         }
 139:.\main.c      ****         if(abs(accum_dist) >= target_distance_quad + QUAD_PER_UNIT * 1.15)
 909              		.loc 1 139 0
 910 010c 1F4B     		ldr	r3, .L13+44
 911 010e 1B88     		ldrh	r3, [r3]
 912 0110 1BB2     		sxth	r3, r3
 913 0112 002B     		cmp	r3, #0
 914 0114 B8BF     		it	lt
 915 0116 5B42     		rsblt	r3, r3, #0
 916 0118 1846     		mov	r0, r3
 917 011a FFF7FEFF 		bl	__aeabi_i2d
 918 011e 0446     		mov	r4, r0
 919 0120 0D46     		mov	r5, r1
 920 0122 1B4B     		ldr	r3, .L13+48
 921 0124 1B88     		ldrh	r3, [r3]
 922 0126 1BB2     		sxth	r3, r3
 923 0128 1846     		mov	r0, r3
 924 012a FFF7FEFF 		bl	__aeabi_i2d
 925 012e 0246     		mov	r2, r0
 926 0130 0B46     		mov	r3, r1
ARM GAS  C:\Users\Logan\AppData\Local\Temp\ccyYPcsP.s 			page 20


 927 0132 1046     		mov	r0, r2
 928 0134 1946     		mov	r1, r3
 929 0136 0AA3     		adr	r3, .L13
 930 0138 D3E90023 		ldrd	r2, [r3]
 931 013c FFF7FEFF 		bl	__aeabi_dadd
 932 0140 0246     		mov	r2, r0
 933 0142 0B46     		mov	r3, r1
 934 0144 2046     		mov	r0, r4
 935 0146 2946     		mov	r1, r5
 936 0148 FFF7FEFF 		bl	__aeabi_dcmpge
 937 014c 0346     		mov	r3, r0
 938 014e 002B     		cmp	r3, #0
 939 0150 02D0     		beq	.L5
 140:.\main.c      ****         {
 141:.\main.c      ****             overshot_target = 1;
 940              		.loc 1 141 0
 941 0152 124B     		ldr	r3, .L13+60
 942 0154 0122     		movs	r2, #1
 943 0156 1A70     		strb	r2, [r3]
 944              	.L5:
 142:.\main.c      ****         }
 143:.\main.c      ****     }
 144:.\main.c      **** //    if (track_mode == QUAD_STOP)
 145:.\main.c      **** //    {
 146:.\main.c      **** //        accum_dist += quad_diff1;
 147:.\main.c      **** //        char mes[16];
 148:.\main.c      **** //        sprintf(mes, "dist: %d\r\n", accum_dist);
 149:.\main.c      **** //        UART_PutString(mes);
 150:.\main.c      **** //        if(abs(accum_dist) >= target_distance_quad)
 151:.\main.c      **** //        {
 152:.\main.c      **** //            initBrake();
 153:.\main.c      **** //            track_mode = NO_TRACK;
 154:.\main.c      **** //        }
 155:.\main.c      **** //    } else if (track_mode == RF_STOP)
 156:.\main.c      **** //    { 
 157:.\main.c      **** //        // Do pythag
 158:.\main.c      **** //        double dist = hypot((system_state.robot_xpos - initial_x_pos) / px_per_x_cm , (system_sta
 159:.\main.c      **** //        if (dist >= target_distance_cm)
 160:.\main.c      **** //        {
 161:.\main.c      **** //            initBrake();
 162:.\main.c      **** //            track_mode = NO_TRACK;
 163:.\main.c      **** //        }
 164:.\main.c      **** //    }
 165:.\main.c      **** }
 945              		.loc 1 165 0
 946 0158 B0BD     		pop	{r4, r5, r7, pc}
 947              	.L14:
 948 015a 00BFAFF3 		.align	3
 948      0080
 949              	.L13:
 950 0160 00000000 		.word	0
 951 0164 00D86440 		.word	1080350720
 952 0168 00000000 		.word	quad_count1
 953 016c 00000000 		.word	last_quad_count1
 954 0170 00000000 		.word	quad_count2
 955 0174 00000000 		.word	last_quad_count2
 956 0178 00000000 		.word	quad_diff1
ARM GAS  C:\Users\Logan\AppData\Local\Temp\ccyYPcsP.s 			page 21


 957 017c 00000000 		.word	quad_diff2
 958 0180 00000000 		.word	movement_state
 959 0184 00000000 		.word	flag_calc_wheelspeed
 960 0188 00000000 		.word	track_mode
 961 018c 00000000 		.word	accum_dist
 962 0190 00000000 		.word	target_distance_quad
 963 0194 00005D40 		.word	1079836672
 964 0198 00000000 		.word	reached_target
 965 019c 00000000 		.word	overshot_target
 966              		.cfi_endproc
 967              	.LFE65:
 968              		.size	isr_quad1, .-isr_quad1
 969              		.section	.text.isr_turn_timer,"ax",%progbits
 970              		.align	2
 971              		.global	isr_turn_timer
 972              		.thumb
 973              		.thumb_func
 974              		.type	isr_turn_timer, %function
 975              	isr_turn_timer:
 976              	.LFB66:
 166:.\main.c      **** 
 167:.\main.c      **** CY_ISR(isr_turn_timer)
 168:.\main.c      **** {
 977              		.loc 1 168 0
 978              		.cfi_startproc
 979              		@ args = 0, pretend = 0, frame = 8
 980              		@ frame_needed = 1, uses_anonymous_args = 0
 981 0000 80B5     		push	{r7, lr}
 982              		.cfi_def_cfa_offset 8
 983              		.cfi_offset 7, -8
 984              		.cfi_offset 14, -4
 985 0002 82B0     		sub	sp, sp, #8
 986              		.cfi_def_cfa_offset 16
 987 0004 00AF     		add	r7, sp, #0
 988              		.cfi_def_cfa_register 7
 169:.\main.c      ****     if(movement_state == LTURN)
 989              		.loc 1 169 0
 990 0006 324B     		ldr	r3, .L23
 991 0008 1B78     		ldrb	r3, [r3]	@ zero_extendqisi2
 992 000a 012B     		cmp	r3, #1
 993 000c 1FD1     		bne	.L16
 994              	.LBB2:
 170:.\main.c      ****     {
 171:.\main.c      ****         uint16 distTurned = abs(QuadDec_M2_GetCounter() - start_turn_count);
 995              		.loc 1 171 0
 996 000e FFF7FEFF 		bl	QuadDec_M2_GetCounter
 997 0012 0346     		mov	r3, r0
 998 0014 1A46     		mov	r2, r3
 999 0016 2F4B     		ldr	r3, .L23+4
 1000 0018 1B88     		ldrh	r3, [r3]
 1001 001a 1BB2     		sxth	r3, r3
 1002 001c D31A     		subs	r3, r2, r3
 1003 001e 002B     		cmp	r3, #0
 1004 0020 B8BF     		it	lt
 1005 0022 5B42     		rsblt	r3, r3, #0
 1006 0024 FB80     		strh	r3, [r7, #6]	@ movhi
 172:.\main.c      ****         if((distTurned >= 208) || (distTurned >= 185 && frontSensors[2] == 1))
ARM GAS  C:\Users\Logan\AppData\Local\Temp\ccyYPcsP.s 			page 22


 1007              		.loc 1 172 0
 1008 0026 FB88     		ldrh	r3, [r7, #6]
 1009 0028 CF2B     		cmp	r3, #207
 1010 002a 06D8     		bhi	.L17
 1011              		.loc 1 172 0 is_stmt 0 discriminator 1
 1012 002c FB88     		ldrh	r3, [r7, #6]
 1013 002e B82B     		cmp	r3, #184
 1014 0030 0CD9     		bls	.L18
 1015              		.loc 1 172 0 discriminator 2
 1016 0032 294B     		ldr	r3, .L23+8
 1017 0034 9B78     		ldrb	r3, [r3, #2]	@ zero_extendqisi2
 1018 0036 012B     		cmp	r3, #1
 1019 0038 08D1     		bne	.L18
 1020              	.L17:
 173:.\main.c      ****         {
 174:.\main.c      ****             //movement_state = STOPPED;
 175:.\main.c      ****             brakeMotor();
 1021              		.loc 1 175 0 is_stmt 1
 1022 003a FFF7FEFF 		bl	brakeMotor
 176:.\main.c      ****             movement_state = prev_movement_state;
 1023              		.loc 1 176 0
 1024 003e 274B     		ldr	r3, .L23+12
 1025 0040 1A78     		ldrb	r2, [r3]	@ zero_extendqisi2
 1026 0042 234B     		ldr	r3, .L23
 1027 0044 1A70     		strb	r2, [r3]
 177:.\main.c      ****             Timer_2_Stop();
 1028              		.loc 1 177 0
 1029 0046 FFF7FEFF 		bl	Timer_2_Stop
 1030              	.LBE2:
 1031 004a 3DE0     		b	.L15
 1032              	.L18:
 1033 004c 3CE0     		b	.L15
 1034              	.L16:
 178:.\main.c      ****         }
 179:.\main.c      ****     }
 180:.\main.c      ****     else if (movement_state == RTURN)
 1035              		.loc 1 180 0
 1036 004e 204B     		ldr	r3, .L23
 1037 0050 1B78     		ldrb	r3, [r3]	@ zero_extendqisi2
 1038 0052 022B     		cmp	r3, #2
 1039 0054 1FD1     		bne	.L20
 1040              	.LBB3:
 181:.\main.c      ****     {
 182:.\main.c      ****         uint16 distTurned = abs(QuadDec_M1_GetCounter() - start_turn_count);
 1041              		.loc 1 182 0
 1042 0056 FFF7FEFF 		bl	QuadDec_M1_GetCounter
 1043 005a 0346     		mov	r3, r0
 1044 005c 1A46     		mov	r2, r3
 1045 005e 1D4B     		ldr	r3, .L23+4
 1046 0060 1B88     		ldrh	r3, [r3]
 1047 0062 1BB2     		sxth	r3, r3
 1048 0064 D31A     		subs	r3, r2, r3
 1049 0066 002B     		cmp	r3, #0
 1050 0068 B8BF     		it	lt
 1051 006a 5B42     		rsblt	r3, r3, #0
 1052 006c BB80     		strh	r3, [r7, #4]	@ movhi
 183:.\main.c      ****         if((distTurned >= 208) || (distTurned >= 185 && frontSensors[2] == 1))
ARM GAS  C:\Users\Logan\AppData\Local\Temp\ccyYPcsP.s 			page 23


 1053              		.loc 1 183 0
 1054 006e BB88     		ldrh	r3, [r7, #4]
 1055 0070 CF2B     		cmp	r3, #207
 1056 0072 06D8     		bhi	.L21
 1057              		.loc 1 183 0 is_stmt 0 discriminator 1
 1058 0074 BB88     		ldrh	r3, [r7, #4]
 1059 0076 B82B     		cmp	r3, #184
 1060 0078 0CD9     		bls	.L22
 1061              		.loc 1 183 0 discriminator 2
 1062 007a 174B     		ldr	r3, .L23+8
 1063 007c 9B78     		ldrb	r3, [r3, #2]	@ zero_extendqisi2
 1064 007e 012B     		cmp	r3, #1
 1065 0080 08D1     		bne	.L22
 1066              	.L21:
 184:.\main.c      ****         {
 185:.\main.c      ****             //movement_state = STOPPED;
 186:.\main.c      ****             brakeMotor();
 1067              		.loc 1 186 0 is_stmt 1
 1068 0082 FFF7FEFF 		bl	brakeMotor
 187:.\main.c      ****             movement_state = prev_movement_state;
 1069              		.loc 1 187 0
 1070 0086 154B     		ldr	r3, .L23+12
 1071 0088 1A78     		ldrb	r2, [r3]	@ zero_extendqisi2
 1072 008a 114B     		ldr	r3, .L23
 1073 008c 1A70     		strb	r2, [r3]
 188:.\main.c      ****             Timer_2_Stop();
 1074              		.loc 1 188 0
 1075 008e FFF7FEFF 		bl	Timer_2_Stop
 1076              	.LBE3:
 1077 0092 19E0     		b	.L15
 1078              	.L22:
 1079 0094 18E0     		b	.L15
 1080              	.L20:
 189:.\main.c      ****         }
 190:.\main.c      ****     }
 191:.\main.c      ****     else if (movement_state == UTURN)
 1081              		.loc 1 191 0
 1082 0096 0E4B     		ldr	r3, .L23
 1083 0098 1B78     		ldrb	r3, [r3]	@ zero_extendqisi2
 1084 009a 072B     		cmp	r3, #7
 1085 009c 14D1     		bne	.L15
 192:.\main.c      ****     {
 193:.\main.c      ****         if(abs(QuadDec_M1_GetCounter() - start_turn_count) >= 208)
 1086              		.loc 1 193 0
 1087 009e FFF7FEFF 		bl	QuadDec_M1_GetCounter
 1088 00a2 0346     		mov	r3, r0
 1089 00a4 1A46     		mov	r2, r3
 1090 00a6 0B4B     		ldr	r3, .L23+4
 1091 00a8 1B88     		ldrh	r3, [r3]
 1092 00aa 1BB2     		sxth	r3, r3
 1093 00ac D31A     		subs	r3, r2, r3
 1094 00ae 002B     		cmp	r3, #0
 1095 00b0 B8BF     		it	lt
 1096 00b2 5B42     		rsblt	r3, r3, #0
 1097 00b4 CF2B     		cmp	r3, #207
 1098 00b6 07DD     		ble	.L15
 194:.\main.c      ****         {
ARM GAS  C:\Users\Logan\AppData\Local\Temp\ccyYPcsP.s 			page 24


 195:.\main.c      ****             //movement_state = STOPPED;
 196:.\main.c      ****             brakeMotor();
 1099              		.loc 1 196 0
 1100 00b8 FFF7FEFF 		bl	brakeMotor
 197:.\main.c      ****             movement_state = prev_movement_state;
 1101              		.loc 1 197 0
 1102 00bc 074B     		ldr	r3, .L23+12
 1103 00be 1A78     		ldrb	r2, [r3]	@ zero_extendqisi2
 1104 00c0 034B     		ldr	r3, .L23
 1105 00c2 1A70     		strb	r2, [r3]
 198:.\main.c      ****             Timer_2_Stop();
 1106              		.loc 1 198 0
 1107 00c4 FFF7FEFF 		bl	Timer_2_Stop
 1108              	.L15:
 199:.\main.c      ****         }
 200:.\main.c      ****     }
 201:.\main.c      **** }
 1109              		.loc 1 201 0
 1110 00c8 0837     		adds	r7, r7, #8
 1111              		.cfi_def_cfa_offset 8
 1112 00ca BD46     		mov	sp, r7
 1113              		.cfi_def_cfa_register 13
 1114              		@ sp needed
 1115 00cc 80BD     		pop	{r7, pc}
 1116              	.L24:
 1117 00ce 00BF     		.align	2
 1118              	.L23:
 1119 00d0 00000000 		.word	movement_state
 1120 00d4 00000000 		.word	start_turn_count
 1121 00d8 00000000 		.word	frontSensors
 1122 00dc 00000000 		.word	prev_movement_state
 1123              		.cfi_endproc
 1124              	.LFE66:
 1125              		.size	isr_turn_timer, .-isr_turn_timer
 1126              		.section	.text.Stop_on_line,"ax",%progbits
 1127              		.align	2
 1128              		.global	Stop_on_line
 1129              		.thumb
 1130              		.thumb_func
 1131              		.type	Stop_on_line, %function
 1132              	Stop_on_line:
 1133              	.LFB67:
 202:.\main.c      **** 
 203:.\main.c      **** 
 204:.\main.c      **** CY_ISR (Stop_on_line)
 205:.\main.c      **** {
 1134              		.loc 1 205 0
 1135              		.cfi_startproc
 1136              		@ args = 0, pretend = 0, frame = 0
 1137              		@ frame_needed = 1, uses_anonymous_args = 0
 1138              		@ link register save eliminated.
 1139 0000 80B4     		push	{r7}
 1140              		.cfi_def_cfa_offset 4
 1141              		.cfi_offset 7, -4
 1142 0002 00AF     		add	r7, sp, #0
 1143              		.cfi_def_cfa_register 7
 206:.\main.c      ****     movement_state = STOPPED;
ARM GAS  C:\Users\Logan\AppData\Local\Temp\ccyYPcsP.s 			page 25


 1144              		.loc 1 206 0
 1145 0004 054B     		ldr	r3, .L27
 1146 0006 0322     		movs	r2, #3
 1147 0008 1A70     		strb	r2, [r3]
 207:.\main.c      ****     if(movement_state != DRIVE) return;
 1148              		.loc 1 207 0
 1149 000a 044B     		ldr	r3, .L27
 1150 000c 1B78     		ldrb	r3, [r3]	@ zero_extendqisi2
 1151 000e 002B     		cmp	r3, #0
 1152 0010 00D0     		beq	.L25
 1153 0012 00BF     		nop
 1154              	.L25:
 208:.\main.c      ****     //initTurnLeft();
 209:.\main.c      **** }
 1155              		.loc 1 209 0
 1156 0014 BD46     		mov	sp, r7
 1157              		.cfi_def_cfa_register 13
 1158              		@ sp needed
 1159 0016 5DF8047B 		ldr	r7, [sp], #4
 1160              		.cfi_restore 7
 1161              		.cfi_def_cfa_offset 0
 1162 001a 7047     		bx	lr
 1163              	.L28:
 1164              		.align	2
 1165              	.L27:
 1166 001c 00000000 		.word	movement_state
 1167              		.cfi_endproc
 1168              	.LFE67:
 1169              		.size	Stop_on_line, .-Stop_on_line
 1170              		.section	.rodata
 1171              		.align	2
 1172              	.LC0:
 1173 0000 53746172 		.ascii	"Starting robot!\015\012\000"
 1173      74696E67 
 1173      20726F62 
 1173      6F74210D 
 1173      0A00
 1174              		.section	.text.button,"ax",%progbits
 1175              		.align	2
 1176              		.global	button
 1177              		.thumb
 1178              		.thumb_func
 1179              		.type	button, %function
 1180              	button:
 1181              	.LFB68:
 210:.\main.c      **** 
 211:.\main.c      **** CY_ISR (button)
 212:.\main.c      **** {
 1182              		.loc 1 212 0
 1183              		.cfi_startproc
 1184              		@ args = 0, pretend = 0, frame = 0
 1185              		@ frame_needed = 1, uses_anonymous_args = 0
 1186 0000 80B5     		push	{r7, lr}
 1187              		.cfi_def_cfa_offset 8
 1188              		.cfi_offset 7, -8
 1189              		.cfi_offset 14, -4
 1190 0002 00AF     		add	r7, sp, #0
ARM GAS  C:\Users\Logan\AppData\Local\Temp\ccyYPcsP.s 			page 26


 1191              		.cfi_def_cfa_register 7
 213:.\main.c      ****     if(BT_ENABLED)
 1192              		.loc 1 213 0
 1193 0004 054B     		ldr	r3, .L31
 1194 0006 1B78     		ldrb	r3, [r3]	@ zero_extendqisi2
 1195 0008 002B     		cmp	r3, #0
 1196 000a 02D0     		beq	.L30
 214:.\main.c      ****     {
 215:.\main.c      ****         UART_PutString("Starting robot!\r\n");
 1197              		.loc 1 215 0
 1198 000c 0448     		ldr	r0, .L31+4
 1199 000e FFF7FEFF 		bl	UART_PutString
 1200              	.L30:
 216:.\main.c      ****     }
 217:.\main.c      ****     movement_state = DRIVE;
 1201              		.loc 1 217 0
 1202 0012 044B     		ldr	r3, .L31+8
 1203 0014 0022     		movs	r2, #0
 1204 0016 1A70     		strb	r2, [r3]
 218:.\main.c      **** }
 1205              		.loc 1 218 0
 1206 0018 80BD     		pop	{r7, pc}
 1207              	.L32:
 1208 001a 00BF     		.align	2
 1209              	.L31:
 1210 001c 00000000 		.word	BT_ENABLED
 1211 0020 00000000 		.word	.LC0
 1212 0024 00000000 		.word	movement_state
 1213              		.cfi_endproc
 1214              	.LFE68:
 1215              		.size	button, .-button
 1216              		.section	.text.isr_adcTimer,"ax",%progbits
 1217              		.align	2
 1218              		.global	isr_adcTimer
 1219              		.thumb
 1220              		.thumb_func
 1221              		.type	isr_adcTimer, %function
 1222              	isr_adcTimer:
 1223              	.LFB69:
 219:.\main.c      **** 
 220:.\main.c      **** CY_ISR(isr_adcTimer)
 221:.\main.c      **** {
 1224              		.loc 1 221 0
 1225              		.cfi_startproc
 1226              		@ args = 0, pretend = 0, frame = 0
 1227              		@ frame_needed = 1, uses_anonymous_args = 0
 1228 0000 80B5     		push	{r7, lr}
 1229              		.cfi_def_cfa_offset 8
 1230              		.cfi_offset 7, -8
 1231              		.cfi_offset 14, -4
 1232 0002 00AF     		add	r7, sp, #0
 1233              		.cfi_def_cfa_register 7
 222:.\main.c      ****     ADC_StartConvert();
 1234              		.loc 1 222 0
 1235 0004 FFF7FEFF 		bl	ADC_StartConvert
 223:.\main.c      **** }
 1236              		.loc 1 223 0
ARM GAS  C:\Users\Logan\AppData\Local\Temp\ccyYPcsP.s 			page 27


 1237 0008 80BD     		pop	{r7, pc}
 1238              		.cfi_endproc
 1239              	.LFE69:
 1240              		.size	isr_adcTimer, .-isr_adcTimer
 1241 000a 00BF     		.section	.rodata
 1242 0012 0000     		.align	2
 1243              	.LC1:
 1244 0014 44656164 		.ascii	"Deadzone left\015\012\000"
 1244      7A6F6E65 
 1244      206C6566 
 1244      740D0A00 
 1245              		.section	.text.isr_deadzone,"ax",%progbits
 1246              		.align	2
 1247              		.global	isr_deadzone
 1248              		.thumb
 1249              		.thumb_func
 1250              		.type	isr_deadzone, %function
 1251              	isr_deadzone:
 1252              	.LFB70:
 224:.\main.c      **** 
 225:.\main.c      **** CY_ISR(isr_deadzone)
 226:.\main.c      **** {
 1253              		.loc 1 226 0
 1254              		.cfi_startproc
 1255              		@ args = 0, pretend = 0, frame = 0
 1256              		@ frame_needed = 1, uses_anonymous_args = 0
 1257 0000 80B5     		push	{r7, lr}
 1258              		.cfi_def_cfa_offset 8
 1259              		.cfi_offset 7, -8
 1260              		.cfi_offset 14, -4
 1261 0002 00AF     		add	r7, sp, #0
 1262              		.cfi_def_cfa_register 7
 227:.\main.c      ****     sensorsDisabled = 0;
 1263              		.loc 1 227 0
 1264 0004 054B     		ldr	r3, .L35
 1265 0006 0022     		movs	r2, #0
 1266 0008 1A60     		str	r2, [r3]
 228:.\main.c      ****     deadzone = 0;
 1267              		.loc 1 228 0
 1268 000a 054B     		ldr	r3, .L35+4
 1269 000c 0022     		movs	r2, #0
 1270 000e 1A70     		strb	r2, [r3]
 229:.\main.c      ****     Timer_Deadzone_Stop();
 1271              		.loc 1 229 0
 1272 0010 FFF7FEFF 		bl	Timer_Deadzone_Stop
 230:.\main.c      ****     UART_PutString("Deadzone left\r\n");
 1273              		.loc 1 230 0
 1274 0014 0348     		ldr	r0, .L35+8
 1275 0016 FFF7FEFF 		bl	UART_PutString
 231:.\main.c      **** }
 1276              		.loc 1 231 0
 1277 001a 80BD     		pop	{r7, pc}
 1278              	.L36:
 1279              		.align	2
 1280              	.L35:
 1281 001c 00000000 		.word	sensorsDisabled
 1282 0020 00000000 		.word	deadzone
ARM GAS  C:\Users\Logan\AppData\Local\Temp\ccyYPcsP.s 			page 28


 1283 0024 14000000 		.word	.LC1
 1284              		.cfi_endproc
 1285              	.LFE70:
 1286              		.size	isr_deadzone, .-isr_deadzone
 1287              		.section	.rodata
 1288              		.align	2
 1289              	.LC2:
 1290 0024 44697374 		.ascii	"Dist travel: %d\015\012\000"
 1290      20747261 
 1290      76656C3A 
 1290      2025640D 
 1290      0A00
 1291 0036 0000     		.align	2
 1292              	.LC3:
 1293 0038 54726967 		.ascii	"Triggered at intersection \015\012\000"
 1293      67657265 
 1293      64206174 
 1293      20696E74 
 1293      65727365 
 1294 0055 000000   		.align	2
 1295              	.LC4:
 1296 0058 44656164 		.ascii	"Deadzone entered!\015\012\000"
 1296      7A6F6E65 
 1296      20656E74 
 1296      65726564 
 1296      210D0A00 
 1297              		.align	2
 1298              	.LC5:
 1299 006c 54617267 		.ascii	"Target dist: %d\015\012\000"
 1299      65742064 
 1299      6973743A 
 1299      2025640D 
 1299      0A00
 1300 007e 0000     		.align	2
 1301              	.LC6:
 1302 0080 54726967 		.ascii	"Triggered at white light \015\012\000"
 1302      67657265 
 1302      64206174 
 1302      20776869 
 1302      7465206C 
 1303              		.align	2
 1304              	.LC7:
 1305 009c 54726967 		.ascii	"Triggered at quad count \015\012\000"
 1305      67657265 
 1305      64206174 
 1305      20717561 
 1305      6420636F 
 1306              		.section	.text.main,"ax",%progbits
 1307              		.align	2
 1308              		.global	main
 1309              		.thumb
 1310              		.thumb_func
 1311              		.type	main, %function
 1312              	main:
 1313              	.LFB71:
 232:.\main.c      **** 
 233:.\main.c      **** /*-------------------------------------------------------------------------------------------*/
ARM GAS  C:\Users\Logan\AppData\Local\Temp\ccyYPcsP.s 			page 29


 234:.\main.c      **** 
 235:.\main.c      **** /* -----------------------------------------MAIN-----------------------------MAIN------------------
 236:.\main.c      **** int main()
 237:.\main.c      **** {  
 1314              		.loc 1 237 0
 1315              		.cfi_startproc
 1316              		@ args = 0, pretend = 0, frame = 56
 1317              		@ frame_needed = 1, uses_anonymous_args = 0
 1318 0000 80B5     		push	{r7, lr}
 1319              		.cfi_def_cfa_offset 8
 1320              		.cfi_offset 7, -8
 1321              		.cfi_offset 14, -4
 1322 0002 8EB0     		sub	sp, sp, #56
 1323              		.cfi_def_cfa_offset 64
 1324 0004 00AF     		add	r7, sp, #0
 1325              		.cfi_def_cfa_register 7
 238:.\main.c      **** 
 239:.\main.c      **** // ----- INITIALIZATIONS ----------
 240:.\main.c      ****     CYGlobalIntEnable;
 1326              		.loc 1 240 0
 1327              	@ 240 ".\main.c" 1
 1328 0006 62B6     		CPSIE   i
 1329              	@ 0 "" 2
 241:.\main.c      ****     if(ENABLE_PWM)
 242:.\main.c      ****     {
 243:.\main.c      ****         PWM_1_Start();// starting the pwm
 1330              		.loc 1 243 0
 1331              		.thumb
 1332 0008 FFF7FEFF 		bl	PWM_1_Start
 244:.\main.c      ****         PWM_2_Start();// starting the pwm
 1333              		.loc 1 244 0
 1334 000c FFF7FEFF 		bl	PWM_2_Start
 245:.\main.c      ****     }
 246:.\main.c      ****     
 247:.\main.c      ****     if(ENABLE_ADC)
 248:.\main.c      ****     {
 249:.\main.c      ****         ADC_Start();
 250:.\main.c      ****         isr_eoc_StartEx(adc_isr);
 251:.\main.c      ****         //ADC_StartConvert();
 252:.\main.c      ****         
 253:.\main.c      ****         //start the ADC timer for software trigger mode
 254:.\main.c      ****         Timer_TS_Start();
 255:.\main.c      ****         isr_TS_StartEx(isr_adcTimer);
 256:.\main.c      ****     }
 257:.\main.c      ****     
 258:.\main.c      ****     if (ENABLE_QUAD)
 259:.\main.c      ****     {
 260:.\main.c      ****         QuadDec_M1_Start();
 1335              		.loc 1 260 0
 1336 0010 FFF7FEFF 		bl	QuadDec_M1_Start
 261:.\main.c      ****         QuadDec_M2_Start();
 1337              		.loc 1 261 0
 1338 0014 FFF7FEFF 		bl	QuadDec_M2_Start
 262:.\main.c      ****         
 263:.\main.c      ****         isr_quad1_StartEx(isr_quad1);
 1339              		.loc 1 263 0
 1340 0018 AC48     		ldr	r0, .L104
ARM GAS  C:\Users\Logan\AppData\Local\Temp\ccyYPcsP.s 			page 30


 1341 001a FFF7FEFF 		bl	isr_quad1_StartEx
 264:.\main.c      ****         isr_turn_count_StartEx(isr_turn_timer);
 1342              		.loc 1 264 0
 1343 001e AC48     		ldr	r0, .L104+4
 1344 0020 FFF7FEFF 		bl	isr_turn_count_StartEx
 265:.\main.c      ****         
 266:.\main.c      ****         Timer_1_Start();
 1345              		.loc 1 266 0
 1346 0024 FFF7FEFF 		bl	Timer_1_Start
 267:.\main.c      ****     }
 268:.\main.c      ****     
 269:.\main.c      ****     if(ENABLE_STOP){
 270:.\main.c      ****         isr_OnLine_StartEx(Stop_on_line);
 271:.\main.c      ****         
 272:.\main.c      ****     }
 273:.\main.c      ****     isr_button_StartEx(button);
 1347              		.loc 1 273 0
 1348 0028 AA48     		ldr	r0, .L104+8
 1349 002a FFF7FEFF 		bl	isr_button_StartEx
 274:.\main.c      ****     isr_action_deadzone_StartEx(isr_deadzone);
 1350              		.loc 1 274 0
 1351 002e AA48     		ldr	r0, .L104+12
 1352 0030 FFF7FEFF 		bl	isr_action_deadzone_StartEx
 275:.\main.c      **** 
 276:.\main.c      ****     // ------USB SETUP ----------------    
 277:.\main.c      ****     if (USE_USB){    
 278:.\main.c      ****         USBUART_Start(0,USBUART_5V_OPERATION);
 1353              		.loc 1 278 0
 1354 0034 0020     		movs	r0, #0
 1355 0036 0121     		movs	r1, #1
 1356 0038 FFF7FEFF 		bl	USBUART_Start
 279:.\main.c      ****         if (USBUART_GetConfiguration())
 1357              		.loc 1 279 0
 1358 003c FFF7FEFF 		bl	USBUART_GetConfiguration
 1359 0040 0346     		mov	r3, r0
 1360 0042 002B     		cmp	r3, #0
 1361 0044 01D0     		beq	.L38
 280:.\main.c      ****             {
 281:.\main.c      ****                  USBUART_CDC_Init();
 1362              		.loc 1 281 0
 1363 0046 FFF7FEFF 		bl	USBUART_CDC_Init
 1364              	.L38:
 282:.\main.c      ****             }
 283:.\main.c      ****     }
 284:.\main.c      ****     
 285:.\main.c      ****     if(BIN_ENABLED){
 1365              		.loc 1 285 0
 1366 004a A44B     		ldr	r3, .L104+16
 1367 004c 1B78     		ldrb	r3, [r3]	@ zero_extendqisi2
 1368 004e 002B     		cmp	r3, #0
 1369 0050 01D0     		beq	.L39
 286:.\main.c      ****         changeToRF();
 1370              		.loc 1 286 0
 1371 0052 FFF7FEFF 		bl	changeToRF
 1372              	.L39:
 287:.\main.c      ****     }
 288:.\main.c      ****     
ARM GAS  C:\Users\Logan\AppData\Local\Temp\ccyYPcsP.s 			page 31


 289:.\main.c      ****     if(BT_ENABLED){
 1373              		.loc 1 289 0
 1374 0056 A24B     		ldr	r3, .L104+20
 1375 0058 1B78     		ldrb	r3, [r3]	@ zero_extendqisi2
 1376 005a 002B     		cmp	r3, #0
 1377 005c 01D0     		beq	.L40
 290:.\main.c      ****         changeToBT();
 1378              		.loc 1 290 0
 1379 005e FFF7FEFF 		bl	changeToBT
 1380              	.L40:
 291:.\main.c      ****     }
 292:.\main.c      ****     
 293:.\main.c      ****     uint16 actionDebounce = 0;
 1381              		.loc 1 293 0
 1382 0062 0023     		movs	r3, #0
 1383 0064 FB86     		strh	r3, [r7, #54]	@ movhi
 1384              	.L100:
 294:.\main.c      ****     
 295:.\main.c      ****     //usbPutString("Started");
 296:.\main.c      ****     for(;;)
 297:.\main.c      ****     {
 298:.\main.c      ****         if(ENABLE_ADC) print_ADC();
 299:.\main.c      ****         if(ENABLE_QUAD) Quad_Dec_response();
 1385              		.loc 1 299 0
 1386 0066 FFF7FEFF 		bl	Quad_Dec_response
 300:.\main.c      ****         if(BIN_ENABLED == 1)
 1387              		.loc 1 300 0
 1388 006a 9C4B     		ldr	r3, .L104+16
 1389 006c 1B78     		ldrb	r3, [r3]	@ zero_extendqisi2
 1390 006e 012B     		cmp	r3, #1
 1391 0070 03D1     		bne	.L41
 301:.\main.c      ****         {
 302:.\main.c      ****             handle_rx_binary();
 1392              		.loc 1 302 0
 1393 0072 FFF7FEFF 		bl	handle_rx_binary
 303:.\main.c      ****             print_RF();
 1394              		.loc 1 303 0
 1395 0076 FFF7FEFF 		bl	print_RF
 1396              	.L41:
 304:.\main.c      ****         }
 305:.\main.c      ****         // NO_TRACK, CURVE_TRACK, U_TRACK, SQUARE_TRACK
 306:.\main.c      ****        
 307:.\main.c      ****         readFrontSensors(frontSensors);
 1397              		.loc 1 307 0
 1398 007a 9A48     		ldr	r0, .L104+24
 1399 007c FFF7FEFF 		bl	readFrontSensors
 308:.\main.c      ****         
 309:.\main.c      ****         switch(track_mode)
 1400              		.loc 1 309 0
 1401 0080 994B     		ldr	r3, .L104+28
 1402 0082 1B78     		ldrb	r3, [r3]	@ zero_extendqisi2
 1403 0084 072B     		cmp	r3, #7
 1404 0086 00F21583 		bhi	.L42
 1405 008a 01A2     		adr	r2, .L44
 1406 008c 52F823F0 		ldr	pc, [r2, r3, lsl #2]
 1407              		.p2align 2
 1408              	.L44:
ARM GAS  C:\Users\Logan\AppData\Local\Temp\ccyYPcsP.s 			page 32


 1409 0090 B5060000 		.word	.L42+1
 1410 0094 B5060000 		.word	.L42+1
 1411 0098 B5060000 		.word	.L42+1
 1412 009c B1000000 		.word	.L47+1
 1413 00a0 B5060000 		.word	.L42+1
 1414 00a4 F5000000 		.word	.L49+1
 1415 00a8 1B010000 		.word	.L50+1
 1416 00ac 1B010000 		.word	.L50+1
 1417              		.p2align 1
 1418              	.L47:
 310:.\main.c      ****         {
 311:.\main.c      ****             case SQUARE_TRACK:
 312:.\main.c      ****                 if(movement_state != LTURN && movement_state != RTURN)
 1419              		.loc 1 312 0
 1420 00b0 8E4B     		ldr	r3, .L104+32
 1421 00b2 1B78     		ldrb	r3, [r3]	@ zero_extendqisi2
 1422 00b4 012B     		cmp	r3, #1
 1423 00b6 1CD0     		beq	.L51
 1424              		.loc 1 312 0 is_stmt 0 discriminator 1
 1425 00b8 8C4B     		ldr	r3, .L104+32
 1426 00ba 1B78     		ldrb	r3, [r3]	@ zero_extendqisi2
 1427 00bc 022B     		cmp	r3, #2
 1428 00be 18D0     		beq	.L51
 313:.\main.c      ****                 {
 314:.\main.c      ****                     if(frontSensors[0] == 1 && frontSensors[2] == 1){ //left turn
 1429              		.loc 1 314 0 is_stmt 1
 1430 00c0 884B     		ldr	r3, .L104+24
 1431 00c2 1B78     		ldrb	r3, [r3]	@ zero_extendqisi2
 1432 00c4 012B     		cmp	r3, #1
 1433 00c6 06D1     		bne	.L52
 1434              		.loc 1 314 0 is_stmt 0 discriminator 1
 1435 00c8 864B     		ldr	r3, .L104+24
 1436 00ca 9B78     		ldrb	r3, [r3, #2]	@ zero_extendqisi2
 1437 00cc 012B     		cmp	r3, #1
 1438 00ce 02D1     		bne	.L52
 315:.\main.c      ****                         initTurnLeft();
 1439              		.loc 1 315 0 is_stmt 1
 1440 00d0 FFF7FEFF 		bl	initTurnLeft
 1441 00d4 0DE0     		b	.L51
 1442              	.L52:
 316:.\main.c      ****                     }
 317:.\main.c      ****                     else if (frontSensors[4] == 1 && frontSensors[2] == 1) //right turn
 1443              		.loc 1 317 0
 1444 00d6 834B     		ldr	r3, .L104+24
 1445 00d8 1B79     		ldrb	r3, [r3, #4]	@ zero_extendqisi2
 1446 00da 012B     		cmp	r3, #1
 1447 00dc 06D1     		bne	.L53
 1448              		.loc 1 317 0 is_stmt 0 discriminator 1
 1449 00de 814B     		ldr	r3, .L104+24
 1450 00e0 9B78     		ldrb	r3, [r3, #2]	@ zero_extendqisi2
 1451 00e2 012B     		cmp	r3, #1
 1452 00e4 02D1     		bne	.L53
 318:.\main.c      ****                     {
 319:.\main.c      ****                         initTurnRight();
 1453              		.loc 1 319 0 is_stmt 1
 1454 00e6 FFF7FEFF 		bl	initTurnRight
 1455 00ea 02E0     		b	.L51
ARM GAS  C:\Users\Logan\AppData\Local\Temp\ccyYPcsP.s 			page 33


 1456              	.L53:
 320:.\main.c      ****                     }
 321:.\main.c      ****                     else inittrackLineZ();
 1457              		.loc 1 321 0
 1458 00ec FFF7FEFF 		bl	inittrackLineZ
 322:.\main.c      ****                 }
 323:.\main.c      ****             break;
 1459              		.loc 1 323 0
 1460 00f0 E0E2     		b	.L42
 1461              	.L51:
 1462 00f2 DFE2     		b	.L42
 1463              	.L49:
 324:.\main.c      ****             case NO_TRACK:
 325:.\main.c      ****             break;
 326:.\main.c      ****             case CURVE_TRACK:
 327:.\main.c      ****             break;
 328:.\main.c      ****             case U_TRACK:
 329:.\main.c      ****             break;
 330:.\main.c      ****             case QUAD_STOP:
 331:.\main.c      ****             break;
 332:.\main.c      ****             case RF_STOP:
 333:.\main.c      ****                 if(initial_pos_valid == 1)
 1464              		.loc 1 333 0
 1465 00f4 7E4B     		ldr	r3, .L104+36
 1466 00f6 1B78     		ldrb	r3, [r3]	@ zero_extendqisi2
 1467 00f8 012B     		cmp	r3, #1
 1468 00fa 0DD1     		bne	.L54
 334:.\main.c      ****                 {
 335:.\main.c      ****                     //changeToBT();
 336:.\main.c      ****                    // UART_PutString("Valid RF detected!");
 337:.\main.c      ****                     //changeToRF();
 338:.\main.c      ****                     initial_x_pos = system_state.robot_xpos;
 1469              		.loc 1 338 0
 1470 00fc 7D4B     		ldr	r3, .L104+40
 1471 00fe 5A88     		ldrh	r2, [r3, #2]
 1472 0100 7D4B     		ldr	r3, .L104+44
 1473 0102 1A80     		strh	r2, [r3]	@ movhi
 339:.\main.c      ****                     initial_y_pos = system_state.robot_ypos;
 1474              		.loc 1 339 0
 1475 0104 7B4B     		ldr	r3, .L104+40
 1476 0106 9A88     		ldrh	r2, [r3, #4]
 1477 0108 7C4B     		ldr	r3, .L104+48
 1478 010a 1A80     		strh	r2, [r3]	@ movhi
 340:.\main.c      ****                     initial_pos_valid = 2;
 1479              		.loc 1 340 0
 1480 010c 784B     		ldr	r3, .L104+36
 1481 010e 0222     		movs	r2, #2
 1482 0110 1A70     		strb	r2, [r3]
 341:.\main.c      ****                     initForward();
 1483              		.loc 1 341 0
 1484 0112 FFF7FEFF 		bl	initForward
 342:.\main.c      ****                 }
 343:.\main.c      ****             break;
 1485              		.loc 1 343 0
 1486 0116 CDE2     		b	.L42
 1487              	.L54:
 1488 0118 CCE2     		b	.L42
ARM GAS  C:\Users\Logan\AppData\Local\Temp\ccyYPcsP.s 			page 34


 1489              	.L50:
 344:.\main.c      ****             case MAP_TRAVERSE:
 345:.\main.c      ****             case DEST_TEST:
 346:.\main.c      ****                 if(movement_state != LTURN && movement_state != RTURN && movement_state != UTURN){
 1490              		.loc 1 346 0
 1491 011a 744B     		ldr	r3, .L104+32
 1492 011c 1B78     		ldrb	r3, [r3]	@ zero_extendqisi2
 1493 011e 012B     		cmp	r3, #1
 1494 0120 00F0C782 		beq	.L55
 1495              		.loc 1 346 0 is_stmt 0 discriminator 1
 1496 0124 714B     		ldr	r3, .L104+32
 1497 0126 1B78     		ldrb	r3, [r3]	@ zero_extendqisi2
 1498 0128 022B     		cmp	r3, #2
 1499 012a 00F0C282 		beq	.L55
 1500              		.loc 1 346 0 discriminator 2
 1501 012e 6F4B     		ldr	r3, .L104+32
 1502 0130 1B78     		ldrb	r3, [r3]	@ zero_extendqisi2
 1503 0132 072B     		cmp	r3, #7
 1504 0134 00F0BD82 		beq	.L55
 1505              	.LBB4:
 347:.\main.c      ****                     //when we hit an intersection, verify the next step then evaluate
 348:.\main.c      ****                     char nextStep = instructions[instructionCount];
 1506              		.loc 1 348 0 is_stmt 1
 1507 0138 714B     		ldr	r3, .L104+52
 1508 013a 1B88     		ldrh	r3, [r3]
 1509 013c 1A46     		mov	r2, r3
 1510 013e 714B     		ldr	r3, .L104+56
 1511 0140 9B5C     		ldrb	r3, [r3, r2]
 1512 0142 87F83530 		strb	r3, [r7, #53]
 349:.\main.c      ****                     if(((frontSensors[0] == 1 && frontSensors[2] == 1) || (frontSensors[4] == 1 && 
 1513              		.loc 1 349 0
 1514 0146 674B     		ldr	r3, .L104+24
 1515 0148 1B78     		ldrb	r3, [r3]	@ zero_extendqisi2
 1516 014a 012B     		cmp	r3, #1
 1517 014c 03D1     		bne	.L56
 1518              		.loc 1 349 0 is_stmt 0 discriminator 1
 1519 014e 654B     		ldr	r3, .L104+24
 1520 0150 9B78     		ldrb	r3, [r3, #2]	@ zero_extendqisi2
 1521 0152 012B     		cmp	r3, #1
 1522 0154 09D0     		beq	.L57
 1523              	.L56:
 1524              		.loc 1 349 0 discriminator 3
 1525 0156 634B     		ldr	r3, .L104+24
 1526 0158 1B79     		ldrb	r3, [r3, #4]	@ zero_extendqisi2
 1527 015a 012B     		cmp	r3, #1
 1528 015c 40F01081 		bne	.L58
 1529              		.loc 1 349 0 discriminator 4
 1530 0160 604B     		ldr	r3, .L104+24
 1531 0162 9B78     		ldrb	r3, [r3, #2]	@ zero_extendqisi2
 1532 0164 012B     		cmp	r3, #1
 1533 0166 40F00B81 		bne	.L58
 1534              	.L57:
 350:.\main.c      ****                         if(sensorsDisabled == 0)
 1535              		.loc 1 350 0 is_stmt 1
 1536 016a 674B     		ldr	r3, .L104+60
 1537 016c 1B68     		ldr	r3, [r3]
 1538 016e 002B     		cmp	r3, #0
ARM GAS  C:\Users\Logan\AppData\Local\Temp\ccyYPcsP.s 			page 35


 1539 0170 40F00581 		bne	.L59
 351:.\main.c      ****                         {
 352:.\main.c      ****                             actionDebounce++;
 1540              		.loc 1 352 0
 1541 0174 FB8E     		ldrh	r3, [r7, #54]
 1542 0176 0133     		adds	r3, r3, #1
 1543 0178 FB86     		strh	r3, [r7, #54]	@ movhi
 353:.\main.c      ****                             if(actionDebounce >= 400)
 1544              		.loc 1 353 0
 1545 017a FB8E     		ldrh	r3, [r7, #54]
 1546 017c B3F5C87F 		cmp	r3, #400
 1547 0180 C0F0FD80 		bcc	.L59
 1548              	.LBB5:
 354:.\main.c      ****                             {
 355:.\main.c      ****                                 char mes[16];
 356:.\main.c      ****                                 sprintf(mes, "Dist travel: %d\r\n", accum_dist);
 1549              		.loc 1 356 0
 1550 0184 614B     		ldr	r3, .L104+64
 1551 0186 1B88     		ldrh	r3, [r3]
 1552 0188 1BB2     		sxth	r3, r3
 1553 018a 07F12002 		add	r2, r7, #32
 1554 018e 1046     		mov	r0, r2
 1555 0190 5F49     		ldr	r1, .L104+68
 1556 0192 1A46     		mov	r2, r3
 1557 0194 FFF7FEFF 		bl	sprintf
 357:.\main.c      ****                                  UART_PutString(mes);
 1558              		.loc 1 357 0
 1559 0198 07F12003 		add	r3, r7, #32
 1560 019c 1846     		mov	r0, r3
 1561 019e FFF7FEFF 		bl	UART_PutString
 358:.\main.c      ****                             if(reached_target == 1)
 1562              		.loc 1 358 0
 1563 01a2 5C4B     		ldr	r3, .L104+72
 1564 01a4 1B78     		ldrb	r3, [r3]	@ zero_extendqisi2
 1565 01a6 012B     		cmp	r3, #1
 1566 01a8 40F0E980 		bne	.L59
 1567              	.LBB6:
 359:.\main.c      ****                             {
 360:.\main.c      ****                                 if(nextStep == 'D')
 1568              		.loc 1 360 0
 1569 01ac 97F83530 		ldrb	r3, [r7, #53]	@ zero_extendqisi2
 1570 01b0 442B     		cmp	r3, #68
 1571 01b2 0CD1     		bne	.L61
 361:.\main.c      ****                                 {
 362:.\main.c      ****                                     instructionCount += 2;
 1572              		.loc 1 362 0
 1573 01b4 524B     		ldr	r3, .L104+52
 1574 01b6 1B88     		ldrh	r3, [r3]
 1575 01b8 0233     		adds	r3, r3, #2
 1576 01ba 9AB2     		uxth	r2, r3
 1577 01bc 504B     		ldr	r3, .L104+52
 1578 01be 1A80     		strh	r2, [r3]	@ movhi
 363:.\main.c      ****                                     nextStep = instructions[instructionCount]; 
 1579              		.loc 1 363 0
 1580 01c0 4F4B     		ldr	r3, .L104+52
 1581 01c2 1B88     		ldrh	r3, [r3]
 1582 01c4 1A46     		mov	r2, r3
ARM GAS  C:\Users\Logan\AppData\Local\Temp\ccyYPcsP.s 			page 36


 1583 01c6 4F4B     		ldr	r3, .L104+56
 1584 01c8 9B5C     		ldrb	r3, [r3, r2]
 1585 01ca 87F83530 		strb	r3, [r7, #53]
 1586              	.L61:
 364:.\main.c      ****                                 }
 365:.\main.c      ****                                 
 366:.\main.c      ****                                 sensorsDisabled = 1;
 1587              		.loc 1 366 0
 1588 01ce 4E4B     		ldr	r3, .L104+60
 1589 01d0 0122     		movs	r2, #1
 1590 01d2 1A60     		str	r2, [r3]
 367:.\main.c      ****                                 UART_PutString("Triggered at intersection \r\n");
 1591              		.loc 1 367 0
 1592 01d4 5048     		ldr	r0, .L104+76
 1593 01d6 FFF7FEFF 		bl	UART_PutString
 368:.\main.c      ****                                 UART_PutString("Deadzone entered!\r\n");
 1594              		.loc 1 368 0
 1595 01da 5048     		ldr	r0, .L104+80
 1596 01dc FFF7FEFF 		bl	UART_PutString
 369:.\main.c      ****                                 deadzone = 1;
 1597              		.loc 1 369 0
 1598 01e0 4F4B     		ldr	r3, .L104+84
 1599 01e2 0122     		movs	r2, #1
 1600 01e4 1A70     		strb	r2, [r3]
 370:.\main.c      ****                                 
 371:.\main.c      ****                                 accum_dist = 0;
 1601              		.loc 1 371 0
 1602 01e6 494B     		ldr	r3, .L104+64
 1603 01e8 0022     		movs	r2, #0
 1604 01ea 1A80     		strh	r2, [r3]	@ movhi
 372:.\main.c      ****                                 uint8 nextStepDist;
 373:.\main.c      ****                                 if(instructionCount <= instructionLength - 5) nextStepDist = instru
 1605              		.loc 1 373 0
 1606 01ec 444B     		ldr	r3, .L104+52
 1607 01ee 1B88     		ldrh	r3, [r3]
 1608 01f0 1A46     		mov	r2, r3
 1609 01f2 4C4B     		ldr	r3, .L104+88
 1610 01f4 1B88     		ldrh	r3, [r3]
 1611 01f6 053B     		subs	r3, r3, #5
 1612 01f8 9A42     		cmp	r2, r3
 1613 01fa 07DC     		bgt	.L62
 1614              		.loc 1 373 0 is_stmt 0 discriminator 1
 1615 01fc 404B     		ldr	r3, .L104+52
 1616 01fe 1B88     		ldrh	r3, [r3]
 1617 0200 0333     		adds	r3, r3, #3
 1618 0202 404A     		ldr	r2, .L104+56
 1619 0204 D35C     		ldrb	r3, [r2, r3]
 1620 0206 87F83430 		strb	r3, [r7, #52]
 1621 020a 02E0     		b	.L63
 1622              	.L62:
 374:.\main.c      ****                                 else nextStepDist = 0;
 1623              		.loc 1 374 0 is_stmt 1
 1624 020c 0023     		movs	r3, #0
 1625 020e 87F83430 		strb	r3, [r7, #52]
 1626              	.L63:
 375:.\main.c      ****                                 target_distance_quad = QUAD_PER_UNIT * (nextStepDist-1);
 1627              		.loc 1 375 0
ARM GAS  C:\Users\Logan\AppData\Local\Temp\ccyYPcsP.s 			page 37


 1628 0212 97F83430 		ldrb	r3, [r7, #52]	@ zero_extendqisi2
 1629 0216 013B     		subs	r3, r3, #1
 1630 0218 9BB2     		uxth	r3, r3
 1631 021a 1A46     		mov	r2, r3	@ movhi
 1632 021c D200     		lsls	r2, r2, #3
 1633 021e 1A44     		add	r2, r2, r3
 1634 0220 1201     		lsls	r2, r2, #4
 1635 0222 1344     		add	r3, r3, r2
 1636 0224 9BB2     		uxth	r3, r3
 1637 0226 9AB2     		uxth	r2, r3
 1638 0228 3F4B     		ldr	r3, .L104+92
 1639 022a 1A80     		strh	r2, [r3]	@ movhi
 376:.\main.c      ****                                 
 377:.\main.c      ****                                 
 378:.\main.c      ****                                 
 379:.\main.c      ****                                 switch(nextStep)
 1640              		.loc 1 379 0
 1641 022c 97F83530 		ldrb	r3, [r7, #53]	@ zero_extendqisi2
 1642 0230 4C3B     		subs	r3, r3, #76
 1643 0232 092B     		cmp	r3, #9
 1644 0234 7CD8     		bhi	.L101
 1645 0236 01A2     		adr	r2, .L66
 1646 0238 52F823F0 		ldr	pc, [r2, r3, lsl #2]
 1647              		.p2align 2
 1648              	.L66:
 1649 023c 73020000 		.word	.L65+1
 1650 0240 31030000 		.word	.L101+1
 1651 0244 31030000 		.word	.L101+1
 1652 0248 31030000 		.word	.L101+1
 1653 024c 31030000 		.word	.L101+1
 1654 0250 31030000 		.word	.L101+1
 1655 0254 91020000 		.word	.L67+1
 1656 0258 65020000 		.word	.L68+1
 1657 025c 31030000 		.word	.L101+1
 1658 0260 AF020000 		.word	.L69+1
 1659              		.p2align 1
 1660              	.L68:
 380:.\main.c      ****                                 {
 381:.\main.c      ****                                     case 'S':
 382:.\main.c      ****                                         inittrackLineZ();
 1661              		.loc 1 382 0
 1662 0264 FFF7FEFF 		bl	inittrackLineZ
 383:.\main.c      ****                                          Timer_Deadzone_WriteCounter(S_DEADZONE);
 1663              		.loc 1 383 0
 1664 0268 42F21070 		movw	r0, #10000
 1665 026c FFF7FEFF 		bl	Timer_Deadzone_WriteCounter
 384:.\main.c      ****                                         //do nothing
 385:.\main.c      ****                                     break;
 1666              		.loc 1 385 0
 1667 0270 5FE0     		b	.L70
 1668              	.L65:
 386:.\main.c      ****                                     case 'L':
 387:.\main.c      ****                                         //if(tracked_direction == 1) tracked_direction = 4; else tr
 388:.\main.c      ****                                         initTurnLeft();
 1669              		.loc 1 388 0
 1670 0272 FFF7FEFF 		bl	initTurnLeft
 389:.\main.c      ****                                         Timer_Deadzone_WriteCounter(TURN_DEADZONE);
ARM GAS  C:\Users\Logan\AppData\Local\Temp\ccyYPcsP.s 			page 38


 1671              		.loc 1 389 0
 1672 0276 4CF25030 		movw	r0, #50000
 1673 027a FFF7FEFF 		bl	Timer_Deadzone_WriteCounter
 390:.\main.c      ****                                         target_distance_quad -= TURN_OFFSET;
 1674              		.loc 1 390 0
 1675 027e 2A4B     		ldr	r3, .L104+92
 1676 0280 1B88     		ldrh	r3, [r3]
 1677 0282 9BB2     		uxth	r3, r3
 1678 0284 323B     		subs	r3, r3, #50
 1679 0286 9BB2     		uxth	r3, r3
 1680 0288 9AB2     		uxth	r2, r3
 1681 028a 274B     		ldr	r3, .L104+92
 1682 028c 1A80     		strh	r2, [r3]	@ movhi
 391:.\main.c      ****                                     break;
 1683              		.loc 1 391 0
 1684 028e 50E0     		b	.L70
 1685              	.L67:
 392:.\main.c      ****                                     case 'R':
 393:.\main.c      ****                                         //if(tracked_direction == 4) tracked_direction = 1; else tr
 394:.\main.c      ****                                         initTurnRight();
 1686              		.loc 1 394 0
 1687 0290 FFF7FEFF 		bl	initTurnRight
 395:.\main.c      ****                                         target_distance_quad += (208 - TURN_OFFSET);
 1688              		.loc 1 395 0
 1689 0294 244B     		ldr	r3, .L104+92
 1690 0296 1B88     		ldrh	r3, [r3]
 1691 0298 9BB2     		uxth	r3, r3
 1692 029a 9E33     		adds	r3, r3, #158
 1693 029c 9BB2     		uxth	r3, r3
 1694 029e 9AB2     		uxth	r2, r3
 1695 02a0 214B     		ldr	r3, .L104+92
 1696 02a2 1A80     		strh	r2, [r3]	@ movhi
 396:.\main.c      ****                                         Timer_Deadzone_WriteCounter(TURN_DEADZONE);
 1697              		.loc 1 396 0
 1698 02a4 4CF25030 		movw	r0, #50000
 1699 02a8 FFF7FEFF 		bl	Timer_Deadzone_WriteCounter
 397:.\main.c      ****                                     break;
 1700              		.loc 1 397 0
 1701 02ac 41E0     		b	.L70
 1702              	.L69:
 398:.\main.c      ****                                     case 'U':
 399:.\main.c      ****                                         // Direction not tracked any more
 400:.\main.c      ****                                         initTurnU();
 1703              		.loc 1 400 0
 1704 02ae FFF7FEFF 		bl	initTurnU
 401:.\main.c      ****                                         Timer_Deadzone_WriteCounter(U_DEADZONE);
 1705              		.loc 1 401 0
 1706 02b2 1E48     		ldr	r0, .L104+96
 1707 02b4 FFF7FEFF 		bl	Timer_Deadzone_WriteCounter
 402:.\main.c      ****                                         target_distance_quad += 208;
 1708              		.loc 1 402 0
 1709 02b8 1B4B     		ldr	r3, .L104+92
 1710 02ba 1B88     		ldrh	r3, [r3]
 1711 02bc 9BB2     		uxth	r3, r3
 1712 02be D033     		adds	r3, r3, #208
 1713 02c0 9BB2     		uxth	r3, r3
 1714 02c2 9AB2     		uxth	r2, r3
ARM GAS  C:\Users\Logan\AppData\Local\Temp\ccyYPcsP.s 			page 39


 1715 02c4 184B     		ldr	r3, .L104+92
 1716 02c6 1A80     		strh	r2, [r3]	@ movhi
 403:.\main.c      ****                                     break;
 1717              		.loc 1 403 0
 1718 02c8 33E0     		b	.L70
 1719              	.L105:
 1720 02ca 00BF     		.align	2
 1721              	.L104:
 1722 02cc 00000000 		.word	isr_quad1
 1723 02d0 00000000 		.word	isr_turn_timer
 1724 02d4 00000000 		.word	button
 1725 02d8 00000000 		.word	isr_deadzone
 1726 02dc 00000000 		.word	BIN_ENABLED
 1727 02e0 00000000 		.word	BT_ENABLED
 1728 02e4 00000000 		.word	frontSensors
 1729 02e8 00000000 		.word	track_mode
 1730 02ec 00000000 		.word	movement_state
 1731 02f0 00000000 		.word	initial_pos_valid
 1732 02f4 00000000 		.word	system_state
 1733 02f8 00000000 		.word	initial_x_pos
 1734 02fc 00000000 		.word	initial_y_pos
 1735 0300 00000000 		.word	instructionCount
 1736 0304 00000000 		.word	instructions
 1737 0308 00000000 		.word	sensorsDisabled
 1738 030c 00000000 		.word	accum_dist
 1739 0310 24000000 		.word	.LC2
 1740 0314 00000000 		.word	reached_target
 1741 0318 38000000 		.word	.LC3
 1742 031c 58000000 		.word	.LC4
 1743 0320 00000000 		.word	deadzone
 1744 0324 00000000 		.word	instructionLength
 1745 0328 00000000 		.word	target_distance_quad
 1746 032c 905F0100 		.word	90000
 1747              	.L101:
 404:.\main.c      ****                                     
 405:.\main.c      ****                                     default:
 406:.\main.c      ****                                         //do nothing
 407:.\main.c      ****                                         break;
 1748              		.loc 1 407 0
 1749 0330 00BF     		nop
 1750              	.L70:
 408:.\main.c      ****                                 }
 409:.\main.c      ****                                 sprintf(mes, "Target dist: %d\r\n", target_distance_quad);
 1751              		.loc 1 409 0
 1752 0332 B14B     		ldr	r3, .L106
 1753 0334 1B88     		ldrh	r3, [r3]
 1754 0336 1BB2     		sxth	r3, r3
 1755 0338 07F12002 		add	r2, r7, #32
 1756 033c 1046     		mov	r0, r2
 1757 033e AF49     		ldr	r1, .L106+4
 1758 0340 1A46     		mov	r2, r3
 1759 0342 FFF7FEFF 		bl	sprintf
 410:.\main.c      ****                                  UART_PutString(mes);
 1760              		.loc 1 410 0
 1761 0346 07F12003 		add	r3, r7, #32
 1762 034a 1846     		mov	r0, r3
 1763 034c FFF7FEFF 		bl	UART_PutString
ARM GAS  C:\Users\Logan\AppData\Local\Temp\ccyYPcsP.s 			page 40


 411:.\main.c      ****                                 if(target_distance_quad < 0) target_distance_quad = 0;
 1764              		.loc 1 411 0
 1765 0350 A94B     		ldr	r3, .L106
 1766 0352 1B88     		ldrh	r3, [r3]
 1767 0354 1BB2     		sxth	r3, r3
 1768 0356 002B     		cmp	r3, #0
 1769 0358 02DA     		bge	.L71
 1770              		.loc 1 411 0 is_stmt 0 discriminator 1
 1771 035a A74B     		ldr	r3, .L106
 1772 035c 0022     		movs	r2, #0
 1773 035e 1A80     		strh	r2, [r3]	@ movhi
 1774              	.L71:
 412:.\main.c      ****                                 Timer_Deadzone_Start();
 1775              		.loc 1 412 0 is_stmt 1
 1776 0360 FFF7FEFF 		bl	Timer_Deadzone_Start
 413:.\main.c      ****                                 reached_target = 0;
 1777              		.loc 1 413 0
 1778 0364 A64B     		ldr	r3, .L106+8
 1779 0366 0022     		movs	r2, #0
 1780 0368 1A70     		strb	r2, [r3]
 414:.\main.c      ****                                 overshot_target = 0;
 1781              		.loc 1 414 0
 1782 036a A64B     		ldr	r3, .L106+12
 1783 036c 0022     		movs	r2, #0
 1784 036e 1A70     		strb	r2, [r3]
 415:.\main.c      ****                                 instructionCount += 2;
 1785              		.loc 1 415 0
 1786 0370 A54B     		ldr	r3, .L106+16
 1787 0372 1B88     		ldrh	r3, [r3]
 1788 0374 0233     		adds	r3, r3, #2
 1789 0376 9AB2     		uxth	r2, r3
 1790 0378 A34B     		ldr	r3, .L106+16
 1791 037a 1A80     		strh	r2, [r3]	@ movhi
 1792              	.LBE6:
 1793              	.LBE5:
 350:.\main.c      ****                         {
 1794              		.loc 1 350 0
 1795 037c 99E1     		b	.L55
 1796              	.L59:
 350:.\main.c      ****                         {
 1797              		.loc 1 350 0 is_stmt 0 discriminator 1
 1798 037e 98E1     		b	.L55
 1799              	.L58:
 416:.\main.c      ****                             }
 417:.\main.c      ****                             }
 418:.\main.c      ****                         }
 419:.\main.c      ****                     }
 420:.\main.c      ****                     else if (frontSensors[0] == 0 && frontSensors[1] == 0 && frontSensors[2] == 0 &
 1800              		.loc 1 420 0 is_stmt 1
 1801 0380 A24B     		ldr	r3, .L106+20
 1802 0382 1B78     		ldrb	r3, [r3]	@ zero_extendqisi2
 1803 0384 002B     		cmp	r3, #0
 1804 0386 40F0B380 		bne	.L72
 1805              		.loc 1 420 0 is_stmt 0 discriminator 1
 1806 038a A04B     		ldr	r3, .L106+20
 1807 038c 5B78     		ldrb	r3, [r3, #1]	@ zero_extendqisi2
 1808 038e 002B     		cmp	r3, #0
ARM GAS  C:\Users\Logan\AppData\Local\Temp\ccyYPcsP.s 			page 41


 1809 0390 40F0AE80 		bne	.L72
 1810              		.loc 1 420 0 discriminator 2
 1811 0394 9D4B     		ldr	r3, .L106+20
 1812 0396 9B78     		ldrb	r3, [r3, #2]	@ zero_extendqisi2
 1813 0398 002B     		cmp	r3, #0
 1814 039a 40F0A980 		bne	.L72
 1815              		.loc 1 420 0 discriminator 3
 1816 039e 9B4B     		ldr	r3, .L106+20
 1817 03a0 DB78     		ldrb	r3, [r3, #3]	@ zero_extendqisi2
 1818 03a2 002B     		cmp	r3, #0
 1819 03a4 40F0A480 		bne	.L72
 1820              		.loc 1 420 0 discriminator 4
 1821 03a8 984B     		ldr	r3, .L106+20
 1822 03aa 1B79     		ldrb	r3, [r3, #4]	@ zero_extendqisi2
 1823 03ac 002B     		cmp	r3, #0
 1824 03ae 40F09F80 		bne	.L72
 1825              		.loc 1 420 0 discriminator 5
 1826 03b2 97F83530 		ldrb	r3, [r7, #53]	@ zero_extendqisi2
 1827 03b6 552B     		cmp	r3, #85
 1828 03b8 04D0     		beq	.L73
 1829              		.loc 1 420 0 discriminator 6
 1830 03ba 97F83530 		ldrb	r3, [r7, #53]	@ zero_extendqisi2
 1831 03be 442B     		cmp	r3, #68
 1832 03c0 40F09680 		bne	.L72
 1833              	.L73:
 421:.\main.c      ****                     {
 422:.\main.c      ****                         if(sensorsDisabled == 0)
 1834              		.loc 1 422 0 is_stmt 1
 1835 03c4 924B     		ldr	r3, .L106+24
 1836 03c6 1B68     		ldr	r3, [r3]
 1837 03c8 002B     		cmp	r3, #0
 1838 03ca 40F09080 		bne	.L74
 423:.\main.c      ****                         {
 424:.\main.c      ****                                 if(nextStep == 'D')
 1839              		.loc 1 424 0
 1840 03ce 97F83530 		ldrb	r3, [r7, #53]	@ zero_extendqisi2
 1841 03d2 442B     		cmp	r3, #68
 1842 03d4 17D1     		bne	.L75
 1843              	.LBB7:
 425:.\main.c      ****                                 {
 426:.\main.c      ****                                     char nextInstruction = instructions[instructionCount+2];
 1844              		.loc 1 426 0
 1845 03d6 8C4B     		ldr	r3, .L106+16
 1846 03d8 1B88     		ldrh	r3, [r3]
 1847 03da 0233     		adds	r3, r3, #2
 1848 03dc 8D4A     		ldr	r2, .L106+28
 1849 03de D35C     		ldrb	r3, [r2, r3]
 1850 03e0 87F83130 		strb	r3, [r7, #49]
 427:.\main.c      ****                                     if(nextInstruction == 'U')
 1851              		.loc 1 427 0
 1852 03e4 97F83130 		ldrb	r3, [r7, #49]	@ zero_extendqisi2
 1853 03e8 552B     		cmp	r3, #85
 1854 03ea 0CD1     		bne	.L75
 428:.\main.c      ****                                     {
 429:.\main.c      ****                                         instructionCount += 2;
 1855              		.loc 1 429 0
 1856 03ec 864B     		ldr	r3, .L106+16
ARM GAS  C:\Users\Logan\AppData\Local\Temp\ccyYPcsP.s 			page 42


 1857 03ee 1B88     		ldrh	r3, [r3]
 1858 03f0 0233     		adds	r3, r3, #2
 1859 03f2 9AB2     		uxth	r2, r3
 1860 03f4 844B     		ldr	r3, .L106+16
 1861 03f6 1A80     		strh	r2, [r3]	@ movhi
 430:.\main.c      ****                                         nextStep = instructions[instructionCount];
 1862              		.loc 1 430 0
 1863 03f8 834B     		ldr	r3, .L106+16
 1864 03fa 1B88     		ldrh	r3, [r3]
 1865 03fc 1A46     		mov	r2, r3
 1866 03fe 854B     		ldr	r3, .L106+28
 1867 0400 9B5C     		ldrb	r3, [r3, r2]
 1868 0402 87F83530 		strb	r3, [r7, #53]
 1869              	.L75:
 1870              	.LBE7:
 431:.\main.c      ****                                     }
 432:.\main.c      ****                                 }
 433:.\main.c      ****                                 
 434:.\main.c      ****                                 if(nextStep == 'U')
 1871              		.loc 1 434 0
 1872 0406 97F83530 		ldrb	r3, [r7, #53]	@ zero_extendqisi2
 1873 040a 552B     		cmp	r3, #85
 1874 040c 6FD1     		bne	.L74
 435:.\main.c      ****                                 {
 436:.\main.c      ****                                     actionDebounce++;
 1875              		.loc 1 436 0
 1876 040e FB8E     		ldrh	r3, [r7, #54]
 1877 0410 0133     		adds	r3, r3, #1
 1878 0412 FB86     		strh	r3, [r7, #54]	@ movhi
 437:.\main.c      ****                                     if(actionDebounce >= 2600)
 1879              		.loc 1 437 0
 1880 0414 FB8E     		ldrh	r3, [r7, #54]
 1881 0416 40F62722 		movw	r2, #2599
 1882 041a 9342     		cmp	r3, r2
 1883 041c 67D9     		bls	.L74
 438:.\main.c      ****                                     {
 439:.\main.c      ****                                         if(reached_target == 1)
 1884              		.loc 1 439 0
 1885 041e 784B     		ldr	r3, .L106+8
 1886 0420 1B78     		ldrb	r3, [r3]	@ zero_extendqisi2
 1887 0422 012B     		cmp	r3, #1
 1888 0424 63D1     		bne	.L74
 1889              	.LBB8:
 440:.\main.c      ****                                         {
 441:.\main.c      ****                                     char mes[16];
 442:.\main.c      ****                                     sprintf(mes, "Dist travel: %d\r\n", accum_dist);
 1890              		.loc 1 442 0
 1891 0426 7C4B     		ldr	r3, .L106+32
 1892 0428 1B88     		ldrh	r3, [r3]
 1893 042a 1BB2     		sxth	r3, r3
 1894 042c 07F11002 		add	r2, r7, #16
 1895 0430 1046     		mov	r0, r2
 1896 0432 7A49     		ldr	r1, .L106+36
 1897 0434 1A46     		mov	r2, r3
 1898 0436 FFF7FEFF 		bl	sprintf
 443:.\main.c      ****                                      UART_PutString(mes);
 1899              		.loc 1 443 0
ARM GAS  C:\Users\Logan\AppData\Local\Temp\ccyYPcsP.s 			page 43


 1900 043a 07F11003 		add	r3, r7, #16
 1901 043e 1846     		mov	r0, r3
 1902 0440 FFF7FEFF 		bl	UART_PutString
 444:.\main.c      ****                                          accum_dist = 0;
 1903              		.loc 1 444 0
 1904 0444 744B     		ldr	r3, .L106+32
 1905 0446 0022     		movs	r2, #0
 1906 0448 1A80     		strh	r2, [r3]	@ movhi
 445:.\main.c      ****                                     uint8 nextStepDist;
 446:.\main.c      ****                                     if(instructionCount <= instructionLength - 5) nextStepDist = in
 1907              		.loc 1 446 0
 1908 044a 6F4B     		ldr	r3, .L106+16
 1909 044c 1B88     		ldrh	r3, [r3]
 1910 044e 1A46     		mov	r2, r3
 1911 0450 734B     		ldr	r3, .L106+40
 1912 0452 1B88     		ldrh	r3, [r3]
 1913 0454 053B     		subs	r3, r3, #5
 1914 0456 9A42     		cmp	r2, r3
 1915 0458 07DC     		bgt	.L76
 1916              		.loc 1 446 0 is_stmt 0 discriminator 1
 1917 045a 6B4B     		ldr	r3, .L106+16
 1918 045c 1B88     		ldrh	r3, [r3]
 1919 045e 0333     		adds	r3, r3, #3
 1920 0460 6C4A     		ldr	r2, .L106+28
 1921 0462 D35C     		ldrb	r3, [r2, r3]
 1922 0464 87F83330 		strb	r3, [r7, #51]
 1923 0468 02E0     		b	.L77
 1924              	.L76:
 447:.\main.c      ****                                     else nextStepDist = 0;
 1925              		.loc 1 447 0 is_stmt 1
 1926 046a 0023     		movs	r3, #0
 1927 046c 87F83330 		strb	r3, [r7, #51]
 1928              	.L77:
 448:.\main.c      ****                                     
 449:.\main.c      ****                                     target_distance_quad = QUAD_PER_UNIT * (nextStepDist-1);
 1929              		.loc 1 449 0
 1930 0470 97F83330 		ldrb	r3, [r7, #51]	@ zero_extendqisi2
 1931 0474 013B     		subs	r3, r3, #1
 1932 0476 9BB2     		uxth	r3, r3
 1933 0478 1A46     		mov	r2, r3	@ movhi
 1934 047a D200     		lsls	r2, r2, #3
 1935 047c 1A44     		add	r2, r2, r3
 1936 047e 1201     		lsls	r2, r2, #4
 1937 0480 1344     		add	r3, r3, r2
 1938 0482 9BB2     		uxth	r3, r3
 1939 0484 9AB2     		uxth	r2, r3
 1940 0486 5C4B     		ldr	r3, .L106
 1941 0488 1A80     		strh	r2, [r3]	@ movhi
 450:.\main.c      ****                                     target_distance_quad += 208;
 1942              		.loc 1 450 0
 1943 048a 5B4B     		ldr	r3, .L106
 1944 048c 1B88     		ldrh	r3, [r3]
 1945 048e 9BB2     		uxth	r3, r3
 1946 0490 D033     		adds	r3, r3, #208
 1947 0492 9BB2     		uxth	r3, r3
 1948 0494 9AB2     		uxth	r2, r3
 1949 0496 584B     		ldr	r3, .L106
ARM GAS  C:\Users\Logan\AppData\Local\Temp\ccyYPcsP.s 			page 44


 1950 0498 1A80     		strh	r2, [r3]	@ movhi
 451:.\main.c      ****                                     
 452:.\main.c      ****                                         UART_PutString("Triggered at white light \r\n");
 1951              		.loc 1 452 0
 1952 049a 6248     		ldr	r0, .L106+44
 1953 049c FFF7FEFF 		bl	UART_PutString
 453:.\main.c      ****                                         UART_PutString("Deadzone entered!\r\n");
 1954              		.loc 1 453 0
 1955 04a0 6148     		ldr	r0, .L106+48
 1956 04a2 FFF7FEFF 		bl	UART_PutString
 454:.\main.c      ****                                         deadzone = 1;
 1957              		.loc 1 454 0
 1958 04a6 614B     		ldr	r3, .L106+52
 1959 04a8 0122     		movs	r2, #1
 1960 04aa 1A70     		strb	r2, [r3]
 455:.\main.c      ****                                         Timer_Deadzone_WriteCounter(U_DEADZONE);
 1961              		.loc 1 455 0
 1962 04ac 6048     		ldr	r0, .L106+56
 1963 04ae FFF7FEFF 		bl	Timer_Deadzone_WriteCounter
 456:.\main.c      ****                                         if(target_distance_quad < 0) target_distance_quad = 0;
 1964              		.loc 1 456 0
 1965 04b2 514B     		ldr	r3, .L106
 1966 04b4 1B88     		ldrh	r3, [r3]
 1967 04b6 1BB2     		sxth	r3, r3
 1968 04b8 002B     		cmp	r3, #0
 1969 04ba 02DA     		bge	.L78
 1970              		.loc 1 456 0 is_stmt 0 discriminator 1
 1971 04bc 4E4B     		ldr	r3, .L106
 1972 04be 0022     		movs	r2, #0
 1973 04c0 1A80     		strh	r2, [r3]	@ movhi
 1974              	.L78:
 457:.\main.c      ****                                         Timer_Deadzone_Start();
 1975              		.loc 1 457 0 is_stmt 1
 1976 04c2 FFF7FEFF 		bl	Timer_Deadzone_Start
 458:.\main.c      ****                                         actionDebounce = 0;
 1977              		.loc 1 458 0
 1978 04c6 0023     		movs	r3, #0
 1979 04c8 FB86     		strh	r3, [r7, #54]	@ movhi
 459:.\main.c      ****                                         sensorsDisabled = 1;
 1980              		.loc 1 459 0
 1981 04ca 514B     		ldr	r3, .L106+24
 1982 04cc 0122     		movs	r2, #1
 1983 04ce 1A60     		str	r2, [r3]
 460:.\main.c      ****                                         initTurnU();
 1984              		.loc 1 460 0
 1985 04d0 FFF7FEFF 		bl	initTurnU
 461:.\main.c      ****                                         reached_target = 0;
 1986              		.loc 1 461 0
 1987 04d4 4A4B     		ldr	r3, .L106+8
 1988 04d6 0022     		movs	r2, #0
 1989 04d8 1A70     		strb	r2, [r3]
 462:.\main.c      ****                                         overshot_target = 0;
 1990              		.loc 1 462 0
 1991 04da 4A4B     		ldr	r3, .L106+12
 1992 04dc 0022     		movs	r2, #0
 1993 04de 1A70     		strb	r2, [r3]
 463:.\main.c      ****                                         instructionCount += 2;
ARM GAS  C:\Users\Logan\AppData\Local\Temp\ccyYPcsP.s 			page 45


 1994              		.loc 1 463 0
 1995 04e0 494B     		ldr	r3, .L106+16
 1996 04e2 1B88     		ldrh	r3, [r3]
 1997 04e4 0233     		adds	r3, r3, #2
 1998 04e6 9AB2     		uxth	r2, r3
 1999 04e8 474B     		ldr	r3, .L106+16
 2000 04ea 1A80     		strh	r2, [r3]	@ movhi
 2001              	.LBE8:
 422:.\main.c      ****                         {
 2002              		.loc 1 422 0
 2003 04ec E1E0     		b	.L55
 2004              	.L74:
 422:.\main.c      ****                         {
 2005              		.loc 1 422 0 is_stmt 0 discriminator 3
 2006 04ee E0E0     		b	.L55
 2007              	.L72:
 464:.\main.c      ****                                 }
 465:.\main.c      ****                                 }
 466:.\main.c      ****                             }
 467:.\main.c      ****                         }
 468:.\main.c      ****                     }
 469:.\main.c      ****                     else if (overshot_target == 1 && nextStep == 'D')
 2008              		.loc 1 469 0 is_stmt 1
 2009 04f0 444B     		ldr	r3, .L106+12
 2010 04f2 1B78     		ldrb	r3, [r3]	@ zero_extendqisi2
 2011 04f4 012B     		cmp	r3, #1
 2012 04f6 40F0D780 		bne	.L79
 2013              		.loc 1 469 0 is_stmt 0 discriminator 1
 2014 04fa 97F83530 		ldrb	r3, [r7, #53]	@ zero_extendqisi2
 2015 04fe 442B     		cmp	r3, #68
 2016 0500 40F0D280 		bne	.L79
 2017              	.LBB9:
 470:.\main.c      ****                     {
 471:.\main.c      ****                         
 472:.\main.c      ****                                 instructionCount += 2;
 2018              		.loc 1 472 0 is_stmt 1
 2019 0504 404B     		ldr	r3, .L106+16
 2020 0506 1B88     		ldrh	r3, [r3]
 2021 0508 0233     		adds	r3, r3, #2
 2022 050a 9AB2     		uxth	r2, r3
 2023 050c 3E4B     		ldr	r3, .L106+16
 2024 050e 1A80     		strh	r2, [r3]	@ movhi
 473:.\main.c      ****                                 nextStep = instructions[instructionCount]; 
 2025              		.loc 1 473 0
 2026 0510 3D4B     		ldr	r3, .L106+16
 2027 0512 1B88     		ldrh	r3, [r3]
 2028 0514 1A46     		mov	r2, r3
 2029 0516 3F4B     		ldr	r3, .L106+28
 2030 0518 9B5C     		ldrb	r3, [r3, r2]
 2031 051a 87F83530 		strb	r3, [r7, #53]
 474:.\main.c      ****                                 char mes[16];
 475:.\main.c      ****                                 sprintf(mes, "Dist travel: %d\r\n", accum_dist);
 2032              		.loc 1 475 0
 2033 051e 3E4B     		ldr	r3, .L106+32
 2034 0520 1B88     		ldrh	r3, [r3]
 2035 0522 1BB2     		sxth	r3, r3
 2036 0524 3A46     		mov	r2, r7
ARM GAS  C:\Users\Logan\AppData\Local\Temp\ccyYPcsP.s 			page 46


 2037 0526 1046     		mov	r0, r2
 2038 0528 3C49     		ldr	r1, .L106+36
 2039 052a 1A46     		mov	r2, r3
 2040 052c FFF7FEFF 		bl	sprintf
 476:.\main.c      ****                                  UART_PutString(mes);
 2041              		.loc 1 476 0
 2042 0530 3B46     		mov	r3, r7
 2043 0532 1846     		mov	r0, r3
 2044 0534 FFF7FEFF 		bl	UART_PutString
 477:.\main.c      ****                                  accum_dist = 0;
 2045              		.loc 1 477 0
 2046 0538 374B     		ldr	r3, .L106+32
 2047 053a 0022     		movs	r2, #0
 2048 053c 1A80     		strh	r2, [r3]	@ movhi
 478:.\main.c      ****                                 uint8 nextStepDist;
 479:.\main.c      ****                                 if(instructionCount <= instructionLength - 5) nextStepDist = instru
 2049              		.loc 1 479 0
 2050 053e 324B     		ldr	r3, .L106+16
 2051 0540 1B88     		ldrh	r3, [r3]
 2052 0542 1A46     		mov	r2, r3
 2053 0544 364B     		ldr	r3, .L106+40
 2054 0546 1B88     		ldrh	r3, [r3]
 2055 0548 053B     		subs	r3, r3, #5
 2056 054a 9A42     		cmp	r2, r3
 2057 054c 07DC     		bgt	.L80
 2058              		.loc 1 479 0 is_stmt 0 discriminator 1
 2059 054e 2E4B     		ldr	r3, .L106+16
 2060 0550 1B88     		ldrh	r3, [r3]
 2061 0552 0333     		adds	r3, r3, #3
 2062 0554 2F4A     		ldr	r2, .L106+28
 2063 0556 D35C     		ldrb	r3, [r2, r3]
 2064 0558 87F83230 		strb	r3, [r7, #50]
 2065 055c 02E0     		b	.L81
 2066              	.L80:
 480:.\main.c      ****                                 else nextStepDist = 0;
 2067              		.loc 1 480 0 is_stmt 1
 2068 055e 0023     		movs	r3, #0
 2069 0560 87F83230 		strb	r3, [r7, #50]
 2070              	.L81:
 481:.\main.c      ****                                 
 482:.\main.c      ****                                 target_distance_quad = QUAD_PER_UNIT * (nextStepDist-1);
 2071              		.loc 1 482 0
 2072 0564 97F83230 		ldrb	r3, [r7, #50]	@ zero_extendqisi2
 2073 0568 013B     		subs	r3, r3, #1
 2074 056a 9BB2     		uxth	r3, r3
 2075 056c 1A46     		mov	r2, r3	@ movhi
 2076 056e D200     		lsls	r2, r2, #3
 2077 0570 1A44     		add	r2, r2, r3
 2078 0572 1201     		lsls	r2, r2, #4
 2079 0574 1344     		add	r3, r3, r2
 2080 0576 9BB2     		uxth	r3, r3
 2081 0578 9AB2     		uxth	r2, r3
 2082 057a 1F4B     		ldr	r3, .L106
 2083 057c 1A80     		strh	r2, [r3]	@ movhi
 483:.\main.c      ****                                 
 484:.\main.c      ****                                     UART_PutString("Triggered at quad count \r\n");
 2084              		.loc 1 484 0
ARM GAS  C:\Users\Logan\AppData\Local\Temp\ccyYPcsP.s 			page 47


 2085 057e 2D48     		ldr	r0, .L106+60
 2086 0580 FFF7FEFF 		bl	UART_PutString
 485:.\main.c      ****                                     UART_PutString("Deadzone entered!\r\n");
 2087              		.loc 1 485 0
 2088 0584 2848     		ldr	r0, .L106+48
 2089 0586 FFF7FEFF 		bl	UART_PutString
 486:.\main.c      ****                                     
 487:.\main.c      ****                                     
 488:.\main.c      ****                                     actionDebounce = 0;
 2090              		.loc 1 488 0
 2091 058a 0023     		movs	r3, #0
 2092 058c FB86     		strh	r3, [r7, #54]	@ movhi
 489:.\main.c      ****                                     sensorsDisabled = 1;
 2093              		.loc 1 489 0
 2094 058e 204B     		ldr	r3, .L106+24
 2095 0590 0122     		movs	r2, #1
 2096 0592 1A60     		str	r2, [r3]
 490:.\main.c      ****                                     
 491:.\main.c      ****                                      switch(nextStep)
 2097              		.loc 1 491 0
 2098 0594 97F83530 		ldrb	r3, [r7, #53]	@ zero_extendqisi2
 2099 0598 4C3B     		subs	r3, r3, #76
 2100 059a 092B     		cmp	r3, #9
 2101 059c 69D8     		bhi	.L102
 2102 059e 01A2     		adr	r2, .L84
 2103 05a0 52F823F0 		ldr	pc, [r2, r3, lsl #2]
 2104              		.p2align 2
 2105              	.L84:
 2106 05a4 DB050000 		.word	.L83+1
 2107 05a8 73060000 		.word	.L102+1
 2108 05ac 73060000 		.word	.L102+1
 2109 05b0 73060000 		.word	.L102+1
 2110 05b4 73060000 		.word	.L102+1
 2111 05b8 73060000 		.word	.L102+1
 2112 05bc 39060000 		.word	.L85+1
 2113 05c0 CD050000 		.word	.L86+1
 2114 05c4 73060000 		.word	.L102+1
 2115 05c8 57060000 		.word	.L87+1
 2116              		.p2align 1
 2117              	.L86:
 492:.\main.c      ****                                 {
 493:.\main.c      ****                                     case 'S':
 494:.\main.c      ****                                         inittrackLineZ();
 2118              		.loc 1 494 0
 2119 05cc FFF7FEFF 		bl	inittrackLineZ
 495:.\main.c      ****                                          Timer_Deadzone_WriteCounter(S_DEADZONE);
 2120              		.loc 1 495 0
 2121 05d0 42F21070 		movw	r0, #10000
 2122 05d4 FFF7FEFF 		bl	Timer_Deadzone_WriteCounter
 496:.\main.c      ****                                         //do nothing
 497:.\main.c      ****                                     break;
 2123              		.loc 1 497 0
 2124 05d8 4CE0     		b	.L88
 2125              	.L83:
 498:.\main.c      ****                                     case 'L':
 499:.\main.c      ****                                         //if(tracked_direction == 1) tracked_direction = 4; else tr
 500:.\main.c      ****                                         initTurnLeft();
ARM GAS  C:\Users\Logan\AppData\Local\Temp\ccyYPcsP.s 			page 48


 2126              		.loc 1 500 0
 2127 05da FFF7FEFF 		bl	initTurnLeft
 501:.\main.c      ****                                         Timer_Deadzone_WriteCounter(TURN_DEADZONE);
 2128              		.loc 1 501 0
 2129 05de 4CF25030 		movw	r0, #50000
 2130 05e2 FFF7FEFF 		bl	Timer_Deadzone_WriteCounter
 502:.\main.c      ****                                         target_distance_quad -= TURN_OFFSET;
 2131              		.loc 1 502 0
 2132 05e6 044B     		ldr	r3, .L106
 2133 05e8 1B88     		ldrh	r3, [r3]
 2134 05ea 9BB2     		uxth	r3, r3
 2135 05ec 323B     		subs	r3, r3, #50
 2136 05ee 9BB2     		uxth	r3, r3
 2137 05f0 9AB2     		uxth	r2, r3
 2138 05f2 014B     		ldr	r3, .L106
 2139 05f4 1A80     		strh	r2, [r3]	@ movhi
 503:.\main.c      ****                                     break;
 2140              		.loc 1 503 0
 2141 05f6 3DE0     		b	.L88
 2142              	.L107:
 2143              		.align	2
 2144              	.L106:
 2145 05f8 00000000 		.word	target_distance_quad
 2146 05fc 6C000000 		.word	.LC5
 2147 0600 00000000 		.word	reached_target
 2148 0604 00000000 		.word	overshot_target
 2149 0608 00000000 		.word	instructionCount
 2150 060c 00000000 		.word	frontSensors
 2151 0610 00000000 		.word	sensorsDisabled
 2152 0614 00000000 		.word	instructions
 2153 0618 00000000 		.word	accum_dist
 2154 061c 24000000 		.word	.LC2
 2155 0620 00000000 		.word	instructionLength
 2156 0624 80000000 		.word	.LC6
 2157 0628 58000000 		.word	.LC4
 2158 062c 00000000 		.word	deadzone
 2159 0630 905F0100 		.word	90000
 2160 0634 9C000000 		.word	.LC7
 2161              	.L85:
 504:.\main.c      ****                                     case 'R':
 505:.\main.c      ****                                         //if(tracked_direction == 4) tracked_direction = 1; else tr
 506:.\main.c      ****                                         initTurnRight();
 2162              		.loc 1 506 0
 2163 0638 FFF7FEFF 		bl	initTurnRight
 507:.\main.c      ****                                         Timer_Deadzone_WriteCounter(TURN_DEADZONE);
 2164              		.loc 1 507 0
 2165 063c 4CF25030 		movw	r0, #50000
 2166 0640 FFF7FEFF 		bl	Timer_Deadzone_WriteCounter
 508:.\main.c      ****                                         target_distance_quad += (208 - TURN_OFFSET);
 2167              		.loc 1 508 0
 2168 0644 334B     		ldr	r3, .L108
 2169 0646 1B88     		ldrh	r3, [r3]
 2170 0648 9BB2     		uxth	r3, r3
 2171 064a 9E33     		adds	r3, r3, #158
 2172 064c 9BB2     		uxth	r3, r3
 2173 064e 9AB2     		uxth	r2, r3
 2174 0650 304B     		ldr	r3, .L108
ARM GAS  C:\Users\Logan\AppData\Local\Temp\ccyYPcsP.s 			page 49


 2175 0652 1A80     		strh	r2, [r3]	@ movhi
 509:.\main.c      ****                                         
 510:.\main.c      ****                                     break;
 2176              		.loc 1 510 0
 2177 0654 0EE0     		b	.L88
 2178              	.L87:
 511:.\main.c      ****                                     case 'U':
 512:.\main.c      ****                                         // Direction not tracked any more
 513:.\main.c      ****                                         Timer_Deadzone_WriteCounter(U_DEADZONE);
 2179              		.loc 1 513 0
 2180 0656 3048     		ldr	r0, .L108+4
 2181 0658 FFF7FEFF 		bl	Timer_Deadzone_WriteCounter
 514:.\main.c      ****                                         initTurnU();
 2182              		.loc 1 514 0
 2183 065c FFF7FEFF 		bl	initTurnU
 515:.\main.c      ****                                         target_distance_quad += 208;
 2184              		.loc 1 515 0
 2185 0660 2C4B     		ldr	r3, .L108
 2186 0662 1B88     		ldrh	r3, [r3]
 2187 0664 9BB2     		uxth	r3, r3
 2188 0666 D033     		adds	r3, r3, #208
 2189 0668 9BB2     		uxth	r3, r3
 2190 066a 9AB2     		uxth	r2, r3
 2191 066c 294B     		ldr	r3, .L108
 2192 066e 1A80     		strh	r2, [r3]	@ movhi
 516:.\main.c      ****                                     break;
 2193              		.loc 1 516 0
 2194 0670 00E0     		b	.L88
 2195              	.L102:
 517:.\main.c      ****                                     default:
 518:.\main.c      ****                                         //do nothing
 519:.\main.c      ****                                         break;
 2196              		.loc 1 519 0
 2197 0672 00BF     		nop
 2198              	.L88:
 520:.\main.c      ****                                 }
 521:.\main.c      ****                                     
 522:.\main.c      ****                                     reached_target = 0;
 2199              		.loc 1 522 0
 2200 0674 294B     		ldr	r3, .L108+8
 2201 0676 0022     		movs	r2, #0
 2202 0678 1A70     		strb	r2, [r3]
 523:.\main.c      ****                                     overshot_target = 0;
 2203              		.loc 1 523 0
 2204 067a 294B     		ldr	r3, .L108+12
 2205 067c 0022     		movs	r2, #0
 2206 067e 1A70     		strb	r2, [r3]
 524:.\main.c      ****                                     instructionCount += 2;
 2207              		.loc 1 524 0
 2208 0680 284B     		ldr	r3, .L108+16
 2209 0682 1B88     		ldrh	r3, [r3]
 2210 0684 0233     		adds	r3, r3, #2
 2211 0686 9AB2     		uxth	r2, r3
 2212 0688 264B     		ldr	r3, .L108+16
 2213 068a 1A80     		strh	r2, [r3]	@ movhi
 525:.\main.c      ****                                     if(target_distance_quad < 0) target_distance_quad = 0;
 2214              		.loc 1 525 0
ARM GAS  C:\Users\Logan\AppData\Local\Temp\ccyYPcsP.s 			page 50


 2215 068c 214B     		ldr	r3, .L108
 2216 068e 1B88     		ldrh	r3, [r3]
 2217 0690 1BB2     		sxth	r3, r3
 2218 0692 002B     		cmp	r3, #0
 2219 0694 02DA     		bge	.L89
 2220              		.loc 1 525 0 is_stmt 0 discriminator 1
 2221 0696 1F4B     		ldr	r3, .L108
 2222 0698 0022     		movs	r2, #0
 2223 069a 1A80     		strh	r2, [r3]	@ movhi
 2224              	.L89:
 526:.\main.c      ****                                     Timer_Deadzone_Start();
 2225              		.loc 1 526 0 is_stmt 1 discriminator 5
 2226 069c FFF7FEFF 		bl	Timer_Deadzone_Start
 527:.\main.c      ****                                     deadzone = 1;
 2227              		.loc 1 527 0 discriminator 5
 2228 06a0 214B     		ldr	r3, .L108+20
 2229 06a2 0122     		movs	r2, #1
 2230 06a4 1A70     		strb	r2, [r3]
 2231              	.LBE9:
 470:.\main.c      ****                         
 2232              		.loc 1 470 0 discriminator 5
 2233 06a6 04E0     		b	.L55
 2234              	.L79:
 528:.\main.c      ****                     }
 529:.\main.c      ****                     else
 530:.\main.c      ****                     {
 531:.\main.c      ****                         inittrackLineZ();
 2235              		.loc 1 531 0
 2236 06a8 FFF7FEFF 		bl	inittrackLineZ
 532:.\main.c      ****                         actionDebounce = 0;
 2237              		.loc 1 532 0
 2238 06ac 0023     		movs	r3, #0
 2239 06ae FB86     		strh	r3, [r7, #54]	@ movhi
 2240              	.LBE4:
 533:.\main.c      ****                     }
 534:.\main.c      ****                 }
 535:.\main.c      ****                 break;
 2241              		.loc 1 535 0
 2242 06b0 FFE7     		b	.L103
 2243              	.L55:
 2244              	.L103:
 2245 06b2 00BF     		nop
 2246              	.L42:
 536:.\main.c      ****         }
 537:.\main.c      ****         
 538:.\main.c      ****         switch(movement_state)
 2247              		.loc 1 538 0
 2248 06b4 1D4B     		ldr	r3, .L108+24
 2249 06b6 1B78     		ldrb	r3, [r3]	@ zero_extendqisi2
 2250 06b8 072B     		cmp	r3, #7
 2251 06ba 3FF6D4AC 		bhi	.L100
 2252 06be 01A2     		adr	r2, .L92
 2253 06c0 52F823F0 		ldr	pc, [r2, r3, lsl #2]
 2254              		.p2align 2
 2255              	.L92:
 2256 06c4 E5060000 		.word	.L91+1
 2257 06c8 EB060000 		.word	.L93+1
ARM GAS  C:\Users\Logan\AppData\Local\Temp\ccyYPcsP.s 			page 51


 2258 06cc F1060000 		.word	.L94+1
 2259 06d0 FD060000 		.word	.L95+1
 2260 06d4 03070000 		.word	.L96+1
 2261 06d8 09070000 		.word	.L97+1
 2262 06dc 0F070000 		.word	.L98+1
 2263 06e0 F7060000 		.word	.L99+1
 2264              		.p2align 1
 2265              	.L91:
 539:.\main.c      ****         {
 540:.\main.c      ****             case DRIVE:
 541:.\main.c      ****                 driveForwards();
 2266              		.loc 1 541 0
 2267 06e4 FFF7FEFF 		bl	driveForwards
 542:.\main.c      ****             break;
 2268              		.loc 1 542 0
 2269 06e8 13E0     		b	.L90
 2270              	.L93:
 543:.\main.c      ****             case LTURN:
 544:.\main.c      ****                 turnLeft();
 2271              		.loc 1 544 0
 2272 06ea FFF7FEFF 		bl	turnLeft
 545:.\main.c      ****             break;
 2273              		.loc 1 545 0
 2274 06ee 10E0     		b	.L90
 2275              	.L94:
 546:.\main.c      ****             case RTURN:
 547:.\main.c      ****                 turnRight();
 2276              		.loc 1 547 0
 2277 06f0 FFF7FEFF 		bl	turnRight
 548:.\main.c      ****             break;
 2278              		.loc 1 548 0
 2279 06f4 0DE0     		b	.L90
 2280              	.L99:
 549:.\main.c      ****             case UTURN:
 550:.\main.c      ****                 turnU();
 2281              		.loc 1 550 0
 2282 06f6 FFF7FEFF 		bl	turnU
 551:.\main.c      ****             break;
 2283              		.loc 1 551 0
 2284 06fa 0AE0     		b	.L90
 2285              	.L95:
 552:.\main.c      ****             case STOPPED:
 553:.\main.c      ****                 brakeMotor();
 2286              		.loc 1 553 0
 2287 06fc FFF7FEFF 		bl	brakeMotor
 554:.\main.c      ****             break;
 2288              		.loc 1 554 0
 2289 0700 07E0     		b	.L90
 2290              	.L96:
 555:.\main.c      ****             case TRACKING:
 556:.\main.c      ****                 trackLine();
 2291              		.loc 1 556 0
 2292 0702 FFF7FEFF 		bl	trackLine
 557:.\main.c      ****             break;
 2293              		.loc 1 557 0
 2294 0706 04E0     		b	.L90
 2295              	.L97:
ARM GAS  C:\Users\Logan\AppData\Local\Temp\ccyYPcsP.s 			page 52


 558:.\main.c      ****             case TRACKING_U:
 559:.\main.c      ****                 trackLineU();
 2296              		.loc 1 559 0
 2297 0708 FFF7FEFF 		bl	trackLineU
 560:.\main.c      ****             break;
 2298              		.loc 1 560 0
 2299 070c 01E0     		b	.L90
 2300              	.L98:
 561:.\main.c      ****             case TRACKING_SOFT:
 562:.\main.c      ****                 trackLineZ();
 2301              		.loc 1 562 0
 2302 070e FFF7FEFF 		bl	trackLineZ
 2303              	.L90:
 563:.\main.c      ****         }      
 564:.\main.c      ****     }   
 2304              		.loc 1 564 0
 2305 0712 A8E4     		b	.L100
 2306              	.L109:
 2307              		.align	2
 2308              	.L108:
 2309 0714 00000000 		.word	target_distance_quad
 2310 0718 905F0100 		.word	90000
 2311 071c 00000000 		.word	reached_target
 2312 0720 00000000 		.word	overshot_target
 2313 0724 00000000 		.word	instructionCount
 2314 0728 00000000 		.word	deadzone
 2315 072c 00000000 		.word	movement_state
 2316              		.cfi_endproc
 2317              	.LFE71:
 2318              		.size	main, .-main
 2319              		.section	.text.handle_rx_binary,"ax",%progbits
 2320              		.align	2
 2321              		.global	handle_rx_binary
 2322              		.thumb
 2323              		.thumb_func
 2324              		.type	handle_rx_binary, %function
 2325              	handle_rx_binary:
 2326              	.LFB72:
 565:.\main.c      **** }
 566:.\main.c      **** 
 567:.\main.c      **** /*-------------------------------------------------------------------------------------------------
 568:.\main.c      **** 
 569:.\main.c      **** void handle_rx_binary()
 570:.\main.c      **** {
 2327              		.loc 1 570 0
 2328              		.cfi_startproc
 2329              		@ args = 0, pretend = 0, frame = 32
 2330              		@ frame_needed = 1, uses_anonymous_args = 0
 2331              		@ link register save eliminated.
 2332 0000 80B4     		push	{r7}
 2333              		.cfi_def_cfa_offset 4
 2334              		.cfi_offset 7, -4
 2335 0002 89B0     		sub	sp, sp, #36
 2336              		.cfi_def_cfa_offset 40
 2337 0004 00AF     		add	r7, sp, #0
 2338              		.cfi_def_cfa_register 7
 571:.\main.c      ****     if(flag_rx == 1)
ARM GAS  C:\Users\Logan\AppData\Local\Temp\ccyYPcsP.s 			page 53


 2339              		.loc 1 571 0
 2340 0006 524B     		ldr	r3, .L130
 2341 0008 1B78     		ldrb	r3, [r3]	@ zero_extendqisi2
 2342 000a 012B     		cmp	r3, #1
 2343 000c 40F09A80 		bne	.L110
 2344              	.LBB10:
 572:.\main.c      ****     {    
 573:.\main.c      ****         flag_rx = 0;
 2345              		.loc 1 573 0
 2346 0010 4F4B     		ldr	r3, .L130
 2347 0012 0022     		movs	r2, #0
 2348 0014 1A70     		strb	r2, [r3]
 574:.\main.c      ****         
 575:.\main.c      ****         uint16 packet_bytes = (packet[1] << 8) | (packet[0]);
 2349              		.loc 1 575 0
 2350 0016 4F4B     		ldr	r3, .L130+4
 2351 0018 5B78     		ldrb	r3, [r3, #1]	@ zero_extendqisi2
 2352 001a 1B02     		lsls	r3, r3, #8
 2353 001c 9AB2     		uxth	r2, r3
 2354 001e 4D4B     		ldr	r3, .L130+4
 2355 0020 1B78     		ldrb	r3, [r3]	@ zero_extendqisi2
 2356 0022 9BB2     		uxth	r3, r3
 2357 0024 1343     		orrs	r3, r3, r2
 2358 0026 9BB2     		uxth	r3, r3
 2359 0028 FB83     		strh	r3, [r7, #30]	@ movhi
 576:.\main.c      ****         char byte_packet[12];
 577:.\main.c      ****         char string_packet[12];
 578:.\main.c      ****         
 579:.\main.c      ****         switch(byteCount)
 2360              		.loc 1 579 0
 2361 002a 4B4B     		ldr	r3, .L130+8
 2362 002c 1B78     		ldrb	r3, [r3]	@ zero_extendqisi2
 2363 002e 043B     		subs	r3, r3, #4
 2364 0030 1E2B     		cmp	r3, #30
 2365 0032 00F28780 		bhi	.L110
 2366 0036 01A2     		adr	r2, .L114
 2367 0038 52F823F0 		ldr	pc, [r2, r3, lsl #2]
 2368              		.p2align 2
 2369              	.L114:
 2370 003c B9000000 		.word	.L113+1
 2371 0040 45010000 		.word	.L110+1
 2372 0044 CD000000 		.word	.L115+1
 2373 0048 45010000 		.word	.L110+1
 2374 004c D5000000 		.word	.L116+1
 2375 0050 45010000 		.word	.L110+1
 2376 0054 DD000000 		.word	.L117+1
 2377 0058 45010000 		.word	.L110+1
 2378 005c E5000000 		.word	.L118+1
 2379 0060 45010000 		.word	.L110+1
 2380 0064 ED000000 		.word	.L119+1
 2381 0068 45010000 		.word	.L110+1
 2382 006c F5000000 		.word	.L120+1
 2383 0070 45010000 		.word	.L110+1
 2384 0074 FD000000 		.word	.L121+1
 2385 0078 45010000 		.word	.L110+1
 2386 007c 05010000 		.word	.L122+1
 2387 0080 45010000 		.word	.L110+1
ARM GAS  C:\Users\Logan\AppData\Local\Temp\ccyYPcsP.s 			page 54


 2388 0084 0D010000 		.word	.L123+1
 2389 0088 45010000 		.word	.L110+1
 2390 008c 15010000 		.word	.L124+1
 2391 0090 45010000 		.word	.L110+1
 2392 0094 1D010000 		.word	.L125+1
 2393 0098 45010000 		.word	.L110+1
 2394 009c 25010000 		.word	.L126+1
 2395 00a0 45010000 		.word	.L110+1
 2396 00a4 2D010000 		.word	.L127+1
 2397 00a8 45010000 		.word	.L110+1
 2398 00ac 35010000 		.word	.L128+1
 2399 00b0 45010000 		.word	.L110+1
 2400 00b4 3D010000 		.word	.L129+1
 2401              		.p2align 1
 2402              	.L113:
 580:.\main.c      ****         {
 581:.\main.c      ****             case 4:
 582:.\main.c      ****                 buffer_state.rssi = packet[0];
 2403              		.loc 1 582 0
 2404 00b8 264B     		ldr	r3, .L130+4
 2405 00ba 1B78     		ldrb	r3, [r3]	@ zero_extendqisi2
 2406 00bc DAB2     		uxtb	r2, r3
 2407 00be 274B     		ldr	r3, .L130+12
 2408 00c0 1A70     		strb	r2, [r3]
 583:.\main.c      ****                 buffer_state.index = packet[1];
 2409              		.loc 1 583 0
 2410 00c2 244B     		ldr	r3, .L130+4
 2411 00c4 5A78     		ldrb	r2, [r3, #1]	@ zero_extendqisi2
 2412 00c6 254B     		ldr	r3, .L130+12
 2413 00c8 5A70     		strb	r2, [r3, #1]
 584:.\main.c      ****             break;
 2414              		.loc 1 584 0
 2415 00ca 3BE0     		b	.L110
 2416              	.L115:
 585:.\main.c      ****             case 6:
 586:.\main.c      ****                 buffer_state.robot_xpos = packet_bytes;
 2417              		.loc 1 586 0
 2418 00cc FA8B     		ldrh	r2, [r7, #30]
 2419 00ce 234B     		ldr	r3, .L130+12
 2420 00d0 5A80     		strh	r2, [r3, #2]	@ movhi
 587:.\main.c      ****             break;
 2421              		.loc 1 587 0
 2422 00d2 37E0     		b	.L110
 2423              	.L116:
 588:.\main.c      ****             case 8:
 589:.\main.c      ****                 buffer_state.robot_ypos = packet_bytes;
 2424              		.loc 1 589 0
 2425 00d4 FA8B     		ldrh	r2, [r7, #30]
 2426 00d6 214B     		ldr	r3, .L130+12
 2427 00d8 9A80     		strh	r2, [r3, #4]	@ movhi
 590:.\main.c      ****             break;
 2428              		.loc 1 590 0
 2429 00da 33E0     		b	.L110
 2430              	.L117:
 591:.\main.c      ****             case 10:
 592:.\main.c      ****                 buffer_state.robot_orientation = packet_bytes;
 2431              		.loc 1 592 0
ARM GAS  C:\Users\Logan\AppData\Local\Temp\ccyYPcsP.s 			page 55


 2432 00dc FA8B     		ldrh	r2, [r7, #30]
 2433 00de 1F4B     		ldr	r3, .L130+12
 2434 00e0 DA80     		strh	r2, [r3, #6]	@ movhi
 593:.\main.c      ****             break;
 2435              		.loc 1 593 0
 2436 00e2 2FE0     		b	.L110
 2437              	.L118:
 594:.\main.c      ****             case 12:
 595:.\main.c      ****                 buffer_state.g0_xpos = packet_bytes;
 2438              		.loc 1 595 0
 2439 00e4 FA8B     		ldrh	r2, [r7, #30]
 2440 00e6 1D4B     		ldr	r3, .L130+12
 2441 00e8 1A81     		strh	r2, [r3, #8]	@ movhi
 596:.\main.c      ****             break;
 2442              		.loc 1 596 0
 2443 00ea 2BE0     		b	.L110
 2444              	.L119:
 597:.\main.c      ****             case 14:
 598:.\main.c      ****                 buffer_state.g0_ypos = packet_bytes;
 2445              		.loc 1 598 0
 2446 00ec FA8B     		ldrh	r2, [r7, #30]
 2447 00ee 1B4B     		ldr	r3, .L130+12
 2448 00f0 5A81     		strh	r2, [r3, #10]	@ movhi
 599:.\main.c      ****             break;
 2449              		.loc 1 599 0
 2450 00f2 27E0     		b	.L110
 2451              	.L120:
 600:.\main.c      ****             case 16:
 601:.\main.c      ****                 buffer_state.g0_speed = packet_bytes;
 2452              		.loc 1 601 0
 2453 00f4 FA8B     		ldrh	r2, [r7, #30]
 2454 00f6 194B     		ldr	r3, .L130+12
 2455 00f8 9A81     		strh	r2, [r3, #12]	@ movhi
 602:.\main.c      ****             break;
 2456              		.loc 1 602 0
 2457 00fa 23E0     		b	.L110
 2458              	.L121:
 603:.\main.c      ****             case 18:
 604:.\main.c      ****                 buffer_state.g0_direction = packet_bytes;
 2459              		.loc 1 604 0
 2460 00fc FA8B     		ldrh	r2, [r7, #30]
 2461 00fe 174B     		ldr	r3, .L130+12
 2462 0100 DA81     		strh	r2, [r3, #14]	@ movhi
 605:.\main.c      ****             break;
 2463              		.loc 1 605 0
 2464 0102 1FE0     		b	.L110
 2465              	.L122:
 606:.\main.c      ****             case 20:
 607:.\main.c      ****                 buffer_state.g1_xpos = packet_bytes;
 2466              		.loc 1 607 0
 2467 0104 FA8B     		ldrh	r2, [r7, #30]
 2468 0106 154B     		ldr	r3, .L130+12
 2469 0108 1A82     		strh	r2, [r3, #16]	@ movhi
 608:.\main.c      ****             break;
 2470              		.loc 1 608 0
 2471 010a 1BE0     		b	.L110
 2472              	.L123:
ARM GAS  C:\Users\Logan\AppData\Local\Temp\ccyYPcsP.s 			page 56


 609:.\main.c      ****             case 22:
 610:.\main.c      ****                 buffer_state.g1_ypos = packet_bytes;
 2473              		.loc 1 610 0
 2474 010c FA8B     		ldrh	r2, [r7, #30]
 2475 010e 134B     		ldr	r3, .L130+12
 2476 0110 5A82     		strh	r2, [r3, #18]	@ movhi
 611:.\main.c      ****             break;
 2477              		.loc 1 611 0
 2478 0112 17E0     		b	.L110
 2479              	.L124:
 612:.\main.c      ****             case 24:
 613:.\main.c      ****                 buffer_state.g1_speed = packet_bytes;
 2480              		.loc 1 613 0
 2481 0114 FA8B     		ldrh	r2, [r7, #30]
 2482 0116 114B     		ldr	r3, .L130+12
 2483 0118 9A82     		strh	r2, [r3, #20]	@ movhi
 614:.\main.c      ****             break;
 2484              		.loc 1 614 0
 2485 011a 13E0     		b	.L110
 2486              	.L125:
 615:.\main.c      ****             case 26:
 616:.\main.c      ****                 buffer_state.g1_direction = packet_bytes;
 2487              		.loc 1 616 0
 2488 011c FA8B     		ldrh	r2, [r7, #30]
 2489 011e 0F4B     		ldr	r3, .L130+12
 2490 0120 DA82     		strh	r2, [r3, #22]	@ movhi
 617:.\main.c      ****             break;
 2491              		.loc 1 617 0
 2492 0122 0FE0     		b	.L110
 2493              	.L126:
 618:.\main.c      ****             case 28:
 619:.\main.c      ****                 buffer_state.g2_xpos = packet_bytes;
 2494              		.loc 1 619 0
 2495 0124 FA8B     		ldrh	r2, [r7, #30]
 2496 0126 0D4B     		ldr	r3, .L130+12
 2497 0128 1A83     		strh	r2, [r3, #24]	@ movhi
 620:.\main.c      ****             break;
 2498              		.loc 1 620 0
 2499 012a 0BE0     		b	.L110
 2500              	.L127:
 621:.\main.c      ****             case 30:
 622:.\main.c      ****                 buffer_state.g2_ypos = packet_bytes;
 2501              		.loc 1 622 0
 2502 012c FA8B     		ldrh	r2, [r7, #30]
 2503 012e 0B4B     		ldr	r3, .L130+12
 2504 0130 5A83     		strh	r2, [r3, #26]	@ movhi
 623:.\main.c      ****             break;
 2505              		.loc 1 623 0
 2506 0132 07E0     		b	.L110
 2507              	.L128:
 624:.\main.c      ****             case 32:
 625:.\main.c      ****                 buffer_state.g2_speed = packet_bytes;
 2508              		.loc 1 625 0
 2509 0134 FA8B     		ldrh	r2, [r7, #30]
 2510 0136 094B     		ldr	r3, .L130+12
 2511 0138 9A83     		strh	r2, [r3, #28]	@ movhi
 626:.\main.c      ****             break;
ARM GAS  C:\Users\Logan\AppData\Local\Temp\ccyYPcsP.s 			page 57


 2512              		.loc 1 626 0
 2513 013a 03E0     		b	.L110
 2514              	.L129:
 627:.\main.c      ****             case 34:
 628:.\main.c      ****                 buffer_state.g2_direction = packet_bytes;
 2515              		.loc 1 628 0
 2516 013c FA8B     		ldrh	r2, [r7, #30]
 2517 013e 074B     		ldr	r3, .L130+12
 2518 0140 DA83     		strh	r2, [r3, #30]	@ movhi
 629:.\main.c      ****             break;
 2519              		.loc 1 629 0
 2520 0142 00BF     		nop
 2521              	.L110:
 2522              	.LBE10:
 630:.\main.c      ****         }
 631:.\main.c      ****     }
 632:.\main.c      **** }
 2523              		.loc 1 632 0
 2524 0144 2437     		adds	r7, r7, #36
 2525              		.cfi_def_cfa_offset 4
 2526 0146 BD46     		mov	sp, r7
 2527              		.cfi_def_cfa_register 13
 2528              		@ sp needed
 2529 0148 5DF8047B 		ldr	r7, [sp], #4
 2530              		.cfi_restore 7
 2531              		.cfi_def_cfa_offset 0
 2532 014c 7047     		bx	lr
 2533              	.L131:
 2534 014e 00BF     		.align	2
 2535              	.L130:
 2536 0150 00000000 		.word	flag_rx
 2537 0154 00000000 		.word	packet
 2538 0158 00000000 		.word	byteCount
 2539 015c 00000000 		.word	buffer_state
 2540              		.cfi_endproc
 2541              	.LFE72:
 2542              		.size	handle_rx_binary, .-handle_rx_binary
 2543              		.section	.text.setLeftDir,"ax",%progbits
 2544              		.align	2
 2545              		.global	setLeftDir
 2546              		.thumb
 2547              		.thumb_func
 2548              		.type	setLeftDir, %function
 2549              	setLeftDir:
 2550              	.LFB73:
 633:.\main.c      **** 
 634:.\main.c      **** void setLeftDir(uint8 dir)
 635:.\main.c      **** {
 2551              		.loc 1 635 0
 2552              		.cfi_startproc
 2553              		@ args = 0, pretend = 0, frame = 8
 2554              		@ frame_needed = 1, uses_anonymous_args = 0
 2555 0000 80B5     		push	{r7, lr}
 2556              		.cfi_def_cfa_offset 8
 2557              		.cfi_offset 7, -8
 2558              		.cfi_offset 14, -4
 2559 0002 82B0     		sub	sp, sp, #8
ARM GAS  C:\Users\Logan\AppData\Local\Temp\ccyYPcsP.s 			page 58


 2560              		.cfi_def_cfa_offset 16
 2561 0004 00AF     		add	r7, sp, #0
 2562              		.cfi_def_cfa_register 7
 2563 0006 0346     		mov	r3, r0
 2564 0008 FB71     		strb	r3, [r7, #7]
 636:.\main.c      ****     M2_IN2_Write(dir);
 2565              		.loc 1 636 0
 2566 000a FB79     		ldrb	r3, [r7, #7]	@ zero_extendqisi2
 2567 000c 1846     		mov	r0, r3
 2568 000e FFF7FEFF 		bl	M2_IN2_Write
 637:.\main.c      **** }
 2569              		.loc 1 637 0
 2570 0012 0837     		adds	r7, r7, #8
 2571              		.cfi_def_cfa_offset 8
 2572 0014 BD46     		mov	sp, r7
 2573              		.cfi_def_cfa_register 13
 2574              		@ sp needed
 2575 0016 80BD     		pop	{r7, pc}
 2576              		.cfi_endproc
 2577              	.LFE73:
 2578              		.size	setLeftDir, .-setLeftDir
 2579              		.section	.text.setRightDir,"ax",%progbits
 2580              		.align	2
 2581              		.global	setRightDir
 2582              		.thumb
 2583              		.thumb_func
 2584              		.type	setRightDir, %function
 2585              	setRightDir:
 2586              	.LFB74:
 638:.\main.c      **** 
 639:.\main.c      **** void setRightDir(uint8 dir)
 640:.\main.c      **** {
 2587              		.loc 1 640 0
 2588              		.cfi_startproc
 2589              		@ args = 0, pretend = 0, frame = 8
 2590              		@ frame_needed = 1, uses_anonymous_args = 0
 2591 0000 80B5     		push	{r7, lr}
 2592              		.cfi_def_cfa_offset 8
 2593              		.cfi_offset 7, -8
 2594              		.cfi_offset 14, -4
 2595 0002 82B0     		sub	sp, sp, #8
 2596              		.cfi_def_cfa_offset 16
 2597 0004 00AF     		add	r7, sp, #0
 2598              		.cfi_def_cfa_register 7
 2599 0006 0346     		mov	r3, r0
 2600 0008 FB71     		strb	r3, [r7, #7]
 641:.\main.c      ****     M1_IN2_Write(dir);
 2601              		.loc 1 641 0
 2602 000a FB79     		ldrb	r3, [r7, #7]	@ zero_extendqisi2
 2603 000c 1846     		mov	r0, r3
 2604 000e FFF7FEFF 		bl	M1_IN2_Write
 642:.\main.c      **** }
 2605              		.loc 1 642 0
 2606 0012 0837     		adds	r7, r7, #8
 2607              		.cfi_def_cfa_offset 8
 2608 0014 BD46     		mov	sp, r7
 2609              		.cfi_def_cfa_register 13
ARM GAS  C:\Users\Logan\AppData\Local\Temp\ccyYPcsP.s 			page 59


 2610              		@ sp needed
 2611 0016 80BD     		pop	{r7, pc}
 2612              		.cfi_endproc
 2613              	.LFE74:
 2614              		.size	setRightDir, .-setRightDir
 2615              		.section	.rodata
 2616 00b7 00       		.align	2
 2617              	.LC8:
 2618 00b8 6469723A 		.ascii	"dir: %d\015\012\000"
 2618      2025640D 
 2618      0A00
 2619              		.section	.text.reverseDirection,"ax",%progbits
 2620              		.align	2
 2621              		.global	reverseDirection
 2622              		.thumb
 2623              		.thumb_func
 2624              		.type	reverseDirection, %function
 2625              	reverseDirection:
 2626              	.LFB75:
 643:.\main.c      **** 
 644:.\main.c      **** void reverseDirection()
 645:.\main.c      **** {
 2627              		.loc 1 645 0
 2628              		.cfi_startproc
 2629              		@ args = 0, pretend = 0, frame = 16
 2630              		@ frame_needed = 1, uses_anonymous_args = 0
 2631 0000 80B5     		push	{r7, lr}
 2632              		.cfi_def_cfa_offset 8
 2633              		.cfi_offset 7, -8
 2634              		.cfi_offset 14, -4
 2635 0002 84B0     		sub	sp, sp, #16
 2636              		.cfi_def_cfa_offset 24
 2637 0004 00AF     		add	r7, sp, #0
 2638              		.cfi_def_cfa_register 7
 646:.\main.c      ****     direction = !direction;
 2639              		.loc 1 646 0
 2640 0006 114B     		ldr	r3, .L135
 2641 0008 1B78     		ldrb	r3, [r3]	@ zero_extendqisi2
 2642 000a 002B     		cmp	r3, #0
 2643 000c 0CBF     		ite	eq
 2644 000e 0123     		moveq	r3, #1
 2645 0010 0023     		movne	r3, #0
 2646 0012 DBB2     		uxtb	r3, r3
 2647 0014 1A46     		mov	r2, r3
 2648 0016 0D4B     		ldr	r3, .L135
 2649 0018 1A70     		strb	r2, [r3]
 647:.\main.c      ****     setLeftDir(direction);
 2650              		.loc 1 647 0
 2651 001a 0C4B     		ldr	r3, .L135
 2652 001c 1B78     		ldrb	r3, [r3]	@ zero_extendqisi2
 2653 001e 1846     		mov	r0, r3
 2654 0020 FFF7FEFF 		bl	setLeftDir
 648:.\main.c      ****     setRightDir(direction);
 2655              		.loc 1 648 0
 2656 0024 094B     		ldr	r3, .L135
 2657 0026 1B78     		ldrb	r3, [r3]	@ zero_extendqisi2
 2658 0028 1846     		mov	r0, r3
ARM GAS  C:\Users\Logan\AppData\Local\Temp\ccyYPcsP.s 			page 60


 2659 002a FFF7FEFF 		bl	setRightDir
 649:.\main.c      ****     char mes[16];
 650:.\main.c      ****      sprintf(mes, "dir: %d\r\n", direction);
 2660              		.loc 1 650 0
 2661 002e 074B     		ldr	r3, .L135
 2662 0030 1B78     		ldrb	r3, [r3]	@ zero_extendqisi2
 2663 0032 1A46     		mov	r2, r3
 2664 0034 3B46     		mov	r3, r7
 2665 0036 1846     		mov	r0, r3
 2666 0038 0549     		ldr	r1, .L135+4
 2667 003a FFF7FEFF 		bl	sprintf
 651:.\main.c      ****     UART_PutString(mes);
 2668              		.loc 1 651 0
 2669 003e 3B46     		mov	r3, r7
 2670 0040 1846     		mov	r0, r3
 2671 0042 FFF7FEFF 		bl	UART_PutString
 652:.\main.c      **** }
 2672              		.loc 1 652 0
 2673 0046 1037     		adds	r7, r7, #16
 2674              		.cfi_def_cfa_offset 8
 2675 0048 BD46     		mov	sp, r7
 2676              		.cfi_def_cfa_register 13
 2677              		@ sp needed
 2678 004a 80BD     		pop	{r7, pc}
 2679              	.L136:
 2680              		.align	2
 2681              	.L135:
 2682 004c 00000000 		.word	direction
 2683 0050 B8000000 		.word	.LC8
 2684              		.cfi_endproc
 2685              	.LFE75:
 2686              		.size	reverseDirection, .-reverseDirection
 2687              		.global	__aeabi_dcmplt
 2688              		.global	__aeabi_ddiv
 2689              		.global	__aeabi_d2iz
 2690              		.section	.text.setSpeed,"ax",%progbits
 2691              		.align	2
 2692              		.global	setSpeed
 2693              		.thumb
 2694              		.thumb_func
 2695              		.type	setSpeed, %function
 2696              	setSpeed:
 2697              	.LFB76:
 653:.\main.c      **** 
 654:.\main.c      **** void setSpeed(double left, double right){
 2698              		.loc 1 654 0
 2699              		.cfi_startproc
 2700              		@ args = 0, pretend = 0, frame = 24
 2701              		@ frame_needed = 1, uses_anonymous_args = 0
 2702 0000 80B5     		push	{r7, lr}
 2703              		.cfi_def_cfa_offset 8
 2704              		.cfi_offset 7, -8
 2705              		.cfi_offset 14, -4
 2706 0002 86B0     		sub	sp, sp, #24
 2707              		.cfi_def_cfa_offset 32
 2708 0004 00AF     		add	r7, sp, #0
 2709              		.cfi_def_cfa_register 7
ARM GAS  C:\Users\Logan\AppData\Local\Temp\ccyYPcsP.s 			page 61


 2710 0006 C7E90201 		strd	r0, [r7, #8]
 2711 000a C7E90023 		strd	r2, [r7]
 655:.\main.c      ****     if(right < 0.0)
 2712              		.loc 1 655 0
 2713 000e D7E90001 		ldrd	r0, [r7]
 2714 0012 4FF00002 		mov	r2, #0
 2715 0016 4FF00003 		mov	r3, #0
 2716 001a FFF7FEFF 		bl	__aeabi_dcmplt
 2717 001e 0346     		mov	r3, r0
 2718 0020 002B     		cmp	r3, #0
 2719 0022 10D0     		beq	.L146
 656:.\main.c      ****     {
 657:.\main.c      ****         //char mes[16];
 658:.\main.c      ****        // sprintf(mes, "right dir: %d\r\n", !direction);
 659:.\main.c      ****        // UART_PutString(mes);
 660:.\main.c      ****         setRightDir(!direction);
 2720              		.loc 1 660 0
 2721 0024 304B     		ldr	r3, .L148+8
 2722 0026 1B78     		ldrb	r3, [r3]	@ zero_extendqisi2
 2723 0028 002B     		cmp	r3, #0
 2724 002a 0CBF     		ite	eq
 2725 002c 0123     		moveq	r3, #1
 2726 002e 0023     		movne	r3, #0
 2727 0030 DBB2     		uxtb	r3, r3
 2728 0032 1846     		mov	r0, r3
 2729 0034 FFF7FEFF 		bl	setRightDir
 661:.\main.c      ****         right = -right;
 2730              		.loc 1 661 0
 2731 0038 3B68     		ldr	r3, [r7]
 2732 003a 3B60     		str	r3, [r7]
 2733 003c 7B68     		ldr	r3, [r7, #4]
 2734 003e 83F00043 		eor	r3, r3, #-2147483648
 2735 0042 7B60     		str	r3, [r7, #4]
 2736 0044 04E0     		b	.L140
 2737              	.L146:
 662:.\main.c      ****     }
 663:.\main.c      ****     else setRightDir(direction);
 2738              		.loc 1 663 0
 2739 0046 284B     		ldr	r3, .L148+8
 2740 0048 1B78     		ldrb	r3, [r3]	@ zero_extendqisi2
 2741 004a 1846     		mov	r0, r3
 2742 004c FFF7FEFF 		bl	setRightDir
 2743              	.L140:
 664:.\main.c      ****     
 665:.\main.c      ****     if(left < 0.0)
 2744              		.loc 1 665 0
 2745 0050 D7E90201 		ldrd	r0, [r7, #8]
 2746 0054 4FF00002 		mov	r2, #0
 2747 0058 4FF00003 		mov	r3, #0
 2748 005c FFF7FEFF 		bl	__aeabi_dcmplt
 2749 0060 0346     		mov	r3, r0
 2750 0062 002B     		cmp	r3, #0
 2751 0064 10D0     		beq	.L147
 666:.\main.c      ****     {
 667:.\main.c      ****        // char mes[16];
 668:.\main.c      ****         //sprintf(mes, "left dir: %d\r\n", !direction);
 669:.\main.c      ****         //UART_PutString(mes);
ARM GAS  C:\Users\Logan\AppData\Local\Temp\ccyYPcsP.s 			page 62


 670:.\main.c      ****         setLeftDir(!direction);
 2752              		.loc 1 670 0
 2753 0066 204B     		ldr	r3, .L148+8
 2754 0068 1B78     		ldrb	r3, [r3]	@ zero_extendqisi2
 2755 006a 002B     		cmp	r3, #0
 2756 006c 0CBF     		ite	eq
 2757 006e 0123     		moveq	r3, #1
 2758 0070 0023     		movne	r3, #0
 2759 0072 DBB2     		uxtb	r3, r3
 2760 0074 1846     		mov	r0, r3
 2761 0076 FFF7FEFF 		bl	setLeftDir
 671:.\main.c      ****         left = -left;
 2762              		.loc 1 671 0
 2763 007a BB68     		ldr	r3, [r7, #8]
 2764 007c BB60     		str	r3, [r7, #8]
 2765 007e FB68     		ldr	r3, [r7, #12]
 2766 0080 83F00043 		eor	r3, r3, #-2147483648
 2767 0084 FB60     		str	r3, [r7, #12]
 2768 0086 04E0     		b	.L143
 2769              	.L147:
 672:.\main.c      ****     }
 673:.\main.c      ****     else setLeftDir(direction);
 2770              		.loc 1 673 0
 2771 0088 174B     		ldr	r3, .L148+8
 2772 008a 1B78     		ldrb	r3, [r3]	@ zero_extendqisi2
 2773 008c 1846     		mov	r0, r3
 2774 008e FFF7FEFF 		bl	setLeftDir
 2775              	.L143:
 674:.\main.c      ****     
 675:.\main.c      ****     int16 countsLeft = left/QUAD_RATIO;
 2776              		.loc 1 675 0
 2777 0092 D7E90201 		ldrd	r0, [r7, #8]
 2778 0096 12A3     		adr	r3, .L148
 2779 0098 D3E90023 		ldrd	r2, [r3]
 2780 009c FFF7FEFF 		bl	__aeabi_ddiv
 2781 00a0 0246     		mov	r2, r0
 2782 00a2 0B46     		mov	r3, r1
 2783 00a4 1046     		mov	r0, r2
 2784 00a6 1946     		mov	r1, r3
 2785 00a8 FFF7FEFF 		bl	__aeabi_d2iz
 2786 00ac 0346     		mov	r3, r0
 2787 00ae FB82     		strh	r3, [r7, #22]	@ movhi
 676:.\main.c      ****     int16 countsRight = right/QUAD_RATIO;
 2788              		.loc 1 676 0
 2789 00b0 D7E90001 		ldrd	r0, [r7]
 2790 00b4 0AA3     		adr	r3, .L148
 2791 00b6 D3E90023 		ldrd	r2, [r3]
 2792 00ba FFF7FEFF 		bl	__aeabi_ddiv
 2793 00be 0246     		mov	r2, r0
 2794 00c0 0B46     		mov	r3, r1
 2795 00c2 1046     		mov	r0, r2
 2796 00c4 1946     		mov	r1, r3
 2797 00c6 FFF7FEFF 		bl	__aeabi_d2iz
 2798 00ca 0346     		mov	r3, r0
 2799 00cc BB82     		strh	r3, [r7, #20]	@ movhi
 677:.\main.c      ****     
 678:.\main.c      ****     leftSpeedLimit = countsRight;
ARM GAS  C:\Users\Logan\AppData\Local\Temp\ccyYPcsP.s 			page 63


 2800              		.loc 1 678 0
 2801 00ce 074A     		ldr	r2, .L148+12
 2802 00d0 BB8A     		ldrh	r3, [r7, #20]	@ movhi
 2803 00d2 1380     		strh	r3, [r2]	@ movhi
 679:.\main.c      ****     rightSpeedLimit = countsLeft;
 2804              		.loc 1 679 0
 2805 00d4 064A     		ldr	r2, .L148+16
 2806 00d6 FB8A     		ldrh	r3, [r7, #22]	@ movhi
 2807 00d8 1380     		strh	r3, [r2]	@ movhi
 680:.\main.c      **** }
 2808              		.loc 1 680 0
 2809 00da 1837     		adds	r7, r7, #24
 2810              		.cfi_def_cfa_offset 8
 2811 00dc BD46     		mov	sp, r7
 2812              		.cfi_def_cfa_register 13
 2813              		@ sp needed
 2814 00de 80BD     		pop	{r7, pc}
 2815              	.L149:
 2816              		.align	3
 2817              	.L148:
 2818 00e0 969526A5 		.word	-1524197994
 2819 00e4 A0DBEF3F 		.word	1072683936
 2820 00e8 00000000 		.word	direction
 2821 00ec 00000000 		.word	leftSpeedLimit
 2822 00f0 00000000 		.word	rightSpeedLimit
 2823              		.cfi_endproc
 2824              	.LFE76:
 2825              		.size	setSpeed, .-setSpeed
 2826 00f4 AFF30080 		.section	.text.brakeLeft,"ax",%progbits
 2827              		.align	2
 2828              		.global	brakeLeft
 2829              		.thumb
 2830              		.thumb_func
 2831              		.type	brakeLeft, %function
 2832              	brakeLeft:
 2833              	.LFB77:
 681:.\main.c      **** 
 682:.\main.c      **** void brakeLeft()
 683:.\main.c      **** {
 2834              		.loc 1 683 0
 2835              		.cfi_startproc
 2836              		@ args = 0, pretend = 0, frame = 0
 2837              		@ frame_needed = 1, uses_anonymous_args = 0
 2838 0000 80B5     		push	{r7, lr}
 2839              		.cfi_def_cfa_offset 8
 2840              		.cfi_offset 7, -8
 2841              		.cfi_offset 14, -4
 2842 0002 00AF     		add	r7, sp, #0
 2843              		.cfi_def_cfa_register 7
 684:.\main.c      ****     PWM_1_WriteCompare(0);
 2844              		.loc 1 684 0
 2845 0004 0020     		movs	r0, #0
 2846 0006 FFF7FEFF 		bl	PWM_1_WriteCompare
 685:.\main.c      ****     left_duty_cycle = 0;
 2847              		.loc 1 685 0
 2848 000a 024B     		ldr	r3, .L151
 2849 000c 0022     		movs	r2, #0
ARM GAS  C:\Users\Logan\AppData\Local\Temp\ccyYPcsP.s 			page 64


 2850 000e 1A80     		strh	r2, [r3]	@ movhi
 686:.\main.c      **** }
 2851              		.loc 1 686 0
 2852 0010 80BD     		pop	{r7, pc}
 2853              	.L152:
 2854 0012 00BF     		.align	2
 2855              	.L151:
 2856 0014 00000000 		.word	left_duty_cycle
 2857              		.cfi_endproc
 2858              	.LFE77:
 2859              		.size	brakeLeft, .-brakeLeft
 2860              		.section	.text.brakeRight,"ax",%progbits
 2861              		.align	2
 2862              		.global	brakeRight
 2863              		.thumb
 2864              		.thumb_func
 2865              		.type	brakeRight, %function
 2866              	brakeRight:
 2867              	.LFB78:
 687:.\main.c      **** 
 688:.\main.c      **** void brakeRight()
 689:.\main.c      **** {
 2868              		.loc 1 689 0
 2869              		.cfi_startproc
 2870              		@ args = 0, pretend = 0, frame = 0
 2871              		@ frame_needed = 1, uses_anonymous_args = 0
 2872 0000 80B5     		push	{r7, lr}
 2873              		.cfi_def_cfa_offset 8
 2874              		.cfi_offset 7, -8
 2875              		.cfi_offset 14, -4
 2876 0002 00AF     		add	r7, sp, #0
 2877              		.cfi_def_cfa_register 7
 690:.\main.c      ****      PWM_2_WriteCompare(0);
 2878              		.loc 1 690 0
 2879 0004 0020     		movs	r0, #0
 2880 0006 FFF7FEFF 		bl	PWM_2_WriteCompare
 691:.\main.c      ****      right_duty_cycle = 0;
 2881              		.loc 1 691 0
 2882 000a 024B     		ldr	r3, .L154
 2883 000c 0022     		movs	r2, #0
 2884 000e 1A80     		strh	r2, [r3]	@ movhi
 692:.\main.c      **** }
 2885              		.loc 1 692 0
 2886 0010 80BD     		pop	{r7, pc}
 2887              	.L155:
 2888 0012 00BF     		.align	2
 2889              	.L154:
 2890 0014 00000000 		.word	right_duty_cycle
 2891              		.cfi_endproc
 2892              	.LFE78:
 2893              		.size	brakeRight, .-brakeRight
 2894              		.section	.text.brakeMotor,"ax",%progbits
 2895              		.align	2
 2896              		.global	brakeMotor
 2897              		.thumb
 2898              		.thumb_func
 2899              		.type	brakeMotor, %function
ARM GAS  C:\Users\Logan\AppData\Local\Temp\ccyYPcsP.s 			page 65


 2900              	brakeMotor:
 2901              	.LFB79:
 693:.\main.c      **** 
 694:.\main.c      **** void brakeMotor(){
 2902              		.loc 1 694 0
 2903              		.cfi_startproc
 2904              		@ args = 0, pretend = 0, frame = 0
 2905              		@ frame_needed = 1, uses_anonymous_args = 0
 2906 0000 80B5     		push	{r7, lr}
 2907              		.cfi_def_cfa_offset 8
 2908              		.cfi_offset 7, -8
 2909              		.cfi_offset 14, -4
 2910 0002 00AF     		add	r7, sp, #0
 2911              		.cfi_def_cfa_register 7
 695:.\main.c      ****     setSpeed(0, 0);
 2912              		.loc 1 695 0
 2913 0004 4FF00000 		mov	r0, #0
 2914 0008 4FF00001 		mov	r1, #0
 2915 000c 4FF00002 		mov	r2, #0
 2916 0010 4FF00003 		mov	r3, #0
 2917 0014 FFF7FEFF 		bl	setSpeed
 696:.\main.c      ****     brakeLeft();
 2918              		.loc 1 696 0
 2919 0018 FFF7FEFF 		bl	brakeLeft
 697:.\main.c      ****     brakeRight();
 2920              		.loc 1 697 0
 2921 001c FFF7FEFF 		bl	brakeRight
 698:.\main.c      **** }
 2922              		.loc 1 698 0
 2923 0020 80BD     		pop	{r7, pc}
 2924              		.cfi_endproc
 2925              	.LFE79:
 2926              		.size	brakeMotor, .-brakeMotor
 2927 0022 00BF     		.section	.text.driveForwards,"ax",%progbits
 2928              		.align	2
 2929              		.global	driveForwards
 2930              		.thumb
 2931              		.thumb_func
 2932              		.type	driveForwards, %function
 2933              	driveForwards:
 2934              	.LFB80:
 699:.\main.c      **** 
 700:.\main.c      **** void driveForwards()
 701:.\main.c      **** {
 2935              		.loc 1 701 0
 2936              		.cfi_startproc
 2937              		@ args = 0, pretend = 0, frame = 0
 2938              		@ frame_needed = 1, uses_anonymous_args = 0
 2939 0000 80B5     		push	{r7, lr}
 2940              		.cfi_def_cfa_offset 8
 2941              		.cfi_offset 7, -8
 2942              		.cfi_offset 14, -4
 2943 0002 00AF     		add	r7, sp, #0
 2944              		.cfi_def_cfa_register 7
 702:.\main.c      ****     setSpeed(speed, speed);
 2945              		.loc 1 702 0
 2946 0004 044B     		ldr	r3, .L158
ARM GAS  C:\Users\Logan\AppData\Local\Temp\ccyYPcsP.s 			page 66


 2947 0006 D3E90001 		ldrd	r0, [r3]
 2948 000a 034B     		ldr	r3, .L158
 2949 000c D3E90023 		ldrd	r2, [r3]
 2950 0010 FFF7FEFF 		bl	setSpeed
 703:.\main.c      **** }
 2951              		.loc 1 703 0
 2952 0014 80BD     		pop	{r7, pc}
 2953              	.L159:
 2954 0016 00BF     		.align	2
 2955              	.L158:
 2956 0018 00000000 		.word	speed
 2957              		.cfi_endproc
 2958              	.LFE80:
 2959              		.size	driveForwards, .-driveForwards
 2960              		.section	.text.turnRight,"ax",%progbits
 2961              		.align	2
 2962              		.global	turnRight
 2963              		.thumb
 2964              		.thumb_func
 2965              		.type	turnRight, %function
 2966              	turnRight:
 2967              	.LFB81:
 704:.\main.c      **** 
 705:.\main.c      **** void turnRight()
 706:.\main.c      **** {
 2968              		.loc 1 706 0
 2969              		.cfi_startproc
 2970              		@ args = 0, pretend = 0, frame = 0
 2971              		@ frame_needed = 1, uses_anonymous_args = 0
 2972 0000 80B5     		push	{r7, lr}
 2973              		.cfi_def_cfa_offset 8
 2974              		.cfi_offset 7, -8
 2975              		.cfi_offset 14, -4
 2976 0002 00AF     		add	r7, sp, #0
 2977              		.cfi_def_cfa_register 7
 707:.\main.c      ****     setSpeed(0,speed*2.0);
 2978              		.loc 1 707 0
 2979 0004 074B     		ldr	r3, .L161
 2980 0006 D3E90023 		ldrd	r2, [r3]
 2981 000a 1046     		mov	r0, r2
 2982 000c 1946     		mov	r1, r3
 2983 000e FFF7FEFF 		bl	__aeabi_dadd
 2984 0012 0246     		mov	r2, r0
 2985 0014 0B46     		mov	r3, r1
 2986 0016 4FF00000 		mov	r0, #0
 2987 001a 4FF00001 		mov	r1, #0
 2988 001e FFF7FEFF 		bl	setSpeed
 708:.\main.c      **** }
 2989              		.loc 1 708 0
 2990 0022 80BD     		pop	{r7, pc}
 2991              	.L162:
 2992              		.align	2
 2993              	.L161:
 2994 0024 00000000 		.word	speed
 2995              		.cfi_endproc
 2996              	.LFE81:
 2997              		.size	turnRight, .-turnRight
ARM GAS  C:\Users\Logan\AppData\Local\Temp\ccyYPcsP.s 			page 67


 2998              		.section	.text.turnLeft,"ax",%progbits
 2999              		.align	2
 3000              		.global	turnLeft
 3001              		.thumb
 3002              		.thumb_func
 3003              		.type	turnLeft, %function
 3004              	turnLeft:
 3005              	.LFB82:
 709:.\main.c      **** 
 710:.\main.c      **** void turnLeft()
 711:.\main.c      **** {
 3006              		.loc 1 711 0
 3007              		.cfi_startproc
 3008              		@ args = 0, pretend = 0, frame = 0
 3009              		@ frame_needed = 1, uses_anonymous_args = 0
 3010 0000 80B5     		push	{r7, lr}
 3011              		.cfi_def_cfa_offset 8
 3012              		.cfi_offset 7, -8
 3013              		.cfi_offset 14, -4
 3014 0002 00AF     		add	r7, sp, #0
 3015              		.cfi_def_cfa_register 7
 712:.\main.c      ****     setSpeed(speed*2.0,0);
 3016              		.loc 1 712 0
 3017 0004 084B     		ldr	r3, .L164
 3018 0006 D3E90023 		ldrd	r2, [r3]
 3019 000a 1046     		mov	r0, r2
 3020 000c 1946     		mov	r1, r3
 3021 000e FFF7FEFF 		bl	__aeabi_dadd
 3022 0012 0246     		mov	r2, r0
 3023 0014 0B46     		mov	r3, r1
 3024 0016 1046     		mov	r0, r2
 3025 0018 1946     		mov	r1, r3
 3026 001a 4FF00002 		mov	r2, #0
 3027 001e 4FF00003 		mov	r3, #0
 3028 0022 FFF7FEFF 		bl	setSpeed
 713:.\main.c      **** }
 3029              		.loc 1 713 0
 3030 0026 80BD     		pop	{r7, pc}
 3031              	.L165:
 3032              		.align	2
 3033              	.L164:
 3034 0028 00000000 		.word	speed
 3035              		.cfi_endproc
 3036              	.LFE82:
 3037              		.size	turnLeft, .-turnLeft
 3038              		.section	.text.turnU,"ax",%progbits
 3039              		.align	2
 3040              		.global	turnU
 3041              		.thumb
 3042              		.thumb_func
 3043              		.type	turnU, %function
 3044              	turnU:
 3045              	.LFB83:
 714:.\main.c      **** 
 715:.\main.c      **** void turnU()
 716:.\main.c      **** {
 3046              		.loc 1 716 0
ARM GAS  C:\Users\Logan\AppData\Local\Temp\ccyYPcsP.s 			page 68


 3047              		.cfi_startproc
 3048              		@ args = 0, pretend = 0, frame = 0
 3049              		@ frame_needed = 1, uses_anonymous_args = 0
 3050 0000 B0B5     		push	{r4, r5, r7, lr}
 3051              		.cfi_def_cfa_offset 16
 3052              		.cfi_offset 4, -16
 3053              		.cfi_offset 5, -12
 3054              		.cfi_offset 7, -8
 3055              		.cfi_offset 14, -4
 3056 0002 00AF     		add	r7, sp, #0
 3057              		.cfi_def_cfa_register 7
 717:.\main.c      ****     setSpeed(-speed*2.0,speed*2.0);
 3058              		.loc 1 717 0
 3059 0004 0E4B     		ldr	r3, .L167
 3060 0006 D3E90023 		ldrd	r2, [r3]
 3061 000a 1446     		mov	r4, r2
 3062 000c 83F00045 		eor	r5, r3, #-2147483648
 3063 0010 2046     		mov	r0, r4
 3064 0012 2946     		mov	r1, r5
 3065 0014 2246     		mov	r2, r4
 3066 0016 2B46     		mov	r3, r5
 3067 0018 FFF7FEFF 		bl	__aeabi_dadd
 3068 001c 0246     		mov	r2, r0
 3069 001e 0B46     		mov	r3, r1
 3070 0020 1446     		mov	r4, r2
 3071 0022 1D46     		mov	r5, r3
 3072 0024 064B     		ldr	r3, .L167
 3073 0026 D3E90023 		ldrd	r2, [r3]
 3074 002a 1046     		mov	r0, r2
 3075 002c 1946     		mov	r1, r3
 3076 002e FFF7FEFF 		bl	__aeabi_dadd
 3077 0032 0246     		mov	r2, r0
 3078 0034 0B46     		mov	r3, r1
 3079 0036 2046     		mov	r0, r4
 3080 0038 2946     		mov	r1, r5
 3081 003a FFF7FEFF 		bl	setSpeed
 718:.\main.c      **** }
 3082              		.loc 1 718 0
 3083 003e B0BD     		pop	{r4, r5, r7, pc}
 3084              	.L168:
 3085              		.align	2
 3086              	.L167:
 3087 0040 00000000 		.word	speed
 3088              		.cfi_endproc
 3089              	.LFE83:
 3090              		.size	turnU, .-turnU
 3091              		.section	.text.initTurnLeft,"ax",%progbits
 3092              		.align	2
 3093              		.global	initTurnLeft
 3094              		.thumb
 3095              		.thumb_func
 3096              		.type	initTurnLeft, %function
 3097              	initTurnLeft:
 3098              	.LFB84:
 719:.\main.c      **** 
 720:.\main.c      **** void initTurnLeft(){
 3099              		.loc 1 720 0
ARM GAS  C:\Users\Logan\AppData\Local\Temp\ccyYPcsP.s 			page 69


 3100              		.cfi_startproc
 3101              		@ args = 0, pretend = 0, frame = 0
 3102              		@ frame_needed = 1, uses_anonymous_args = 0
 3103 0000 80B5     		push	{r7, lr}
 3104              		.cfi_def_cfa_offset 8
 3105              		.cfi_offset 7, -8
 3106              		.cfi_offset 14, -4
 3107 0002 00AF     		add	r7, sp, #0
 3108              		.cfi_def_cfa_register 7
 721:.\main.c      ****     Timer_2_Stop();
 3109              		.loc 1 721 0
 3110 0004 FFF7FEFF 		bl	Timer_2_Stop
 722:.\main.c      ****     prev_movement_state = movement_state;
 3111              		.loc 1 722 0
 3112 0008 084B     		ldr	r3, .L170
 3113 000a 1A78     		ldrb	r2, [r3]	@ zero_extendqisi2
 3114 000c 084B     		ldr	r3, .L170+4
 3115 000e 1A70     		strb	r2, [r3]
 723:.\main.c      ****     movement_state = LTURN;
 3116              		.loc 1 723 0
 3117 0010 064B     		ldr	r3, .L170
 3118 0012 0122     		movs	r2, #1
 3119 0014 1A70     		strb	r2, [r3]
 724:.\main.c      ****     brakeLeft();
 3120              		.loc 1 724 0
 3121 0016 FFF7FEFF 		bl	brakeLeft
 725:.\main.c      ****     start_turn_count = QuadDec_M2_GetCounter();
 3122              		.loc 1 725 0
 3123 001a FFF7FEFF 		bl	QuadDec_M2_GetCounter
 3124 001e 0346     		mov	r3, r0
 3125 0020 1A46     		mov	r2, r3
 3126 0022 044B     		ldr	r3, .L170+8
 3127 0024 1A80     		strh	r2, [r3]	@ movhi
 726:.\main.c      ****     Timer_2_Start();
 3128              		.loc 1 726 0
 3129 0026 FFF7FEFF 		bl	Timer_2_Start
 727:.\main.c      **** }
 3130              		.loc 1 727 0
 3131 002a 80BD     		pop	{r7, pc}
 3132              	.L171:
 3133              		.align	2
 3134              	.L170:
 3135 002c 00000000 		.word	movement_state
 3136 0030 00000000 		.word	prev_movement_state
 3137 0034 00000000 		.word	start_turn_count
 3138              		.cfi_endproc
 3139              	.LFE84:
 3140              		.size	initTurnLeft, .-initTurnLeft
 3141              		.section	.text.initTurnRight,"ax",%progbits
 3142              		.align	2
 3143              		.global	initTurnRight
 3144              		.thumb
 3145              		.thumb_func
 3146              		.type	initTurnRight, %function
 3147              	initTurnRight:
 3148              	.LFB85:
 728:.\main.c      **** 
ARM GAS  C:\Users\Logan\AppData\Local\Temp\ccyYPcsP.s 			page 70


 729:.\main.c      **** void initTurnRight(){
 3149              		.loc 1 729 0
 3150              		.cfi_startproc
 3151              		@ args = 0, pretend = 0, frame = 0
 3152              		@ frame_needed = 1, uses_anonymous_args = 0
 3153 0000 80B5     		push	{r7, lr}
 3154              		.cfi_def_cfa_offset 8
 3155              		.cfi_offset 7, -8
 3156              		.cfi_offset 14, -4
 3157 0002 00AF     		add	r7, sp, #0
 3158              		.cfi_def_cfa_register 7
 730:.\main.c      ****     Timer_2_Stop();
 3159              		.loc 1 730 0
 3160 0004 FFF7FEFF 		bl	Timer_2_Stop
 731:.\main.c      ****     prev_movement_state = movement_state;
 3161              		.loc 1 731 0
 3162 0008 084B     		ldr	r3, .L173
 3163 000a 1A78     		ldrb	r2, [r3]	@ zero_extendqisi2
 3164 000c 084B     		ldr	r3, .L173+4
 3165 000e 1A70     		strb	r2, [r3]
 732:.\main.c      ****     movement_state = RTURN;
 3166              		.loc 1 732 0
 3167 0010 064B     		ldr	r3, .L173
 3168 0012 0222     		movs	r2, #2
 3169 0014 1A70     		strb	r2, [r3]
 733:.\main.c      ****     brakeRight();
 3170              		.loc 1 733 0
 3171 0016 FFF7FEFF 		bl	brakeRight
 734:.\main.c      ****     start_turn_count = QuadDec_M1_GetCounter();
 3172              		.loc 1 734 0
 3173 001a FFF7FEFF 		bl	QuadDec_M1_GetCounter
 3174 001e 0346     		mov	r3, r0
 3175 0020 1A46     		mov	r2, r3
 3176 0022 044B     		ldr	r3, .L173+8
 3177 0024 1A80     		strh	r2, [r3]	@ movhi
 735:.\main.c      ****     Timer_2_Start();
 3178              		.loc 1 735 0
 3179 0026 FFF7FEFF 		bl	Timer_2_Start
 736:.\main.c      **** }
 3180              		.loc 1 736 0
 3181 002a 80BD     		pop	{r7, pc}
 3182              	.L174:
 3183              		.align	2
 3184              	.L173:
 3185 002c 00000000 		.word	movement_state
 3186 0030 00000000 		.word	prev_movement_state
 3187 0034 00000000 		.word	start_turn_count
 3188              		.cfi_endproc
 3189              	.LFE85:
 3190              		.size	initTurnRight, .-initTurnRight
 3191              		.section	.text.initTurnU,"ax",%progbits
 3192              		.align	2
 3193              		.global	initTurnU
 3194              		.thumb
 3195              		.thumb_func
 3196              		.type	initTurnU, %function
 3197              	initTurnU:
ARM GAS  C:\Users\Logan\AppData\Local\Temp\ccyYPcsP.s 			page 71


 3198              	.LFB86:
 737:.\main.c      **** 
 738:.\main.c      **** void initTurnU(){
 3199              		.loc 1 738 0
 3200              		.cfi_startproc
 3201              		@ args = 0, pretend = 0, frame = 0
 3202              		@ frame_needed = 1, uses_anonymous_args = 0
 3203 0000 80B5     		push	{r7, lr}
 3204              		.cfi_def_cfa_offset 8
 3205              		.cfi_offset 7, -8
 3206              		.cfi_offset 14, -4
 3207 0002 00AF     		add	r7, sp, #0
 3208              		.cfi_def_cfa_register 7
 739:.\main.c      ****     Timer_2_Stop();
 3209              		.loc 1 739 0
 3210 0004 FFF7FEFF 		bl	Timer_2_Stop
 740:.\main.c      ****     prev_movement_state = movement_state;
 3211              		.loc 1 740 0
 3212 0008 084B     		ldr	r3, .L176
 3213 000a 1A78     		ldrb	r2, [r3]	@ zero_extendqisi2
 3214 000c 084B     		ldr	r3, .L176+4
 3215 000e 1A70     		strb	r2, [r3]
 741:.\main.c      ****     movement_state = UTURN;
 3216              		.loc 1 741 0
 3217 0010 064B     		ldr	r3, .L176
 3218 0012 0722     		movs	r2, #7
 3219 0014 1A70     		strb	r2, [r3]
 742:.\main.c      ****     brakeMotor();
 3220              		.loc 1 742 0
 3221 0016 FFF7FEFF 		bl	brakeMotor
 743:.\main.c      ****     start_turn_count = QuadDec_M1_GetCounter();
 3222              		.loc 1 743 0
 3223 001a FFF7FEFF 		bl	QuadDec_M1_GetCounter
 3224 001e 0346     		mov	r3, r0
 3225 0020 1A46     		mov	r2, r3
 3226 0022 044B     		ldr	r3, .L176+8
 3227 0024 1A80     		strh	r2, [r3]	@ movhi
 744:.\main.c      ****     Timer_2_Start();
 3228              		.loc 1 744 0
 3229 0026 FFF7FEFF 		bl	Timer_2_Start
 745:.\main.c      **** }
 3230              		.loc 1 745 0
 3231 002a 80BD     		pop	{r7, pc}
 3232              	.L177:
 3233              		.align	2
 3234              	.L176:
 3235 002c 00000000 		.word	movement_state
 3236 0030 00000000 		.word	prev_movement_state
 3237 0034 00000000 		.word	start_turn_count
 3238              		.cfi_endproc
 3239              	.LFE86:
 3240              		.size	initTurnU, .-initTurnU
 3241              		.section	.text.initForward,"ax",%progbits
 3242              		.align	2
 3243              		.global	initForward
 3244              		.thumb
 3245              		.thumb_func
ARM GAS  C:\Users\Logan\AppData\Local\Temp\ccyYPcsP.s 			page 72


 3246              		.type	initForward, %function
 3247              	initForward:
 3248              	.LFB87:
 746:.\main.c      **** 
 747:.\main.c      **** void initForward(){
 3249              		.loc 1 747 0
 3250              		.cfi_startproc
 3251              		@ args = 0, pretend = 0, frame = 0
 3252              		@ frame_needed = 1, uses_anonymous_args = 0
 3253 0000 80B5     		push	{r7, lr}
 3254              		.cfi_def_cfa_offset 8
 3255              		.cfi_offset 7, -8
 3256              		.cfi_offset 14, -4
 3257 0002 00AF     		add	r7, sp, #0
 3258              		.cfi_def_cfa_register 7
 748:.\main.c      ****     brakeMotor();
 3259              		.loc 1 748 0
 3260 0004 FFF7FEFF 		bl	brakeMotor
 749:.\main.c      ****     movement_state = DRIVE;
 3261              		.loc 1 749 0
 3262 0008 014B     		ldr	r3, .L179
 3263 000a 0022     		movs	r2, #0
 3264 000c 1A70     		strb	r2, [r3]
 750:.\main.c      **** }
 3265              		.loc 1 750 0
 3266 000e 80BD     		pop	{r7, pc}
 3267              	.L180:
 3268              		.align	2
 3269              	.L179:
 3270 0010 00000000 		.word	movement_state
 3271              		.cfi_endproc
 3272              	.LFE87:
 3273              		.size	initForward, .-initForward
 3274              		.section	.text.initBrake,"ax",%progbits
 3275              		.align	2
 3276              		.global	initBrake
 3277              		.thumb
 3278              		.thumb_func
 3279              		.type	initBrake, %function
 3280              	initBrake:
 3281              	.LFB88:
 751:.\main.c      **** 
 752:.\main.c      **** void initBrake(){
 3282              		.loc 1 752 0
 3283              		.cfi_startproc
 3284              		@ args = 0, pretend = 0, frame = 0
 3285              		@ frame_needed = 1, uses_anonymous_args = 0
 3286              		@ link register save eliminated.
 3287 0000 80B4     		push	{r7}
 3288              		.cfi_def_cfa_offset 4
 3289              		.cfi_offset 7, -4
 3290 0002 00AF     		add	r7, sp, #0
 3291              		.cfi_def_cfa_register 7
 753:.\main.c      ****     movement_state = STOPPED;
 3292              		.loc 1 753 0
 3293 0004 034B     		ldr	r3, .L182
 3294 0006 0322     		movs	r2, #3
ARM GAS  C:\Users\Logan\AppData\Local\Temp\ccyYPcsP.s 			page 73


 3295 0008 1A70     		strb	r2, [r3]
 754:.\main.c      **** }
 3296              		.loc 1 754 0
 3297 000a BD46     		mov	sp, r7
 3298              		.cfi_def_cfa_register 13
 3299              		@ sp needed
 3300 000c 5DF8047B 		ldr	r7, [sp], #4
 3301              		.cfi_restore 7
 3302              		.cfi_def_cfa_offset 0
 3303 0010 7047     		bx	lr
 3304              	.L183:
 3305 0012 00BF     		.align	2
 3306              	.L182:
 3307 0014 00000000 		.word	movement_state
 3308              		.cfi_endproc
 3309              	.LFE88:
 3310              		.size	initBrake, .-initBrake
 3311              		.section	.text.initTrack,"ax",%progbits
 3312              		.align	2
 3313              		.global	initTrack
 3314              		.thumb
 3315              		.thumb_func
 3316              		.type	initTrack, %function
 3317              	initTrack:
 3318              	.LFB89:
 755:.\main.c      **** 
 756:.\main.c      **** void initTrack()
 757:.\main.c      **** {
 3319              		.loc 1 757 0
 3320              		.cfi_startproc
 3321              		@ args = 0, pretend = 0, frame = 0
 3322              		@ frame_needed = 1, uses_anonymous_args = 0
 3323              		@ link register save eliminated.
 3324 0000 80B4     		push	{r7}
 3325              		.cfi_def_cfa_offset 4
 3326              		.cfi_offset 7, -4
 3327 0002 00AF     		add	r7, sp, #0
 3328              		.cfi_def_cfa_register 7
 758:.\main.c      ****     movement_state = TRACKING;
 3329              		.loc 1 758 0
 3330 0004 034B     		ldr	r3, .L185
 3331 0006 0422     		movs	r2, #4
 3332 0008 1A70     		strb	r2, [r3]
 759:.\main.c      **** }
 3333              		.loc 1 759 0
 3334 000a BD46     		mov	sp, r7
 3335              		.cfi_def_cfa_register 13
 3336              		@ sp needed
 3337 000c 5DF8047B 		ldr	r7, [sp], #4
 3338              		.cfi_restore 7
 3339              		.cfi_def_cfa_offset 0
 3340 0010 7047     		bx	lr
 3341              	.L186:
 3342 0012 00BF     		.align	2
 3343              	.L185:
 3344 0014 00000000 		.word	movement_state
 3345              		.cfi_endproc
ARM GAS  C:\Users\Logan\AppData\Local\Temp\ccyYPcsP.s 			page 74


 3346              	.LFE89:
 3347              		.size	initTrack, .-initTrack
 3348              		.section	.text.initTrackU,"ax",%progbits
 3349              		.align	2
 3350              		.global	initTrackU
 3351              		.thumb
 3352              		.thumb_func
 3353              		.type	initTrackU, %function
 3354              	initTrackU:
 3355              	.LFB90:
 760:.\main.c      **** 
 761:.\main.c      **** void initTrackU(){
 3356              		.loc 1 761 0
 3357              		.cfi_startproc
 3358              		@ args = 0, pretend = 0, frame = 0
 3359              		@ frame_needed = 1, uses_anonymous_args = 0
 3360              		@ link register save eliminated.
 3361 0000 80B4     		push	{r7}
 3362              		.cfi_def_cfa_offset 4
 3363              		.cfi_offset 7, -4
 3364 0002 00AF     		add	r7, sp, #0
 3365              		.cfi_def_cfa_register 7
 762:.\main.c      ****     movement_state = TRACKING_U;
 3366              		.loc 1 762 0
 3367 0004 034B     		ldr	r3, .L188
 3368 0006 0522     		movs	r2, #5
 3369 0008 1A70     		strb	r2, [r3]
 763:.\main.c      **** }
 3370              		.loc 1 763 0
 3371 000a BD46     		mov	sp, r7
 3372              		.cfi_def_cfa_register 13
 3373              		@ sp needed
 3374 000c 5DF8047B 		ldr	r7, [sp], #4
 3375              		.cfi_restore 7
 3376              		.cfi_def_cfa_offset 0
 3377 0010 7047     		bx	lr
 3378              	.L189:
 3379 0012 00BF     		.align	2
 3380              	.L188:
 3381 0014 00000000 		.word	movement_state
 3382              		.cfi_endproc
 3383              	.LFE90:
 3384              		.size	initTrackU, .-initTrackU
 3385              		.section	.text.inittrackLineZ,"ax",%progbits
 3386              		.align	2
 3387              		.global	inittrackLineZ
 3388              		.thumb
 3389              		.thumb_func
 3390              		.type	inittrackLineZ, %function
 3391              	inittrackLineZ:
 3392              	.LFB91:
 764:.\main.c      **** 
 765:.\main.c      **** void inittrackLineZ(){
 3393              		.loc 1 765 0
 3394              		.cfi_startproc
 3395              		@ args = 0, pretend = 0, frame = 0
 3396              		@ frame_needed = 1, uses_anonymous_args = 0
ARM GAS  C:\Users\Logan\AppData\Local\Temp\ccyYPcsP.s 			page 75


 3397              		@ link register save eliminated.
 3398 0000 80B4     		push	{r7}
 3399              		.cfi_def_cfa_offset 4
 3400              		.cfi_offset 7, -4
 3401 0002 00AF     		add	r7, sp, #0
 3402              		.cfi_def_cfa_register 7
 766:.\main.c      ****     movement_state = TRACKING_SOFT;
 3403              		.loc 1 766 0
 3404 0004 034B     		ldr	r3, .L191
 3405 0006 0622     		movs	r2, #6
 3406 0008 1A70     		strb	r2, [r3]
 767:.\main.c      **** }
 3407              		.loc 1 767 0
 3408 000a BD46     		mov	sp, r7
 3409              		.cfi_def_cfa_register 13
 3410              		@ sp needed
 3411 000c 5DF8047B 		ldr	r7, [sp], #4
 3412              		.cfi_restore 7
 3413              		.cfi_def_cfa_offset 0
 3414 0010 7047     		bx	lr
 3415              	.L192:
 3416 0012 00BF     		.align	2
 3417              	.L191:
 3418 0014 00000000 		.word	movement_state
 3419              		.cfi_endproc
 3420              	.LFE91:
 3421              		.size	inittrackLineZ, .-inittrackLineZ
 3422              		.section	.text.rxInt,"ax",%progbits
 3423              		.align	2
 3424              		.global	rxInt
 3425              		.thumb
 3426              		.thumb_func
 3427              		.type	rxInt, %function
 3428              	rxInt:
 3429              	.LFB92:
 768:.\main.c      **** 
 769:.\main.c      **** 
 770:.\main.c      **** 
 771:.\main.c      **** //Binary RF Data
 772:.\main.c      **** CY_ISR(rxInt){
 3430              		.loc 1 772 0
 3431              		.cfi_startproc
 3432              		@ args = 0, pretend = 0, frame = 8
 3433              		@ frame_needed = 1, uses_anonymous_args = 0
 3434 0000 B0B5     		push	{r4, r5, r7, lr}
 3435              		.cfi_def_cfa_offset 16
 3436              		.cfi_offset 4, -16
 3437              		.cfi_offset 5, -12
 3438              		.cfi_offset 7, -8
 3439              		.cfi_offset 14, -4
 3440 0002 82B0     		sub	sp, sp, #8
 3441              		.cfi_def_cfa_offset 24
 3442 0004 00AF     		add	r7, sp, #0
 3443              		.cfi_def_cfa_register 7
 773:.\main.c      ****     char rf_char = UART_GetChar();
 3444              		.loc 1 773 0
 3445 0006 FFF7FEFF 		bl	UART_GetChar
ARM GAS  C:\Users\Logan\AppData\Local\Temp\ccyYPcsP.s 			page 76


 3446 000a 0346     		mov	r3, r0
 3447 000c FB71     		strb	r3, [r7, #7]
 774:.\main.c      ****     if(rf_char == SOP){
 3448              		.loc 1 774 0
 3449 000e FB79     		ldrb	r3, [r7, #7]	@ zero_extendqisi2
 3450 0010 AA2B     		cmp	r3, #170
 3451 0012 2BD1     		bne	.L194
 775:.\main.c      ****             //we should evalute whether the last packet was valid by measuring the length of data
 776:.\main.c      ****             if(byteCount == 34)
 3452              		.loc 1 776 0
 3453 0014 224B     		ldr	r3, .L198
 3454 0016 1B78     		ldrb	r3, [r3]	@ zero_extendqisi2
 3455 0018 222B     		cmp	r3, #34
 3456 001a 20D1     		bne	.L195
 777:.\main.c      ****             {
 778:.\main.c      ****                 system_state = buffer_state;
 3457              		.loc 1 778 0
 3458 001c 214B     		ldr	r3, .L198+4
 3459 001e 224A     		ldr	r2, .L198+8
 3460 0020 1568     		ldr	r5, [r2]	@ unaligned
 3461 0022 5468     		ldr	r4, [r2, #4]	@ unaligned
 3462 0024 9068     		ldr	r0, [r2, #8]	@ unaligned
 3463 0026 D168     		ldr	r1, [r2, #12]	@ unaligned
 3464 0028 1D60     		str	r5, [r3]	@ unaligned
 3465 002a 5C60     		str	r4, [r3, #4]	@ unaligned
 3466 002c 9860     		str	r0, [r3, #8]	@ unaligned
 3467 002e D960     		str	r1, [r3, #12]	@ unaligned
 3468 0030 1569     		ldr	r5, [r2, #16]	@ unaligned
 3469 0032 5469     		ldr	r4, [r2, #20]	@ unaligned
 3470 0034 9069     		ldr	r0, [r2, #24]	@ unaligned
 3471 0036 D169     		ldr	r1, [r2, #28]	@ unaligned
 3472 0038 1D61     		str	r5, [r3, #16]	@ unaligned
 3473 003a 5C61     		str	r4, [r3, #20]	@ unaligned
 3474 003c 9861     		str	r0, [r3, #24]	@ unaligned
 3475 003e D961     		str	r1, [r3, #28]	@ unaligned
 779:.\main.c      ****                 if(initial_pos_valid == 0)
 3476              		.loc 1 779 0
 3477 0040 1A4B     		ldr	r3, .L198+12
 3478 0042 1B78     		ldrb	r3, [r3]	@ zero_extendqisi2
 3479 0044 002B     		cmp	r3, #0
 3480 0046 0AD1     		bne	.L195
 780:.\main.c      ****                 {
 781:.\main.c      ****                     LED_Write(~LED_Read());
 3481              		.loc 1 781 0
 3482 0048 FFF7FEFF 		bl	LED_Read
 3483 004c 0346     		mov	r3, r0
 3484 004e DB43     		mvns	r3, r3
 3485 0050 DBB2     		uxtb	r3, r3
 3486 0052 1846     		mov	r0, r3
 3487 0054 FFF7FEFF 		bl	LED_Write
 782:.\main.c      ****                     initial_pos_valid = 1;
 3488              		.loc 1 782 0
 3489 0058 144B     		ldr	r3, .L198+12
 3490 005a 0122     		movs	r2, #1
 3491 005c 1A70     		strb	r2, [r3]
 3492              	.L195:
 783:.\main.c      ****                 }
ARM GAS  C:\Users\Logan\AppData\Local\Temp\ccyYPcsP.s 			page 77


 784:.\main.c      ****             }
 785:.\main.c      ****             byteCount = 2; //2 for legacy purposes - fix this
 3493              		.loc 1 785 0
 3494 005e 104B     		ldr	r3, .L198
 3495 0060 0222     		movs	r2, #2
 3496 0062 1A70     		strb	r2, [r3]
 786:.\main.c      ****             flag_rx = 0;
 3497              		.loc 1 786 0
 3498 0064 124B     		ldr	r3, .L198+16
 3499 0066 0022     		movs	r2, #0
 3500 0068 1A70     		strb	r2, [r3]
 3501 006a 16E0     		b	.L193
 3502              	.L194:
 787:.\main.c      ****              //LED_Write(~LED_Read()); //flash an LED so we know the interrupt is called
 788:.\main.c      ****         }
 789:.\main.c      ****         else
 790:.\main.c      ****         {
 791:.\main.c      ****             packet[byteCount % 2] = rf_char;
 3503              		.loc 1 791 0
 3504 006c 0C4B     		ldr	r3, .L198
 3505 006e 1B78     		ldrb	r3, [r3]	@ zero_extendqisi2
 3506 0070 03F00103 		and	r3, r3, #1
 3507 0074 0F49     		ldr	r1, .L198+20
 3508 0076 FA79     		ldrb	r2, [r7, #7]
 3509 0078 CA54     		strb	r2, [r1, r3]
 792:.\main.c      ****            
 793:.\main.c      ****             if(byteCount % 2 == 1) //we have received a whole 16-bit packet
 3510              		.loc 1 793 0
 3511 007a 094B     		ldr	r3, .L198
 3512 007c 1B78     		ldrb	r3, [r3]	@ zero_extendqisi2
 3513 007e 03F00103 		and	r3, r3, #1
 3514 0082 DBB2     		uxtb	r3, r3
 3515 0084 002B     		cmp	r3, #0
 3516 0086 02D0     		beq	.L197
 794:.\main.c      ****             {
 795:.\main.c      ****                 flag_rx = 1;
 3517              		.loc 1 795 0
 3518 0088 094B     		ldr	r3, .L198+16
 3519 008a 0122     		movs	r2, #1
 3520 008c 1A70     		strb	r2, [r3]
 3521              	.L197:
 796:.\main.c      ****             }
 797:.\main.c      ****             byteCount = (byteCount + 1);
 3522              		.loc 1 797 0
 3523 008e 044B     		ldr	r3, .L198
 3524 0090 1B78     		ldrb	r3, [r3]	@ zero_extendqisi2
 3525 0092 0133     		adds	r3, r3, #1
 3526 0094 DAB2     		uxtb	r2, r3
 3527 0096 024B     		ldr	r3, .L198
 3528 0098 1A70     		strb	r2, [r3]
 3529              	.L193:
 798:.\main.c      ****         }
 799:.\main.c      **** }
 3530              		.loc 1 799 0
 3531 009a 0837     		adds	r7, r7, #8
 3532              		.cfi_def_cfa_offset 16
 3533 009c BD46     		mov	sp, r7
ARM GAS  C:\Users\Logan\AppData\Local\Temp\ccyYPcsP.s 			page 78


 3534              		.cfi_def_cfa_register 13
 3535              		@ sp needed
 3536 009e B0BD     		pop	{r4, r5, r7, pc}
 3537              	.L199:
 3538              		.align	2
 3539              	.L198:
 3540 00a0 00000000 		.word	byteCount
 3541 00a4 00000000 		.word	system_state
 3542 00a8 00000000 		.word	buffer_state
 3543 00ac 00000000 		.word	initial_pos_valid
 3544 00b0 00000000 		.word	flag_rx
 3545 00b4 00000000 		.word	packet
 3546              		.cfi_endproc
 3547              	.LFE92:
 3548              		.size	rxInt, .-rxInt
 3549              		.global	__aeabi_i2f
 3550              		.global	__aeabi_fmul
 3551              		.global	__aeabi_f2iz
 3552              		.section	.rodata
 3553 00c2 0000     		.align	2
 3554              	.LC9:
 3555 00c4 74617267 		.ascii	"target quad: %d\015\012\000"
 3555      65742071 
 3555      7561643A 
 3555      2025640D 
 3555      0A00
 3556 00d6 0000     		.align	2
 3557              	.LC10:
 3558 00d8 0D0A00   		.ascii	"\015\012\000"
 3559              		.section	.text.BT_rxInt,"ax",%progbits
 3560              		.align	2
 3561              		.global	BT_rxInt
 3562              		.thumb
 3563              		.thumb_func
 3564              		.type	BT_rxInt, %function
 3565              	BT_rxInt:
 3566              	.LFB93:
 800:.\main.c      **** 
 801:.\main.c      **** CY_ISR(BT_rxInt)
 802:.\main.c      **** {
 3567              		.loc 1 802 0
 3568              		.cfi_startproc
 3569              		@ args = 0, pretend = 0, frame = 32
 3570              		@ frame_needed = 1, uses_anonymous_args = 0
 3571 0000 80B5     		push	{r7, lr}
 3572              		.cfi_def_cfa_offset 8
 3573              		.cfi_offset 7, -8
 3574              		.cfi_offset 14, -4
 3575 0002 88B0     		sub	sp, sp, #32
 3576              		.cfi_def_cfa_offset 40
 3577 0004 00AF     		add	r7, sp, #0
 3578              		.cfi_def_cfa_register 7
 803:.\main.c      ****     char rf_char = UART_GetChar();
 3579              		.loc 1 803 0
 3580 0006 FFF7FEFF 		bl	UART_GetChar
 3581 000a 0346     		mov	r3, r0
 3582 000c FB75     		strb	r3, [r7, #23]
ARM GAS  C:\Users\Logan\AppData\Local\Temp\ccyYPcsP.s 			page 79


 804:.\main.c      ****     switch(rf_char){
 3583              		.loc 1 804 0
 3584 000e FB7D     		ldrb	r3, [r7, #23]	@ zero_extendqisi2
 3585 0010 313B     		subs	r3, r3, #49
 3586 0012 492B     		cmp	r3, #73
 3587 0014 00F26B81 		bhi	.L200
 3588 0018 01A2     		adr	r2, .L203
 3589 001a 52F823F0 		ldr	pc, [r2, r3, lsl #2]
 3590 001e 00BF     		.p2align 2
 3591              	.L203:
 3592 0020 83020000 		.word	.L202+1
 3593 0024 15020000 		.word	.L204+1
 3594 0028 EF020000 		.word	.L200+1
 3595 002c EF020000 		.word	.L200+1
 3596 0030 EF020000 		.word	.L200+1
 3597 0034 EF020000 		.word	.L200+1
 3598 0038 EF020000 		.word	.L200+1
 3599 003c EF020000 		.word	.L200+1
 3600 0040 EF020000 		.word	.L200+1
 3601 0044 EF020000 		.word	.L200+1
 3602 0048 EF020000 		.word	.L200+1
 3603 004c EF020000 		.word	.L200+1
 3604 0050 EF020000 		.word	.L200+1
 3605 0054 EF020000 		.word	.L200+1
 3606 0058 EF020000 		.word	.L200+1
 3607 005c EF020000 		.word	.L200+1
 3608 0060 EF020000 		.word	.L200+1
 3609 0064 EF020000 		.word	.L200+1
 3610 0068 EF020000 		.word	.L200+1
 3611 006c EF020000 		.word	.L200+1
 3612 0070 EF020000 		.word	.L200+1
 3613 0074 EF020000 		.word	.L200+1
 3614 0078 EF020000 		.word	.L200+1
 3615 007c EF020000 		.word	.L200+1
 3616 0080 EF020000 		.word	.L200+1
 3617 0084 EF020000 		.word	.L200+1
 3618 0088 EF020000 		.word	.L200+1
 3619 008c EF020000 		.word	.L200+1
 3620 0090 EF020000 		.word	.L200+1
 3621 0094 EF020000 		.word	.L200+1
 3622 0098 EF020000 		.word	.L200+1
 3623 009c EF020000 		.word	.L200+1
 3624 00a0 EF020000 		.word	.L200+1
 3625 00a4 EF020000 		.word	.L200+1
 3626 00a8 EF020000 		.word	.L200+1
 3627 00ac EF020000 		.word	.L200+1
 3628 00b0 EF020000 		.word	.L200+1
 3629 00b4 EF020000 		.word	.L200+1
 3630 00b8 EF020000 		.word	.L200+1
 3631 00bc EF020000 		.word	.L200+1
 3632 00c0 EF020000 		.word	.L200+1
 3633 00c4 EF020000 		.word	.L200+1
 3634 00c8 EF020000 		.word	.L200+1
 3635 00cc EF020000 		.word	.L200+1
 3636 00d0 EF020000 		.word	.L200+1
 3637 00d4 EF020000 		.word	.L200+1
 3638 00d8 EF020000 		.word	.L200+1
ARM GAS  C:\Users\Logan\AppData\Local\Temp\ccyYPcsP.s 			page 80


 3639 00dc EF020000 		.word	.L200+1
 3640 00e0 49010000 		.word	.L205+1
 3641 00e4 EF020000 		.word	.L200+1
 3642 00e8 EF020000 		.word	.L200+1
 3643 00ec 6D010000 		.word	.L206+1
 3644 00f0 EF020000 		.word	.L200+1
 3645 00f4 79010000 		.word	.L207+1
 3646 00f8 EF020000 		.word	.L200+1
 3647 00fc EF020000 		.word	.L200+1
 3648 0100 EF020000 		.word	.L200+1
 3649 0104 EF020000 		.word	.L200+1
 3650 0108 EF020000 		.word	.L200+1
 3651 010c EF020000 		.word	.L200+1
 3652 0110 EF020000 		.word	.L200+1
 3653 0114 EF020000 		.word	.L200+1
 3654 0118 EF020000 		.word	.L200+1
 3655 011c EF020000 		.word	.L200+1
 3656 0120 A9010000 		.word	.L208+1
 3657 0124 FF010000 		.word	.L209+1
 3658 0128 61010000 		.word	.L210+1
 3659 012c 85010000 		.word	.L211+1
 3660 0130 91010000 		.word	.L212+1
 3661 0134 EF020000 		.word	.L200+1
 3662 0138 55010000 		.word	.L213+1
 3663 013c EF020000 		.word	.L200+1
 3664 0140 EF020000 		.word	.L200+1
 3665 0144 9D010000 		.word	.L214+1
 3666              		.p2align 1
 3667              	.L205:
 3668              	.LBB11:
 805:.\main.c      ****     case 'a':
 806:.\main.c      ****         initTurnLeft();
 3669              		.loc 1 806 0
 3670 0148 FFF7FEFF 		bl	initTurnLeft
 807:.\main.c      ****         track_mode = NO_TRACK;
 3671              		.loc 1 807 0
 3672 014c 694B     		ldr	r3, .L224
 3673 014e 0022     		movs	r2, #0
 3674 0150 1A70     		strb	r2, [r3]
 808:.\main.c      ****         break;
 3675              		.loc 1 808 0
 3676 0152 CCE0     		b	.L200
 3677              	.L213:
 809:.\main.c      ****     case 'w':
 810:.\main.c      ****         initForward();
 3678              		.loc 1 810 0
 3679 0154 FFF7FEFF 		bl	initForward
 811:.\main.c      ****         track_mode = NO_TRACK;
 3680              		.loc 1 811 0
 3681 0158 664B     		ldr	r3, .L224
 3682 015a 0022     		movs	r2, #0
 3683 015c 1A70     		strb	r2, [r3]
 812:.\main.c      ****         break;
 3684              		.loc 1 812 0
 3685 015e C6E0     		b	.L200
 3686              	.L210:
 813:.\main.c      ****     case 's': 
ARM GAS  C:\Users\Logan\AppData\Local\Temp\ccyYPcsP.s 			page 81


 814:.\main.c      ****         reverseDirection();
 3687              		.loc 1 814 0
 3688 0160 FFF7FEFF 		bl	reverseDirection
 815:.\main.c      ****         track_mode = NO_TRACK;
 3689              		.loc 1 815 0
 3690 0164 634B     		ldr	r3, .L224
 3691 0166 0022     		movs	r2, #0
 3692 0168 1A70     		strb	r2, [r3]
 816:.\main.c      ****         break;
 3693              		.loc 1 816 0
 3694 016a C0E0     		b	.L200
 3695              	.L206:
 817:.\main.c      ****     case 'd':
 818:.\main.c      ****         initTurnRight();
 3696              		.loc 1 818 0
 3697 016c FFF7FEFF 		bl	initTurnRight
 819:.\main.c      ****         track_mode = NO_TRACK;
 3698              		.loc 1 819 0
 3699 0170 604B     		ldr	r3, .L224
 3700 0172 0022     		movs	r2, #0
 3701 0174 1A70     		strb	r2, [r3]
 820:.\main.c      ****         break;
 3702              		.loc 1 820 0
 3703 0176 BAE0     		b	.L200
 3704              	.L207:
 821:.\main.c      ****     case 'f':
 822:.\main.c      ****         initBrake();
 3705              		.loc 1 822 0
 3706 0178 FFF7FEFF 		bl	initBrake
 823:.\main.c      ****         track_mode = NO_TRACK;
 3707              		.loc 1 823 0
 3708 017c 5D4B     		ldr	r3, .L224
 3709 017e 0022     		movs	r2, #0
 3710 0180 1A70     		strb	r2, [r3]
 824:.\main.c      ****         break;
 3711              		.loc 1 824 0
 3712 0182 B4E0     		b	.L200
 3713              	.L211:
 825:.\main.c      ****     case('t'):
 826:.\main.c      ****         track_mode = CURVE_TRACK;
 3714              		.loc 1 826 0
 3715 0184 5B4B     		ldr	r3, .L224
 3716 0186 0122     		movs	r2, #1
 3717 0188 1A70     		strb	r2, [r3]
 827:.\main.c      ****         initTrack();
 3718              		.loc 1 827 0
 3719 018a FFF7FEFF 		bl	initTrack
 828:.\main.c      ****         break;
 3720              		.loc 1 828 0
 3721 018e AEE0     		b	.L200
 3722              	.L212:
 829:.\main.c      ****     case('u'):
 830:.\main.c      ****         initTrackU();
 3723              		.loc 1 830 0
 3724 0190 FFF7FEFF 		bl	initTrackU
 831:.\main.c      ****         track_mode = U_TRACK;
 3725              		.loc 1 831 0
ARM GAS  C:\Users\Logan\AppData\Local\Temp\ccyYPcsP.s 			page 82


 3726 0194 574B     		ldr	r3, .L224
 3727 0196 0222     		movs	r2, #2
 3728 0198 1A70     		strb	r2, [r3]
 832:.\main.c      ****         break;
 3729              		.loc 1 832 0
 3730 019a A8E0     		b	.L200
 3731              	.L214:
 833:.\main.c      ****     case('z'):
 834:.\main.c      ****         track_mode = SQUARE_TRACK;
 3732              		.loc 1 834 0
 3733 019c 554B     		ldr	r3, .L224
 3734 019e 0322     		movs	r2, #3
 3735 01a0 1A70     		strb	r2, [r3]
 835:.\main.c      ****         inittrackLineZ();
 3736              		.loc 1 835 0
 3737 01a2 FFF7FEFF 		bl	inittrackLineZ
 836:.\main.c      ****         break;
 3738              		.loc 1 836 0
 3739 01a6 A2E0     		b	.L200
 3740              	.L208:
 837:.\main.c      ****     case('q'):
 838:.\main.c      ****         track_mode = QUAD_STOP;
 3741              		.loc 1 838 0
 3742 01a8 524B     		ldr	r3, .L224
 3743 01aa 0422     		movs	r2, #4
 3744 01ac 1A70     		strb	r2, [r3]
 839:.\main.c      ****         accum_dist = 0;
 3745              		.loc 1 839 0
 3746 01ae 524B     		ldr	r3, .L224+4
 3747 01b0 0022     		movs	r2, #0
 3748 01b2 1A80     		strh	r2, [r3]	@ movhi
 840:.\main.c      ****         target_distance_quad = target_distance_cm * quad_per_cm;
 3749              		.loc 1 840 0
 3750 01b4 514B     		ldr	r3, .L224+8
 3751 01b6 1B88     		ldrh	r3, [r3]
 3752 01b8 1BB2     		sxth	r3, r3
 3753 01ba 1846     		mov	r0, r3
 3754 01bc FFF7FEFF 		bl	__aeabi_i2f
 3755 01c0 0246     		mov	r2, r0
 3756 01c2 4F4B     		ldr	r3, .L224+12
 3757 01c4 1B68     		ldr	r3, [r3]	@ float
 3758 01c6 1046     		mov	r0, r2
 3759 01c8 1946     		mov	r1, r3
 3760 01ca FFF7FEFF 		bl	__aeabi_fmul
 3761 01ce 0346     		mov	r3, r0
 3762 01d0 1846     		mov	r0, r3
 3763 01d2 FFF7FEFF 		bl	__aeabi_f2iz
 3764 01d6 0346     		mov	r3, r0
 3765 01d8 9AB2     		uxth	r2, r3
 3766 01da 4A4B     		ldr	r3, .L224+16
 3767 01dc 1A80     		strh	r2, [r3]	@ movhi
 841:.\main.c      ****         char mes[16];
 842:.\main.c      ****         sprintf(mes, "target quad: %d\r\n", target_distance_quad);
 3768              		.loc 1 842 0
 3769 01de 494B     		ldr	r3, .L224+16
 3770 01e0 1B88     		ldrh	r3, [r3]
 3771 01e2 1BB2     		sxth	r3, r3
ARM GAS  C:\Users\Logan\AppData\Local\Temp\ccyYPcsP.s 			page 83


 3772 01e4 3A1D     		adds	r2, r7, #4
 3773 01e6 1046     		mov	r0, r2
 3774 01e8 4749     		ldr	r1, .L224+20
 3775 01ea 1A46     		mov	r2, r3
 3776 01ec FFF7FEFF 		bl	sprintf
 843:.\main.c      ****         UART_PutString(mes);
 3777              		.loc 1 843 0
 3778 01f0 3B1D     		adds	r3, r7, #4
 3779 01f2 1846     		mov	r0, r3
 3780 01f4 FFF7FEFF 		bl	UART_PutString
 844:.\main.c      ****         initForward();
 3781              		.loc 1 844 0
 3782 01f8 FFF7FEFF 		bl	initForward
 845:.\main.c      ****         break;
 3783              		.loc 1 845 0
 3784 01fc 77E0     		b	.L200
 3785              	.L209:
 846:.\main.c      ****     case ('r'):
 847:.\main.c      ****         track_mode = RF_STOP;
 3786              		.loc 1 847 0
 3787 01fe 3D4B     		ldr	r3, .L224
 3788 0200 0522     		movs	r2, #5
 3789 0202 1A70     		strb	r2, [r3]
 848:.\main.c      ****         changeToRF();
 3790              		.loc 1 848 0
 3791 0204 FFF7FEFF 		bl	changeToRF
 849:.\main.c      ****         // Make initial position
 850:.\main.c      ****         initial_pos_valid = 0;
 3792              		.loc 1 850 0
 3793 0208 404B     		ldr	r3, .L224+24
 3794 020a 0022     		movs	r2, #0
 3795 020c 1A70     		strb	r2, [r3]
 851:.\main.c      ****         initBrake();
 3796              		.loc 1 851 0
 3797 020e FFF7FEFF 		bl	initBrake
 852:.\main.c      ****         break;
 3798              		.loc 1 852 0
 3799 0212 6CE0     		b	.L200
 3800              	.L204:
 853:.\main.c      ****     case ('2'):
 854:.\main.c      ****         track_mode = DEST_TEST;
 3801              		.loc 1 854 0
 3802 0214 374B     		ldr	r3, .L224
 3803 0216 0622     		movs	r2, #6
 3804 0218 1A70     		strb	r2, [r3]
 855:.\main.c      ****         tracked_direction = robot_direction;
 3805              		.loc 1 855 0
 3806 021a 3D4B     		ldr	r3, .L224+28
 3807 021c 1B68     		ldr	r3, [r3]
 3808 021e 3D4A     		ldr	r2, .L224+32
 3809 0220 1360     		str	r3, [r2]
 856:.\main.c      ****         instructionLength = generateDirections();
 3810              		.loc 1 856 0
 3811 0222 FFF7FEFF 		bl	generateDirections
 3812 0226 0346     		mov	r3, r0
 3813 0228 9AB2     		uxth	r2, r3
 3814 022a 3B4B     		ldr	r3, .L224+36
ARM GAS  C:\Users\Logan\AppData\Local\Temp\ccyYPcsP.s 			page 84


 3815 022c 1A80     		strh	r2, [r3]	@ movhi
 857:.\main.c      ****         //instructionLength = generateEntireMapDirections();
 858:.\main.c      ****         //char message[128];
 859:.\main.c      ****        // sprintf(message, "p:%s\r\n", instructions);
 860:.\main.c      ****         int i = 0;
 3816              		.loc 1 860 0
 3817 022e 0023     		movs	r3, #0
 3818 0230 FB61     		str	r3, [r7, #28]
 861:.\main.c      ****         for(i = 0;i < instructionLength; i++)
 3819              		.loc 1 861 0
 3820 0232 0023     		movs	r3, #0
 3821 0234 FB61     		str	r3, [r7, #28]
 3822 0236 18E0     		b	.L216
 3823              	.L219:
 862:.\main.c      ****         {
 863:.\main.c      ****             if(i%2 == 0)
 3824              		.loc 1 863 0
 3825 0238 FB69     		ldr	r3, [r7, #28]
 3826 023a 03F00103 		and	r3, r3, #1
 3827 023e 002B     		cmp	r3, #0
 3828 0240 07D1     		bne	.L217
 864:.\main.c      ****             {
 865:.\main.c      ****                 UART_PutChar(instructions[i]);
 3829              		.loc 1 865 0
 3830 0242 364A     		ldr	r2, .L224+40
 3831 0244 FB69     		ldr	r3, [r7, #28]
 3832 0246 1344     		add	r3, r3, r2
 3833 0248 1B78     		ldrb	r3, [r3]	@ zero_extendqisi2
 3834 024a 1846     		mov	r0, r3
 3835 024c FFF7FEFF 		bl	UART_PutChar
 3836 0250 08E0     		b	.L218
 3837              	.L217:
 866:.\main.c      ****             }
 867:.\main.c      ****             else UART_PutChar(instructions[i] + 48);
 3838              		.loc 1 867 0
 3839 0252 324A     		ldr	r2, .L224+40
 3840 0254 FB69     		ldr	r3, [r7, #28]
 3841 0256 1344     		add	r3, r3, r2
 3842 0258 1B78     		ldrb	r3, [r3]	@ zero_extendqisi2
 3843 025a 3033     		adds	r3, r3, #48
 3844 025c DBB2     		uxtb	r3, r3
 3845 025e 1846     		mov	r0, r3
 3846 0260 FFF7FEFF 		bl	UART_PutChar
 3847              	.L218:
 861:.\main.c      ****         {
 3848              		.loc 1 861 0 discriminator 2
 3849 0264 FB69     		ldr	r3, [r7, #28]
 3850 0266 0133     		adds	r3, r3, #1
 3851 0268 FB61     		str	r3, [r7, #28]
 3852              	.L216:
 861:.\main.c      ****         {
 3853              		.loc 1 861 0 is_stmt 0 discriminator 1
 3854 026a 2B4B     		ldr	r3, .L224+36
 3855 026c 1B88     		ldrh	r3, [r3]
 3856 026e 1A46     		mov	r2, r3
 3857 0270 FB69     		ldr	r3, [r7, #28]
 3858 0272 9A42     		cmp	r2, r3
ARM GAS  C:\Users\Logan\AppData\Local\Temp\ccyYPcsP.s 			page 85


 3859 0274 E0DC     		bgt	.L219
 868:.\main.c      **** 
 869:.\main.c      ****         }
 870:.\main.c      ****         
 871:.\main.c      ****         UART_PutString("\r\n");
 3860              		.loc 1 871 0 is_stmt 1
 3861 0276 2A48     		ldr	r0, .L224+44
 3862 0278 FFF7FEFF 		bl	UART_PutString
 872:.\main.c      **** 
 873:.\main.c      ****         inittrackLineZ();
 3863              		.loc 1 873 0
 3864 027c FFF7FEFF 		bl	inittrackLineZ
 874:.\main.c      ****         break;
 3865              		.loc 1 874 0
 3866 0280 35E0     		b	.L200
 3867              	.L202:
 875:.\main.c      ****         case ('1'):
 876:.\main.c      ****         track_mode = DEST_TEST;
 3868              		.loc 1 876 0
 3869 0282 1C4B     		ldr	r3, .L224
 3870 0284 0622     		movs	r2, #6
 3871 0286 1A70     		strb	r2, [r3]
 877:.\main.c      ****         tracked_direction = robot_direction;
 3872              		.loc 1 877 0
 3873 0288 214B     		ldr	r3, .L224+28
 3874 028a 1B68     		ldr	r3, [r3]
 3875 028c 214A     		ldr	r2, .L224+32
 3876 028e 1360     		str	r3, [r2]
 878:.\main.c      ****         //instructionLength = generateDirections();
 879:.\main.c      ****         instructionLength = generateEntireMapDirections();
 3877              		.loc 1 879 0
 3878 0290 FFF7FEFF 		bl	generateEntireMapDirections
 3879 0294 0346     		mov	r3, r0
 3880 0296 9AB2     		uxth	r2, r3
 3881 0298 1F4B     		ldr	r3, .L224+36
 3882 029a 1A80     		strh	r2, [r3]	@ movhi
 880:.\main.c      ****         //char message[128];
 881:.\main.c      ****        // sprintf(message, "p:%s\r\n", instructions);
 882:.\main.c      ****         //instructionCount = instructionLength - 22;
 883:.\main.c      ****         int x;
 884:.\main.c      ****         for(x = instructionCount;x < instructionLength; x++)
 3883              		.loc 1 884 0
 3884 029c 214B     		ldr	r3, .L224+48
 3885 029e 1B88     		ldrh	r3, [r3]
 3886 02a0 BB61     		str	r3, [r7, #24]
 3887 02a2 18E0     		b	.L220
 3888              	.L223:
 885:.\main.c      ****         {
 886:.\main.c      ****             if(x%2 == 0)
 3889              		.loc 1 886 0
 3890 02a4 BB69     		ldr	r3, [r7, #24]
 3891 02a6 03F00103 		and	r3, r3, #1
 3892 02aa 002B     		cmp	r3, #0
 3893 02ac 07D1     		bne	.L221
 887:.\main.c      ****             {
 888:.\main.c      ****                 UART_PutChar(instructions[x]);
 3894              		.loc 1 888 0
ARM GAS  C:\Users\Logan\AppData\Local\Temp\ccyYPcsP.s 			page 86


 3895 02ae 1B4A     		ldr	r2, .L224+40
 3896 02b0 BB69     		ldr	r3, [r7, #24]
 3897 02b2 1344     		add	r3, r3, r2
 3898 02b4 1B78     		ldrb	r3, [r3]	@ zero_extendqisi2
 3899 02b6 1846     		mov	r0, r3
 3900 02b8 FFF7FEFF 		bl	UART_PutChar
 3901 02bc 08E0     		b	.L222
 3902              	.L221:
 889:.\main.c      ****             }
 890:.\main.c      ****             else UART_PutChar(instructions[x] + 48);
 3903              		.loc 1 890 0
 3904 02be 174A     		ldr	r2, .L224+40
 3905 02c0 BB69     		ldr	r3, [r7, #24]
 3906 02c2 1344     		add	r3, r3, r2
 3907 02c4 1B78     		ldrb	r3, [r3]	@ zero_extendqisi2
 3908 02c6 3033     		adds	r3, r3, #48
 3909 02c8 DBB2     		uxtb	r3, r3
 3910 02ca 1846     		mov	r0, r3
 3911 02cc FFF7FEFF 		bl	UART_PutChar
 3912              	.L222:
 884:.\main.c      ****         {
 3913              		.loc 1 884 0 discriminator 2
 3914 02d0 BB69     		ldr	r3, [r7, #24]
 3915 02d2 0133     		adds	r3, r3, #1
 3916 02d4 BB61     		str	r3, [r7, #24]
 3917              	.L220:
 884:.\main.c      ****         {
 3918              		.loc 1 884 0 is_stmt 0 discriminator 1
 3919 02d6 104B     		ldr	r3, .L224+36
 3920 02d8 1B88     		ldrh	r3, [r3]
 3921 02da 1A46     		mov	r2, r3
 3922 02dc BB69     		ldr	r3, [r7, #24]
 3923 02de 9A42     		cmp	r2, r3
 3924 02e0 E0DC     		bgt	.L223
 891:.\main.c      **** 
 892:.\main.c      ****         }
 893:.\main.c      ****         
 894:.\main.c      ****         UART_PutString("\r\n");
 3925              		.loc 1 894 0 is_stmt 1
 3926 02e2 0F48     		ldr	r0, .L224+44
 3927 02e4 FFF7FEFF 		bl	UART_PutString
 895:.\main.c      **** 
 896:.\main.c      ****         inittrackLineZ();
 3928              		.loc 1 896 0
 3929 02e8 FFF7FEFF 		bl	inittrackLineZ
 897:.\main.c      ****         break;
 3930              		.loc 1 897 0
 3931 02ec 00BF     		nop
 3932              	.L200:
 3933              	.LBE11:
 898:.\main.c      ****     }
 899:.\main.c      **** }
 3934              		.loc 1 899 0
 3935 02ee 2037     		adds	r7, r7, #32
 3936              		.cfi_def_cfa_offset 8
 3937 02f0 BD46     		mov	sp, r7
 3938              		.cfi_def_cfa_register 13
ARM GAS  C:\Users\Logan\AppData\Local\Temp\ccyYPcsP.s 			page 87


 3939              		@ sp needed
 3940 02f2 80BD     		pop	{r7, pc}
 3941              	.L225:
 3942              		.align	2
 3943              	.L224:
 3944 02f4 00000000 		.word	track_mode
 3945 02f8 00000000 		.word	accum_dist
 3946 02fc 00000000 		.word	target_distance_cm
 3947 0300 00000000 		.word	quad_per_cm
 3948 0304 00000000 		.word	target_distance_quad
 3949 0308 C4000000 		.word	.LC9
 3950 030c 00000000 		.word	initial_pos_valid
 3951 0310 00000000 		.word	robot_direction
 3952 0314 00000000 		.word	tracked_direction
 3953 0318 00000000 		.word	instructionLength
 3954 031c 00000000 		.word	instructions
 3955 0320 D8000000 		.word	.LC10
 3956 0324 00000000 		.word	instructionCount
 3957              		.cfi_endproc
 3958              	.LFE93:
 3959              		.size	BT_rxInt, .-BT_rxInt
 3960              		.section	.text.changeToRF,"ax",%progbits
 3961              		.align	2
 3962              		.global	changeToRF
 3963              		.thumb
 3964              		.thumb_func
 3965              		.type	changeToRF, %function
 3966              	changeToRF:
 3967              	.LFB94:
 900:.\main.c      **** 
 901:.\main.c      **** 
 902:.\main.c      **** void changeToRF()
 903:.\main.c      **** {
 3968              		.loc 1 903 0
 3969              		.cfi_startproc
 3970              		@ args = 0, pretend = 0, frame = 0
 3971              		@ frame_needed = 1, uses_anonymous_args = 0
 3972 0000 80B5     		push	{r7, lr}
 3973              		.cfi_def_cfa_offset 8
 3974              		.cfi_offset 7, -8
 3975              		.cfi_offset 14, -4
 3976 0002 00AF     		add	r7, sp, #0
 3977              		.cfi_def_cfa_register 7
 904:.\main.c      ****         //disable BT
 905:.\main.c      ****         BT_ENABLED = 0;
 3978              		.loc 1 905 0
 3979 0004 0B4B     		ldr	r3, .L227
 3980 0006 0022     		movs	r2, #0
 3981 0008 1A70     		strb	r2, [r3]
 906:.\main.c      ****         isrRF_RX_Stop();
 3982              		.loc 1 906 0
 3983 000a FFF7FEFF 		bl	isrRF_RX_Stop
 907:.\main.c      ****         UART_Stop();
 3984              		.loc 1 907 0
 3985 000e FFF7FEFF 		bl	UART_Stop
 908:.\main.c      ****         
 909:.\main.c      ****         //enable RF
ARM GAS  C:\Users\Logan\AppData\Local\Temp\ccyYPcsP.s 			page 88


 910:.\main.c      ****         BIN_ENABLED = 1;
 3986              		.loc 1 910 0
 3987 0012 094B     		ldr	r3, .L227+4
 3988 0014 0122     		movs	r2, #1
 3989 0016 1A70     		strb	r2, [r3]
 911:.\main.c      ****         UART_clk_SetDividerValue(130);
 3990              		.loc 1 911 0
 3991 0018 8120     		movs	r0, #129
 3992 001a 0121     		movs	r1, #1
 3993 001c FFF7FEFF 		bl	UART_clk_SetDividerRegister
 912:.\main.c      ****         isrRF_RX_StartEx(rxInt);
 3994              		.loc 1 912 0
 3995 0020 0648     		ldr	r0, .L227+8
 3996 0022 FFF7FEFF 		bl	isrRF_RX_StartEx
 913:.\main.c      ****         UART_Start();
 3997              		.loc 1 913 0
 3998 0026 FFF7FEFF 		bl	UART_Start
 914:.\main.c      ****         RF_BT_SELECT_Write(0);
 3999              		.loc 1 914 0
 4000 002a 0020     		movs	r0, #0
 4001 002c FFF7FEFF 		bl	RF_BT_SELECT_Write
 915:.\main.c      **** }
 4002              		.loc 1 915 0
 4003 0030 80BD     		pop	{r7, pc}
 4004              	.L228:
 4005 0032 00BF     		.align	2
 4006              	.L227:
 4007 0034 00000000 		.word	BT_ENABLED
 4008 0038 00000000 		.word	BIN_ENABLED
 4009 003c 00000000 		.word	rxInt
 4010              		.cfi_endproc
 4011              	.LFE94:
 4012              		.size	changeToRF, .-changeToRF
 4013              		.section	.text.changeToBT,"ax",%progbits
 4014              		.align	2
 4015              		.global	changeToBT
 4016              		.thumb
 4017              		.thumb_func
 4018              		.type	changeToBT, %function
 4019              	changeToBT:
 4020              	.LFB95:
 916:.\main.c      **** 
 917:.\main.c      **** void changeToBT()
 918:.\main.c      **** {
 4021              		.loc 1 918 0
 4022              		.cfi_startproc
 4023              		@ args = 0, pretend = 0, frame = 0
 4024              		@ frame_needed = 1, uses_anonymous_args = 0
 4025 0000 80B5     		push	{r7, lr}
 4026              		.cfi_def_cfa_offset 8
 4027              		.cfi_offset 7, -8
 4028              		.cfi_offset 14, -4
 4029 0002 00AF     		add	r7, sp, #0
 4030              		.cfi_def_cfa_register 7
 919:.\main.c      ****         //disable RF
 920:.\main.c      ****         BIN_ENABLED = 0;
 4031              		.loc 1 920 0
ARM GAS  C:\Users\Logan\AppData\Local\Temp\ccyYPcsP.s 			page 89


 4032 0004 0B4B     		ldr	r3, .L230
 4033 0006 0022     		movs	r2, #0
 4034 0008 1A70     		strb	r2, [r3]
 921:.\main.c      ****         isrRF_RX_Stop();
 4035              		.loc 1 921 0
 4036 000a FFF7FEFF 		bl	isrRF_RX_Stop
 922:.\main.c      ****         UART_Stop();
 4037              		.loc 1 922 0
 4038 000e FFF7FEFF 		bl	UART_Stop
 923:.\main.c      ****         
 924:.\main.c      ****         //enable BT
 925:.\main.c      ****         BT_ENABLED = 1;
 4039              		.loc 1 925 0
 4040 0012 094B     		ldr	r3, .L230+4
 4041 0014 0122     		movs	r2, #1
 4042 0016 1A70     		strb	r2, [r3]
 926:.\main.c      ****         UART_clk_SetDividerValue(781);
 4043              		.loc 1 926 0
 4044 0018 4FF44370 		mov	r0, #780
 4045 001c 0121     		movs	r1, #1
 4046 001e FFF7FEFF 		bl	UART_clk_SetDividerRegister
 927:.\main.c      ****         isrRF_RX_StartEx(BT_rxInt);
 4047              		.loc 1 927 0
 4048 0022 0648     		ldr	r0, .L230+8
 4049 0024 FFF7FEFF 		bl	isrRF_RX_StartEx
 928:.\main.c      ****         UART_Start();
 4050              		.loc 1 928 0
 4051 0028 FFF7FEFF 		bl	UART_Start
 929:.\main.c      ****         RF_BT_SELECT_Write(1);
 4052              		.loc 1 929 0
 4053 002c 0120     		movs	r0, #1
 4054 002e FFF7FEFF 		bl	RF_BT_SELECT_Write
 930:.\main.c      **** }
 4055              		.loc 1 930 0
 4056 0032 80BD     		pop	{r7, pc}
 4057              	.L231:
 4058              		.align	2
 4059              	.L230:
 4060 0034 00000000 		.word	BIN_ENABLED
 4061 0038 00000000 		.word	BT_ENABLED
 4062 003c 00000000 		.word	BT_rxInt
 4063              		.cfi_endproc
 4064              	.LFE95:
 4065              		.size	changeToBT, .-changeToBT
 4066              		.global	__aeabi_dmul
 4067              		.section	.text.Quad_Dec_response,"ax",%progbits
 4068              		.align	2
 4069              		.global	Quad_Dec_response
 4070              		.thumb
 4071              		.thumb_func
 4072              		.type	Quad_Dec_response, %function
 4073              	Quad_Dec_response:
 4074              	.LFB96:
 931:.\main.c      **** 
 932:.\main.c      **** 
 933:.\main.c      **** void Quad_Dec_response()
 934:.\main.c      **** {
ARM GAS  C:\Users\Logan\AppData\Local\Temp\ccyYPcsP.s 			page 90


 4075              		.loc 1 934 0
 4076              		.cfi_startproc
 4077              		@ args = 0, pretend = 0, frame = 32
 4078              		@ frame_needed = 1, uses_anonymous_args = 0
 4079 0000 B0B5     		push	{r4, r5, r7, lr}
 4080              		.cfi_def_cfa_offset 16
 4081              		.cfi_offset 4, -16
 4082              		.cfi_offset 5, -12
 4083              		.cfi_offset 7, -8
 4084              		.cfi_offset 14, -4
 4085 0002 88B0     		sub	sp, sp, #32
 4086              		.cfi_def_cfa_offset 48
 4087 0004 00AF     		add	r7, sp, #0
 4088              		.cfi_def_cfa_register 7
 935:.\main.c      ****     //Check if the flag has been set
 936:.\main.c      ****     if (!flag_calc_wheelspeed) return;
 4089              		.loc 1 936 0
 4090 0006 824B     		ldr	r3, .L240
 4091 0008 1B78     		ldrb	r3, [r3]	@ zero_extendqisi2
 4092 000a 002B     		cmp	r3, #0
 4093 000c 00D1     		bne	.L233
 4094 000e FCE0     		b	.L232
 4095              	.L233:
 937:.\main.c      ****     flag_calc_wheelspeed = 0;
 4096              		.loc 1 937 0
 4097 0010 7F4B     		ldr	r3, .L240
 4098 0012 0022     		movs	r2, #0
 4099 0014 1A70     		strb	r2, [r3]
 938:.\main.c      ****     
 939:.\main.c      ****     //char wheel_1_str [64];
 940:.\main.c      ****     //char wheel_2_str [64];
 941:.\main.c      ****     //sprintf(wheel_1_str, "quad count 1 is: %d\n\r", quad_diff1);
 942:.\main.c      ****     //usbPutString(wheel_1_str);
 943:.\main.c      ****     //sprintf(wheel_2_str, "quad count 2 is: %d\n\r", quad_diff2);
 944:.\main.c      ****     
 945:.\main.c      ****     //usbPutString(wheel_2_str);
 946:.\main.c      ****     
 947:.\main.c      ****     int16 leftSpeed = quad_diff1;
 4100              		.loc 1 947 0
 4101 0016 7F4B     		ldr	r3, .L240+4
 4102 0018 1B88     		ldrh	r3, [r3]	@ movhi
 4103 001a FB81     		strh	r3, [r7, #14]	@ movhi
 948:.\main.c      ****     int16 rightSpeed = quad_diff2;
 4104              		.loc 1 948 0
 4105 001c 7E4B     		ldr	r3, .L240+8
 4106 001e 1B88     		ldrh	r3, [r3]	@ movhi
 4107 0020 BB81     		strh	r3, [r7, #12]	@ movhi
 949:.\main.c      ****     double scalingLeft = 1;
 4108              		.loc 1 949 0
 4109 0022 4FF00002 		mov	r2, #0
 4110 0026 7D4B     		ldr	r3, .L240+12
 4111 0028 C7E90623 		strd	r2, [r7, #24]
 950:.\main.c      ****     double scalingRight = 1;
 4112              		.loc 1 950 0
 4113 002c 4FF00002 		mov	r2, #0
 4114 0030 7A4B     		ldr	r3, .L240+12
 4115 0032 C7E90423 		strd	r2, [r7, #16]
ARM GAS  C:\Users\Logan\AppData\Local\Temp\ccyYPcsP.s 			page 91


 951:.\main.c      ****     
 952:.\main.c      ****     //there's an initial right tilt by default, so we want to decrease the initial left speed
 953:.\main.c      ****     if(leftSpeed == 0 && rightSpeed == 0){ 
 4116              		.loc 1 953 0
 4117 0036 B7F90E30 		ldrsh	r3, [r7, #14]
 4118 003a 002B     		cmp	r3, #0
 4119 003c 0FD1     		bne	.L235
 4120              		.loc 1 953 0 is_stmt 0 discriminator 1
 4121 003e B7F90C30 		ldrsh	r3, [r7, #12]
 4122 0042 002B     		cmp	r3, #0
 4123 0044 0BD1     		bne	.L235
 954:.\main.c      ****        //leftSpeed = 3;
 955:.\main.c      ****         scalingLeft = 2;
 4124              		.loc 1 955 0 is_stmt 1
 4125 0046 4FF00002 		mov	r2, #0
 4126 004a 4FF08043 		mov	r3, #1073741824
 4127 004e C7E90623 		strd	r2, [r7, #24]
 956:.\main.c      ****         scalingRight = 2;
 4128              		.loc 1 956 0
 4129 0052 4FF00002 		mov	r2, #0
 4130 0056 4FF08043 		mov	r3, #1073741824
 4131 005a C7E90423 		strd	r2, [r7, #16]
 4132              	.L235:
 957:.\main.c      ****     }
 958:.\main.c      **** 
 959:.\main.c      ****     int interCalc = leftSpeedLimit - abs(leftSpeed);
 4133              		.loc 1 959 0
 4134 005e 704B     		ldr	r3, .L240+16
 4135 0060 1B88     		ldrh	r3, [r3]
 4136 0062 1AB2     		sxth	r2, r3
 4137 0064 B7F90E30 		ldrsh	r3, [r7, #14]
 4138 0068 002B     		cmp	r3, #0
 4139 006a B8BF     		it	lt
 4140 006c 5B42     		rsblt	r3, r3, #0
 4141 006e D31A     		subs	r3, r2, r3
 4142 0070 BB60     		str	r3, [r7, #8]
 960:.\main.c      ****     int nextSpeed = (abs(interCalc) / interCalc) * sqrt(abs((int)(interCalc)));
 4143              		.loc 1 960 0
 4144 0072 BB68     		ldr	r3, [r7, #8]
 4145 0074 83EAE372 		eor	r2, r3, r3, asr #31
 4146 0078 A2EBE372 		sub	r2, r2, r3, asr #31
 4147 007c BB68     		ldr	r3, [r7, #8]
 4148 007e 92FBF3F3 		sdiv	r3, r2, r3
 4149 0082 1846     		mov	r0, r3
 4150 0084 FFF7FEFF 		bl	__aeabi_i2d
 4151 0088 0446     		mov	r4, r0
 4152 008a 0D46     		mov	r5, r1
 4153 008c BB68     		ldr	r3, [r7, #8]
 4154 008e 002B     		cmp	r3, #0
 4155 0090 B8BF     		it	lt
 4156 0092 5B42     		rsblt	r3, r3, #0
 4157 0094 1846     		mov	r0, r3
 4158 0096 FFF7FEFF 		bl	__aeabi_i2d
 4159 009a 0246     		mov	r2, r0
 4160 009c 0B46     		mov	r3, r1
 4161 009e 1046     		mov	r0, r2
 4162 00a0 1946     		mov	r1, r3
ARM GAS  C:\Users\Logan\AppData\Local\Temp\ccyYPcsP.s 			page 92


 4163 00a2 FFF7FEFF 		bl	sqrt
 4164 00a6 0246     		mov	r2, r0
 4165 00a8 0B46     		mov	r3, r1
 4166 00aa 2046     		mov	r0, r4
 4167 00ac 2946     		mov	r1, r5
 4168 00ae FFF7FEFF 		bl	__aeabi_dmul
 4169 00b2 0246     		mov	r2, r0
 4170 00b4 0B46     		mov	r3, r1
 4171 00b6 1046     		mov	r0, r2
 4172 00b8 1946     		mov	r1, r3
 4173 00ba FFF7FEFF 		bl	__aeabi_d2iz
 4174 00be 0346     		mov	r3, r0
 4175 00c0 7B60     		str	r3, [r7, #4]
 961:.\main.c      ****     left_duty_cycle = left_duty_cycle + scalingLeft*nextSpeed;
 4176              		.loc 1 961 0
 4177 00c2 584B     		ldr	r3, .L240+20
 4178 00c4 1B88     		ldrh	r3, [r3]
 4179 00c6 1BB2     		sxth	r3, r3
 4180 00c8 1846     		mov	r0, r3
 4181 00ca FFF7FEFF 		bl	__aeabi_i2d
 4182 00ce 0446     		mov	r4, r0
 4183 00d0 0D46     		mov	r5, r1
 4184 00d2 7868     		ldr	r0, [r7, #4]
 4185 00d4 FFF7FEFF 		bl	__aeabi_i2d
 4186 00d8 0246     		mov	r2, r0
 4187 00da 0B46     		mov	r3, r1
 4188 00dc 1046     		mov	r0, r2
 4189 00de 1946     		mov	r1, r3
 4190 00e0 D7E90623 		ldrd	r2, [r7, #24]
 4191 00e4 FFF7FEFF 		bl	__aeabi_dmul
 4192 00e8 0246     		mov	r2, r0
 4193 00ea 0B46     		mov	r3, r1
 4194 00ec 2046     		mov	r0, r4
 4195 00ee 2946     		mov	r1, r5
 4196 00f0 FFF7FEFF 		bl	__aeabi_dadd
 4197 00f4 0246     		mov	r2, r0
 4198 00f6 0B46     		mov	r3, r1
 4199 00f8 1046     		mov	r0, r2
 4200 00fa 1946     		mov	r1, r3
 4201 00fc FFF7FEFF 		bl	__aeabi_d2iz
 4202 0100 0346     		mov	r3, r0
 4203 0102 9AB2     		uxth	r2, r3
 4204 0104 474B     		ldr	r3, .L240+20
 4205 0106 1A80     		strh	r2, [r3]	@ movhi
 962:.\main.c      ****     interCalc = rightSpeedLimit - abs(rightSpeed);
 4206              		.loc 1 962 0
 4207 0108 474B     		ldr	r3, .L240+24
 4208 010a 1B88     		ldrh	r3, [r3]
 4209 010c 1AB2     		sxth	r2, r3
 4210 010e B7F90C30 		ldrsh	r3, [r7, #12]
 4211 0112 002B     		cmp	r3, #0
 4212 0114 B8BF     		it	lt
 4213 0116 5B42     		rsblt	r3, r3, #0
 4214 0118 D31A     		subs	r3, r2, r3
 4215 011a BB60     		str	r3, [r7, #8]
 963:.\main.c      ****     nextSpeed = (abs(interCalc) / interCalc) * sqrt(abs(interCalc));
 4216              		.loc 1 963 0
ARM GAS  C:\Users\Logan\AppData\Local\Temp\ccyYPcsP.s 			page 93


 4217 011c BB68     		ldr	r3, [r7, #8]
 4218 011e 83EAE372 		eor	r2, r3, r3, asr #31
 4219 0122 A2EBE372 		sub	r2, r2, r3, asr #31
 4220 0126 BB68     		ldr	r3, [r7, #8]
 4221 0128 92FBF3F3 		sdiv	r3, r2, r3
 4222 012c 1846     		mov	r0, r3
 4223 012e FFF7FEFF 		bl	__aeabi_i2d
 4224 0132 0446     		mov	r4, r0
 4225 0134 0D46     		mov	r5, r1
 4226 0136 BB68     		ldr	r3, [r7, #8]
 4227 0138 002B     		cmp	r3, #0
 4228 013a B8BF     		it	lt
 4229 013c 5B42     		rsblt	r3, r3, #0
 4230 013e 1846     		mov	r0, r3
 4231 0140 FFF7FEFF 		bl	__aeabi_i2d
 4232 0144 0246     		mov	r2, r0
 4233 0146 0B46     		mov	r3, r1
 4234 0148 1046     		mov	r0, r2
 4235 014a 1946     		mov	r1, r3
 4236 014c FFF7FEFF 		bl	sqrt
 4237 0150 0246     		mov	r2, r0
 4238 0152 0B46     		mov	r3, r1
 4239 0154 2046     		mov	r0, r4
 4240 0156 2946     		mov	r1, r5
 4241 0158 FFF7FEFF 		bl	__aeabi_dmul
 4242 015c 0246     		mov	r2, r0
 4243 015e 0B46     		mov	r3, r1
 4244 0160 1046     		mov	r0, r2
 4245 0162 1946     		mov	r1, r3
 4246 0164 FFF7FEFF 		bl	__aeabi_d2iz
 4247 0168 0346     		mov	r3, r0
 4248 016a 7B60     		str	r3, [r7, #4]
 964:.\main.c      ****     right_duty_cycle = right_duty_cycle + scalingRight*nextSpeed;
 4249              		.loc 1 964 0
 4250 016c 2F4B     		ldr	r3, .L240+28
 4251 016e 1B88     		ldrh	r3, [r3]
 4252 0170 1BB2     		sxth	r3, r3
 4253 0172 1846     		mov	r0, r3
 4254 0174 FFF7FEFF 		bl	__aeabi_i2d
 4255 0178 0446     		mov	r4, r0
 4256 017a 0D46     		mov	r5, r1
 4257 017c 7868     		ldr	r0, [r7, #4]
 4258 017e FFF7FEFF 		bl	__aeabi_i2d
 4259 0182 0246     		mov	r2, r0
 4260 0184 0B46     		mov	r3, r1
 4261 0186 1046     		mov	r0, r2
 4262 0188 1946     		mov	r1, r3
 4263 018a D7E90423 		ldrd	r2, [r7, #16]
 4264 018e FFF7FEFF 		bl	__aeabi_dmul
 4265 0192 0246     		mov	r2, r0
 4266 0194 0B46     		mov	r3, r1
 4267 0196 2046     		mov	r0, r4
 4268 0198 2946     		mov	r1, r5
 4269 019a FFF7FEFF 		bl	__aeabi_dadd
 4270 019e 0246     		mov	r2, r0
 4271 01a0 0B46     		mov	r3, r1
 4272 01a2 1046     		mov	r0, r2
ARM GAS  C:\Users\Logan\AppData\Local\Temp\ccyYPcsP.s 			page 94


 4273 01a4 1946     		mov	r1, r3
 4274 01a6 FFF7FEFF 		bl	__aeabi_d2iz
 4275 01aa 0346     		mov	r3, r0
 4276 01ac 9AB2     		uxth	r2, r3
 4277 01ae 1F4B     		ldr	r3, .L240+28
 4278 01b0 1A80     		strh	r2, [r3]	@ movhi
 965:.\main.c      ****     
 966:.\main.c      ****     if(right_duty_cycle < 0) right_duty_cycle = 0;
 4279              		.loc 1 966 0
 4280 01b2 1E4B     		ldr	r3, .L240+28
 4281 01b4 1B88     		ldrh	r3, [r3]
 4282 01b6 1BB2     		sxth	r3, r3
 4283 01b8 002B     		cmp	r3, #0
 4284 01ba 02DA     		bge	.L236
 4285              		.loc 1 966 0 is_stmt 0 discriminator 1
 4286 01bc 1B4B     		ldr	r3, .L240+28
 4287 01be 0022     		movs	r2, #0
 4288 01c0 1A80     		strh	r2, [r3]	@ movhi
 4289              	.L236:
 967:.\main.c      ****     if(left_duty_cycle < 0) left_duty_cycle = 0;
 4290              		.loc 1 967 0 is_stmt 1
 4291 01c2 184B     		ldr	r3, .L240+20
 4292 01c4 1B88     		ldrh	r3, [r3]
 4293 01c6 1BB2     		sxth	r3, r3
 4294 01c8 002B     		cmp	r3, #0
 4295 01ca 02DA     		bge	.L237
 4296              		.loc 1 967 0 is_stmt 0 discriminator 1
 4297 01cc 154B     		ldr	r3, .L240+20
 4298 01ce 0022     		movs	r2, #0
 4299 01d0 1A80     		strh	r2, [r3]	@ movhi
 4300              	.L237:
 968:.\main.c      ****     if(right_duty_cycle > 100) right_duty_cycle = 100;
 4301              		.loc 1 968 0 is_stmt 1
 4302 01d2 164B     		ldr	r3, .L240+28
 4303 01d4 1B88     		ldrh	r3, [r3]
 4304 01d6 1BB2     		sxth	r3, r3
 4305 01d8 642B     		cmp	r3, #100
 4306 01da 02DD     		ble	.L238
 4307              		.loc 1 968 0 is_stmt 0 discriminator 1
 4308 01dc 134B     		ldr	r3, .L240+28
 4309 01de 6422     		movs	r2, #100
 4310 01e0 1A80     		strh	r2, [r3]	@ movhi
 4311              	.L238:
 969:.\main.c      ****     if(left_duty_cycle > 100) left_duty_cycle = 100;
 4312              		.loc 1 969 0 is_stmt 1
 4313 01e2 104B     		ldr	r3, .L240+20
 4314 01e4 1B88     		ldrh	r3, [r3]
 4315 01e6 1BB2     		sxth	r3, r3
 4316 01e8 642B     		cmp	r3, #100
 4317 01ea 02DD     		ble	.L239
 4318              		.loc 1 969 0 is_stmt 0 discriminator 1
 4319 01ec 0D4B     		ldr	r3, .L240+20
 4320 01ee 6422     		movs	r2, #100
 4321 01f0 1A80     		strh	r2, [r3]	@ movhi
 4322              	.L239:
 970:.\main.c      ****     PWM_1_WriteCompare(left_duty_cycle);
 4323              		.loc 1 970 0 is_stmt 1
ARM GAS  C:\Users\Logan\AppData\Local\Temp\ccyYPcsP.s 			page 95


 4324 01f2 0C4B     		ldr	r3, .L240+20
 4325 01f4 1B88     		ldrh	r3, [r3]
 4326 01f6 DBB2     		uxtb	r3, r3
 4327 01f8 1846     		mov	r0, r3
 4328 01fa FFF7FEFF 		bl	PWM_1_WriteCompare
 971:.\main.c      ****     PWM_2_WriteCompare(right_duty_cycle);
 4329              		.loc 1 971 0
 4330 01fe 0B4B     		ldr	r3, .L240+28
 4331 0200 1B88     		ldrh	r3, [r3]
 4332 0202 DBB2     		uxtb	r3, r3
 4333 0204 1846     		mov	r0, r3
 4334 0206 FFF7FEFF 		bl	PWM_2_WriteCompare
 4335              	.L232:
 972:.\main.c      **** }
 4336              		.loc 1 972 0
 4337 020a 2037     		adds	r7, r7, #32
 4338              		.cfi_def_cfa_offset 16
 4339 020c BD46     		mov	sp, r7
 4340              		.cfi_def_cfa_register 13
 4341              		@ sp needed
 4342 020e B0BD     		pop	{r4, r5, r7, pc}
 4343              	.L241:
 4344              		.align	2
 4345              	.L240:
 4346 0210 00000000 		.word	flag_calc_wheelspeed
 4347 0214 00000000 		.word	quad_diff1
 4348 0218 00000000 		.word	quad_diff2
 4349 021c 0000F03F 		.word	1072693248
 4350 0220 00000000 		.word	leftSpeedLimit
 4351 0224 00000000 		.word	left_duty_cycle
 4352 0228 00000000 		.word	rightSpeedLimit
 4353 022c 00000000 		.word	right_duty_cycle
 4354              		.cfi_endproc
 4355              	.LFE96:
 4356              		.size	Quad_Dec_response, .-Quad_Dec_response
 4357              		.section	.text.trackLine,"ax",%progbits
 4358              		.align	2
 4359              		.global	trackLine
 4360              		.thumb
 4361              		.thumb_func
 4362              		.type	trackLine, %function
 4363              	trackLine:
 4364              	.LFB97:
 973:.\main.c      **** 
 974:.\main.c      **** void trackLine()
 975:.\main.c      **** {
 4365              		.loc 1 975 0
 4366              		.cfi_startproc
 4367              		@ args = 0, pretend = 0, frame = 0
 4368              		@ frame_needed = 1, uses_anonymous_args = 0
 4369              		@ link register save eliminated.
 4370 0000 80B4     		push	{r7}
 4371              		.cfi_def_cfa_offset 4
 4372              		.cfi_offset 7, -4
 4373 0002 00AF     		add	r7, sp, #0
 4374              		.cfi_def_cfa_register 7
 976:.\main.c      ****  //removed from implementation
ARM GAS  C:\Users\Logan\AppData\Local\Temp\ccyYPcsP.s 			page 96


 977:.\main.c      **** }
 4375              		.loc 1 977 0
 4376 0004 BD46     		mov	sp, r7
 4377              		.cfi_def_cfa_register 13
 4378              		@ sp needed
 4379 0006 5DF8047B 		ldr	r7, [sp], #4
 4380              		.cfi_restore 7
 4381              		.cfi_def_cfa_offset 0
 4382 000a 7047     		bx	lr
 4383              		.cfi_endproc
 4384              	.LFE97:
 4385              		.size	trackLine, .-trackLine
 4386              		.global	leftTurnCount
 4387              		.bss
 4388              		.align	1
 4389              		.type	leftTurnCount, %object
 4390              		.size	leftTurnCount, 2
 4391              	leftTurnCount:
 4392 28e8 0000     		.space	2
 4393              		.global	rightTurnCount
 4394              		.align	1
 4395              		.type	rightTurnCount, %object
 4396              		.size	rightTurnCount, 2
 4397              	rightTurnCount:
 4398 28ea 0000     		.space	2
 4399              		.section	.text.trackLineZ,"ax",%progbits
 4400              		.align	2
 4401              		.global	trackLineZ
 4402              		.thumb
 4403              		.thumb_func
 4404              		.type	trackLineZ, %function
 4405              	trackLineZ:
 4406              	.LFB98:
 978:.\main.c      **** uint16 leftTurnCount = 0;
 979:.\main.c      **** uint16 rightTurnCount = 0;
 980:.\main.c      **** void trackLineZ()
 981:.\main.c      **** {
 4407              		.loc 1 981 0
 4408              		.cfi_startproc
 4409              		@ args = 0, pretend = 0, frame = 8
 4410              		@ frame_needed = 1, uses_anonymous_args = 0
 4411 0000 2DE9B043 		push	{r4, r5, r7, r8, r9, lr}
 4412              		.cfi_def_cfa_offset 24
 4413              		.cfi_offset 4, -24
 4414              		.cfi_offset 5, -20
 4415              		.cfi_offset 7, -16
 4416              		.cfi_offset 8, -12
 4417              		.cfi_offset 9, -8
 4418              		.cfi_offset 14, -4
 4419 0004 82B0     		sub	sp, sp, #8
 4420              		.cfi_def_cfa_offset 32
 4421 0006 00AF     		add	r7, sp, #0
 4422              		.cfi_def_cfa_register 7
 982:.\main.c      ****     //read the value of the three central-front sensors
 983:.\main.c      ****     
 984:.\main.c      ****     uint8 nl = NLSens_out_Read();
 4423              		.loc 1 984 0
ARM GAS  C:\Users\Logan\AppData\Local\Temp\ccyYPcsP.s 			page 97


 4424 0008 FFF7FEFF 		bl	NLSens_out_Read
 4425 000c 0346     		mov	r3, r0
 4426 000e FB71     		strb	r3, [r7, #7]
 985:.\main.c      ****     uint8 nr = NRSens_out_Read();
 4427              		.loc 1 985 0
 4428 0010 FFF7FEFF 		bl	NRSens_out_Read
 4429 0014 0346     		mov	r3, r0
 4430 0016 BB71     		strb	r3, [r7, #6]
 986:.\main.c      ****     uint8 mid = MSens_out_Read();
 4431              		.loc 1 986 0
 4432 0018 FFF7FEFF 		bl	MSens_out_Read
 4433 001c 0346     		mov	r3, r0
 4434 001e 7B71     		strb	r3, [r7, #5]
 987:.\main.c      ****     
 988:.\main.c      ****         //if only the left one, hard left
 989:.\main.c      ****     if(nl && !nr && !mid)// && trackTurnCount > 0)
 4435              		.loc 1 989 0
 4436 0020 FB79     		ldrb	r3, [r7, #7]	@ zero_extendqisi2
 4437 0022 002B     		cmp	r3, #0
 4438 0024 27D0     		beq	.L244
 4439              		.loc 1 989 0 is_stmt 0 discriminator 1
 4440 0026 BB79     		ldrb	r3, [r7, #6]	@ zero_extendqisi2
 4441 0028 002B     		cmp	r3, #0
 4442 002a 24D1     		bne	.L244
 4443              		.loc 1 989 0 discriminator 2
 4444 002c 7B79     		ldrb	r3, [r7, #5]	@ zero_extendqisi2
 4445 002e 002B     		cmp	r3, #0
 4446 0030 21D1     		bne	.L244
 990:.\main.c      ****     {
 991:.\main.c      ****         setSpeed(speed / 1.6,-speed / 1.6);
 4447              		.loc 1 991 0 is_stmt 1
 4448 0032 454B     		ldr	r3, .L249+8
 4449 0034 D3E90023 		ldrd	r2, [r3]
 4450 0038 1046     		mov	r0, r2
 4451 003a 1946     		mov	r1, r3
 4452 003c 40A3     		adr	r3, .L249
 4453 003e D3E90023 		ldrd	r2, [r3]
 4454 0042 FFF7FEFF 		bl	__aeabi_ddiv
 4455 0046 0246     		mov	r2, r0
 4456 0048 0B46     		mov	r3, r1
 4457 004a 1446     		mov	r4, r2
 4458 004c 1D46     		mov	r5, r3
 4459 004e 3E4B     		ldr	r3, .L249+8
 4460 0050 D3E90023 		ldrd	r2, [r3]
 4461 0054 9046     		mov	r8, r2
 4462 0056 83F00049 		eor	r9, r3, #-2147483648
 4463 005a 4046     		mov	r0, r8
 4464 005c 4946     		mov	r1, r9
 4465 005e 38A3     		adr	r3, .L249
 4466 0060 D3E90023 		ldrd	r2, [r3]
 4467 0064 FFF7FEFF 		bl	__aeabi_ddiv
 4468 0068 0246     		mov	r2, r0
 4469 006a 0B46     		mov	r3, r1
 4470 006c 2046     		mov	r0, r4
 4471 006e 2946     		mov	r1, r5
 4472 0070 FFF7FEFF 		bl	setSpeed
 4473 0074 5FE0     		b	.L243
ARM GAS  C:\Users\Logan\AppData\Local\Temp\ccyYPcsP.s 			page 98


 4474              	.L244:
 992:.\main.c      ****     }
 993:.\main.c      ****     else if(nl && mid && !nr)   //if centre/middle, soft left
 4475              		.loc 1 993 0
 4476 0076 FB79     		ldrb	r3, [r7, #7]	@ zero_extendqisi2
 4477 0078 002B     		cmp	r3, #0
 4478 007a 0ED0     		beq	.L246
 4479              		.loc 1 993 0 is_stmt 0 discriminator 1
 4480 007c 7B79     		ldrb	r3, [r7, #5]	@ zero_extendqisi2
 4481 007e 002B     		cmp	r3, #0
 4482 0080 0BD0     		beq	.L246
 4483              		.loc 1 993 0 discriminator 2
 4484 0082 BB79     		ldrb	r3, [r7, #6]	@ zero_extendqisi2
 4485 0084 002B     		cmp	r3, #0
 4486 0086 08D1     		bne	.L246
 994:.\main.c      ****     {
 995:.\main.c      ****         setSpeed(speed,speed);
 4487              		.loc 1 995 0 is_stmt 1
 4488 0088 2F4B     		ldr	r3, .L249+8
 4489 008a D3E90001 		ldrd	r0, [r3]
 4490 008e 2E4B     		ldr	r3, .L249+8
 4491 0090 D3E90023 		ldrd	r2, [r3]
 4492 0094 FFF7FEFF 		bl	setSpeed
 4493 0098 4DE0     		b	.L243
 4494              	.L246:
 996:.\main.c      ****     }
 997:.\main.c      ****     else if (nr && mid && !nl)//if centre/right, soft right
 4495              		.loc 1 997 0
 4496 009a BB79     		ldrb	r3, [r7, #6]	@ zero_extendqisi2
 4497 009c 002B     		cmp	r3, #0
 4498 009e 0ED0     		beq	.L247
 4499              		.loc 1 997 0 is_stmt 0 discriminator 1
 4500 00a0 7B79     		ldrb	r3, [r7, #5]	@ zero_extendqisi2
 4501 00a2 002B     		cmp	r3, #0
 4502 00a4 0BD0     		beq	.L247
 4503              		.loc 1 997 0 discriminator 2
 4504 00a6 FB79     		ldrb	r3, [r7, #7]	@ zero_extendqisi2
 4505 00a8 002B     		cmp	r3, #0
 4506 00aa 08D1     		bne	.L247
 998:.\main.c      ****     {
 999:.\main.c      ****         setSpeed(speed ,speed);
 4507              		.loc 1 999 0 is_stmt 1
 4508 00ac 264B     		ldr	r3, .L249+8
 4509 00ae D3E90001 		ldrd	r0, [r3]
 4510 00b2 254B     		ldr	r3, .L249+8
 4511 00b4 D3E90023 		ldrd	r2, [r3]
 4512 00b8 FFF7FEFF 		bl	setSpeed
 4513 00bc 3BE0     		b	.L243
 4514              	.L247:
1000:.\main.c      ****     }
1001:.\main.c      ****    else if (nr && !mid && !nl)    //if only right, hard right
 4515              		.loc 1 1001 0
 4516 00be BB79     		ldrb	r3, [r7, #6]	@ zero_extendqisi2
 4517 00c0 002B     		cmp	r3, #0
 4518 00c2 27D0     		beq	.L248
 4519              		.loc 1 1001 0 is_stmt 0 discriminator 1
 4520 00c4 7B79     		ldrb	r3, [r7, #5]	@ zero_extendqisi2
ARM GAS  C:\Users\Logan\AppData\Local\Temp\ccyYPcsP.s 			page 99


 4521 00c6 002B     		cmp	r3, #0
 4522 00c8 24D1     		bne	.L248
 4523              		.loc 1 1001 0 discriminator 2
 4524 00ca FB79     		ldrb	r3, [r7, #7]	@ zero_extendqisi2
 4525 00cc 002B     		cmp	r3, #0
 4526 00ce 21D1     		bne	.L248
1002:.\main.c      ****     {
1003:.\main.c      ****         setSpeed(-speed / 1.6,speed / 1.6);
 4527              		.loc 1 1003 0 is_stmt 1
 4528 00d0 1D4B     		ldr	r3, .L249+8
 4529 00d2 D3E90023 		ldrd	r2, [r3]
 4530 00d6 1446     		mov	r4, r2
 4531 00d8 83F00045 		eor	r5, r3, #-2147483648
 4532 00dc 2046     		mov	r0, r4
 4533 00de 2946     		mov	r1, r5
 4534 00e0 17A3     		adr	r3, .L249
 4535 00e2 D3E90023 		ldrd	r2, [r3]
 4536 00e6 FFF7FEFF 		bl	__aeabi_ddiv
 4537 00ea 0246     		mov	r2, r0
 4538 00ec 0B46     		mov	r3, r1
 4539 00ee 1446     		mov	r4, r2
 4540 00f0 1D46     		mov	r5, r3
 4541 00f2 154B     		ldr	r3, .L249+8
 4542 00f4 D3E90023 		ldrd	r2, [r3]
 4543 00f8 1046     		mov	r0, r2
 4544 00fa 1946     		mov	r1, r3
 4545 00fc 10A3     		adr	r3, .L249
 4546 00fe D3E90023 		ldrd	r2, [r3]
 4547 0102 FFF7FEFF 		bl	__aeabi_ddiv
 4548 0106 0246     		mov	r2, r0
 4549 0108 0B46     		mov	r3, r1
 4550 010a 2046     		mov	r0, r4
 4551 010c 2946     		mov	r1, r5
 4552 010e FFF7FEFF 		bl	setSpeed
 4553 0112 10E0     		b	.L243
 4554              	.L248:
1004:.\main.c      ****     }
1005:.\main.c      ****     else if (mid && !nr && !nl)
 4555              		.loc 1 1005 0
 4556 0114 7B79     		ldrb	r3, [r7, #5]	@ zero_extendqisi2
 4557 0116 002B     		cmp	r3, #0
 4558 0118 0DD0     		beq	.L243
 4559              		.loc 1 1005 0 is_stmt 0 discriminator 1
 4560 011a BB79     		ldrb	r3, [r7, #6]	@ zero_extendqisi2
 4561 011c 002B     		cmp	r3, #0
 4562 011e 0AD1     		bne	.L243
 4563              		.loc 1 1005 0 discriminator 2
 4564 0120 FB79     		ldrb	r3, [r7, #7]	@ zero_extendqisi2
 4565 0122 002B     		cmp	r3, #0
 4566 0124 07D1     		bne	.L243
1006:.\main.c      ****     {
1007:.\main.c      ****         setSpeed(speed,speed);
 4567              		.loc 1 1007 0 is_stmt 1
 4568 0126 084B     		ldr	r3, .L249+8
 4569 0128 D3E90001 		ldrd	r0, [r3]
 4570 012c 064B     		ldr	r3, .L249+8
 4571 012e D3E90023 		ldrd	r2, [r3]
ARM GAS  C:\Users\Logan\AppData\Local\Temp\ccyYPcsP.s 			page 100


 4572 0132 FFF7FEFF 		bl	setSpeed
 4573              	.L243:
1008:.\main.c      ****     }
1009:.\main.c      **** }
 4574              		.loc 1 1009 0
 4575 0136 0837     		adds	r7, r7, #8
 4576              		.cfi_def_cfa_offset 24
 4577 0138 BD46     		mov	sp, r7
 4578              		.cfi_def_cfa_register 13
 4579              		@ sp needed
 4580 013a BDE8B083 		pop	{r4, r5, r7, r8, r9, pc}
 4581              	.L250:
 4582 013e 00BF     		.align	3
 4583              	.L249:
 4584 0140 9A999999 		.word	-1717986918
 4585 0144 9999F93F 		.word	1073322393
 4586 0148 00000000 		.word	speed
 4587              		.cfi_endproc
 4588              	.LFE98:
 4589              		.size	trackLineZ, .-trackLineZ
 4590 014c AFF30080 		.section	.text.trackLineU,"ax",%progbits
 4591              		.align	2
 4592              		.global	trackLineU
 4593              		.thumb
 4594              		.thumb_func
 4595              		.type	trackLineU, %function
 4596              	trackLineU:
 4597              	.LFB99:
1010:.\main.c      **** 
1011:.\main.c      **** 
1012:.\main.c      **** void trackLineU()
1013:.\main.c      **** { 
 4598              		.loc 1 1013 0
 4599              		.cfi_startproc
 4600              		@ args = 0, pretend = 0, frame = 0
 4601              		@ frame_needed = 1, uses_anonymous_args = 0
 4602              		@ link register save eliminated.
 4603 0000 80B4     		push	{r7}
 4604              		.cfi_def_cfa_offset 4
 4605              		.cfi_offset 7, -4
 4606 0002 00AF     		add	r7, sp, #0
 4607              		.cfi_def_cfa_register 7
1014:.\main.c      **** //removed from final implementation
1015:.\main.c      **** }
 4608              		.loc 1 1015 0
 4609 0004 BD46     		mov	sp, r7
 4610              		.cfi_def_cfa_register 13
 4611              		@ sp needed
 4612 0006 5DF8047B 		ldr	r7, [sp], #4
 4613              		.cfi_restore 7
 4614              		.cfi_def_cfa_offset 0
 4615 000a 7047     		bx	lr
 4616              		.cfi_endproc
 4617              	.LFE99:
 4618              		.size	trackLineU, .-trackLineU
 4619              		.global	__aeabi_fadd
 4620              		.section	.rodata
ARM GAS  C:\Users\Logan\AppData\Local\Temp\ccyYPcsP.s 			page 101


 4621 00db 00       		.align	2
 4622              	.LC11:
 4623 00dc 42617474 		.ascii	"Battery Voltage: %dmv\012\015\000"
 4623      65727920 
 4623      566F6C74 
 4623      6167653A 
 4623      2025646D 
 4624              		.section	.text.print_ADC,"ax",%progbits
 4625              		.align	2
 4626              		.global	print_ADC
 4627              		.thumb
 4628              		.thumb_func
 4629              		.type	print_ADC, %function
 4630              	print_ADC:
 4631              	.LFB100:
1016:.\main.c      **** 
1017:.\main.c      **** void print_ADC()
1018:.\main.c      **** {
 4632              		.loc 1 1018 0
 4633              		.cfi_startproc
 4634              		@ args = 0, pretend = 0, frame = 24
 4635              		@ frame_needed = 1, uses_anonymous_args = 0
 4636 0000 80B5     		push	{r7, lr}
 4637              		.cfi_def_cfa_offset 8
 4638              		.cfi_offset 7, -8
 4639              		.cfi_offset 14, -4
 4640 0002 86B0     		sub	sp, sp, #24
 4641              		.cfi_def_cfa_offset 32
 4642 0004 00AF     		add	r7, sp, #0
 4643              		.cfi_def_cfa_register 7
1019:.\main.c      ****    //usbPutString("HII\n");
1020:.\main.c      ****     if(flag_receive_ADC == 1)
 4644              		.loc 1 1020 0
 4645 0006 274B     		ldr	r3, .L255
 4646 0008 1B78     		ldrb	r3, [r3]	@ zero_extendqisi2
 4647 000a 012B     		cmp	r3, #1
 4648 000c 46D1     		bne	.L252
 4649              	.LBB12:
1021:.\main.c      ****     {
1022:.\main.c      ****         //usbPutString("AAA\r\n");
1023:.\main.c      ****         flag_receive_ADC = 0;
 4650              		.loc 1 1023 0
 4651 000e 254B     		ldr	r3, .L255
 4652 0010 0022     		movs	r2, #0
 4653 0012 1A70     		strb	r2, [r3]
1024:.\main.c      ****         
1025:.\main.c      ****        // int8 channel = ADC_
1026:.\main.c      ****         float scalingFactor = 0.972;
 4654              		.loc 1 1026 0
 4655 0014 244B     		ldr	r3, .L255+4
 4656 0016 7B61     		str	r3, [r7, #20]	@ float
1027:.\main.c      ****         int16 converted_val = (5000 * adc_result) / 4096 * scalingFactor * 2;
 4657              		.loc 1 1027 0
 4658 0018 244B     		ldr	r3, .L255+8
 4659 001a 1B88     		ldrh	r3, [r3]
 4660 001c 1BB2     		sxth	r3, r3
 4661 001e 41F28832 		movw	r2, #5000
ARM GAS  C:\Users\Logan\AppData\Local\Temp\ccyYPcsP.s 			page 102


 4662 0022 02FB03F3 		mul	r3, r2, r3
 4663 0026 002B     		cmp	r3, #0
 4664 0028 01DA     		bge	.L254
 4665 002a 03F6FF73 		addw	r3, r3, #4095
 4666              	.L254:
 4667 002e 1B13     		asrs	r3, r3, #12
 4668 0030 1846     		mov	r0, r3
 4669 0032 FFF7FEFF 		bl	__aeabi_i2f
 4670 0036 0346     		mov	r3, r0
 4671 0038 1846     		mov	r0, r3
 4672 003a 7969     		ldr	r1, [r7, #20]	@ float
 4673 003c FFF7FEFF 		bl	__aeabi_fmul
 4674 0040 0346     		mov	r3, r0
 4675 0042 1846     		mov	r0, r3
 4676 0044 1946     		mov	r1, r3
 4677 0046 FFF7FEFF 		bl	__aeabi_fadd
 4678 004a 0346     		mov	r3, r0
 4679 004c 1846     		mov	r0, r3
 4680 004e FFF7FEFF 		bl	__aeabi_f2iz
 4681 0052 0346     		mov	r3, r0
 4682 0054 7B82     		strh	r3, [r7, #18]	@ movhi
1028:.\main.c      ****         converted_val = (converted_val + prevVoltage + prevVoltage2) / 3; //smooth rapid changes in
 4683              		.loc 1 1028 0
 4684 0056 B7F91220 		ldrsh	r2, [r7, #18]
 4685 005a 154B     		ldr	r3, .L255+12
 4686 005c 1B88     		ldrh	r3, [r3]
 4687 005e 1BB2     		sxth	r3, r3
 4688 0060 1A44     		add	r2, r2, r3
 4689 0062 144B     		ldr	r3, .L255+16
 4690 0064 1B88     		ldrh	r3, [r3]
 4691 0066 1BB2     		sxth	r3, r3
 4692 0068 1344     		add	r3, r3, r2
 4693 006a 134A     		ldr	r2, .L255+20
 4694 006c 82FB0312 		smull	r1, r2, r2, r3
 4695 0070 DB17     		asrs	r3, r3, #31
 4696 0072 D31A     		subs	r3, r2, r3
 4697 0074 7B82     		strh	r3, [r7, #18]	@ movhi
1029:.\main.c      ****         prevVoltage2 = prevVoltage;
 4698              		.loc 1 1029 0
 4699 0076 0E4B     		ldr	r3, .L255+12
 4700 0078 1A88     		ldrh	r2, [r3]
 4701 007a 0E4B     		ldr	r3, .L255+16
 4702 007c 1A80     		strh	r2, [r3]	@ movhi
1030:.\main.c      ****         prevVoltage = converted_val;
 4703              		.loc 1 1030 0
 4704 007e 0C4A     		ldr	r2, .L255+12
 4705 0080 7B8A     		ldrh	r3, [r7, #18]	@ movhi
 4706 0082 1380     		strh	r3, [r2]	@ movhi
1031:.\main.c      ****         
1032:.\main.c      ****         char result_str[16];
1033:.\main.c      ****         sprintf(result_str, "Battery Voltage: %dmv\n\r", converted_val);
 4707              		.loc 1 1033 0
 4708 0084 B7F91230 		ldrsh	r3, [r7, #18]
 4709 0088 3A46     		mov	r2, r7
 4710 008a 1046     		mov	r0, r2
 4711 008c 0B49     		ldr	r1, .L255+24
 4712 008e 1A46     		mov	r2, r3
ARM GAS  C:\Users\Logan\AppData\Local\Temp\ccyYPcsP.s 			page 103


 4713 0090 FFF7FEFF 		bl	sprintf
1034:.\main.c      ****         
1035:.\main.c      ****         usbPutString(result_str);
 4714              		.loc 1 1035 0
 4715 0094 3B46     		mov	r3, r7
 4716 0096 1846     		mov	r0, r3
 4717 0098 FFF7FEFF 		bl	usbPutString
 4718              	.L252:
 4719              	.LBE12:
1036:.\main.c      ****     }
1037:.\main.c      **** }
 4720              		.loc 1 1037 0
 4721 009c 1837     		adds	r7, r7, #24
 4722              		.cfi_def_cfa_offset 8
 4723 009e BD46     		mov	sp, r7
 4724              		.cfi_def_cfa_register 13
 4725              		@ sp needed
 4726 00a0 80BD     		pop	{r7, pc}
 4727              	.L256:
 4728 00a2 00BF     		.align	2
 4729              	.L255:
 4730 00a4 00000000 		.word	flag_receive_ADC
 4731 00a8 FED4783F 		.word	1064883454
 4732 00ac 00000000 		.word	adc_result
 4733 00b0 00000000 		.word	prevVoltage
 4734 00b4 00000000 		.word	prevVoltage2
 4735 00b8 56555555 		.word	1431655766
 4736 00bc DC000000 		.word	.LC11
 4737              		.cfi_endproc
 4738              	.LFE100:
 4739              		.size	print_ADC, .-print_ADC
 4740              		.section	.rodata
 4741              		.align	2
 4742              	.LC12:
 4743 00f4 52535349 		.ascii	"RSSI:\000"
 4743      3A00
 4744 00fa 0000     		.align	2
 4745              	.LC13:
 4746 00fc 25640D0A 		.ascii	"%d\015\012\000"
 4746      00
 4747 0101 000000   		.align	2
 4748              	.LC14:
 4749 0104 726F626F 		.ascii	"robot_x:\000"
 4749      745F783A 
 4749      00
 4750 010d 000000   		.align	2
 4751              	.LC15:
 4752 0110 726F626F 		.ascii	"robot_y:\000"
 4752      745F793A 
 4752      00
 4753 0119 000000   		.align	2
 4754              	.LC16:
 4755 011c 726F626F 		.ascii	"robot_dir:\000"
 4755      745F6469 
 4755      723A00
 4756 0127 00       		.section	.text.print_RF,"ax",%progbits
 4757              		.align	2
ARM GAS  C:\Users\Logan\AppData\Local\Temp\ccyYPcsP.s 			page 104


 4758              		.global	print_RF
 4759              		.thumb
 4760              		.thumb_func
 4761              		.type	print_RF, %function
 4762              	print_RF:
 4763              	.LFB101:
1038:.\main.c      **** 
1039:.\main.c      **** void print_RF()
1040:.\main.c      **** {
 4764              		.loc 1 1040 0
 4765              		.cfi_startproc
 4766              		@ args = 0, pretend = 0, frame = 16
 4767              		@ frame_needed = 1, uses_anonymous_args = 0
 4768 0000 80B5     		push	{r7, lr}
 4769              		.cfi_def_cfa_offset 8
 4770              		.cfi_offset 7, -8
 4771              		.cfi_offset 14, -4
 4772 0002 84B0     		sub	sp, sp, #16
 4773              		.cfi_def_cfa_offset 24
 4774 0004 00AF     		add	r7, sp, #0
 4775              		.cfi_def_cfa_register 7
1041:.\main.c      ****     if(flag_print_rf == 1)
 4776              		.loc 1 1041 0
 4777 0006 254B     		ldr	r3, .L259
 4778 0008 1B78     		ldrb	r3, [r3]	@ zero_extendqisi2
 4779 000a 012B     		cmp	r3, #1
 4780 000c 42D1     		bne	.L257
 4781              	.LBB13:
1042:.\main.c      ****     {
1043:.\main.c      ****         char printString[16];
1044:.\main.c      ****         flag_print_rf = 0;
 4782              		.loc 1 1044 0
 4783 000e 234B     		ldr	r3, .L259
 4784 0010 0022     		movs	r2, #0
 4785 0012 1A70     		strb	r2, [r3]
1045:.\main.c      ****         usbPutString("RSSI:");
 4786              		.loc 1 1045 0
 4787 0014 2248     		ldr	r0, .L259+4
 4788 0016 FFF7FEFF 		bl	usbPutString
1046:.\main.c      ****         sprintf(printString, "%d\r\n", system_state.rssi);
 4789              		.loc 1 1046 0
 4790 001a 224B     		ldr	r3, .L259+8
 4791 001c 1B78     		ldrb	r3, [r3]	@ zero_extendqisi2
 4792 001e 5BB2     		sxtb	r3, r3
 4793 0020 3A46     		mov	r2, r7
 4794 0022 1046     		mov	r0, r2
 4795 0024 2049     		ldr	r1, .L259+12
 4796 0026 1A46     		mov	r2, r3
 4797 0028 FFF7FEFF 		bl	sprintf
1047:.\main.c      ****         usbPutString(printString);
 4798              		.loc 1 1047 0
 4799 002c 3B46     		mov	r3, r7
 4800 002e 1846     		mov	r0, r3
 4801 0030 FFF7FEFF 		bl	usbPutString
1048:.\main.c      ****         usbPutString("robot_x:");
 4802              		.loc 1 1048 0
 4803 0034 1D48     		ldr	r0, .L259+16
ARM GAS  C:\Users\Logan\AppData\Local\Temp\ccyYPcsP.s 			page 105


 4804 0036 FFF7FEFF 		bl	usbPutString
1049:.\main.c      ****         sprintf(printString, "%d\r\n", system_state.robot_xpos);
 4805              		.loc 1 1049 0
 4806 003a 1A4B     		ldr	r3, .L259+8
 4807 003c 5B88     		ldrh	r3, [r3, #2]
 4808 003e 1BB2     		sxth	r3, r3
 4809 0040 3A46     		mov	r2, r7
 4810 0042 1046     		mov	r0, r2
 4811 0044 1849     		ldr	r1, .L259+12
 4812 0046 1A46     		mov	r2, r3
 4813 0048 FFF7FEFF 		bl	sprintf
1050:.\main.c      ****         usbPutString(printString);
 4814              		.loc 1 1050 0
 4815 004c 3B46     		mov	r3, r7
 4816 004e 1846     		mov	r0, r3
 4817 0050 FFF7FEFF 		bl	usbPutString
1051:.\main.c      ****         usbPutString("robot_y:");
 4818              		.loc 1 1051 0
 4819 0054 1648     		ldr	r0, .L259+20
 4820 0056 FFF7FEFF 		bl	usbPutString
1052:.\main.c      ****         sprintf(printString, "%d\r\n", system_state.robot_ypos);
 4821              		.loc 1 1052 0
 4822 005a 124B     		ldr	r3, .L259+8
 4823 005c 9B88     		ldrh	r3, [r3, #4]
 4824 005e 1BB2     		sxth	r3, r3
 4825 0060 3A46     		mov	r2, r7
 4826 0062 1046     		mov	r0, r2
 4827 0064 1049     		ldr	r1, .L259+12
 4828 0066 1A46     		mov	r2, r3
 4829 0068 FFF7FEFF 		bl	sprintf
1053:.\main.c      ****         usbPutString(printString);
 4830              		.loc 1 1053 0
 4831 006c 3B46     		mov	r3, r7
 4832 006e 1846     		mov	r0, r3
 4833 0070 FFF7FEFF 		bl	usbPutString
1054:.\main.c      ****         usbPutString("robot_dir:");
 4834              		.loc 1 1054 0
 4835 0074 0F48     		ldr	r0, .L259+24
 4836 0076 FFF7FEFF 		bl	usbPutString
1055:.\main.c      ****         sprintf(printString, "%d\r\n", system_state.robot_orientation);
 4837              		.loc 1 1055 0
 4838 007a 0A4B     		ldr	r3, .L259+8
 4839 007c DB88     		ldrh	r3, [r3, #6]
 4840 007e 1BB2     		sxth	r3, r3
 4841 0080 3A46     		mov	r2, r7
 4842 0082 1046     		mov	r0, r2
 4843 0084 0849     		ldr	r1, .L259+12
 4844 0086 1A46     		mov	r2, r3
 4845 0088 FFF7FEFF 		bl	sprintf
1056:.\main.c      ****         usbPutString(printString);
 4846              		.loc 1 1056 0
 4847 008c 3B46     		mov	r3, r7
 4848 008e 1846     		mov	r0, r3
 4849 0090 FFF7FEFF 		bl	usbPutString
 4850              	.L257:
 4851              	.LBE13:
1057:.\main.c      ****     }
ARM GAS  C:\Users\Logan\AppData\Local\Temp\ccyYPcsP.s 			page 106


1058:.\main.c      **** }
 4852              		.loc 1 1058 0
 4853 0094 1037     		adds	r7, r7, #16
 4854              		.cfi_def_cfa_offset 8
 4855 0096 BD46     		mov	sp, r7
 4856              		.cfi_def_cfa_register 13
 4857              		@ sp needed
 4858 0098 80BD     		pop	{r7, pc}
 4859              	.L260:
 4860 009a 00BF     		.align	2
 4861              	.L259:
 4862 009c 00000000 		.word	flag_print_rf
 4863 00a0 F4000000 		.word	.LC12
 4864 00a4 00000000 		.word	system_state
 4865 00a8 FC000000 		.word	.LC13
 4866 00ac 04010000 		.word	.LC14
 4867 00b0 10010000 		.word	.LC15
 4868 00b4 1C010000 		.word	.LC16
 4869              		.cfi_endproc
 4870              	.LFE101:
 4871              		.size	print_RF, .-print_RF
 4872              		.section	.text.readFrontSensors,"ax",%progbits
 4873              		.align	2
 4874              		.global	readFrontSensors
 4875              		.thumb
 4876              		.thumb_func
 4877              		.type	readFrontSensors, %function
 4878              	readFrontSensors:
 4879              	.LFB102:
1059:.\main.c      **** 
1060:.\main.c      **** void readFrontSensors(uint8 sensorVals[5])
1061:.\main.c      **** {
 4880              		.loc 1 1061 0
 4881              		.cfi_startproc
 4882              		@ args = 0, pretend = 0, frame = 8
 4883              		@ frame_needed = 1, uses_anonymous_args = 0
 4884 0000 90B5     		push	{r4, r7, lr}
 4885              		.cfi_def_cfa_offset 12
 4886              		.cfi_offset 4, -12
 4887              		.cfi_offset 7, -8
 4888              		.cfi_offset 14, -4
 4889 0002 83B0     		sub	sp, sp, #12
 4890              		.cfi_def_cfa_offset 24
 4891 0004 00AF     		add	r7, sp, #0
 4892              		.cfi_def_cfa_register 7
 4893 0006 7860     		str	r0, [r7, #4]
1062:.\main.c      ****     sensorVals[0] = FLSens_out_Read();
 4894              		.loc 1 1062 0
 4895 0008 FFF7FEFF 		bl	FLSens_out_Read
 4896 000c 0346     		mov	r3, r0
 4897 000e 1A46     		mov	r2, r3
 4898 0010 7B68     		ldr	r3, [r7, #4]
 4899 0012 1A70     		strb	r2, [r3]
1063:.\main.c      ****     sensorVals[1] = NLSens_out_Read();
 4900              		.loc 1 1063 0
 4901 0014 7B68     		ldr	r3, [r7, #4]
 4902 0016 5C1C     		adds	r4, r3, #1
ARM GAS  C:\Users\Logan\AppData\Local\Temp\ccyYPcsP.s 			page 107


 4903 0018 FFF7FEFF 		bl	NLSens_out_Read
 4904 001c 0346     		mov	r3, r0
 4905 001e 2370     		strb	r3, [r4]
1064:.\main.c      ****     sensorVals[2] = MSens_out_Read();
 4906              		.loc 1 1064 0
 4907 0020 7B68     		ldr	r3, [r7, #4]
 4908 0022 9C1C     		adds	r4, r3, #2
 4909 0024 FFF7FEFF 		bl	MSens_out_Read
 4910 0028 0346     		mov	r3, r0
 4911 002a 2370     		strb	r3, [r4]
1065:.\main.c      ****     sensorVals[3] = NRSens_out_Read();
 4912              		.loc 1 1065 0
 4913 002c 7B68     		ldr	r3, [r7, #4]
 4914 002e DC1C     		adds	r4, r3, #3
 4915 0030 FFF7FEFF 		bl	NRSens_out_Read
 4916 0034 0346     		mov	r3, r0
 4917 0036 2370     		strb	r3, [r4]
1066:.\main.c      ****     sensorVals[4] = FRSens_out_Read();
 4918              		.loc 1 1066 0
 4919 0038 7B68     		ldr	r3, [r7, #4]
 4920 003a 1C1D     		adds	r4, r3, #4
 4921 003c FFF7FEFF 		bl	FRSens_out_Read
 4922 0040 0346     		mov	r3, r0
 4923 0042 2370     		strb	r3, [r4]
1067:.\main.c      **** }
 4924              		.loc 1 1067 0
 4925 0044 0C37     		adds	r7, r7, #12
 4926              		.cfi_def_cfa_offset 12
 4927 0046 BD46     		mov	sp, r7
 4928              		.cfi_def_cfa_register 13
 4929              		@ sp needed
 4930 0048 90BD     		pop	{r4, r7, pc}
 4931              		.cfi_endproc
 4932              	.LFE102:
 4933              		.size	readFrontSensors, .-readFrontSensors
 4934 004a 00BF     		.section	.text.usbPutString,"ax",%progbits
 4935              		.align	2
 4936              		.global	usbPutString
 4937              		.thumb
 4938              		.thumb_func
 4939              		.type	usbPutString, %function
 4940              	usbPutString:
 4941              	.LFB103:
1068:.\main.c      **** 
1069:.\main.c      **** 
1070:.\main.c      **** //* ========================================
1071:.\main.c      **** void usbPutString(char *s)
1072:.\main.c      **** {
 4942              		.loc 1 1072 0
 4943              		.cfi_startproc
 4944              		@ args = 0, pretend = 0, frame = 16
 4945              		@ frame_needed = 1, uses_anonymous_args = 0
 4946 0000 80B5     		push	{r7, lr}
 4947              		.cfi_def_cfa_offset 8
 4948              		.cfi_offset 7, -8
 4949              		.cfi_offset 14, -4
 4950 0002 84B0     		sub	sp, sp, #16
ARM GAS  C:\Users\Logan\AppData\Local\Temp\ccyYPcsP.s 			page 108


 4951              		.cfi_def_cfa_offset 24
 4952 0004 00AF     		add	r7, sp, #0
 4953              		.cfi_def_cfa_register 7
 4954 0006 7860     		str	r0, [r7, #4]
1073:.\main.c      **** // !! Assumes that *s is a string with allocated space >=64 chars     
1074:.\main.c      **** //  Since USB implementation retricts data packets to 64 chars, this function truncates the
1075:.\main.c      **** //  length to 62 char (63rd char is a '!')
1076:.\main.c      ****     if (USE_USB && portOpen)
 4955              		.loc 1 1076 0
 4956 0008 154B     		ldr	r3, .L266
 4957 000a 1B78     		ldrb	r3, [r3]	@ zero_extendqisi2
 4958 000c 002B     		cmp	r3, #0
 4959 000e 23D0     		beq	.L262
 4960              	.LBB14:
1077:.\main.c      ****     {
1078:.\main.c      ****             uint32 cnt = 0;
 4961              		.loc 1 1078 0
 4962 0010 0023     		movs	r3, #0
 4963 0012 FB60     		str	r3, [r7, #12]
1079:.\main.c      ****             while (USBUART_CDCIsReady() == 0)
 4964              		.loc 1 1079 0
 4965 0014 0AE0     		b	.L264
 4966              	.L265:
1080:.\main.c      ****             {
1081:.\main.c      ****                 cnt++;
 4967              		.loc 1 1081 0
 4968 0016 FB68     		ldr	r3, [r7, #12]
 4969 0018 0133     		adds	r3, r3, #1
 4970 001a FB60     		str	r3, [r7, #12]
1082:.\main.c      ****                 if(cnt == 3000000){
 4971              		.loc 1 1082 0
 4972 001c FB68     		ldr	r3, [r7, #12]
 4973 001e 114A     		ldr	r2, .L266+4
 4974 0020 9342     		cmp	r3, r2
 4975 0022 03D1     		bne	.L264
1083:.\main.c      ****                     portOpen = 0;
 4976              		.loc 1 1083 0
 4977 0024 0E4B     		ldr	r3, .L266
 4978 0026 0022     		movs	r2, #0
 4979 0028 1A70     		strb	r2, [r3]
1084:.\main.c      ****                     return;
 4980              		.loc 1 1084 0
 4981 002a 15E0     		b	.L262
 4982              	.L264:
1079:.\main.c      ****             {
 4983              		.loc 1 1079 0
 4984 002c FFF7FEFF 		bl	USBUART_CDCIsReady
 4985 0030 0346     		mov	r3, r0
 4986 0032 002B     		cmp	r3, #0
 4987 0034 EFD0     		beq	.L265
1085:.\main.c      ****                 }
1086:.\main.c      ****             }
1087:.\main.c      ****             s[63]='\0';
 4988              		.loc 1 1087 0
 4989 0036 7B68     		ldr	r3, [r7, #4]
 4990 0038 3F33     		adds	r3, r3, #63
 4991 003a 0022     		movs	r2, #0
ARM GAS  C:\Users\Logan\AppData\Local\Temp\ccyYPcsP.s 			page 109


 4992 003c 1A70     		strb	r2, [r3]
1088:.\main.c      ****             s[62]='!';
 4993              		.loc 1 1088 0
 4994 003e 7B68     		ldr	r3, [r7, #4]
 4995 0040 3E33     		adds	r3, r3, #62
 4996 0042 2122     		movs	r2, #33
 4997 0044 1A70     		strb	r2, [r3]
1089:.\main.c      ****             USBUART_PutData((uint8*)s,strlen(s));
 4998              		.loc 1 1089 0
 4999 0046 7868     		ldr	r0, [r7, #4]
 5000 0048 FFF7FEFF 		bl	strlen
 5001 004c 0346     		mov	r3, r0
 5002 004e 9BB2     		uxth	r3, r3
 5003 0050 7868     		ldr	r0, [r7, #4]
 5004 0052 1946     		mov	r1, r3
 5005 0054 FFF7FEFF 		bl	USBUART_PutData
 5006              	.L262:
 5007              	.LBE14:
1090:.\main.c      ****     }
1091:.\main.c      **** }
 5008              		.loc 1 1091 0
 5009 0058 1037     		adds	r7, r7, #16
 5010              		.cfi_def_cfa_offset 8
 5011 005a BD46     		mov	sp, r7
 5012              		.cfi_def_cfa_register 13
 5013              		@ sp needed
 5014 005c 80BD     		pop	{r7, pc}
 5015              	.L267:
 5016 005e 00BF     		.align	2
 5017              	.L266:
 5018 0060 00000000 		.word	portOpen
 5019 0064 C0C62D00 		.word	3000000
 5020              		.cfi_endproc
 5021              	.LFE103:
 5022              		.size	usbPutString, .-usbPutString
 5023              		.section	.text.usbPutChar,"ax",%progbits
 5024              		.align	2
 5025              		.global	usbPutChar
 5026              		.thumb
 5027              		.thumb_func
 5028              		.type	usbPutChar, %function
 5029              	usbPutChar:
 5030              	.LFB104:
1092:.\main.c      **** //* ========================================
1093:.\main.c      **** void usbPutChar(char c)
1094:.\main.c      **** {
 5031              		.loc 1 1094 0
 5032              		.cfi_startproc
 5033              		@ args = 0, pretend = 0, frame = 16
 5034              		@ frame_needed = 1, uses_anonymous_args = 0
 5035 0000 80B5     		push	{r7, lr}
 5036              		.cfi_def_cfa_offset 8
 5037              		.cfi_offset 7, -8
 5038              		.cfi_offset 14, -4
 5039 0002 84B0     		sub	sp, sp, #16
 5040              		.cfi_def_cfa_offset 24
 5041 0004 00AF     		add	r7, sp, #0
ARM GAS  C:\Users\Logan\AppData\Local\Temp\ccyYPcsP.s 			page 110


 5042              		.cfi_def_cfa_register 7
 5043 0006 0346     		mov	r3, r0
 5044 0008 FB71     		strb	r3, [r7, #7]
1095:.\main.c      ****     if (USE_USB && portOpen)    
 5045              		.loc 1 1095 0
 5046 000a 0F4B     		ldr	r3, .L272
 5047 000c 1B78     		ldrb	r3, [r3]	@ zero_extendqisi2
 5048 000e 002B     		cmp	r3, #0
 5049 0010 16D0     		beq	.L268
 5050              	.LBB15:
1096:.\main.c      ****     {    
1097:.\main.c      ****         uint32 cnt = 0;
 5051              		.loc 1 1097 0
 5052 0012 0023     		movs	r3, #0
 5053 0014 FB60     		str	r3, [r7, #12]
1098:.\main.c      ****         while (USBUART_CDCIsReady() == 0){
 5054              		.loc 1 1098 0
 5055 0016 0AE0     		b	.L270
 5056              	.L271:
1099:.\main.c      ****             cnt++;
 5057              		.loc 1 1099 0
 5058 0018 FB68     		ldr	r3, [r7, #12]
 5059 001a 0133     		adds	r3, r3, #1
 5060 001c FB60     		str	r3, [r7, #12]
1100:.\main.c      ****             if(cnt == 3000000){
 5061              		.loc 1 1100 0
 5062 001e FB68     		ldr	r3, [r7, #12]
 5063 0020 0A4A     		ldr	r2, .L272+4
 5064 0022 9342     		cmp	r3, r2
 5065 0024 03D1     		bne	.L270
1101:.\main.c      ****                 portOpen = 0;
 5066              		.loc 1 1101 0
 5067 0026 084B     		ldr	r3, .L272
 5068 0028 0022     		movs	r2, #0
 5069 002a 1A70     		strb	r2, [r3]
1102:.\main.c      ****                 return;
 5070              		.loc 1 1102 0
 5071 002c 08E0     		b	.L268
 5072              	.L270:
1098:.\main.c      ****             cnt++;
 5073              		.loc 1 1098 0
 5074 002e FFF7FEFF 		bl	USBUART_CDCIsReady
 5075 0032 0346     		mov	r3, r0
 5076 0034 002B     		cmp	r3, #0
 5077 0036 EFD0     		beq	.L271
1103:.\main.c      ****             }
1104:.\main.c      ****         }
1105:.\main.c      ****         USBUART_PutChar(c);
 5078              		.loc 1 1105 0
 5079 0038 FB79     		ldrb	r3, [r7, #7]	@ zero_extendqisi2
 5080 003a 1846     		mov	r0, r3
 5081 003c FFF7FEFF 		bl	USBUART_PutChar
 5082              	.L268:
 5083              	.LBE15:
1106:.\main.c      ****     }    
1107:.\main.c      **** }
 5084              		.loc 1 1107 0
ARM GAS  C:\Users\Logan\AppData\Local\Temp\ccyYPcsP.s 			page 111


 5085 0040 1037     		adds	r7, r7, #16
 5086              		.cfi_def_cfa_offset 8
 5087 0042 BD46     		mov	sp, r7
 5088              		.cfi_def_cfa_register 13
 5089              		@ sp needed
 5090 0044 80BD     		pop	{r7, pc}
 5091              	.L273:
 5092 0046 00BF     		.align	2
 5093              	.L272:
 5094 0048 00000000 		.word	portOpen
 5095 004c C0C62D00 		.word	3000000
 5096              		.cfi_endproc
 5097              	.LFE104:
 5098              		.size	usbPutChar, .-usbPutChar
 5099              		.section	.text.uart_set_PWM,"ax",%progbits
 5100              		.align	2
 5101              		.global	uart_set_PWM
 5102              		.thumb
 5103              		.thumb_func
 5104              		.type	uart_set_PWM, %function
 5105              	uart_set_PWM:
 5106              	.LFB105:
1108:.\main.c      **** //* ========================================
1109:.\main.c      **** 
1110:.\main.c      **** void uart_set_PWM()
1111:.\main.c      **** {
 5107              		.loc 1 1111 0
 5108              		.cfi_startproc
 5109              		@ args = 0, pretend = 0, frame = 0
 5110              		@ frame_needed = 1, uses_anonymous_args = 0
 5111              		@ link register save eliminated.
 5112 0000 80B4     		push	{r7}
 5113              		.cfi_def_cfa_offset 4
 5114              		.cfi_offset 7, -4
 5115 0002 00AF     		add	r7, sp, #0
 5116              		.cfi_def_cfa_register 7
1112:.\main.c      ****     //removed from final implementation
1113:.\main.c      **** }
 5117              		.loc 1 1113 0
 5118 0004 BD46     		mov	sp, r7
 5119              		.cfi_def_cfa_register 13
 5120              		@ sp needed
 5121 0006 5DF8047B 		ldr	r7, [sp], #4
 5122              		.cfi_restore 7
 5123              		.cfi_def_cfa_offset 0
 5124 000a 7047     		bx	lr
 5125              		.cfi_endproc
 5126              	.LFE105:
 5127              		.size	uart_set_PWM, .-uart_set_PWM
 5128              		.text
 5129              	.Letext0:
 5130              		.file 2 "c:\\program files (x86)\\cypress\\psoc creator\\3.3\\psoc creator\\import\\gnu\\arm\\4.9.
 5131              		.file 3 "c:\\program files (x86)\\cypress\\psoc creator\\3.3\\psoc creator\\import\\gnu\\arm\\4.9.
 5132              		.file 4 "Generated_Source\\PSoC5/cytypes.h"
 5133              		.file 5 ".\\vars.h"
 5134              		.file 6 "Generated_Source\\PSoC5/core_cm3.h"
 5135              		.file 7 ".\\pathfinder.h"
ARM GAS  C:\Users\Logan\AppData\Local\Temp\ccyYPcsP.s 			page 112


 5136              		.section	.debug_info,"",%progbits
 5137              	.Ldebug_info0:
 5138 0000 760E0000 		.4byte	0xe76
 5139 0004 0400     		.2byte	0x4
 5140 0006 00000000 		.4byte	.Ldebug_abbrev0
 5141 000a 04       		.byte	0x4
 5142 000b 01       		.uleb128 0x1
 5143 000c B6040000 		.4byte	.LASF197
 5144 0010 01       		.byte	0x1
 5145 0011 94090000 		.4byte	.LASF198
 5146 0015 1C000000 		.4byte	.LASF199
 5147 0019 00000000 		.4byte	.Ldebug_ranges0+0
 5148 001d 00000000 		.4byte	0
 5149 0021 00000000 		.4byte	.Ldebug_line0
 5150 0025 02       		.uleb128 0x2
 5151 0026 01       		.byte	0x1
 5152 0027 06       		.byte	0x6
 5153 0028 CE080000 		.4byte	.LASF0
 5154 002c 02       		.uleb128 0x2
 5155 002d 01       		.byte	0x1
 5156 002e 08       		.byte	0x8
 5157 002f 0B080000 		.4byte	.LASF1
 5158 0033 02       		.uleb128 0x2
 5159 0034 02       		.byte	0x2
 5160 0035 05       		.byte	0x5
 5161 0036 6C060000 		.4byte	.LASF2
 5162 003a 02       		.uleb128 0x2
 5163 003b 02       		.byte	0x2
 5164 003c 07       		.byte	0x7
 5165 003d DA080000 		.4byte	.LASF3
 5166 0041 03       		.uleb128 0x3
 5167 0042 D7000000 		.4byte	.LASF5
 5168 0046 02       		.byte	0x2
 5169 0047 3F       		.byte	0x3f
 5170 0048 4C000000 		.4byte	0x4c
 5171 004c 02       		.uleb128 0x2
 5172 004d 04       		.byte	0x4
 5173 004e 05       		.byte	0x5
 5174 004f A0060000 		.4byte	.LASF4
 5175 0053 03       		.uleb128 0x3
 5176 0054 19080000 		.4byte	.LASF6
 5177 0058 02       		.byte	0x2
 5178 0059 41       		.byte	0x41
 5179 005a 5E000000 		.4byte	0x5e
 5180 005e 02       		.uleb128 0x2
 5181 005f 04       		.byte	0x4
 5182 0060 07       		.byte	0x7
 5183 0061 A4070000 		.4byte	.LASF7
 5184 0065 02       		.uleb128 0x2
 5185 0066 08       		.byte	0x8
 5186 0067 05       		.byte	0x5
 5187 0068 80040000 		.4byte	.LASF8
 5188 006c 02       		.uleb128 0x2
 5189 006d 08       		.byte	0x8
 5190 006e 07       		.byte	0x7
 5191 006f 8E020000 		.4byte	.LASF9
 5192 0073 04       		.uleb128 0x4
ARM GAS  C:\Users\Logan\AppData\Local\Temp\ccyYPcsP.s 			page 113


 5193 0074 04       		.byte	0x4
 5194 0075 05       		.byte	0x5
 5195 0076 696E7400 		.ascii	"int\000"
 5196 007a 02       		.uleb128 0x2
 5197 007b 04       		.byte	0x4
 5198 007c 07       		.byte	0x7
 5199 007d BF000000 		.4byte	.LASF10
 5200 0081 02       		.uleb128 0x2
 5201 0082 04       		.byte	0x4
 5202 0083 07       		.byte	0x7
 5203 0084 9B070000 		.4byte	.LASF11
 5204 0088 05       		.uleb128 0x5
 5205 0089 04       		.byte	0x4
 5206 008a 8E000000 		.4byte	0x8e
 5207 008e 02       		.uleb128 0x2
 5208 008f 01       		.byte	0x1
 5209 0090 08       		.byte	0x8
 5210 0091 BD030000 		.4byte	.LASF12
 5211 0095 03       		.uleb128 0x3
 5212 0096 C2070000 		.4byte	.LASF13
 5213 009a 03       		.byte	0x3
 5214 009b 2C       		.byte	0x2c
 5215 009c 41000000 		.4byte	0x41
 5216 00a0 03       		.uleb128 0x3
 5217 00a1 0E020000 		.4byte	.LASF14
 5218 00a5 03       		.byte	0x3
 5219 00a6 2D       		.byte	0x2d
 5220 00a7 53000000 		.4byte	0x53
 5221 00ab 06       		.uleb128 0x6
 5222 00ac 21090000 		.4byte	.LASF15
 5223 00b0 04       		.byte	0x4
 5224 00b1 9201     		.2byte	0x192
 5225 00b3 2C000000 		.4byte	0x2c
 5226 00b7 06       		.uleb128 0x6
 5227 00b8 10040000 		.4byte	.LASF16
 5228 00bc 04       		.byte	0x4
 5229 00bd 9301     		.2byte	0x193
 5230 00bf 3A000000 		.4byte	0x3a
 5231 00c3 06       		.uleb128 0x6
 5232 00c4 87050000 		.4byte	.LASF17
 5233 00c8 04       		.byte	0x4
 5234 00c9 9401     		.2byte	0x194
 5235 00cb 5E000000 		.4byte	0x5e
 5236 00cf 06       		.uleb128 0x6
 5237 00d0 17040000 		.4byte	.LASF18
 5238 00d4 04       		.byte	0x4
 5239 00d5 9501     		.2byte	0x195
 5240 00d7 25000000 		.4byte	0x25
 5241 00db 06       		.uleb128 0x6
 5242 00dc E1000000 		.4byte	.LASF19
 5243 00e0 04       		.byte	0x4
 5244 00e1 9601     		.2byte	0x196
 5245 00e3 33000000 		.4byte	0x33
 5246 00e7 02       		.uleb128 0x2
 5247 00e8 04       		.byte	0x4
 5248 00e9 04       		.byte	0x4
 5249 00ea 2E020000 		.4byte	.LASF20
ARM GAS  C:\Users\Logan\AppData\Local\Temp\ccyYPcsP.s 			page 114


 5250 00ee 02       		.uleb128 0x2
 5251 00ef 08       		.byte	0x8
 5252 00f0 04       		.byte	0x4
 5253 00f1 27090000 		.4byte	.LASF21
 5254 00f5 07       		.uleb128 0x7
 5255 00f6 A0000000 		.4byte	0xa0
 5256 00fa 05010000 		.4byte	0x105
 5257 00fe 08       		.uleb128 0x8
 5258 00ff 81000000 		.4byte	0x81
 5259 0103 01       		.byte	0x1
 5260 0104 00       		.byte	0
 5261 0105 02       		.uleb128 0x2
 5262 0106 08       		.byte	0x8
 5263 0107 04       		.byte	0x4
 5264 0108 03060000 		.4byte	.LASF22
 5265 010c 09       		.uleb128 0x9
 5266 010d 66080000 		.4byte	.LASF31
 5267 0111 01       		.byte	0x1
 5268 0112 05       		.byte	0x5
 5269 0113 61       		.byte	0x61
 5270 0114 49010000 		.4byte	0x149
 5271 0118 0A       		.uleb128 0xa
 5272 0119 4D020000 		.4byte	.LASF23
 5273 011d 00       		.sleb128 0
 5274 011e 0A       		.uleb128 0xa
 5275 011f F4000000 		.4byte	.LASF24
 5276 0123 01       		.sleb128 1
 5277 0124 0A       		.uleb128 0xa
 5278 0125 5B000000 		.4byte	.LASF25
 5279 0129 02       		.sleb128 2
 5280 012a 0A       		.uleb128 0xa
 5281 012b F2050000 		.4byte	.LASF26
 5282 012f 03       		.sleb128 3
 5283 0130 0A       		.uleb128 0xa
 5284 0131 1F010000 		.4byte	.LASF27
 5285 0135 04       		.sleb128 4
 5286 0136 0A       		.uleb128 0xa
 5287 0137 F7010000 		.4byte	.LASF28
 5288 013b 05       		.sleb128 5
 5289 013c 0A       		.uleb128 0xa
 5290 013d 16070000 		.4byte	.LASF29
 5291 0141 06       		.sleb128 6
 5292 0142 0A       		.uleb128 0xa
 5293 0143 61090000 		.4byte	.LASF30
 5294 0147 07       		.sleb128 7
 5295 0148 00       		.byte	0
 5296 0149 09       		.uleb128 0x9
 5297 014a 5A010000 		.4byte	.LASF32
 5298 014e 01       		.byte	0x1
 5299 014f 05       		.byte	0x5
 5300 0150 62       		.byte	0x62
 5301 0151 86010000 		.4byte	0x186
 5302 0155 0A       		.uleb128 0xa
 5303 0156 E8060000 		.4byte	.LASF33
 5304 015a 00       		.sleb128 0
 5305 015b 0A       		.uleb128 0xa
 5306 015c 47040000 		.4byte	.LASF34
ARM GAS  C:\Users\Logan\AppData\Local\Temp\ccyYPcsP.s 			page 115


 5307 0160 01       		.sleb128 1
 5308 0161 0A       		.uleb128 0xa
 5309 0162 B7060000 		.4byte	.LASF35
 5310 0166 02       		.sleb128 2
 5311 0167 0A       		.uleb128 0xa
 5312 0168 B1010000 		.4byte	.LASF36
 5313 016c 03       		.sleb128 3
 5314 016d 0A       		.uleb128 0xa
 5315 016e FF080000 		.4byte	.LASF37
 5316 0172 04       		.sleb128 4
 5317 0173 0A       		.uleb128 0xa
 5318 0174 3F090000 		.4byte	.LASF38
 5319 0178 05       		.sleb128 5
 5320 0179 0A       		.uleb128 0xa
 5321 017a 70000000 		.4byte	.LASF39
 5322 017e 06       		.sleb128 6
 5323 017f 0A       		.uleb128 0xa
 5324 0180 09070000 		.4byte	.LASF40
 5325 0184 07       		.sleb128 7
 5326 0185 00       		.byte	0
 5327 0186 0B       		.uleb128 0xb
 5328 0187 A7050000 		.4byte	.LASF200
 5329 018b 20       		.byte	0x20
 5330 018c 05       		.byte	0x5
 5331 018d 68       		.byte	0x68
 5332 018e 5F020000 		.4byte	0x25f
 5333 0192 0C       		.uleb128 0xc
 5334 0193 C5050000 		.4byte	.LASF41
 5335 0197 05       		.byte	0x5
 5336 0198 69       		.byte	0x69
 5337 0199 CF000000 		.4byte	0xcf
 5338 019d 00       		.byte	0
 5339 019e 0C       		.uleb128 0xc
 5340 019f 47020000 		.4byte	.LASF42
 5341 01a3 05       		.byte	0x5
 5342 01a4 6A       		.byte	0x6a
 5343 01a5 AB000000 		.4byte	0xab
 5344 01a9 01       		.byte	0x1
 5345 01aa 0C       		.uleb128 0xc
 5346 01ab E3070000 		.4byte	.LASF43
 5347 01af 05       		.byte	0x5
 5348 01b0 6B       		.byte	0x6b
 5349 01b1 DB000000 		.4byte	0xdb
 5350 01b5 02       		.byte	0x2
 5351 01b6 0C       		.uleb128 0xc
 5352 01b7 91030000 		.4byte	.LASF44
 5353 01bb 05       		.byte	0x5
 5354 01bc 6C       		.byte	0x6c
 5355 01bd DB000000 		.4byte	0xdb
 5356 01c1 04       		.byte	0x4
 5357 01c2 0C       		.uleb128 0xc
 5358 01c3 ED080000 		.4byte	.LASF45
 5359 01c7 05       		.byte	0x5
 5360 01c8 6D       		.byte	0x6d
 5361 01c9 DB000000 		.4byte	0xdb
 5362 01cd 06       		.byte	0x6
 5363 01ce 0C       		.uleb128 0xc
ARM GAS  C:\Users\Logan\AppData\Local\Temp\ccyYPcsP.s 			page 116


 5364 01cf 67090000 		.4byte	.LASF46
 5365 01d3 05       		.byte	0x5
 5366 01d4 6E       		.byte	0x6e
 5367 01d5 DB000000 		.4byte	0xdb
 5368 01d9 08       		.byte	0x8
 5369 01da 0C       		.uleb128 0xc
 5370 01db 4D050000 		.4byte	.LASF47
 5371 01df 05       		.byte	0x5
 5372 01e0 6F       		.byte	0x6f
 5373 01e1 DB000000 		.4byte	0xdb
 5374 01e5 0A       		.byte	0xa
 5375 01e6 0C       		.uleb128 0xc
 5376 01e7 C2030000 		.4byte	.LASF48
 5377 01eb 05       		.byte	0x5
 5378 01ec 70       		.byte	0x70
 5379 01ed DB000000 		.4byte	0xdb
 5380 01f1 0C       		.byte	0xc
 5381 01f2 0C       		.uleb128 0xc
 5382 01f3 D4050000 		.4byte	.LASF49
 5383 01f7 05       		.byte	0x5
 5384 01f8 71       		.byte	0x71
 5385 01f9 DB000000 		.4byte	0xdb
 5386 01fd 0E       		.byte	0xe
 5387 01fe 0C       		.uleb128 0xc
 5388 01ff 9B040000 		.4byte	.LASF50
 5389 0203 05       		.byte	0x5
 5390 0204 72       		.byte	0x72
 5391 0205 DB000000 		.4byte	0xdb
 5392 0209 10       		.byte	0x10
 5393 020a 0C       		.uleb128 0xc
 5394 020b 5B070000 		.4byte	.LASF51
 5395 020f 05       		.byte	0x5
 5396 0210 73       		.byte	0x73
 5397 0211 DB000000 		.4byte	0xdb
 5398 0215 12       		.byte	0x12
 5399 0216 0C       		.uleb128 0xc
 5400 0217 8B090000 		.4byte	.LASF52
 5401 021b 05       		.byte	0x5
 5402 021c 74       		.byte	0x74
 5403 021d DB000000 		.4byte	0xdb
 5404 0221 14       		.byte	0x14
 5405 0222 0C       		.uleb128 0xc
 5406 0223 29040000 		.4byte	.LASF53
 5407 0227 05       		.byte	0x5
 5408 0228 75       		.byte	0x75
 5409 0229 DB000000 		.4byte	0xdb
 5410 022d 16       		.byte	0x16
 5411 022e 0C       		.uleb128 0xc
 5412 022f 52010000 		.4byte	.LASF54
 5413 0233 05       		.byte	0x5
 5414 0234 76       		.byte	0x76
 5415 0235 DB000000 		.4byte	0xdb
 5416 0239 18       		.byte	0x18
 5417 023a 0C       		.uleb128 0xc
 5418 023b FD030000 		.4byte	.LASF55
 5419 023f 05       		.byte	0x5
 5420 0240 77       		.byte	0x77
ARM GAS  C:\Users\Logan\AppData\Local\Temp\ccyYPcsP.s 			page 117


 5421 0241 DB000000 		.4byte	0xdb
 5422 0245 1A       		.byte	0x1a
 5423 0246 0C       		.uleb128 0xc
 5424 0247 44050000 		.4byte	.LASF56
 5425 024b 05       		.byte	0x5
 5426 024c 78       		.byte	0x78
 5427 024d DB000000 		.4byte	0xdb
 5428 0251 1C       		.byte	0x1c
 5429 0252 0C       		.uleb128 0xc
 5430 0253 17020000 		.4byte	.LASF57
 5431 0257 05       		.byte	0x5
 5432 0258 79       		.byte	0x79
 5433 0259 DB000000 		.4byte	0xdb
 5434 025d 1E       		.byte	0x1e
 5435 025e 00       		.byte	0
 5436 025f 0D       		.uleb128 0xd
 5437 0260 0E090000 		.4byte	.LASF58
 5438 0264 01       		.byte	0x1
 5439 0265 60       		.byte	0x60
 5440 0266 00000000 		.4byte	.LFB63
 5441 026a 0C000000 		.4byte	.LFE63-.LFB63
 5442 026e 01       		.uleb128 0x1
 5443 026f 9C       		.byte	0x9c
 5444 0270 0E       		.uleb128 0xe
 5445 0271 63070000 		.4byte	.LASF59
 5446 0275 01       		.byte	0x1
 5447 0276 66       		.byte	0x66
 5448 0277 00000000 		.4byte	.LFB64
 5449 027b 2C000000 		.4byte	.LFE64-.LFB64
 5450 027f 01       		.uleb128 0x1
 5451 0280 9C       		.byte	0x9c
 5452 0281 0E       		.uleb128 0xe
 5453 0282 24020000 		.4byte	.LASF60
 5454 0286 01       		.byte	0x1
 5455 0287 6F       		.byte	0x6f
 5456 0288 00000000 		.4byte	.LFB65
 5457 028c A0010000 		.4byte	.LFE65-.LFB65
 5458 0290 01       		.uleb128 0x1
 5459 0291 9C       		.byte	0x9c
 5460 0292 0F       		.uleb128 0xf
 5461 0293 BE020000 		.4byte	.LASF66
 5462 0297 01       		.byte	0x1
 5463 0298 A7       		.byte	0xa7
 5464 0299 00000000 		.4byte	.LFB66
 5465 029d E0000000 		.4byte	.LFE66-.LFB66
 5466 02a1 01       		.uleb128 0x1
 5467 02a2 9C       		.byte	0x9c
 5468 02a3 DC020000 		.4byte	0x2dc
 5469 02a7 10       		.uleb128 0x10
 5470 02a8 0E000000 		.4byte	.LBB2
 5471 02ac 3C000000 		.4byte	.LBE2-.LBB2
 5472 02b0 C3020000 		.4byte	0x2c3
 5473 02b4 11       		.uleb128 0x11
 5474 02b5 05040000 		.4byte	.LASF61
 5475 02b9 01       		.byte	0x1
 5476 02ba AB       		.byte	0xab
 5477 02bb B7000000 		.4byte	0xb7
ARM GAS  C:\Users\Logan\AppData\Local\Temp\ccyYPcsP.s 			page 118


 5478 02bf 02       		.uleb128 0x2
 5479 02c0 91       		.byte	0x91
 5480 02c1 76       		.sleb128 -10
 5481 02c2 00       		.byte	0
 5482 02c3 12       		.uleb128 0x12
 5483 02c4 56000000 		.4byte	.LBB3
 5484 02c8 3C000000 		.4byte	.LBE3-.LBB3
 5485 02cc 11       		.uleb128 0x11
 5486 02cd 05040000 		.4byte	.LASF61
 5487 02d1 01       		.byte	0x1
 5488 02d2 B6       		.byte	0xb6
 5489 02d3 B7000000 		.4byte	0xb7
 5490 02d7 02       		.uleb128 0x2
 5491 02d8 91       		.byte	0x91
 5492 02d9 74       		.sleb128 -12
 5493 02da 00       		.byte	0
 5494 02db 00       		.byte	0
 5495 02dc 0D       		.uleb128 0xd
 5496 02dd 38080000 		.4byte	.LASF62
 5497 02e1 01       		.byte	0x1
 5498 02e2 CC       		.byte	0xcc
 5499 02e3 00000000 		.4byte	.LFB67
 5500 02e7 20000000 		.4byte	.LFE67-.LFB67
 5501 02eb 01       		.uleb128 0x1
 5502 02ec 9C       		.byte	0x9c
 5503 02ed 0E       		.uleb128 0xe
 5504 02ee 44030000 		.4byte	.LASF63
 5505 02f2 01       		.byte	0x1
 5506 02f3 D3       		.byte	0xd3
 5507 02f4 00000000 		.4byte	.LFB68
 5508 02f8 28000000 		.4byte	.LFE68-.LFB68
 5509 02fc 01       		.uleb128 0x1
 5510 02fd 9C       		.byte	0x9c
 5511 02fe 0E       		.uleb128 0xe
 5512 02ff 0F060000 		.4byte	.LASF64
 5513 0303 01       		.byte	0x1
 5514 0304 DC       		.byte	0xdc
 5515 0305 00000000 		.4byte	.LFB69
 5516 0309 0A000000 		.4byte	.LFE69-.LFB69
 5517 030d 01       		.uleb128 0x1
 5518 030e 9C       		.byte	0x9c
 5519 030f 0E       		.uleb128 0xe
 5520 0310 2C060000 		.4byte	.LASF65
 5521 0314 01       		.byte	0x1
 5522 0315 E1       		.byte	0xe1
 5523 0316 00000000 		.4byte	.LFB70
 5524 031a 28000000 		.4byte	.LFE70-.LFB70
 5525 031e 01       		.uleb128 0x1
 5526 031f 9C       		.byte	0x9c
 5527 0320 13       		.uleb128 0x13
 5528 0321 09090000 		.4byte	.LASF67
 5529 0325 01       		.byte	0x1
 5530 0326 EC       		.byte	0xec
 5531 0327 73000000 		.4byte	0x73
 5532 032b 00000000 		.4byte	.LFB71
 5533 032f 30070000 		.4byte	.LFE71-.LFB71
 5534 0333 01       		.uleb128 0x1
ARM GAS  C:\Users\Logan\AppData\Local\Temp\ccyYPcsP.s 			page 119


 5535 0334 9C       		.byte	0x9c
 5536 0335 09040000 		.4byte	0x409
 5537 0339 14       		.uleb128 0x14
 5538 033a 35030000 		.4byte	.LASF68
 5539 033e 01       		.byte	0x1
 5540 033f 2501     		.2byte	0x125
 5541 0341 B7000000 		.4byte	0xb7
 5542 0345 02       		.uleb128 0x2
 5543 0346 91       		.byte	0x91
 5544 0347 76       		.sleb128 -10
 5545 0348 12       		.uleb128 0x12
 5546 0349 38010000 		.4byte	.LBB4
 5547 034d 78050000 		.4byte	.LBE4-.LBB4
 5548 0351 14       		.uleb128 0x14
 5549 0352 AD040000 		.4byte	.LASF69
 5550 0356 01       		.byte	0x1
 5551 0357 5C01     		.2byte	0x15c
 5552 0359 8E000000 		.4byte	0x8e
 5553 035d 02       		.uleb128 0x2
 5554 035e 91       		.byte	0x91
 5555 035f 75       		.sleb128 -11
 5556 0360 10       		.uleb128 0x10
 5557 0361 84010000 		.4byte	.LBB5
 5558 0365 F8010000 		.4byte	.LBE5-.LBB5
 5559 0369 96030000 		.4byte	0x396
 5560 036d 15       		.uleb128 0x15
 5561 036e 6D657300 		.ascii	"mes\000"
 5562 0372 01       		.byte	0x1
 5563 0373 6301     		.2byte	0x163
 5564 0375 09040000 		.4byte	0x409
 5565 0379 02       		.uleb128 0x2
 5566 037a 91       		.byte	0x91
 5567 037b 60       		.sleb128 -32
 5568 037c 12       		.uleb128 0x12
 5569 037d AC010000 		.4byte	.LBB6
 5570 0381 D0010000 		.4byte	.LBE6-.LBB6
 5571 0385 14       		.uleb128 0x14
 5572 0386 1C040000 		.4byte	.LASF70
 5573 038a 01       		.byte	0x1
 5574 038b 7401     		.2byte	0x174
 5575 038d AB000000 		.4byte	0xab
 5576 0391 02       		.uleb128 0x2
 5577 0392 91       		.byte	0x91
 5578 0393 74       		.sleb128 -12
 5579 0394 00       		.byte	0
 5580 0395 00       		.byte	0
 5581 0396 10       		.uleb128 0x10
 5582 0397 D6030000 		.4byte	.LBB7
 5583 039b 30000000 		.4byte	.LBE7-.LBB7
 5584 039f B3030000 		.4byte	0x3b3
 5585 03a3 14       		.uleb128 0x14
 5586 03a4 FA000000 		.4byte	.LASF71
 5587 03a8 01       		.byte	0x1
 5588 03a9 AA01     		.2byte	0x1aa
 5589 03ab 8E000000 		.4byte	0x8e
 5590 03af 02       		.uleb128 0x2
 5591 03b0 91       		.byte	0x91
ARM GAS  C:\Users\Logan\AppData\Local\Temp\ccyYPcsP.s 			page 120


 5592 03b1 71       		.sleb128 -15
 5593 03b2 00       		.byte	0
 5594 03b3 10       		.uleb128 0x10
 5595 03b4 26040000 		.4byte	.LBB8
 5596 03b8 C6000000 		.4byte	.LBE8-.LBB8
 5597 03bc DF030000 		.4byte	0x3df
 5598 03c0 15       		.uleb128 0x15
 5599 03c1 6D657300 		.ascii	"mes\000"
 5600 03c5 01       		.byte	0x1
 5601 03c6 B901     		.2byte	0x1b9
 5602 03c8 09040000 		.4byte	0x409
 5603 03cc 02       		.uleb128 0x2
 5604 03cd 91       		.byte	0x91
 5605 03ce 50       		.sleb128 -48
 5606 03cf 14       		.uleb128 0x14
 5607 03d0 1C040000 		.4byte	.LASF70
 5608 03d4 01       		.byte	0x1
 5609 03d5 BD01     		.2byte	0x1bd
 5610 03d7 AB000000 		.4byte	0xab
 5611 03db 02       		.uleb128 0x2
 5612 03dc 91       		.byte	0x91
 5613 03dd 73       		.sleb128 -13
 5614 03de 00       		.byte	0
 5615 03df 12       		.uleb128 0x12
 5616 03e0 04050000 		.4byte	.LBB9
 5617 03e4 A2010000 		.4byte	.LBE9-.LBB9
 5618 03e8 15       		.uleb128 0x15
 5619 03e9 6D657300 		.ascii	"mes\000"
 5620 03ed 01       		.byte	0x1
 5621 03ee DA01     		.2byte	0x1da
 5622 03f0 09040000 		.4byte	0x409
 5623 03f4 02       		.uleb128 0x2
 5624 03f5 91       		.byte	0x91
 5625 03f6 40       		.sleb128 -64
 5626 03f7 14       		.uleb128 0x14
 5627 03f8 1C040000 		.4byte	.LASF70
 5628 03fc 01       		.byte	0x1
 5629 03fd DE01     		.2byte	0x1de
 5630 03ff AB000000 		.4byte	0xab
 5631 0403 02       		.uleb128 0x2
 5632 0404 91       		.byte	0x91
 5633 0405 72       		.sleb128 -14
 5634 0406 00       		.byte	0
 5635 0407 00       		.byte	0
 5636 0408 00       		.byte	0
 5637 0409 07       		.uleb128 0x7
 5638 040a 8E000000 		.4byte	0x8e
 5639 040e 19040000 		.4byte	0x419
 5640 0412 08       		.uleb128 0x8
 5641 0413 81000000 		.4byte	0x81
 5642 0417 0F       		.byte	0xf
 5643 0418 00       		.byte	0
 5644 0419 16       		.uleb128 0x16
 5645 041a 47090000 		.4byte	.LASF77
 5646 041e 01       		.byte	0x1
 5647 041f 3902     		.2byte	0x239
 5648 0421 00000000 		.4byte	.LFB72
ARM GAS  C:\Users\Logan\AppData\Local\Temp\ccyYPcsP.s 			page 121


 5649 0425 60010000 		.4byte	.LFE72-.LFB72
 5650 0429 01       		.uleb128 0x1
 5651 042a 9C       		.byte	0x9c
 5652 042b 67040000 		.4byte	0x467
 5653 042f 12       		.uleb128 0x12
 5654 0430 10000000 		.4byte	.LBB10
 5655 0434 34010000 		.4byte	.LBE10-.LBB10
 5656 0438 14       		.uleb128 0x14
 5657 0439 45010000 		.4byte	.LASF72
 5658 043d 01       		.byte	0x1
 5659 043e 3F02     		.2byte	0x23f
 5660 0440 B7000000 		.4byte	0xb7
 5661 0444 02       		.uleb128 0x2
 5662 0445 91       		.byte	0x91
 5663 0446 76       		.sleb128 -10
 5664 0447 14       		.uleb128 0x14
 5665 0448 B6070000 		.4byte	.LASF73
 5666 044c 01       		.byte	0x1
 5667 044d 4002     		.2byte	0x240
 5668 044f 67040000 		.4byte	0x467
 5669 0453 02       		.uleb128 0x2
 5670 0454 91       		.byte	0x91
 5671 0455 68       		.sleb128 -24
 5672 0456 14       		.uleb128 0x14
 5673 0457 53020000 		.4byte	.LASF74
 5674 045b 01       		.byte	0x1
 5675 045c 4102     		.2byte	0x241
 5676 045e 67040000 		.4byte	0x467
 5677 0462 02       		.uleb128 0x2
 5678 0463 91       		.byte	0x91
 5679 0464 5C       		.sleb128 -36
 5680 0465 00       		.byte	0
 5681 0466 00       		.byte	0
 5682 0467 07       		.uleb128 0x7
 5683 0468 8E000000 		.4byte	0x8e
 5684 046c 77040000 		.4byte	0x477
 5685 0470 08       		.uleb128 0x8
 5686 0471 81000000 		.4byte	0x81
 5687 0475 0B       		.byte	0xb
 5688 0476 00       		.byte	0
 5689 0477 17       		.uleb128 0x17
 5690 0478 DB030000 		.4byte	.LASF75
 5691 047c 01       		.byte	0x1
 5692 047d 7A02     		.2byte	0x27a
 5693 047f 00000000 		.4byte	.LFB73
 5694 0483 18000000 		.4byte	.LFE73-.LFB73
 5695 0487 01       		.uleb128 0x1
 5696 0488 9C       		.byte	0x9c
 5697 0489 9D040000 		.4byte	0x49d
 5698 048d 18       		.uleb128 0x18
 5699 048e 64697200 		.ascii	"dir\000"
 5700 0492 01       		.byte	0x1
 5701 0493 7A02     		.2byte	0x27a
 5702 0495 AB000000 		.4byte	0xab
 5703 0499 02       		.uleb128 0x2
 5704 049a 91       		.byte	0x91
 5705 049b 77       		.sleb128 -9
ARM GAS  C:\Users\Logan\AppData\Local\Temp\ccyYPcsP.s 			page 122


 5706 049c 00       		.byte	0
 5707 049d 17       		.uleb128 0x17
 5708 049e 3B040000 		.4byte	.LASF76
 5709 04a2 01       		.byte	0x1
 5710 04a3 7F02     		.2byte	0x27f
 5711 04a5 00000000 		.4byte	.LFB74
 5712 04a9 18000000 		.4byte	.LFE74-.LFB74
 5713 04ad 01       		.uleb128 0x1
 5714 04ae 9C       		.byte	0x9c
 5715 04af C3040000 		.4byte	0x4c3
 5716 04b3 18       		.uleb128 0x18
 5717 04b4 64697200 		.ascii	"dir\000"
 5718 04b8 01       		.byte	0x1
 5719 04b9 7F02     		.2byte	0x27f
 5720 04bb AB000000 		.4byte	0xab
 5721 04bf 02       		.uleb128 0x2
 5722 04c0 91       		.byte	0x91
 5723 04c1 77       		.sleb128 -9
 5724 04c2 00       		.byte	0
 5725 04c3 19       		.uleb128 0x19
 5726 04c4 6C080000 		.4byte	.LASF78
 5727 04c8 01       		.byte	0x1
 5728 04c9 8402     		.2byte	0x284
 5729 04cb 00000000 		.4byte	.LFB75
 5730 04cf 54000000 		.4byte	.LFE75-.LFB75
 5731 04d3 01       		.uleb128 0x1
 5732 04d4 9C       		.byte	0x9c
 5733 04d5 E9040000 		.4byte	0x4e9
 5734 04d9 15       		.uleb128 0x15
 5735 04da 6D657300 		.ascii	"mes\000"
 5736 04de 01       		.byte	0x1
 5737 04df 8902     		.2byte	0x289
 5738 04e1 09040000 		.4byte	0x409
 5739 04e5 02       		.uleb128 0x2
 5740 04e6 91       		.byte	0x91
 5741 04e7 68       		.sleb128 -24
 5742 04e8 00       		.byte	0
 5743 04e9 17       		.uleb128 0x17
 5744 04ea 34020000 		.4byte	.LASF79
 5745 04ee 01       		.byte	0x1
 5746 04ef 8E02     		.2byte	0x28e
 5747 04f1 00000000 		.4byte	.LFB76
 5748 04f5 F4000000 		.4byte	.LFE76-.LFB76
 5749 04f9 01       		.uleb128 0x1
 5750 04fa 9C       		.byte	0x9c
 5751 04fb 3C050000 		.4byte	0x53c
 5752 04ff 1A       		.uleb128 0x1a
 5753 0500 34070000 		.4byte	.LASF80
 5754 0504 01       		.byte	0x1
 5755 0505 8E02     		.2byte	0x28e
 5756 0507 EE000000 		.4byte	0xee
 5757 050b 02       		.uleb128 0x2
 5758 050c 91       		.byte	0x91
 5759 050d 68       		.sleb128 -24
 5760 050e 1A       		.uleb128 0x1a
 5761 050f 68040000 		.4byte	.LASF81
 5762 0513 01       		.byte	0x1
ARM GAS  C:\Users\Logan\AppData\Local\Temp\ccyYPcsP.s 			page 123


 5763 0514 8E02     		.2byte	0x28e
 5764 0516 EE000000 		.4byte	0xee
 5765 051a 02       		.uleb128 0x2
 5766 051b 91       		.byte	0x91
 5767 051c 60       		.sleb128 -32
 5768 051d 14       		.uleb128 0x14
 5769 051e 6C020000 		.4byte	.LASF82
 5770 0522 01       		.byte	0x1
 5771 0523 A302     		.2byte	0x2a3
 5772 0525 DB000000 		.4byte	0xdb
 5773 0529 02       		.uleb128 0x2
 5774 052a 91       		.byte	0x91
 5775 052b 76       		.sleb128 -10
 5776 052c 14       		.uleb128 0x14
 5777 052d 9B050000 		.4byte	.LASF83
 5778 0531 01       		.byte	0x1
 5779 0532 A402     		.2byte	0x2a4
 5780 0534 DB000000 		.4byte	0xdb
 5781 0538 02       		.uleb128 0x2
 5782 0539 91       		.byte	0x91
 5783 053a 74       		.sleb128 -12
 5784 053b 00       		.byte	0
 5785 053c 1B       		.uleb128 0x1b
 5786 053d 7D080000 		.4byte	.LASF84
 5787 0541 01       		.byte	0x1
 5788 0542 AA02     		.2byte	0x2aa
 5789 0544 00000000 		.4byte	.LFB77
 5790 0548 18000000 		.4byte	.LFE77-.LFB77
 5791 054c 01       		.uleb128 0x1
 5792 054d 9C       		.byte	0x9c
 5793 054e 1B       		.uleb128 0x1b
 5794 054f AB090000 		.4byte	.LASF85
 5795 0553 01       		.byte	0x1
 5796 0554 B002     		.2byte	0x2b0
 5797 0556 00000000 		.4byte	.LFB78
 5798 055a 18000000 		.4byte	.LFE78-.LFB78
 5799 055e 01       		.uleb128 0x1
 5800 055f 9C       		.byte	0x9c
 5801 0560 1B       		.uleb128 0x1b
 5802 0561 EE070000 		.4byte	.LASF86
 5803 0565 01       		.byte	0x1
 5804 0566 B602     		.2byte	0x2b6
 5805 0568 00000000 		.4byte	.LFB79
 5806 056c 22000000 		.4byte	.LFE79-.LFB79
 5807 0570 01       		.uleb128 0x1
 5808 0571 9C       		.byte	0x9c
 5809 0572 1B       		.uleb128 0x1b
 5810 0573 77020000 		.4byte	.LASF87
 5811 0577 01       		.byte	0x1
 5812 0578 BC02     		.2byte	0x2bc
 5813 057a 00000000 		.4byte	.LFB80
 5814 057e 1C000000 		.4byte	.LFE80-.LFB80
 5815 0582 01       		.uleb128 0x1
 5816 0583 9C       		.byte	0x9c
 5817 0584 1B       		.uleb128 0x1b
 5818 0585 51070000 		.4byte	.LASF88
 5819 0589 01       		.byte	0x1
ARM GAS  C:\Users\Logan\AppData\Local\Temp\ccyYPcsP.s 			page 124


 5820 058a C102     		.2byte	0x2c1
 5821 058c 00000000 		.4byte	.LFB81
 5822 0590 28000000 		.4byte	.LFE81-.LFB81
 5823 0594 01       		.uleb128 0x1
 5824 0595 9C       		.byte	0x9c
 5825 0596 1B       		.uleb128 0x1b
 5826 0597 85020000 		.4byte	.LASF89
 5827 059b 01       		.byte	0x1
 5828 059c C602     		.2byte	0x2c6
 5829 059e 00000000 		.4byte	.LFB82
 5830 05a2 2C000000 		.4byte	.LFE82-.LFB82
 5831 05a6 01       		.uleb128 0x1
 5832 05a7 9C       		.byte	0x9c
 5833 05a8 1B       		.uleb128 0x1b
 5834 05a9 F7030000 		.4byte	.LASF90
 5835 05ad 01       		.byte	0x1
 5836 05ae CB02     		.2byte	0x2cb
 5837 05b0 00000000 		.4byte	.LFB83
 5838 05b4 44000000 		.4byte	.LFE83-.LFB83
 5839 05b8 01       		.uleb128 0x1
 5840 05b9 9C       		.byte	0x9c
 5841 05ba 1B       		.uleb128 0x1b
 5842 05bb D8020000 		.4byte	.LASF91
 5843 05bf 01       		.byte	0x1
 5844 05c0 D002     		.2byte	0x2d0
 5845 05c2 00000000 		.4byte	.LFB84
 5846 05c6 38000000 		.4byte	.LFE84-.LFB84
 5847 05ca 01       		.uleb128 0x1
 5848 05cb 9C       		.byte	0x9c
 5849 05cc 1B       		.uleb128 0x1b
 5850 05cd A9060000 		.4byte	.LASF92
 5851 05d1 01       		.byte	0x1
 5852 05d2 D902     		.2byte	0x2d9
 5853 05d4 00000000 		.4byte	.LFB85
 5854 05d8 38000000 		.4byte	.LFE85-.LFB85
 5855 05dc 01       		.uleb128 0x1
 5856 05dd 9C       		.byte	0x9c
 5857 05de 1B       		.uleb128 0x1b
 5858 05df 81060000 		.4byte	.LASF93
 5859 05e3 01       		.byte	0x1
 5860 05e4 E202     		.2byte	0x2e2
 5861 05e6 00000000 		.4byte	.LFB86
 5862 05ea 38000000 		.4byte	.LFE86-.LFB86
 5863 05ee 01       		.uleb128 0x1
 5864 05ef 9C       		.byte	0x9c
 5865 05f0 1B       		.uleb128 0x1b
 5866 05f1 02020000 		.4byte	.LASF94
 5867 05f5 01       		.byte	0x1
 5868 05f6 EB02     		.2byte	0x2eb
 5869 05f8 00000000 		.4byte	.LFB87
 5870 05fc 14000000 		.4byte	.LFE87-.LFB87
 5871 0600 01       		.uleb128 0x1
 5872 0601 9C       		.byte	0x9c
 5873 0602 1C       		.uleb128 0x1c
 5874 0603 EE020000 		.4byte	.LASF95
 5875 0607 01       		.byte	0x1
 5876 0608 F002     		.2byte	0x2f0
ARM GAS  C:\Users\Logan\AppData\Local\Temp\ccyYPcsP.s 			page 125


 5877 060a 00000000 		.4byte	.LFB88
 5878 060e 18000000 		.4byte	.LFE88-.LFB88
 5879 0612 01       		.uleb128 0x1
 5880 0613 9C       		.byte	0x9c
 5881 0614 1C       		.uleb128 0x1c
 5882 0615 A3040000 		.4byte	.LASF96
 5883 0619 01       		.byte	0x1
 5884 061a F402     		.2byte	0x2f4
 5885 061c 00000000 		.4byte	.LFB89
 5886 0620 18000000 		.4byte	.LFE89-.LFB89
 5887 0624 01       		.uleb128 0x1
 5888 0625 9C       		.byte	0x9c
 5889 0626 1C       		.uleb128 0x1c
 5890 0627 B6090000 		.4byte	.LASF97
 5891 062b 01       		.byte	0x1
 5892 062c F902     		.2byte	0x2f9
 5893 062e 00000000 		.4byte	.LFB90
 5894 0632 18000000 		.4byte	.LFE90-.LFB90
 5895 0636 01       		.uleb128 0x1
 5896 0637 9C       		.byte	0x9c
 5897 0638 1C       		.uleb128 0x1c
 5898 0639 82030000 		.4byte	.LASF98
 5899 063d 01       		.byte	0x1
 5900 063e FD02     		.2byte	0x2fd
 5901 0640 00000000 		.4byte	.LFB91
 5902 0644 18000000 		.4byte	.LFE91-.LFB91
 5903 0648 01       		.uleb128 0x1
 5904 0649 9C       		.byte	0x9c
 5905 064a 17       		.uleb128 0x17
 5906 064b D8060000 		.4byte	.LASF99
 5907 064f 01       		.byte	0x1
 5908 0650 0403     		.2byte	0x304
 5909 0652 00000000 		.4byte	.LFB92
 5910 0656 B8000000 		.4byte	.LFE92-.LFB92
 5911 065a 01       		.uleb128 0x1
 5912 065b 9C       		.byte	0x9c
 5913 065c 70060000 		.4byte	0x670
 5914 0660 14       		.uleb128 0x14
 5915 0661 55050000 		.4byte	.LASF100
 5916 0665 01       		.byte	0x1
 5917 0666 0503     		.2byte	0x305
 5918 0668 8E000000 		.4byte	0x8e
 5919 066c 02       		.uleb128 0x2
 5920 066d 91       		.byte	0x91
 5921 066e 6F       		.sleb128 -17
 5922 066f 00       		.byte	0
 5923 0670 17       		.uleb128 0x17
 5924 0671 FA050000 		.4byte	.LASF101
 5925 0675 01       		.byte	0x1
 5926 0676 2103     		.2byte	0x321
 5927 0678 00000000 		.4byte	.LFB93
 5928 067c 28030000 		.4byte	.LFE93-.LFB93
 5929 0680 01       		.uleb128 0x1
 5930 0681 9C       		.byte	0x9c
 5931 0682 C9060000 		.4byte	0x6c9
 5932 0686 14       		.uleb128 0x14
 5933 0687 55050000 		.4byte	.LASF100
ARM GAS  C:\Users\Logan\AppData\Local\Temp\ccyYPcsP.s 			page 126


 5934 068b 01       		.byte	0x1
 5935 068c 2303     		.2byte	0x323
 5936 068e 8E000000 		.4byte	0x8e
 5937 0692 02       		.uleb128 0x2
 5938 0693 91       		.byte	0x91
 5939 0694 6F       		.sleb128 -17
 5940 0695 12       		.uleb128 0x12
 5941 0696 48010000 		.4byte	.LBB11
 5942 069a A6010000 		.4byte	.LBE11-.LBB11
 5943 069e 15       		.uleb128 0x15
 5944 069f 6D657300 		.ascii	"mes\000"
 5945 06a3 01       		.byte	0x1
 5946 06a4 4903     		.2byte	0x349
 5947 06a6 09040000 		.4byte	0x409
 5948 06aa 02       		.uleb128 0x2
 5949 06ab 91       		.byte	0x91
 5950 06ac 5C       		.sleb128 -36
 5951 06ad 15       		.uleb128 0x15
 5952 06ae 6900     		.ascii	"i\000"
 5953 06b0 01       		.byte	0x1
 5954 06b1 5C03     		.2byte	0x35c
 5955 06b3 73000000 		.4byte	0x73
 5956 06b7 02       		.uleb128 0x2
 5957 06b8 91       		.byte	0x91
 5958 06b9 74       		.sleb128 -12
 5959 06ba 15       		.uleb128 0x15
 5960 06bb 7800     		.ascii	"x\000"
 5961 06bd 01       		.byte	0x1
 5962 06be 7303     		.2byte	0x373
 5963 06c0 73000000 		.4byte	0x73
 5964 06c4 02       		.uleb128 0x2
 5965 06c5 91       		.byte	0x91
 5966 06c6 70       		.sleb128 -16
 5967 06c7 00       		.byte	0
 5968 06c8 00       		.byte	0
 5969 06c9 1B       		.uleb128 0x1b
 5970 06ca CD020000 		.4byte	.LASF102
 5971 06ce 01       		.byte	0x1
 5972 06cf 8603     		.2byte	0x386
 5973 06d1 00000000 		.4byte	.LFB94
 5974 06d5 40000000 		.4byte	.LFE94-.LFB94
 5975 06d9 01       		.uleb128 0x1
 5976 06da 9C       		.byte	0x9c
 5977 06db 1B       		.uleb128 0x1b
 5978 06dc 61020000 		.4byte	.LASF103
 5979 06e0 01       		.byte	0x1
 5980 06e1 9503     		.2byte	0x395
 5981 06e3 00000000 		.4byte	.LFB95
 5982 06e7 40000000 		.4byte	.LFE95-.LFB95
 5983 06eb 01       		.uleb128 0x1
 5984 06ec 9C       		.byte	0x9c
 5985 06ed 19       		.uleb128 0x19
 5986 06ee 90000000 		.4byte	.LASF104
 5987 06f2 01       		.byte	0x1
 5988 06f3 A503     		.2byte	0x3a5
 5989 06f5 00000000 		.4byte	.LFB96
 5990 06f9 30020000 		.4byte	.LFE96-.LFB96
ARM GAS  C:\Users\Logan\AppData\Local\Temp\ccyYPcsP.s 			page 127


 5991 06fd 01       		.uleb128 0x1
 5992 06fe 9C       		.byte	0x9c
 5993 06ff 5E070000 		.4byte	0x75e
 5994 0703 14       		.uleb128 0x14
 5995 0704 15030000 		.4byte	.LASF105
 5996 0708 01       		.byte	0x1
 5997 0709 B303     		.2byte	0x3b3
 5998 070b DB000000 		.4byte	0xdb
 5999 070f 02       		.uleb128 0x2
 6000 0710 91       		.byte	0x91
 6001 0711 5E       		.sleb128 -34
 6002 0712 14       		.uleb128 0x14
 6003 0713 73050000 		.4byte	.LASF106
 6004 0717 01       		.byte	0x1
 6005 0718 B403     		.2byte	0x3b4
 6006 071a DB000000 		.4byte	0xdb
 6007 071e 02       		.uleb128 0x2
 6008 071f 91       		.byte	0x91
 6009 0720 5C       		.sleb128 -36
 6010 0721 14       		.uleb128 0x14
 6011 0722 B1030000 		.4byte	.LASF107
 6012 0726 01       		.byte	0x1
 6013 0727 B503     		.2byte	0x3b5
 6014 0729 EE000000 		.4byte	0xee
 6015 072d 02       		.uleb128 0x2
 6016 072e 91       		.byte	0x91
 6017 072f 68       		.sleb128 -24
 6018 0730 14       		.uleb128 0x14
 6019 0731 6F090000 		.4byte	.LASF108
 6020 0735 01       		.byte	0x1
 6021 0736 B603     		.2byte	0x3b6
 6022 0738 EE000000 		.4byte	0xee
 6023 073c 02       		.uleb128 0x2
 6024 073d 91       		.byte	0x91
 6025 073e 60       		.sleb128 -32
 6026 073f 14       		.uleb128 0x14
 6027 0740 53040000 		.4byte	.LASF109
 6028 0744 01       		.byte	0x1
 6029 0745 BF03     		.2byte	0x3bf
 6030 0747 73000000 		.4byte	0x73
 6031 074b 02       		.uleb128 0x2
 6032 074c 91       		.byte	0x91
 6033 074d 58       		.sleb128 -40
 6034 074e 14       		.uleb128 0x14
 6035 074f 17090000 		.4byte	.LASF110
 6036 0753 01       		.byte	0x1
 6037 0754 C003     		.2byte	0x3c0
 6038 0756 73000000 		.4byte	0x73
 6039 075a 02       		.uleb128 0x2
 6040 075b 91       		.byte	0x91
 6041 075c 54       		.sleb128 -44
 6042 075d 00       		.byte	0
 6043 075e 1C       		.uleb128 0x1c
 6044 075f CA050000 		.4byte	.LASF111
 6045 0763 01       		.byte	0x1
 6046 0764 CE03     		.2byte	0x3ce
 6047 0766 00000000 		.4byte	.LFB97
ARM GAS  C:\Users\Logan\AppData\Local\Temp\ccyYPcsP.s 			page 128


 6048 076a 0C000000 		.4byte	.LFE97-.LFB97
 6049 076e 01       		.uleb128 0x1
 6050 076f 9C       		.byte	0x9c
 6051 0770 19       		.uleb128 0x19
 6052 0771 92010000 		.4byte	.LASF112
 6053 0775 01       		.byte	0x1
 6054 0776 D403     		.2byte	0x3d4
 6055 0778 00000000 		.4byte	.LFB98
 6056 077c 4C010000 		.4byte	.LFE98-.LFB98
 6057 0780 01       		.uleb128 0x1
 6058 0781 9C       		.byte	0x9c
 6059 0782 B2070000 		.4byte	0x7b2
 6060 0786 15       		.uleb128 0x15
 6061 0787 6E6C00   		.ascii	"nl\000"
 6062 078a 01       		.byte	0x1
 6063 078b D803     		.2byte	0x3d8
 6064 078d AB000000 		.4byte	0xab
 6065 0791 02       		.uleb128 0x2
 6066 0792 91       		.byte	0x91
 6067 0793 67       		.sleb128 -25
 6068 0794 15       		.uleb128 0x15
 6069 0795 6E7200   		.ascii	"nr\000"
 6070 0798 01       		.byte	0x1
 6071 0799 D903     		.2byte	0x3d9
 6072 079b AB000000 		.4byte	0xab
 6073 079f 02       		.uleb128 0x2
 6074 07a0 91       		.byte	0x91
 6075 07a1 66       		.sleb128 -26
 6076 07a2 15       		.uleb128 0x15
 6077 07a3 6D696400 		.ascii	"mid\000"
 6078 07a7 01       		.byte	0x1
 6079 07a8 DA03     		.2byte	0x3da
 6080 07aa AB000000 		.4byte	0xab
 6081 07ae 02       		.uleb128 0x2
 6082 07af 91       		.byte	0x91
 6083 07b0 65       		.sleb128 -27
 6084 07b1 00       		.byte	0
 6085 07b2 1C       		.uleb128 0x1c
 6086 07b3 77010000 		.4byte	.LASF113
 6087 07b7 01       		.byte	0x1
 6088 07b8 F403     		.2byte	0x3f4
 6089 07ba 00000000 		.4byte	.LFB99
 6090 07be 0C000000 		.4byte	.LFE99-.LFB99
 6091 07c2 01       		.uleb128 0x1
 6092 07c3 9C       		.byte	0x9c
 6093 07c4 19       		.uleb128 0x19
 6094 07c5 A7030000 		.4byte	.LASF114
 6095 07c9 01       		.byte	0x1
 6096 07ca F903     		.2byte	0x3f9
 6097 07cc 00000000 		.4byte	.LFB100
 6098 07d0 C0000000 		.4byte	.LFE100-.LFB100
 6099 07d4 01       		.uleb128 0x1
 6100 07d5 9C       		.byte	0x9c
 6101 07d6 12080000 		.4byte	0x812
 6102 07da 12       		.uleb128 0x12
 6103 07db 0E000000 		.4byte	.LBB12
 6104 07df 8E000000 		.4byte	.LBE12-.LBB12
ARM GAS  C:\Users\Logan\AppData\Local\Temp\ccyYPcsP.s 			page 129


 6105 07e3 14       		.uleb128 0x14
 6106 07e4 07030000 		.4byte	.LASF115
 6107 07e8 01       		.byte	0x1
 6108 07e9 0204     		.2byte	0x402
 6109 07eb E7000000 		.4byte	0xe7
 6110 07ef 02       		.uleb128 0x2
 6111 07f0 91       		.byte	0x91
 6112 07f1 74       		.sleb128 -12
 6113 07f2 14       		.uleb128 0x14
 6114 07f3 B1050000 		.4byte	.LASF116
 6115 07f7 01       		.byte	0x1
 6116 07f8 0304     		.2byte	0x403
 6117 07fa DB000000 		.4byte	0xdb
 6118 07fe 02       		.uleb128 0x2
 6119 07ff 91       		.byte	0x91
 6120 0800 72       		.sleb128 -14
 6121 0801 14       		.uleb128 0x14
 6122 0802 6A030000 		.4byte	.LASF117
 6123 0806 01       		.byte	0x1
 6124 0807 0804     		.2byte	0x408
 6125 0809 09040000 		.4byte	0x409
 6126 080d 02       		.uleb128 0x2
 6127 080e 91       		.byte	0x91
 6128 080f 60       		.sleb128 -32
 6129 0810 00       		.byte	0
 6130 0811 00       		.byte	0
 6131 0812 19       		.uleb128 0x19
 6132 0813 58090000 		.4byte	.LASF118
 6133 0817 01       		.byte	0x1
 6134 0818 0F04     		.2byte	0x40f
 6135 081a 00000000 		.4byte	.LFB101
 6136 081e B8000000 		.4byte	.LFE101-.LFB101
 6137 0822 01       		.uleb128 0x1
 6138 0823 9C       		.byte	0x9c
 6139 0824 42080000 		.4byte	0x842
 6140 0828 12       		.uleb128 0x12
 6141 0829 0E000000 		.4byte	.LBB13
 6142 082d 86000000 		.4byte	.LBE13-.LBB13
 6143 0831 14       		.uleb128 0x14
 6144 0832 CC060000 		.4byte	.LASF119
 6145 0836 01       		.byte	0x1
 6146 0837 1304     		.2byte	0x413
 6147 0839 09040000 		.4byte	0x409
 6148 083d 02       		.uleb128 0x2
 6149 083e 91       		.byte	0x91
 6150 083f 68       		.sleb128 -24
 6151 0840 00       		.byte	0
 6152 0841 00       		.byte	0
 6153 0842 17       		.uleb128 0x17
 6154 0843 6B070000 		.4byte	.LASF120
 6155 0847 01       		.byte	0x1
 6156 0848 2404     		.2byte	0x424
 6157 084a 00000000 		.4byte	.LFB102
 6158 084e 4A000000 		.4byte	.LFE102-.LFB102
 6159 0852 01       		.uleb128 0x1
 6160 0853 9C       		.byte	0x9c
 6161 0854 68080000 		.4byte	0x868
ARM GAS  C:\Users\Logan\AppData\Local\Temp\ccyYPcsP.s 			page 130


 6162 0858 1A       		.uleb128 0x1a
 6163 0859 5F030000 		.4byte	.LASF121
 6164 085d 01       		.byte	0x1
 6165 085e 2404     		.2byte	0x424
 6166 0860 68080000 		.4byte	0x868
 6167 0864 02       		.uleb128 0x2
 6168 0865 91       		.byte	0x91
 6169 0866 6C       		.sleb128 -20
 6170 0867 00       		.byte	0
 6171 0868 05       		.uleb128 0x5
 6172 0869 04       		.byte	0x4
 6173 086a AB000000 		.4byte	0xab
 6174 086e 17       		.uleb128 0x17
 6175 086f 44070000 		.4byte	.LASF122
 6176 0873 01       		.byte	0x1
 6177 0874 2F04     		.2byte	0x42f
 6178 0876 00000000 		.4byte	.LFB103
 6179 087a 68000000 		.4byte	.LFE103-.LFB103
 6180 087e 01       		.uleb128 0x1
 6181 087f 9C       		.byte	0x9c
 6182 0880 AB080000 		.4byte	0x8ab
 6183 0884 18       		.uleb128 0x18
 6184 0885 7300     		.ascii	"s\000"
 6185 0887 01       		.byte	0x1
 6186 0888 2F04     		.2byte	0x42f
 6187 088a 88000000 		.4byte	0x88
 6188 088e 02       		.uleb128 0x2
 6189 088f 91       		.byte	0x91
 6190 0890 6C       		.sleb128 -20
 6191 0891 12       		.uleb128 0x12
 6192 0892 10000000 		.4byte	.LBB14
 6193 0896 48000000 		.4byte	.LBE14-.LBB14
 6194 089a 15       		.uleb128 0x15
 6195 089b 636E7400 		.ascii	"cnt\000"
 6196 089f 01       		.byte	0x1
 6197 08a0 3604     		.2byte	0x436
 6198 08a2 C3000000 		.4byte	0xc3
 6199 08a6 02       		.uleb128 0x2
 6200 08a7 91       		.byte	0x91
 6201 08a8 74       		.sleb128 -12
 6202 08a9 00       		.byte	0
 6203 08aa 00       		.byte	0
 6204 08ab 17       		.uleb128 0x17
 6205 08ac C3080000 		.4byte	.LASF123
 6206 08b0 01       		.byte	0x1
 6207 08b1 4504     		.2byte	0x445
 6208 08b3 00000000 		.4byte	.LFB104
 6209 08b7 50000000 		.4byte	.LFE104-.LFB104
 6210 08bb 01       		.uleb128 0x1
 6211 08bc 9C       		.byte	0x9c
 6212 08bd E8080000 		.4byte	0x8e8
 6213 08c1 18       		.uleb128 0x18
 6214 08c2 6300     		.ascii	"c\000"
 6215 08c4 01       		.byte	0x1
 6216 08c5 4504     		.2byte	0x445
 6217 08c7 8E000000 		.4byte	0x8e
 6218 08cb 02       		.uleb128 0x2
ARM GAS  C:\Users\Logan\AppData\Local\Temp\ccyYPcsP.s 			page 131


 6219 08cc 91       		.byte	0x91
 6220 08cd 6F       		.sleb128 -17
 6221 08ce 12       		.uleb128 0x12
 6222 08cf 12000000 		.4byte	.LBB15
 6223 08d3 2E000000 		.4byte	.LBE15-.LBB15
 6224 08d7 15       		.uleb128 0x15
 6225 08d8 636E7400 		.ascii	"cnt\000"
 6226 08dc 01       		.byte	0x1
 6227 08dd 4904     		.2byte	0x449
 6228 08df C3000000 		.4byte	0xc3
 6229 08e3 02       		.uleb128 0x2
 6230 08e4 91       		.byte	0x91
 6231 08e5 74       		.sleb128 -12
 6232 08e6 00       		.byte	0
 6233 08e7 00       		.byte	0
 6234 08e8 1C       		.uleb128 0x1c
 6235 08e9 75030000 		.4byte	.LASF124
 6236 08ed 01       		.byte	0x1
 6237 08ee 5604     		.2byte	0x456
 6238 08f0 00000000 		.4byte	.LFB105
 6239 08f4 0C000000 		.4byte	.LFE105-.LFB105
 6240 08f8 01       		.uleb128 0x1
 6241 08f9 9C       		.byte	0x9c
 6242 08fa 1D       		.uleb128 0x1d
 6243 08fb BF060000 		.4byte	.LASF125
 6244 08ff 06       		.byte	0x6
 6245 0900 9606     		.2byte	0x696
 6246 0902 06090000 		.4byte	0x906
 6247 0906 1E       		.uleb128 0x1e
 6248 0907 95000000 		.4byte	0x95
 6249 090b 1F       		.uleb128 0x1f
 6250 090c 747300   		.ascii	"ts\000"
 6251 090f 05       		.byte	0x5
 6252 0910 10       		.byte	0x10
 6253 0911 AB000000 		.4byte	0xab
 6254 0915 05       		.uleb128 0x5
 6255 0916 03       		.byte	0x3
 6256 0917 00000000 		.4byte	ts
 6257 091b 20       		.uleb128 0x20
 6258 091c 45080000 		.4byte	.LASF126
 6259 0920 05       		.byte	0x5
 6260 0921 11       		.byte	0x11
 6261 0922 B7000000 		.4byte	0xb7
 6262 0926 05       		.uleb128 0x5
 6263 0927 03       		.byte	0x3
 6264 0928 00000000 		.4byte	ts_enc
 6265 092c 20       		.uleb128 0x20
 6266 092d DE060000 		.4byte	.LASF127
 6267 0931 05       		.byte	0x5
 6268 0932 12       		.byte	0x12
 6269 0933 B7000000 		.4byte	0xb7
 6270 0937 05       		.uleb128 0x5
 6271 0938 03       		.byte	0x3
 6272 0939 00000000 		.4byte	ts_update
 6273 093d 20       		.uleb128 0x20
 6274 093e 7E050000 		.4byte	.LASF128
 6275 0942 05       		.byte	0x5
ARM GAS  C:\Users\Logan\AppData\Local\Temp\ccyYPcsP.s 			page 132


 6276 0943 13       		.byte	0x13
 6277 0944 B7000000 		.4byte	0xb7
 6278 0948 05       		.uleb128 0x5
 6279 0949 03       		.byte	0x3
 6280 094a 00000000 		.4byte	ts_speed
 6281 094e 20       		.uleb128 0x20
 6282 094f 9C030000 		.4byte	.LASF129
 6283 0953 05       		.byte	0x5
 6284 0954 14       		.byte	0x14
 6285 0955 B7000000 		.4byte	0xb7
 6286 0959 05       		.uleb128 0x5
 6287 095a 03       		.byte	0x3
 6288 095b 00000000 		.4byte	ts_display
 6289 095f 20       		.uleb128 0x20
 6290 0960 1F030000 		.4byte	.LASF130
 6291 0964 05       		.byte	0x5
 6292 0965 16       		.byte	0x16
 6293 0966 AB000000 		.4byte	0xab
 6294 096a 05       		.uleb128 0x5
 6295 096b 03       		.byte	0x3
 6296 096c 00000000 		.4byte	flag_ts_enc
 6297 0970 20       		.uleb128 0x20
 6298 0971 F8020000 		.4byte	.LASF131
 6299 0975 05       		.byte	0x5
 6300 0976 17       		.byte	0x17
 6301 0977 AB000000 		.4byte	0xab
 6302 097b 05       		.uleb128 0x5
 6303 097c 03       		.byte	0x3
 6304 097d 00000000 		.4byte	flag_ts_update
 6305 0981 20       		.uleb128 0x20
 6306 0982 39060000 		.4byte	.LASF132
 6307 0986 05       		.byte	0x5
 6308 0987 18       		.byte	0x18
 6309 0988 AB000000 		.4byte	0xab
 6310 098c 05       		.uleb128 0x5
 6311 098d 03       		.byte	0x3
 6312 098e 00000000 		.4byte	flag_ts_speed
 6313 0992 20       		.uleb128 0x20
 6314 0993 56080000 		.4byte	.LASF133
 6315 0997 05       		.byte	0x5
 6316 0998 19       		.byte	0x19
 6317 0999 AB000000 		.4byte	0xab
 6318 099d 05       		.uleb128 0x5
 6319 099e 03       		.byte	0x3
 6320 099f 00000000 		.4byte	flag_ts_display
 6321 09a3 20       		.uleb128 0x20
 6322 09a4 64060000 		.4byte	.LASF134
 6323 09a8 05       		.byte	0x5
 6324 09a9 1C       		.byte	0x1c
 6325 09aa AB000000 		.4byte	0xab
 6326 09ae 05       		.uleb128 0x5
 6327 09af 03       		.byte	0x3
 6328 09b0 00000000 		.4byte	flag_rx
 6329 09b4 20       		.uleb128 0x20
 6330 09b5 A5020000 		.4byte	.LASF135
 6331 09b9 05       		.byte	0x5
 6332 09ba 1D       		.byte	0x1d
ARM GAS  C:\Users\Logan\AppData\Local\Temp\ccyYPcsP.s 			page 133


 6333 09bb AB000000 		.4byte	0xab
 6334 09bf 05       		.uleb128 0x5
 6335 09c0 03       		.byte	0x3
 6336 09c1 00000000 		.4byte	flag_packet
 6337 09c5 20       		.uleb128 0x20
 6338 09c6 7C090000 		.4byte	.LASF136
 6339 09ca 05       		.byte	0x5
 6340 09cb 1E       		.byte	0x1e
 6341 09cc AB000000 		.4byte	0xab
 6342 09d0 05       		.uleb128 0x5
 6343 09d1 03       		.byte	0x3
 6344 09d2 00000000 		.4byte	flag_KB_string
 6345 09d6 20       		.uleb128 0x20
 6346 09d7 47060000 		.4byte	.LASF137
 6347 09db 05       		.byte	0x5
 6348 09dc 20       		.byte	0x20
 6349 09dd AB000000 		.4byte	0xab
 6350 09e1 05       		.uleb128 0x5
 6351 09e2 03       		.byte	0x3
 6352 09e3 00000000 		.4byte	dataready_flag
 6353 09e7 20       		.uleb128 0x20
 6354 09e8 BE010000 		.4byte	.LASF138
 6355 09ec 05       		.byte	0x5
 6356 09ed 22       		.byte	0x22
 6357 09ee AB000000 		.4byte	0xab
 6358 09f2 05       		.uleb128 0x5
 6359 09f3 03       		.byte	0x3
 6360 09f4 00000000 		.4byte	flag_rf_transmission_active
 6361 09f8 20       		.uleb128 0x20
 6362 09f9 DA010000 		.4byte	.LASF139
 6363 09fd 05       		.byte	0x5
 6364 09fe 23       		.byte	0x23
 6365 09ff AB000000 		.4byte	0xab
 6366 0a03 05       		.uleb128 0x5
 6367 0a04 03       		.byte	0x3
 6368 0a05 00000000 		.4byte	flag_print_rf
 6369 0a09 20       		.uleb128 0x20
 6370 0a0a E1050000 		.4byte	.LASF140
 6371 0a0e 05       		.byte	0x5
 6372 0a0f 25       		.byte	0x25
 6373 0a10 AB000000 		.4byte	0xab
 6374 0a14 05       		.uleb128 0x5
 6375 0a15 03       		.byte	0x3
 6376 0a16 00000000 		.4byte	flag_receive_ADC
 6377 0a1a 20       		.uleb128 0x20
 6378 0a1b 76060000 		.4byte	.LASF141
 6379 0a1f 05       		.byte	0x5
 6380 0a20 26       		.byte	0x26
 6381 0a21 DB000000 		.4byte	0xdb
 6382 0a25 05       		.uleb128 0x5
 6383 0a26 03       		.byte	0x3
 6384 0a27 00000000 		.4byte	adc_result
 6385 0a2b 20       		.uleb128 0x20
 6386 0a2c 00000000 		.4byte	.LASF142
 6387 0a30 05       		.byte	0x5
 6388 0a31 28       		.byte	0x28
 6389 0a32 AB000000 		.4byte	0xab
ARM GAS  C:\Users\Logan\AppData\Local\Temp\ccyYPcsP.s 			page 134


 6390 0a36 05       		.uleb128 0x5
 6391 0a37 03       		.byte	0x3
 6392 0a38 00000000 		.4byte	direction
 6393 0a3c 20       		.uleb128 0x20
 6394 0a3d 67050000 		.4byte	.LASF143
 6395 0a41 05       		.byte	0x5
 6396 0a42 2B       		.byte	0x2b
 6397 0a43 AB000000 		.4byte	0xab
 6398 0a47 05       		.uleb128 0x5
 6399 0a48 03       		.byte	0x3
 6400 0a49 00000000 		.4byte	BIN_ENABLED
 6401 0a4d 20       		.uleb128 0x20
 6402 0a4e 5D040000 		.4byte	.LASF144
 6403 0a52 05       		.byte	0x5
 6404 0a53 2D       		.byte	0x2d
 6405 0a54 AB000000 		.4byte	0xab
 6406 0a58 05       		.uleb128 0x5
 6407 0a59 03       		.byte	0x3
 6408 0a5a 00000000 		.4byte	BT_ENABLED
 6409 0a5e 20       		.uleb128 0x20
 6410 0a5f 8B060000 		.4byte	.LASF145
 6411 0a63 05       		.byte	0x5
 6412 0a64 32       		.byte	0x32
 6413 0a65 AB000000 		.4byte	0xab
 6414 0a69 05       		.uleb128 0x5
 6415 0a6a 03       		.byte	0x3
 6416 0a6b 00000000 		.4byte	flag_calc_wheelspeed
 6417 0a6f 20       		.uleb128 0x20
 6418 0a70 5F010000 		.4byte	.LASF146
 6419 0a74 05       		.byte	0x5
 6420 0a75 33       		.byte	0x33
 6421 0a76 DB000000 		.4byte	0xdb
 6422 0a7a 05       		.uleb128 0x5
 6423 0a7b 03       		.byte	0x3
 6424 0a7c 00000000 		.4byte	quad_count1
 6425 0a80 20       		.uleb128 0x20
 6426 0a81 6B010000 		.4byte	.LASF147
 6427 0a85 05       		.byte	0x5
 6428 0a86 34       		.byte	0x34
 6429 0a87 DB000000 		.4byte	0xdb
 6430 0a8b 05       		.uleb128 0x5
 6431 0a8c 03       		.byte	0x3
 6432 0a8d 00000000 		.4byte	quad_count2
 6433 0a91 20       		.uleb128 0x20
 6434 0a92 95080000 		.4byte	.LASF148
 6435 0a96 05       		.byte	0x5
 6436 0a97 35       		.byte	0x35
 6437 0a98 DB000000 		.4byte	0xdb
 6438 0a9c 05       		.uleb128 0x5
 6439 0a9d 03       		.byte	0x3
 6440 0a9e 00000000 		.4byte	last_quad_count1
 6441 0aa2 20       		.uleb128 0x20
 6442 0aa3 A6080000 		.4byte	.LASF149
 6443 0aa7 05       		.byte	0x5
 6444 0aa8 36       		.byte	0x36
 6445 0aa9 DB000000 		.4byte	0xdb
 6446 0aad 05       		.uleb128 0x5
ARM GAS  C:\Users\Logan\AppData\Local\Temp\ccyYPcsP.s 			page 135


 6447 0aae 03       		.byte	0x3
 6448 0aaf 00000000 		.4byte	last_quad_count2
 6449 0ab3 20       		.uleb128 0x20
 6450 0ab4 7A000000 		.4byte	.LASF150
 6451 0ab8 05       		.byte	0x5
 6452 0ab9 37       		.byte	0x37
 6453 0aba DB000000 		.4byte	0xdb
 6454 0abe 05       		.uleb128 0x5
 6455 0abf 03       		.byte	0x3
 6456 0ac0 00000000 		.4byte	quad_diff1
 6457 0ac4 20       		.uleb128 0x20
 6458 0ac5 85000000 		.4byte	.LASF151
 6459 0ac9 05       		.byte	0x5
 6460 0aca 38       		.byte	0x38
 6461 0acb DB000000 		.4byte	0xdb
 6462 0acf 05       		.uleb128 0x5
 6463 0ad0 03       		.byte	0x3
 6464 0ad1 00000000 		.4byte	quad_diff2
 6465 0ad5 20       		.uleb128 0x20
 6466 0ad6 F1060000 		.4byte	.LASF152
 6467 0ada 05       		.byte	0x5
 6468 0adb 39       		.byte	0x39
 6469 0adc AB000000 		.4byte	0xab
 6470 0ae0 05       		.uleb128 0x5
 6471 0ae1 03       		.byte	0x3
 6472 0ae2 00000000 		.4byte	deadzone
 6473 0ae6 20       		.uleb128 0x20
 6474 0ae7 AE000000 		.4byte	.LASF153
 6475 0aeb 05       		.byte	0x5
 6476 0aec 3C       		.byte	0x3c
 6477 0aed DB000000 		.4byte	0xdb
 6478 0af1 05       		.uleb128 0x5
 6479 0af2 03       		.byte	0x3
 6480 0af3 00000000 		.4byte	start_turn_count
 6481 0af7 20       		.uleb128 0x20
 6482 0af8 1C060000 		.4byte	.LASF154
 6483 0afc 05       		.byte	0x5
 6484 0afd 3F       		.byte	0x3f
 6485 0afe DB000000 		.4byte	0xdb
 6486 0b02 05       		.uleb128 0x5
 6487 0b03 03       		.byte	0x3
 6488 0b04 00000000 		.4byte	left_duty_cycle
 6489 0b08 20       		.uleb128 0x20
 6490 0b09 2E090000 		.4byte	.LASF155
 6491 0b0d 05       		.byte	0x5
 6492 0b0e 40       		.byte	0x40
 6493 0b0f DB000000 		.4byte	0xdb
 6494 0b13 05       		.uleb128 0x5
 6495 0b14 03       		.byte	0x3
 6496 0b15 00000000 		.4byte	right_duty_cycle
 6497 0b19 20       		.uleb128 0x20
 6498 0b1a FA060000 		.4byte	.LASF156
 6499 0b1e 05       		.byte	0x5
 6500 0b1f 43       		.byte	0x43
 6501 0b20 DB000000 		.4byte	0xdb
 6502 0b24 05       		.uleb128 0x5
 6503 0b25 03       		.byte	0x3
ARM GAS  C:\Users\Logan\AppData\Local\Temp\ccyYPcsP.s 			page 136


 6504 0b26 00000000 		.4byte	leftSpeedLimit
 6505 0b2a 20       		.uleb128 0x20
 6506 0b2b CB030000 		.4byte	.LASF157
 6507 0b2f 05       		.byte	0x5
 6508 0b30 44       		.byte	0x44
 6509 0b31 DB000000 		.4byte	0xdb
 6510 0b35 05       		.uleb128 0x5
 6511 0b36 03       		.byte	0x3
 6512 0b37 00000000 		.4byte	rightSpeedLimit
 6513 0b3b 20       		.uleb128 0x20
 6514 0b3c 88070000 		.4byte	.LASF158
 6515 0b40 05       		.byte	0x5
 6516 0b41 47       		.byte	0x47
 6517 0b42 DB000000 		.4byte	0xdb
 6518 0b46 05       		.uleb128 0x5
 6519 0b47 03       		.byte	0x3
 6520 0b48 00000000 		.4byte	target_distance_cm
 6521 0b4c 20       		.uleb128 0x20
 6522 0b4d 39070000 		.4byte	.LASF159
 6523 0b51 05       		.byte	0x5
 6524 0b52 49       		.byte	0x49
 6525 0b53 DB000000 		.4byte	0xdb
 6526 0b57 05       		.uleb128 0x5
 6527 0b58 03       		.byte	0x3
 6528 0b59 00000000 		.4byte	accum_dist
 6529 0b5d 20       		.uleb128 0x20
 6530 0b5e 0A010000 		.4byte	.LASF160
 6531 0b62 05       		.byte	0x5
 6532 0b63 4A       		.byte	0x4a
 6533 0b64 DB000000 		.4byte	0xdb
 6534 0b68 05       		.uleb128 0x5
 6535 0b69 03       		.byte	0x3
 6536 0b6a 00000000 		.4byte	target_distance_quad
 6537 0b6e 20       		.uleb128 0x20
 6538 0b6f 29080000 		.4byte	.LASF161
 6539 0b73 05       		.byte	0x5
 6540 0b74 4B       		.byte	0x4b
 6541 0b75 AB000000 		.4byte	0xab
 6542 0b79 05       		.uleb128 0x5
 6543 0b7a 03       		.byte	0x3
 6544 0b7b 00000000 		.4byte	reached_target
 6545 0b7f 20       		.uleb128 0x20
 6546 0b80 24070000 		.4byte	.LASF162
 6547 0b84 05       		.byte	0x5
 6548 0b85 4C       		.byte	0x4c
 6549 0b86 AB000000 		.4byte	0xab
 6550 0b8a 05       		.uleb128 0x5
 6551 0b8b 03       		.byte	0x3
 6552 0b8c 00000000 		.4byte	overshot_target
 6553 0b90 20       		.uleb128 0x20
 6554 0b91 7C070000 		.4byte	.LASF163
 6555 0b95 05       		.byte	0x5
 6556 0b96 4D       		.byte	0x4d
 6557 0b97 E7000000 		.4byte	0xe7
 6558 0b9b 05       		.uleb128 0x5
 6559 0b9c 03       		.byte	0x3
 6560 0b9d 00000000 		.4byte	quad_per_cm
ARM GAS  C:\Users\Logan\AppData\Local\Temp\ccyYPcsP.s 			page 137


 6561 0ba1 20       		.uleb128 0x20
 6562 0ba2 6E040000 		.4byte	.LASF164
 6563 0ba6 05       		.byte	0x5
 6564 0ba7 50       		.byte	0x50
 6565 0ba8 AB000000 		.4byte	0xab
 6566 0bac 05       		.uleb128 0x5
 6567 0bad 03       		.byte	0x3
 6568 0bae 00000000 		.4byte	initial_pos_valid
 6569 0bb2 20       		.uleb128 0x20
 6570 0bb3 9D090000 		.4byte	.LASF165
 6571 0bb7 05       		.byte	0x5
 6572 0bb8 51       		.byte	0x51
 6573 0bb9 DB000000 		.4byte	0xdb
 6574 0bbd 05       		.uleb128 0x5
 6575 0bbe 03       		.byte	0x3
 6576 0bbf 00000000 		.4byte	initial_x_pos
 6577 0bc3 20       		.uleb128 0x20
 6578 0bc4 56060000 		.4byte	.LASF166
 6579 0bc8 05       		.byte	0x5
 6580 0bc9 52       		.byte	0x52
 6581 0bca DB000000 		.4byte	0xdb
 6582 0bce 05       		.uleb128 0x5
 6583 0bcf 03       		.byte	0x3
 6584 0bd0 00000000 		.4byte	initial_y_pos
 6585 0bd4 20       		.uleb128 0x20
 6586 0bd5 4C080000 		.4byte	.LASF167
 6587 0bd9 05       		.byte	0x5
 6588 0bda 55       		.byte	0x55
 6589 0bdb AB000000 		.4byte	0xab
 6590 0bdf 05       		.uleb128 0x5
 6591 0be0 03       		.byte	0x3
 6592 0be1 00000000 		.4byte	brakeFlag
 6593 0be5 20       		.uleb128 0x20
 6594 0be6 E5020000 		.4byte	.LASF168
 6595 0bea 05       		.byte	0x5
 6596 0beb 56       		.byte	0x56
 6597 0bec AB000000 		.4byte	0xab
 6598 0bf0 05       		.uleb128 0x5
 6599 0bf1 03       		.byte	0x3
 6600 0bf2 00000000 		.4byte	portOpen
 6601 0bf6 07       		.uleb128 0x7
 6602 0bf7 AB000000 		.4byte	0xab
 6603 0bfb 060C0000 		.4byte	0xc06
 6604 0bff 08       		.uleb128 0x8
 6605 0c00 81000000 		.4byte	0x81
 6606 0c04 04       		.byte	0x4
 6607 0c05 00       		.byte	0
 6608 0c06 20       		.uleb128 0x20
 6609 0c07 B1020000 		.4byte	.LASF169
 6610 0c0b 05       		.byte	0x5
 6611 0c0c 59       		.byte	0x59
 6612 0c0d F60B0000 		.4byte	0xbf6
 6613 0c11 05       		.uleb128 0x5
 6614 0c12 03       		.byte	0x3
 6615 0c13 00000000 		.4byte	frontSensors
 6616 0c17 20       		.uleb128 0x20
 6617 0c18 A2000000 		.4byte	.LASF170
ARM GAS  C:\Users\Logan\AppData\Local\Temp\ccyYPcsP.s 			page 138


 6618 0c1c 05       		.byte	0x5
 6619 0c1d 5D       		.byte	0x5d
 6620 0c1e DB000000 		.4byte	0xdb
 6621 0c22 05       		.uleb128 0x5
 6622 0c23 03       		.byte	0x3
 6623 0c24 00000000 		.4byte	prevVoltage
 6624 0c28 20       		.uleb128 0x20
 6625 0c29 28010000 		.4byte	.LASF171
 6626 0c2d 05       		.byte	0x5
 6627 0c2e 5E       		.byte	0x5e
 6628 0c2f DB000000 		.4byte	0xdb
 6629 0c33 05       		.uleb128 0x5
 6630 0c34 03       		.byte	0x3
 6631 0c35 00000000 		.4byte	prevVoltage2
 6632 0c39 07       		.uleb128 0x7
 6633 0c3a 8E000000 		.4byte	0x8e
 6634 0c3e 490C0000 		.4byte	0xc49
 6635 0c42 08       		.uleb128 0x8
 6636 0c43 81000000 		.4byte	0x81
 6637 0c47 3F       		.byte	0x3f
 6638 0c48 00       		.byte	0
 6639 0c49 20       		.uleb128 0x20
 6640 0c4a 87080000 		.4byte	.LASF172
 6641 0c4e 05       		.byte	0x5
 6642 0c4f 64       		.byte	0x64
 6643 0c50 390C0000 		.4byte	0xc39
 6644 0c54 05       		.uleb128 0x5
 6645 0c55 03       		.byte	0x3
 6646 0c56 00000000 		.4byte	displaystring
 6647 0c5a 20       		.uleb128 0x20
 6648 0c5b 24080000 		.4byte	.LASF173
 6649 0c5f 05       		.byte	0x5
 6650 0c60 65       		.byte	0x65
 6651 0c61 390C0000 		.4byte	0xc39
 6652 0c65 05       		.uleb128 0x5
 6653 0c66 03       		.byte	0x3
 6654 0c67 00000000 		.4byte	line
 6655 0c6b 20       		.uleb128 0x20
 6656 0c6c 05080000 		.4byte	.LASF174
 6657 0c70 05       		.byte	0x5
 6658 0c71 65       		.byte	0x65
 6659 0c72 390C0000 		.4byte	0xc39
 6660 0c76 05       		.uleb128 0x5
 6661 0c77 03       		.byte	0x3
 6662 0c78 00000000 		.4byte	entry
 6663 0c7c 07       		.uleb128 0x7
 6664 0c7d AB000000 		.4byte	0xab
 6665 0c81 8C0C0000 		.4byte	0xc8c
 6666 0c85 08       		.uleb128 0x8
 6667 0c86 81000000 		.4byte	0x81
 6668 0c8a 3F       		.byte	0x3f
 6669 0c8b 00       		.byte	0
 6670 0c8c 20       		.uleb128 0x20
 6671 0c8d 3D020000 		.4byte	.LASF175
 6672 0c91 05       		.byte	0x5
 6673 0c92 66       		.byte	0x66
 6674 0c93 7C0C0000 		.4byte	0xc7c
ARM GAS  C:\Users\Logan\AppData\Local\Temp\ccyYPcsP.s 			page 139


 6675 0c97 05       		.uleb128 0x5
 6676 0c98 03       		.byte	0x3
 6677 0c99 00000000 		.4byte	usbBuffer
 6678 0c9d 20       		.uleb128 0x20
 6679 0c9e 8E040000 		.4byte	.LASF176
 6680 0ca2 05       		.byte	0x5
 6681 0ca3 7B       		.byte	0x7b
 6682 0ca4 86010000 		.4byte	0x186
 6683 0ca8 05       		.uleb128 0x5
 6684 0ca9 03       		.byte	0x3
 6685 0caa 00000000 		.4byte	buffer_state
 6686 0cae 20       		.uleb128 0x20
 6687 0caf E7000000 		.4byte	.LASF177
 6688 0cb3 05       		.byte	0x5
 6689 0cb4 7C       		.byte	0x7c
 6690 0cb5 86010000 		.4byte	0x186
 6691 0cb9 05       		.uleb128 0x5
 6692 0cba 03       		.byte	0x3
 6693 0cbb 00000000 		.4byte	system_state
 6694 0cbf 20       		.uleb128 0x20
 6695 0cc0 4B030000 		.4byte	.LASF178
 6696 0cc4 05       		.byte	0x5
 6697 0cc5 7E       		.byte	0x7e
 6698 0cc6 0C010000 		.4byte	0x10c
 6699 0cca 05       		.uleb128 0x5
 6700 0ccb 03       		.byte	0x3
 6701 0ccc 00000000 		.4byte	prev_movement_state
 6702 0cd0 20       		.uleb128 0x20
 6703 0cd1 E8010000 		.4byte	.LASF179
 6704 0cd5 05       		.byte	0x5
 6705 0cd6 7F       		.byte	0x7f
 6706 0cd7 0C010000 		.4byte	0x10c
 6707 0cdb 05       		.uleb128 0x5
 6708 0cdc 03       		.byte	0x3
 6709 0cdd 00000000 		.4byte	movement_state
 6710 0ce1 20       		.uleb128 0x20
 6711 0ce2 CC000000 		.4byte	.LASF180
 6712 0ce6 05       		.byte	0x5
 6713 0ce7 80       		.byte	0x80
 6714 0ce8 49010000 		.4byte	0x149
 6715 0cec 05       		.uleb128 0x5
 6716 0ced 03       		.byte	0x3
 6717 0cee 00000000 		.4byte	track_mode
 6718 0cf2 20       		.uleb128 0x20
 6719 0cf3 2B030000 		.4byte	.LASF181
 6720 0cf7 05       		.byte	0x5
 6721 0cf8 82       		.byte	0x82
 6722 0cf9 AB000000 		.4byte	0xab
 6723 0cfd 05       		.uleb128 0x5
 6724 0cfe 03       		.byte	0x3
 6725 0cff 00000000 		.4byte	byteCount
 6726 0d03 07       		.uleb128 0x7
 6727 0d04 8E000000 		.4byte	0x8e
 6728 0d08 130D0000 		.4byte	0xd13
 6729 0d0c 08       		.uleb128 0x8
 6730 0d0d 81000000 		.4byte	0x81
 6731 0d11 01       		.byte	0x1
ARM GAS  C:\Users\Logan\AppData\Local\Temp\ccyYPcsP.s 			page 140


 6732 0d12 00       		.byte	0
 6733 0d13 20       		.uleb128 0x20
 6734 0d14 CA070000 		.4byte	.LASF182
 6735 0d18 05       		.byte	0x5
 6736 0d19 83       		.byte	0x83
 6737 0d1a 030D0000 		.4byte	0xd03
 6738 0d1e 05       		.uleb128 0x5
 6739 0d1f 03       		.byte	0x3
 6740 0d20 00000000 		.4byte	packet
 6741 0d24 20       		.uleb128 0x20
 6742 0d25 AB010000 		.4byte	.LASF183
 6743 0d29 05       		.byte	0x5
 6744 0d2a 87       		.byte	0x87
 6745 0d2b EE000000 		.4byte	0xee
 6746 0d2f 05       		.uleb128 0x5
 6747 0d30 03       		.byte	0x3
 6748 0d31 00000000 		.4byte	speed
 6749 0d35 20       		.uleb128 0x20
 6750 0d36 E6030000 		.4byte	.LASF184
 6751 0d3a 01       		.byte	0x1
 6752 0d3b 24       		.byte	0x24
 6753 0d3c B7000000 		.4byte	0xb7
 6754 0d40 05       		.uleb128 0x5
 6755 0d41 03       		.byte	0x3
 6756 0d42 00000000 		.4byte	instructionCount
 6757 0d46 20       		.uleb128 0x20
 6758 0d47 35010000 		.4byte	.LASF185
 6759 0d4b 01       		.byte	0x1
 6760 0d4c 26       		.byte	0x26
 6761 0d4d A0000000 		.4byte	0xa0
 6762 0d51 05       		.uleb128 0x5
 6763 0d52 03       		.byte	0x3
 6764 0d53 00000000 		.4byte	sensorsDisabled
 6765 0d57 07       		.uleb128 0x7
 6766 0d58 A0000000 		.4byte	0xa0
 6767 0d5c 6D0D0000 		.4byte	0xd6d
 6768 0d60 08       		.uleb128 0x8
 6769 0d61 81000000 		.4byte	0x81
 6770 0d65 0E       		.byte	0xe
 6771 0d66 08       		.uleb128 0x8
 6772 0d67 81000000 		.4byte	0x81
 6773 0d6b 12       		.byte	0x12
 6774 0d6c 00       		.byte	0
 6775 0d6d 1F       		.uleb128 0x1f
 6776 0d6e 6D617000 		.ascii	"map\000"
 6777 0d72 01       		.byte	0x1
 6778 0d73 2E       		.byte	0x2e
 6779 0d74 570D0000 		.4byte	0xd57
 6780 0d78 05       		.uleb128 0x5
 6781 0d79 03       		.byte	0x3
 6782 0d7a 00000000 		.4byte	map
 6783 0d7e 07       		.uleb128 0x7
 6784 0d7f A0000000 		.4byte	0xa0
 6785 0d83 940D0000 		.4byte	0xd94
 6786 0d87 08       		.uleb128 0x8
 6787 0d88 81000000 		.4byte	0x81
 6788 0d8c 05       		.byte	0x5
ARM GAS  C:\Users\Logan\AppData\Local\Temp\ccyYPcsP.s 			page 141


 6789 0d8d 08       		.uleb128 0x8
 6790 0d8e 81000000 		.4byte	0x81
 6791 0d92 01       		.byte	0x1
 6792 0d93 00       		.byte	0
 6793 0d94 20       		.uleb128 0x20
 6794 0d95 5D050000 		.4byte	.LASF186
 6795 0d99 01       		.byte	0x1
 6796 0d9a 43       		.byte	0x43
 6797 0d9b 7E0D0000 		.4byte	0xd7e
 6798 0d9f 05       		.uleb128 0x5
 6799 0da0 03       		.byte	0x3
 6800 0da1 00000000 		.4byte	food_list
 6801 0da5 07       		.uleb128 0x7
 6802 0da6 A0000000 		.4byte	0xa0
 6803 0daa BC0D0000 		.4byte	0xdbc
 6804 0dae 21       		.uleb128 0x21
 6805 0daf 81000000 		.4byte	0x81
 6806 0db3 1F03     		.2byte	0x31f
 6807 0db5 08       		.uleb128 0x8
 6808 0db6 81000000 		.4byte	0x81
 6809 0dba 02       		.byte	0x2
 6810 0dbb 00       		.byte	0
 6811 0dbc 20       		.uleb128 0x20
 6812 0dbd 36040000 		.4byte	.LASF187
 6813 0dc1 01       		.byte	0x1
 6814 0dc2 2A       		.byte	0x2a
 6815 0dc3 A50D0000 		.4byte	0xda5
 6816 0dc7 05       		.uleb128 0x5
 6817 0dc8 03       		.byte	0x3
 6818 0dc9 00000000 		.4byte	path
 6819 0dcd 20       		.uleb128 0x20
 6820 0dce BF050000 		.4byte	.LASF188
 6821 0dd2 01       		.byte	0x1
 6822 0dd3 2B       		.byte	0x2b
 6823 0dd4 F5000000 		.4byte	0xf5
 6824 0dd8 05       		.uleb128 0x5
 6825 0dd9 03       		.byte	0x3
 6826 0dda 00000000 		.4byte	start
 6827 0dde 20       		.uleb128 0x20
 6828 0ddf B7080000 		.4byte	.LASF189
 6829 0de3 01       		.byte	0x1
 6830 0de4 2C       		.byte	0x2c
 6831 0de5 F5000000 		.4byte	0xf5
 6832 0de9 05       		.uleb128 0x5
 6833 0dea 03       		.byte	0x3
 6834 0deb 00000000 		.4byte	destination
 6835 0def 20       		.uleb128 0x20
 6836 0df0 82010000 		.4byte	.LASF190
 6837 0df4 01       		.byte	0x1
 6838 0df5 28       		.byte	0x28
 6839 0df6 A0000000 		.4byte	0xa0
 6840 0dfa 05       		.uleb128 0x5
 6841 0dfb 03       		.byte	0x3
 6842 0dfc 00000000 		.4byte	robot_direction
 6843 0e00 20       		.uleb128 0x20
 6844 0e01 0A000000 		.4byte	.LASF191
 6845 0e05 07       		.byte	0x7
ARM GAS  C:\Users\Logan\AppData\Local\Temp\ccyYPcsP.s 			page 142


 6846 0e06 22       		.byte	0x22
 6847 0e07 A0000000 		.4byte	0xa0
 6848 0e0b 05       		.uleb128 0x5
 6849 0e0c 03       		.byte	0x3
 6850 0e0d 00000000 		.4byte	tracked_direction
 6851 0e11 20       		.uleb128 0x20
 6852 0e12 F9070000 		.4byte	.LASF192
 6853 0e16 01       		.byte	0x1
 6854 0e17 45       		.byte	0x45
 6855 0e18 A0000000 		.4byte	0xa0
 6856 0e1c 05       		.uleb128 0x5
 6857 0e1d 03       		.byte	0x3
 6858 0e1e 00000000 		.4byte	food_length
 6859 0e22 07       		.uleb128 0x7
 6860 0e23 8E000000 		.4byte	0x8e
 6861 0e27 330E0000 		.4byte	0xe33
 6862 0e2b 21       		.uleb128 0x21
 6863 0e2c 81000000 		.4byte	0x81
 6864 0e30 1F03     		.2byte	0x31f
 6865 0e32 00       		.byte	0
 6866 0e33 20       		.uleb128 0x20
 6867 0e34 8E050000 		.4byte	.LASF193
 6868 0e38 01       		.byte	0x1
 6869 0e39 23       		.byte	0x23
 6870 0e3a 220E0000 		.4byte	0xe22
 6871 0e3e 05       		.uleb128 0x5
 6872 0e3f 03       		.byte	0x3
 6873 0e40 00000000 		.4byte	instructions
 6874 0e44 20       		.uleb128 0x20
 6875 0e45 D1070000 		.4byte	.LASF194
 6876 0e49 01       		.byte	0x1
 6877 0e4a 25       		.byte	0x25
 6878 0e4b B7000000 		.4byte	0xb7
 6879 0e4f 05       		.uleb128 0x5
 6880 0e50 03       		.byte	0x3
 6881 0e51 00000000 		.4byte	instructionLength
 6882 0e55 22       		.uleb128 0x22
 6883 0e56 9D010000 		.4byte	.LASF195
 6884 0e5a 01       		.byte	0x1
 6885 0e5b D203     		.2byte	0x3d2
 6886 0e5d B7000000 		.4byte	0xb7
 6887 0e61 05       		.uleb128 0x5
 6888 0e62 03       		.byte	0x3
 6889 0e63 00000000 		.4byte	leftTurnCount
 6890 0e67 22       		.uleb128 0x22
 6891 0e68 61000000 		.4byte	.LASF196
 6892 0e6c 01       		.byte	0x1
 6893 0e6d D303     		.2byte	0x3d3
 6894 0e6f B7000000 		.4byte	0xb7
 6895 0e73 05       		.uleb128 0x5
 6896 0e74 03       		.byte	0x3
 6897 0e75 00000000 		.4byte	rightTurnCount
 6898 0e79 00       		.byte	0
 6899              		.section	.debug_abbrev,"",%progbits
 6900              	.Ldebug_abbrev0:
 6901 0000 01       		.uleb128 0x1
 6902 0001 11       		.uleb128 0x11
ARM GAS  C:\Users\Logan\AppData\Local\Temp\ccyYPcsP.s 			page 143


 6903 0002 01       		.byte	0x1
 6904 0003 25       		.uleb128 0x25
 6905 0004 0E       		.uleb128 0xe
 6906 0005 13       		.uleb128 0x13
 6907 0006 0B       		.uleb128 0xb
 6908 0007 03       		.uleb128 0x3
 6909 0008 0E       		.uleb128 0xe
 6910 0009 1B       		.uleb128 0x1b
 6911 000a 0E       		.uleb128 0xe
 6912 000b 55       		.uleb128 0x55
 6913 000c 17       		.uleb128 0x17
 6914 000d 11       		.uleb128 0x11
 6915 000e 01       		.uleb128 0x1
 6916 000f 10       		.uleb128 0x10
 6917 0010 17       		.uleb128 0x17
 6918 0011 00       		.byte	0
 6919 0012 00       		.byte	0
 6920 0013 02       		.uleb128 0x2
 6921 0014 24       		.uleb128 0x24
 6922 0015 00       		.byte	0
 6923 0016 0B       		.uleb128 0xb
 6924 0017 0B       		.uleb128 0xb
 6925 0018 3E       		.uleb128 0x3e
 6926 0019 0B       		.uleb128 0xb
 6927 001a 03       		.uleb128 0x3
 6928 001b 0E       		.uleb128 0xe
 6929 001c 00       		.byte	0
 6930 001d 00       		.byte	0
 6931 001e 03       		.uleb128 0x3
 6932 001f 16       		.uleb128 0x16
 6933 0020 00       		.byte	0
 6934 0021 03       		.uleb128 0x3
 6935 0022 0E       		.uleb128 0xe
 6936 0023 3A       		.uleb128 0x3a
 6937 0024 0B       		.uleb128 0xb
 6938 0025 3B       		.uleb128 0x3b
 6939 0026 0B       		.uleb128 0xb
 6940 0027 49       		.uleb128 0x49
 6941 0028 13       		.uleb128 0x13
 6942 0029 00       		.byte	0
 6943 002a 00       		.byte	0
 6944 002b 04       		.uleb128 0x4
 6945 002c 24       		.uleb128 0x24
 6946 002d 00       		.byte	0
 6947 002e 0B       		.uleb128 0xb
 6948 002f 0B       		.uleb128 0xb
 6949 0030 3E       		.uleb128 0x3e
 6950 0031 0B       		.uleb128 0xb
 6951 0032 03       		.uleb128 0x3
 6952 0033 08       		.uleb128 0x8
 6953 0034 00       		.byte	0
 6954 0035 00       		.byte	0
 6955 0036 05       		.uleb128 0x5
 6956 0037 0F       		.uleb128 0xf
 6957 0038 00       		.byte	0
 6958 0039 0B       		.uleb128 0xb
 6959 003a 0B       		.uleb128 0xb
ARM GAS  C:\Users\Logan\AppData\Local\Temp\ccyYPcsP.s 			page 144


 6960 003b 49       		.uleb128 0x49
 6961 003c 13       		.uleb128 0x13
 6962 003d 00       		.byte	0
 6963 003e 00       		.byte	0
 6964 003f 06       		.uleb128 0x6
 6965 0040 16       		.uleb128 0x16
 6966 0041 00       		.byte	0
 6967 0042 03       		.uleb128 0x3
 6968 0043 0E       		.uleb128 0xe
 6969 0044 3A       		.uleb128 0x3a
 6970 0045 0B       		.uleb128 0xb
 6971 0046 3B       		.uleb128 0x3b
 6972 0047 05       		.uleb128 0x5
 6973 0048 49       		.uleb128 0x49
 6974 0049 13       		.uleb128 0x13
 6975 004a 00       		.byte	0
 6976 004b 00       		.byte	0
 6977 004c 07       		.uleb128 0x7
 6978 004d 01       		.uleb128 0x1
 6979 004e 01       		.byte	0x1
 6980 004f 49       		.uleb128 0x49
 6981 0050 13       		.uleb128 0x13
 6982 0051 01       		.uleb128 0x1
 6983 0052 13       		.uleb128 0x13
 6984 0053 00       		.byte	0
 6985 0054 00       		.byte	0
 6986 0055 08       		.uleb128 0x8
 6987 0056 21       		.uleb128 0x21
 6988 0057 00       		.byte	0
 6989 0058 49       		.uleb128 0x49
 6990 0059 13       		.uleb128 0x13
 6991 005a 2F       		.uleb128 0x2f
 6992 005b 0B       		.uleb128 0xb
 6993 005c 00       		.byte	0
 6994 005d 00       		.byte	0
 6995 005e 09       		.uleb128 0x9
 6996 005f 04       		.uleb128 0x4
 6997 0060 01       		.byte	0x1
 6998 0061 03       		.uleb128 0x3
 6999 0062 0E       		.uleb128 0xe
 7000 0063 0B       		.uleb128 0xb
 7001 0064 0B       		.uleb128 0xb
 7002 0065 3A       		.uleb128 0x3a
 7003 0066 0B       		.uleb128 0xb
 7004 0067 3B       		.uleb128 0x3b
 7005 0068 0B       		.uleb128 0xb
 7006 0069 01       		.uleb128 0x1
 7007 006a 13       		.uleb128 0x13
 7008 006b 00       		.byte	0
 7009 006c 00       		.byte	0
 7010 006d 0A       		.uleb128 0xa
 7011 006e 28       		.uleb128 0x28
 7012 006f 00       		.byte	0
 7013 0070 03       		.uleb128 0x3
 7014 0071 0E       		.uleb128 0xe
 7015 0072 1C       		.uleb128 0x1c
 7016 0073 0D       		.uleb128 0xd
ARM GAS  C:\Users\Logan\AppData\Local\Temp\ccyYPcsP.s 			page 145


 7017 0074 00       		.byte	0
 7018 0075 00       		.byte	0
 7019 0076 0B       		.uleb128 0xb
 7020 0077 13       		.uleb128 0x13
 7021 0078 01       		.byte	0x1
 7022 0079 03       		.uleb128 0x3
 7023 007a 0E       		.uleb128 0xe
 7024 007b 0B       		.uleb128 0xb
 7025 007c 0B       		.uleb128 0xb
 7026 007d 3A       		.uleb128 0x3a
 7027 007e 0B       		.uleb128 0xb
 7028 007f 3B       		.uleb128 0x3b
 7029 0080 0B       		.uleb128 0xb
 7030 0081 01       		.uleb128 0x1
 7031 0082 13       		.uleb128 0x13
 7032 0083 00       		.byte	0
 7033 0084 00       		.byte	0
 7034 0085 0C       		.uleb128 0xc
 7035 0086 0D       		.uleb128 0xd
 7036 0087 00       		.byte	0
 7037 0088 03       		.uleb128 0x3
 7038 0089 0E       		.uleb128 0xe
 7039 008a 3A       		.uleb128 0x3a
 7040 008b 0B       		.uleb128 0xb
 7041 008c 3B       		.uleb128 0x3b
 7042 008d 0B       		.uleb128 0xb
 7043 008e 49       		.uleb128 0x49
 7044 008f 13       		.uleb128 0x13
 7045 0090 38       		.uleb128 0x38
 7046 0091 0B       		.uleb128 0xb
 7047 0092 00       		.byte	0
 7048 0093 00       		.byte	0
 7049 0094 0D       		.uleb128 0xd
 7050 0095 2E       		.uleb128 0x2e
 7051 0096 00       		.byte	0
 7052 0097 3F       		.uleb128 0x3f
 7053 0098 19       		.uleb128 0x19
 7054 0099 03       		.uleb128 0x3
 7055 009a 0E       		.uleb128 0xe
 7056 009b 3A       		.uleb128 0x3a
 7057 009c 0B       		.uleb128 0xb
 7058 009d 3B       		.uleb128 0x3b
 7059 009e 0B       		.uleb128 0xb
 7060 009f 27       		.uleb128 0x27
 7061 00a0 19       		.uleb128 0x19
 7062 00a1 11       		.uleb128 0x11
 7063 00a2 01       		.uleb128 0x1
 7064 00a3 12       		.uleb128 0x12
 7065 00a4 06       		.uleb128 0x6
 7066 00a5 40       		.uleb128 0x40
 7067 00a6 18       		.uleb128 0x18
 7068 00a7 9742     		.uleb128 0x2117
 7069 00a9 19       		.uleb128 0x19
 7070 00aa 00       		.byte	0
 7071 00ab 00       		.byte	0
 7072 00ac 0E       		.uleb128 0xe
 7073 00ad 2E       		.uleb128 0x2e
ARM GAS  C:\Users\Logan\AppData\Local\Temp\ccyYPcsP.s 			page 146


 7074 00ae 00       		.byte	0
 7075 00af 3F       		.uleb128 0x3f
 7076 00b0 19       		.uleb128 0x19
 7077 00b1 03       		.uleb128 0x3
 7078 00b2 0E       		.uleb128 0xe
 7079 00b3 3A       		.uleb128 0x3a
 7080 00b4 0B       		.uleb128 0xb
 7081 00b5 3B       		.uleb128 0x3b
 7082 00b6 0B       		.uleb128 0xb
 7083 00b7 27       		.uleb128 0x27
 7084 00b8 19       		.uleb128 0x19
 7085 00b9 11       		.uleb128 0x11
 7086 00ba 01       		.uleb128 0x1
 7087 00bb 12       		.uleb128 0x12
 7088 00bc 06       		.uleb128 0x6
 7089 00bd 40       		.uleb128 0x40
 7090 00be 18       		.uleb128 0x18
 7091 00bf 9642     		.uleb128 0x2116
 7092 00c1 19       		.uleb128 0x19
 7093 00c2 00       		.byte	0
 7094 00c3 00       		.byte	0
 7095 00c4 0F       		.uleb128 0xf
 7096 00c5 2E       		.uleb128 0x2e
 7097 00c6 01       		.byte	0x1
 7098 00c7 3F       		.uleb128 0x3f
 7099 00c8 19       		.uleb128 0x19
 7100 00c9 03       		.uleb128 0x3
 7101 00ca 0E       		.uleb128 0xe
 7102 00cb 3A       		.uleb128 0x3a
 7103 00cc 0B       		.uleb128 0xb
 7104 00cd 3B       		.uleb128 0x3b
 7105 00ce 0B       		.uleb128 0xb
 7106 00cf 27       		.uleb128 0x27
 7107 00d0 19       		.uleb128 0x19
 7108 00d1 11       		.uleb128 0x11
 7109 00d2 01       		.uleb128 0x1
 7110 00d3 12       		.uleb128 0x12
 7111 00d4 06       		.uleb128 0x6
 7112 00d5 40       		.uleb128 0x40
 7113 00d6 18       		.uleb128 0x18
 7114 00d7 9642     		.uleb128 0x2116
 7115 00d9 19       		.uleb128 0x19
 7116 00da 01       		.uleb128 0x1
 7117 00db 13       		.uleb128 0x13
 7118 00dc 00       		.byte	0
 7119 00dd 00       		.byte	0
 7120 00de 10       		.uleb128 0x10
 7121 00df 0B       		.uleb128 0xb
 7122 00e0 01       		.byte	0x1
 7123 00e1 11       		.uleb128 0x11
 7124 00e2 01       		.uleb128 0x1
 7125 00e3 12       		.uleb128 0x12
 7126 00e4 06       		.uleb128 0x6
 7127 00e5 01       		.uleb128 0x1
 7128 00e6 13       		.uleb128 0x13
 7129 00e7 00       		.byte	0
 7130 00e8 00       		.byte	0
ARM GAS  C:\Users\Logan\AppData\Local\Temp\ccyYPcsP.s 			page 147


 7131 00e9 11       		.uleb128 0x11
 7132 00ea 34       		.uleb128 0x34
 7133 00eb 00       		.byte	0
 7134 00ec 03       		.uleb128 0x3
 7135 00ed 0E       		.uleb128 0xe
 7136 00ee 3A       		.uleb128 0x3a
 7137 00ef 0B       		.uleb128 0xb
 7138 00f0 3B       		.uleb128 0x3b
 7139 00f1 0B       		.uleb128 0xb
 7140 00f2 49       		.uleb128 0x49
 7141 00f3 13       		.uleb128 0x13
 7142 00f4 02       		.uleb128 0x2
 7143 00f5 18       		.uleb128 0x18
 7144 00f6 00       		.byte	0
 7145 00f7 00       		.byte	0
 7146 00f8 12       		.uleb128 0x12
 7147 00f9 0B       		.uleb128 0xb
 7148 00fa 01       		.byte	0x1
 7149 00fb 11       		.uleb128 0x11
 7150 00fc 01       		.uleb128 0x1
 7151 00fd 12       		.uleb128 0x12
 7152 00fe 06       		.uleb128 0x6
 7153 00ff 00       		.byte	0
 7154 0100 00       		.byte	0
 7155 0101 13       		.uleb128 0x13
 7156 0102 2E       		.uleb128 0x2e
 7157 0103 01       		.byte	0x1
 7158 0104 3F       		.uleb128 0x3f
 7159 0105 19       		.uleb128 0x19
 7160 0106 03       		.uleb128 0x3
 7161 0107 0E       		.uleb128 0xe
 7162 0108 3A       		.uleb128 0x3a
 7163 0109 0B       		.uleb128 0xb
 7164 010a 3B       		.uleb128 0x3b
 7165 010b 0B       		.uleb128 0xb
 7166 010c 49       		.uleb128 0x49
 7167 010d 13       		.uleb128 0x13
 7168 010e 11       		.uleb128 0x11
 7169 010f 01       		.uleb128 0x1
 7170 0110 12       		.uleb128 0x12
 7171 0111 06       		.uleb128 0x6
 7172 0112 40       		.uleb128 0x40
 7173 0113 18       		.uleb128 0x18
 7174 0114 9642     		.uleb128 0x2116
 7175 0116 19       		.uleb128 0x19
 7176 0117 01       		.uleb128 0x1
 7177 0118 13       		.uleb128 0x13
 7178 0119 00       		.byte	0
 7179 011a 00       		.byte	0
 7180 011b 14       		.uleb128 0x14
 7181 011c 34       		.uleb128 0x34
 7182 011d 00       		.byte	0
 7183 011e 03       		.uleb128 0x3
 7184 011f 0E       		.uleb128 0xe
 7185 0120 3A       		.uleb128 0x3a
 7186 0121 0B       		.uleb128 0xb
 7187 0122 3B       		.uleb128 0x3b
ARM GAS  C:\Users\Logan\AppData\Local\Temp\ccyYPcsP.s 			page 148


 7188 0123 05       		.uleb128 0x5
 7189 0124 49       		.uleb128 0x49
 7190 0125 13       		.uleb128 0x13
 7191 0126 02       		.uleb128 0x2
 7192 0127 18       		.uleb128 0x18
 7193 0128 00       		.byte	0
 7194 0129 00       		.byte	0
 7195 012a 15       		.uleb128 0x15
 7196 012b 34       		.uleb128 0x34
 7197 012c 00       		.byte	0
 7198 012d 03       		.uleb128 0x3
 7199 012e 08       		.uleb128 0x8
 7200 012f 3A       		.uleb128 0x3a
 7201 0130 0B       		.uleb128 0xb
 7202 0131 3B       		.uleb128 0x3b
 7203 0132 05       		.uleb128 0x5
 7204 0133 49       		.uleb128 0x49
 7205 0134 13       		.uleb128 0x13
 7206 0135 02       		.uleb128 0x2
 7207 0136 18       		.uleb128 0x18
 7208 0137 00       		.byte	0
 7209 0138 00       		.byte	0
 7210 0139 16       		.uleb128 0x16
 7211 013a 2E       		.uleb128 0x2e
 7212 013b 01       		.byte	0x1
 7213 013c 3F       		.uleb128 0x3f
 7214 013d 19       		.uleb128 0x19
 7215 013e 03       		.uleb128 0x3
 7216 013f 0E       		.uleb128 0xe
 7217 0140 3A       		.uleb128 0x3a
 7218 0141 0B       		.uleb128 0xb
 7219 0142 3B       		.uleb128 0x3b
 7220 0143 05       		.uleb128 0x5
 7221 0144 11       		.uleb128 0x11
 7222 0145 01       		.uleb128 0x1
 7223 0146 12       		.uleb128 0x12
 7224 0147 06       		.uleb128 0x6
 7225 0148 40       		.uleb128 0x40
 7226 0149 18       		.uleb128 0x18
 7227 014a 9742     		.uleb128 0x2117
 7228 014c 19       		.uleb128 0x19
 7229 014d 01       		.uleb128 0x1
 7230 014e 13       		.uleb128 0x13
 7231 014f 00       		.byte	0
 7232 0150 00       		.byte	0
 7233 0151 17       		.uleb128 0x17
 7234 0152 2E       		.uleb128 0x2e
 7235 0153 01       		.byte	0x1
 7236 0154 3F       		.uleb128 0x3f
 7237 0155 19       		.uleb128 0x19
 7238 0156 03       		.uleb128 0x3
 7239 0157 0E       		.uleb128 0xe
 7240 0158 3A       		.uleb128 0x3a
 7241 0159 0B       		.uleb128 0xb
 7242 015a 3B       		.uleb128 0x3b
 7243 015b 05       		.uleb128 0x5
 7244 015c 27       		.uleb128 0x27
ARM GAS  C:\Users\Logan\AppData\Local\Temp\ccyYPcsP.s 			page 149


 7245 015d 19       		.uleb128 0x19
 7246 015e 11       		.uleb128 0x11
 7247 015f 01       		.uleb128 0x1
 7248 0160 12       		.uleb128 0x12
 7249 0161 06       		.uleb128 0x6
 7250 0162 40       		.uleb128 0x40
 7251 0163 18       		.uleb128 0x18
 7252 0164 9642     		.uleb128 0x2116
 7253 0166 19       		.uleb128 0x19
 7254 0167 01       		.uleb128 0x1
 7255 0168 13       		.uleb128 0x13
 7256 0169 00       		.byte	0
 7257 016a 00       		.byte	0
 7258 016b 18       		.uleb128 0x18
 7259 016c 05       		.uleb128 0x5
 7260 016d 00       		.byte	0
 7261 016e 03       		.uleb128 0x3
 7262 016f 08       		.uleb128 0x8
 7263 0170 3A       		.uleb128 0x3a
 7264 0171 0B       		.uleb128 0xb
 7265 0172 3B       		.uleb128 0x3b
 7266 0173 05       		.uleb128 0x5
 7267 0174 49       		.uleb128 0x49
 7268 0175 13       		.uleb128 0x13
 7269 0176 02       		.uleb128 0x2
 7270 0177 18       		.uleb128 0x18
 7271 0178 00       		.byte	0
 7272 0179 00       		.byte	0
 7273 017a 19       		.uleb128 0x19
 7274 017b 2E       		.uleb128 0x2e
 7275 017c 01       		.byte	0x1
 7276 017d 3F       		.uleb128 0x3f
 7277 017e 19       		.uleb128 0x19
 7278 017f 03       		.uleb128 0x3
 7279 0180 0E       		.uleb128 0xe
 7280 0181 3A       		.uleb128 0x3a
 7281 0182 0B       		.uleb128 0xb
 7282 0183 3B       		.uleb128 0x3b
 7283 0184 05       		.uleb128 0x5
 7284 0185 11       		.uleb128 0x11
 7285 0186 01       		.uleb128 0x1
 7286 0187 12       		.uleb128 0x12
 7287 0188 06       		.uleb128 0x6
 7288 0189 40       		.uleb128 0x40
 7289 018a 18       		.uleb128 0x18
 7290 018b 9642     		.uleb128 0x2116
 7291 018d 19       		.uleb128 0x19
 7292 018e 01       		.uleb128 0x1
 7293 018f 13       		.uleb128 0x13
 7294 0190 00       		.byte	0
 7295 0191 00       		.byte	0
 7296 0192 1A       		.uleb128 0x1a
 7297 0193 05       		.uleb128 0x5
 7298 0194 00       		.byte	0
 7299 0195 03       		.uleb128 0x3
 7300 0196 0E       		.uleb128 0xe
 7301 0197 3A       		.uleb128 0x3a
ARM GAS  C:\Users\Logan\AppData\Local\Temp\ccyYPcsP.s 			page 150


 7302 0198 0B       		.uleb128 0xb
 7303 0199 3B       		.uleb128 0x3b
 7304 019a 05       		.uleb128 0x5
 7305 019b 49       		.uleb128 0x49
 7306 019c 13       		.uleb128 0x13
 7307 019d 02       		.uleb128 0x2
 7308 019e 18       		.uleb128 0x18
 7309 019f 00       		.byte	0
 7310 01a0 00       		.byte	0
 7311 01a1 1B       		.uleb128 0x1b
 7312 01a2 2E       		.uleb128 0x2e
 7313 01a3 00       		.byte	0
 7314 01a4 3F       		.uleb128 0x3f
 7315 01a5 19       		.uleb128 0x19
 7316 01a6 03       		.uleb128 0x3
 7317 01a7 0E       		.uleb128 0xe
 7318 01a8 3A       		.uleb128 0x3a
 7319 01a9 0B       		.uleb128 0xb
 7320 01aa 3B       		.uleb128 0x3b
 7321 01ab 05       		.uleb128 0x5
 7322 01ac 11       		.uleb128 0x11
 7323 01ad 01       		.uleb128 0x1
 7324 01ae 12       		.uleb128 0x12
 7325 01af 06       		.uleb128 0x6
 7326 01b0 40       		.uleb128 0x40
 7327 01b1 18       		.uleb128 0x18
 7328 01b2 9642     		.uleb128 0x2116
 7329 01b4 19       		.uleb128 0x19
 7330 01b5 00       		.byte	0
 7331 01b6 00       		.byte	0
 7332 01b7 1C       		.uleb128 0x1c
 7333 01b8 2E       		.uleb128 0x2e
 7334 01b9 00       		.byte	0
 7335 01ba 3F       		.uleb128 0x3f
 7336 01bb 19       		.uleb128 0x19
 7337 01bc 03       		.uleb128 0x3
 7338 01bd 0E       		.uleb128 0xe
 7339 01be 3A       		.uleb128 0x3a
 7340 01bf 0B       		.uleb128 0xb
 7341 01c0 3B       		.uleb128 0x3b
 7342 01c1 05       		.uleb128 0x5
 7343 01c2 11       		.uleb128 0x11
 7344 01c3 01       		.uleb128 0x1
 7345 01c4 12       		.uleb128 0x12
 7346 01c5 06       		.uleb128 0x6
 7347 01c6 40       		.uleb128 0x40
 7348 01c7 18       		.uleb128 0x18
 7349 01c8 9742     		.uleb128 0x2117
 7350 01ca 19       		.uleb128 0x19
 7351 01cb 00       		.byte	0
 7352 01cc 00       		.byte	0
 7353 01cd 1D       		.uleb128 0x1d
 7354 01ce 34       		.uleb128 0x34
 7355 01cf 00       		.byte	0
 7356 01d0 03       		.uleb128 0x3
 7357 01d1 0E       		.uleb128 0xe
 7358 01d2 3A       		.uleb128 0x3a
ARM GAS  C:\Users\Logan\AppData\Local\Temp\ccyYPcsP.s 			page 151


 7359 01d3 0B       		.uleb128 0xb
 7360 01d4 3B       		.uleb128 0x3b
 7361 01d5 05       		.uleb128 0x5
 7362 01d6 49       		.uleb128 0x49
 7363 01d7 13       		.uleb128 0x13
 7364 01d8 3F       		.uleb128 0x3f
 7365 01d9 19       		.uleb128 0x19
 7366 01da 3C       		.uleb128 0x3c
 7367 01db 19       		.uleb128 0x19
 7368 01dc 00       		.byte	0
 7369 01dd 00       		.byte	0
 7370 01de 1E       		.uleb128 0x1e
 7371 01df 35       		.uleb128 0x35
 7372 01e0 00       		.byte	0
 7373 01e1 49       		.uleb128 0x49
 7374 01e2 13       		.uleb128 0x13
 7375 01e3 00       		.byte	0
 7376 01e4 00       		.byte	0
 7377 01e5 1F       		.uleb128 0x1f
 7378 01e6 34       		.uleb128 0x34
 7379 01e7 00       		.byte	0
 7380 01e8 03       		.uleb128 0x3
 7381 01e9 08       		.uleb128 0x8
 7382 01ea 3A       		.uleb128 0x3a
 7383 01eb 0B       		.uleb128 0xb
 7384 01ec 3B       		.uleb128 0x3b
 7385 01ed 0B       		.uleb128 0xb
 7386 01ee 49       		.uleb128 0x49
 7387 01ef 13       		.uleb128 0x13
 7388 01f0 3F       		.uleb128 0x3f
 7389 01f1 19       		.uleb128 0x19
 7390 01f2 02       		.uleb128 0x2
 7391 01f3 18       		.uleb128 0x18
 7392 01f4 00       		.byte	0
 7393 01f5 00       		.byte	0
 7394 01f6 20       		.uleb128 0x20
 7395 01f7 34       		.uleb128 0x34
 7396 01f8 00       		.byte	0
 7397 01f9 03       		.uleb128 0x3
 7398 01fa 0E       		.uleb128 0xe
 7399 01fb 3A       		.uleb128 0x3a
 7400 01fc 0B       		.uleb128 0xb
 7401 01fd 3B       		.uleb128 0x3b
 7402 01fe 0B       		.uleb128 0xb
 7403 01ff 49       		.uleb128 0x49
 7404 0200 13       		.uleb128 0x13
 7405 0201 3F       		.uleb128 0x3f
 7406 0202 19       		.uleb128 0x19
 7407 0203 02       		.uleb128 0x2
 7408 0204 18       		.uleb128 0x18
 7409 0205 00       		.byte	0
 7410 0206 00       		.byte	0
 7411 0207 21       		.uleb128 0x21
 7412 0208 21       		.uleb128 0x21
 7413 0209 00       		.byte	0
 7414 020a 49       		.uleb128 0x49
 7415 020b 13       		.uleb128 0x13
ARM GAS  C:\Users\Logan\AppData\Local\Temp\ccyYPcsP.s 			page 152


 7416 020c 2F       		.uleb128 0x2f
 7417 020d 05       		.uleb128 0x5
 7418 020e 00       		.byte	0
 7419 020f 00       		.byte	0
 7420 0210 22       		.uleb128 0x22
 7421 0211 34       		.uleb128 0x34
 7422 0212 00       		.byte	0
 7423 0213 03       		.uleb128 0x3
 7424 0214 0E       		.uleb128 0xe
 7425 0215 3A       		.uleb128 0x3a
 7426 0216 0B       		.uleb128 0xb
 7427 0217 3B       		.uleb128 0x3b
 7428 0218 05       		.uleb128 0x5
 7429 0219 49       		.uleb128 0x49
 7430 021a 13       		.uleb128 0x13
 7431 021b 3F       		.uleb128 0x3f
 7432 021c 19       		.uleb128 0x19
 7433 021d 02       		.uleb128 0x2
 7434 021e 18       		.uleb128 0x18
 7435 021f 00       		.byte	0
 7436 0220 00       		.byte	0
 7437 0221 00       		.byte	0
 7438              		.section	.debug_aranges,"",%progbits
 7439 0000 6C010000 		.4byte	0x16c
 7440 0004 0200     		.2byte	0x2
 7441 0006 00000000 		.4byte	.Ldebug_info0
 7442 000a 04       		.byte	0x4
 7443 000b 00       		.byte	0
 7444 000c 0000     		.2byte	0
 7445 000e 0000     		.2byte	0
 7446 0010 00000000 		.4byte	.LFB63
 7447 0014 0C000000 		.4byte	.LFE63-.LFB63
 7448 0018 00000000 		.4byte	.LFB64
 7449 001c 2C000000 		.4byte	.LFE64-.LFB64
 7450 0020 00000000 		.4byte	.LFB65
 7451 0024 A0010000 		.4byte	.LFE65-.LFB65
 7452 0028 00000000 		.4byte	.LFB66
 7453 002c E0000000 		.4byte	.LFE66-.LFB66
 7454 0030 00000000 		.4byte	.LFB67
 7455 0034 20000000 		.4byte	.LFE67-.LFB67
 7456 0038 00000000 		.4byte	.LFB68
 7457 003c 28000000 		.4byte	.LFE68-.LFB68
 7458 0040 00000000 		.4byte	.LFB69
 7459 0044 0A000000 		.4byte	.LFE69-.LFB69
 7460 0048 00000000 		.4byte	.LFB70
 7461 004c 28000000 		.4byte	.LFE70-.LFB70
 7462 0050 00000000 		.4byte	.LFB71
 7463 0054 30070000 		.4byte	.LFE71-.LFB71
 7464 0058 00000000 		.4byte	.LFB72
 7465 005c 60010000 		.4byte	.LFE72-.LFB72
 7466 0060 00000000 		.4byte	.LFB73
 7467 0064 18000000 		.4byte	.LFE73-.LFB73
 7468 0068 00000000 		.4byte	.LFB74
 7469 006c 18000000 		.4byte	.LFE74-.LFB74
 7470 0070 00000000 		.4byte	.LFB75
 7471 0074 54000000 		.4byte	.LFE75-.LFB75
 7472 0078 00000000 		.4byte	.LFB76
ARM GAS  C:\Users\Logan\AppData\Local\Temp\ccyYPcsP.s 			page 153


 7473 007c F4000000 		.4byte	.LFE76-.LFB76
 7474 0080 00000000 		.4byte	.LFB77
 7475 0084 18000000 		.4byte	.LFE77-.LFB77
 7476 0088 00000000 		.4byte	.LFB78
 7477 008c 18000000 		.4byte	.LFE78-.LFB78
 7478 0090 00000000 		.4byte	.LFB79
 7479 0094 22000000 		.4byte	.LFE79-.LFB79
 7480 0098 00000000 		.4byte	.LFB80
 7481 009c 1C000000 		.4byte	.LFE80-.LFB80
 7482 00a0 00000000 		.4byte	.LFB81
 7483 00a4 28000000 		.4byte	.LFE81-.LFB81
 7484 00a8 00000000 		.4byte	.LFB82
 7485 00ac 2C000000 		.4byte	.LFE82-.LFB82
 7486 00b0 00000000 		.4byte	.LFB83
 7487 00b4 44000000 		.4byte	.LFE83-.LFB83
 7488 00b8 00000000 		.4byte	.LFB84
 7489 00bc 38000000 		.4byte	.LFE84-.LFB84
 7490 00c0 00000000 		.4byte	.LFB85
 7491 00c4 38000000 		.4byte	.LFE85-.LFB85
 7492 00c8 00000000 		.4byte	.LFB86
 7493 00cc 38000000 		.4byte	.LFE86-.LFB86
 7494 00d0 00000000 		.4byte	.LFB87
 7495 00d4 14000000 		.4byte	.LFE87-.LFB87
 7496 00d8 00000000 		.4byte	.LFB88
 7497 00dc 18000000 		.4byte	.LFE88-.LFB88
 7498 00e0 00000000 		.4byte	.LFB89
 7499 00e4 18000000 		.4byte	.LFE89-.LFB89
 7500 00e8 00000000 		.4byte	.LFB90
 7501 00ec 18000000 		.4byte	.LFE90-.LFB90
 7502 00f0 00000000 		.4byte	.LFB91
 7503 00f4 18000000 		.4byte	.LFE91-.LFB91
 7504 00f8 00000000 		.4byte	.LFB92
 7505 00fc B8000000 		.4byte	.LFE92-.LFB92
 7506 0100 00000000 		.4byte	.LFB93
 7507 0104 28030000 		.4byte	.LFE93-.LFB93
 7508 0108 00000000 		.4byte	.LFB94
 7509 010c 40000000 		.4byte	.LFE94-.LFB94
 7510 0110 00000000 		.4byte	.LFB95
 7511 0114 40000000 		.4byte	.LFE95-.LFB95
 7512 0118 00000000 		.4byte	.LFB96
 7513 011c 30020000 		.4byte	.LFE96-.LFB96
 7514 0120 00000000 		.4byte	.LFB97
 7515 0124 0C000000 		.4byte	.LFE97-.LFB97
 7516 0128 00000000 		.4byte	.LFB98
 7517 012c 4C010000 		.4byte	.LFE98-.LFB98
 7518 0130 00000000 		.4byte	.LFB99
 7519 0134 0C000000 		.4byte	.LFE99-.LFB99
 7520 0138 00000000 		.4byte	.LFB100
 7521 013c C0000000 		.4byte	.LFE100-.LFB100
 7522 0140 00000000 		.4byte	.LFB101
 7523 0144 B8000000 		.4byte	.LFE101-.LFB101
 7524 0148 00000000 		.4byte	.LFB102
 7525 014c 4A000000 		.4byte	.LFE102-.LFB102
 7526 0150 00000000 		.4byte	.LFB103
 7527 0154 68000000 		.4byte	.LFE103-.LFB103
 7528 0158 00000000 		.4byte	.LFB104
 7529 015c 50000000 		.4byte	.LFE104-.LFB104
ARM GAS  C:\Users\Logan\AppData\Local\Temp\ccyYPcsP.s 			page 154


 7530 0160 00000000 		.4byte	.LFB105
 7531 0164 0C000000 		.4byte	.LFE105-.LFB105
 7532 0168 00000000 		.4byte	0
 7533 016c 00000000 		.4byte	0
 7534              		.section	.debug_ranges,"",%progbits
 7535              	.Ldebug_ranges0:
 7536 0000 00000000 		.4byte	.LFB63
 7537 0004 0C000000 		.4byte	.LFE63
 7538 0008 00000000 		.4byte	.LFB64
 7539 000c 2C000000 		.4byte	.LFE64
 7540 0010 00000000 		.4byte	.LFB65
 7541 0014 A0010000 		.4byte	.LFE65
 7542 0018 00000000 		.4byte	.LFB66
 7543 001c E0000000 		.4byte	.LFE66
 7544 0020 00000000 		.4byte	.LFB67
 7545 0024 20000000 		.4byte	.LFE67
 7546 0028 00000000 		.4byte	.LFB68
 7547 002c 28000000 		.4byte	.LFE68
 7548 0030 00000000 		.4byte	.LFB69
 7549 0034 0A000000 		.4byte	.LFE69
 7550 0038 00000000 		.4byte	.LFB70
 7551 003c 28000000 		.4byte	.LFE70
 7552 0040 00000000 		.4byte	.LFB71
 7553 0044 30070000 		.4byte	.LFE71
 7554 0048 00000000 		.4byte	.LFB72
 7555 004c 60010000 		.4byte	.LFE72
 7556 0050 00000000 		.4byte	.LFB73
 7557 0054 18000000 		.4byte	.LFE73
 7558 0058 00000000 		.4byte	.LFB74
 7559 005c 18000000 		.4byte	.LFE74
 7560 0060 00000000 		.4byte	.LFB75
 7561 0064 54000000 		.4byte	.LFE75
 7562 0068 00000000 		.4byte	.LFB76
 7563 006c F4000000 		.4byte	.LFE76
 7564 0070 00000000 		.4byte	.LFB77
 7565 0074 18000000 		.4byte	.LFE77
 7566 0078 00000000 		.4byte	.LFB78
 7567 007c 18000000 		.4byte	.LFE78
 7568 0080 00000000 		.4byte	.LFB79
 7569 0084 22000000 		.4byte	.LFE79
 7570 0088 00000000 		.4byte	.LFB80
 7571 008c 1C000000 		.4byte	.LFE80
 7572 0090 00000000 		.4byte	.LFB81
 7573 0094 28000000 		.4byte	.LFE81
 7574 0098 00000000 		.4byte	.LFB82
 7575 009c 2C000000 		.4byte	.LFE82
 7576 00a0 00000000 		.4byte	.LFB83
 7577 00a4 44000000 		.4byte	.LFE83
 7578 00a8 00000000 		.4byte	.LFB84
 7579 00ac 38000000 		.4byte	.LFE84
 7580 00b0 00000000 		.4byte	.LFB85
 7581 00b4 38000000 		.4byte	.LFE85
 7582 00b8 00000000 		.4byte	.LFB86
 7583 00bc 38000000 		.4byte	.LFE86
 7584 00c0 00000000 		.4byte	.LFB87
 7585 00c4 14000000 		.4byte	.LFE87
 7586 00c8 00000000 		.4byte	.LFB88
ARM GAS  C:\Users\Logan\AppData\Local\Temp\ccyYPcsP.s 			page 155


 7587 00cc 18000000 		.4byte	.LFE88
 7588 00d0 00000000 		.4byte	.LFB89
 7589 00d4 18000000 		.4byte	.LFE89
 7590 00d8 00000000 		.4byte	.LFB90
 7591 00dc 18000000 		.4byte	.LFE90
 7592 00e0 00000000 		.4byte	.LFB91
 7593 00e4 18000000 		.4byte	.LFE91
 7594 00e8 00000000 		.4byte	.LFB92
 7595 00ec B8000000 		.4byte	.LFE92
 7596 00f0 00000000 		.4byte	.LFB93
 7597 00f4 28030000 		.4byte	.LFE93
 7598 00f8 00000000 		.4byte	.LFB94
 7599 00fc 40000000 		.4byte	.LFE94
 7600 0100 00000000 		.4byte	.LFB95
 7601 0104 40000000 		.4byte	.LFE95
 7602 0108 00000000 		.4byte	.LFB96
 7603 010c 30020000 		.4byte	.LFE96
 7604 0110 00000000 		.4byte	.LFB97
 7605 0114 0C000000 		.4byte	.LFE97
 7606 0118 00000000 		.4byte	.LFB98
 7607 011c 4C010000 		.4byte	.LFE98
 7608 0120 00000000 		.4byte	.LFB99
 7609 0124 0C000000 		.4byte	.LFE99
 7610 0128 00000000 		.4byte	.LFB100
 7611 012c C0000000 		.4byte	.LFE100
 7612 0130 00000000 		.4byte	.LFB101
 7613 0134 B8000000 		.4byte	.LFE101
 7614 0138 00000000 		.4byte	.LFB102
 7615 013c 4A000000 		.4byte	.LFE102
 7616 0140 00000000 		.4byte	.LFB103
 7617 0144 68000000 		.4byte	.LFE103
 7618 0148 00000000 		.4byte	.LFB104
 7619 014c 50000000 		.4byte	.LFE104
 7620 0150 00000000 		.4byte	.LFB105
 7621 0154 0C000000 		.4byte	.LFE105
 7622 0158 00000000 		.4byte	0
 7623 015c 00000000 		.4byte	0
 7624              		.section	.debug_line,"",%progbits
 7625              	.Ldebug_line0:
 7626 0000 A2070000 		.section	.debug_str,"MS",%progbits,1
 7626      02006701 
 7626      00000201 
 7626      FB0E0D00 
 7626      01010101 
 7627              	.LASF142:
 7628 0000 64697265 		.ascii	"direction\000"
 7628      6374696F 
 7628      6E00
 7629              	.LASF191:
 7630 000a 74726163 		.ascii	"tracked_direction\000"
 7630      6B65645F 
 7630      64697265 
 7630      6374696F 
 7630      6E00
 7631              	.LASF199:
 7632 001c 433A5C55 		.ascii	"C:\\Users\\Logan\\Desktop\\repos\\CS301-Team-Repo\\"
 7632      73657273 
ARM GAS  C:\Users\Logan\AppData\Local\Temp\ccyYPcsP.s 			page 156


 7632      5C4C6F67 
 7632      616E5C44 
 7632      65736B74 
 7633 0049 43533330 		.ascii	"CS301_Class.cydsn\000"
 7633      315F436C 
 7633      6173732E 
 7633      63796473 
 7633      6E00
 7634              	.LASF25:
 7635 005b 52545552 		.ascii	"RTURN\000"
 7635      4E00
 7636              	.LASF196:
 7637 0061 72696768 		.ascii	"rightTurnCount\000"
 7637      74547572 
 7637      6E436F75 
 7637      6E7400
 7638              	.LASF39:
 7639 0070 44455354 		.ascii	"DEST_TEST\000"
 7639      5F544553 
 7639      5400
 7640              	.LASF150:
 7641 007a 71756164 		.ascii	"quad_diff1\000"
 7641      5F646966 
 7641      663100
 7642              	.LASF151:
 7643 0085 71756164 		.ascii	"quad_diff2\000"
 7643      5F646966 
 7643      663200
 7644              	.LASF104:
 7645 0090 51756164 		.ascii	"Quad_Dec_response\000"
 7645      5F446563 
 7645      5F726573 
 7645      706F6E73 
 7645      6500
 7646              	.LASF170:
 7647 00a2 70726576 		.ascii	"prevVoltage\000"
 7647      566F6C74 
 7647      61676500 
 7648              	.LASF153:
 7649 00ae 73746172 		.ascii	"start_turn_count\000"
 7649      745F7475 
 7649      726E5F63 
 7649      6F756E74 
 7649      00
 7650              	.LASF10:
 7651 00bf 756E7369 		.ascii	"unsigned int\000"
 7651      676E6564 
 7651      20696E74 
 7651      00
 7652              	.LASF180:
 7653 00cc 74726163 		.ascii	"track_mode\000"
 7653      6B5F6D6F 
 7653      646500
 7654              	.LASF5:
 7655 00d7 5F5F696E 		.ascii	"__int32_t\000"
 7655      7433325F 
 7655      7400
ARM GAS  C:\Users\Logan\AppData\Local\Temp\ccyYPcsP.s 			page 157


 7656              	.LASF19:
 7657 00e1 696E7431 		.ascii	"int16\000"
 7657      3600
 7658              	.LASF177:
 7659 00e7 73797374 		.ascii	"system_state\000"
 7659      656D5F73 
 7659      74617465 
 7659      00
 7660              	.LASF24:
 7661 00f4 4C545552 		.ascii	"LTURN\000"
 7661      4E00
 7662              	.LASF71:
 7663 00fa 6E657874 		.ascii	"nextInstruction\000"
 7663      496E7374 
 7663      72756374 
 7663      696F6E00 
 7664              	.LASF160:
 7665 010a 74617267 		.ascii	"target_distance_quad\000"
 7665      65745F64 
 7665      69737461 
 7665      6E63655F 
 7665      71756164 
 7666              	.LASF27:
 7667 011f 54524143 		.ascii	"TRACKING\000"
 7667      4B494E47 
 7667      00
 7668              	.LASF171:
 7669 0128 70726576 		.ascii	"prevVoltage2\000"
 7669      566F6C74 
 7669      61676532 
 7669      00
 7670              	.LASF185:
 7671 0135 73656E73 		.ascii	"sensorsDisabled\000"
 7671      6F727344 
 7671      69736162 
 7671      6C656400 
 7672              	.LASF72:
 7673 0145 7061636B 		.ascii	"packet_bytes\000"
 7673      65745F62 
 7673      79746573 
 7673      00
 7674              	.LASF54:
 7675 0152 67325F78 		.ascii	"g2_xpos\000"
 7675      706F7300 
 7676              	.LASF32:
 7677 015a 6D6F6465 		.ascii	"mode\000"
 7677      00
 7678              	.LASF146:
 7679 015f 71756164 		.ascii	"quad_count1\000"
 7679      5F636F75 
 7679      6E743100 
 7680              	.LASF147:
 7681 016b 71756164 		.ascii	"quad_count2\000"
 7681      5F636F75 
 7681      6E743200 
 7682              	.LASF113:
 7683 0177 74726163 		.ascii	"trackLineU\000"
ARM GAS  C:\Users\Logan\AppData\Local\Temp\ccyYPcsP.s 			page 158


 7683      6B4C696E 
 7683      655500
 7684              	.LASF190:
 7685 0182 726F626F 		.ascii	"robot_direction\000"
 7685      745F6469 
 7685      72656374 
 7685      696F6E00 
 7686              	.LASF112:
 7687 0192 74726163 		.ascii	"trackLineZ\000"
 7687      6B4C696E 
 7687      655A00
 7688              	.LASF195:
 7689 019d 6C656674 		.ascii	"leftTurnCount\000"
 7689      5475726E 
 7689      436F756E 
 7689      7400
 7690              	.LASF183:
 7691 01ab 73706565 		.ascii	"speed\000"
 7691      6400
 7692              	.LASF36:
 7693 01b1 53515541 		.ascii	"SQUARE_TRACK\000"
 7693      52455F54 
 7693      5241434B 
 7693      00
 7694              	.LASF138:
 7695 01be 666C6167 		.ascii	"flag_rf_transmission_active\000"
 7695      5F72665F 
 7695      7472616E 
 7695      736D6973 
 7695      73696F6E 
 7696              	.LASF139:
 7697 01da 666C6167 		.ascii	"flag_print_rf\000"
 7697      5F707269 
 7697      6E745F72 
 7697      6600
 7698              	.LASF179:
 7699 01e8 6D6F7665 		.ascii	"movement_state\000"
 7699      6D656E74 
 7699      5F737461 
 7699      746500
 7700              	.LASF28:
 7701 01f7 54524143 		.ascii	"TRACKING_U\000"
 7701      4B494E47 
 7701      5F5500
 7702              	.LASF94:
 7703 0202 696E6974 		.ascii	"initForward\000"
 7703      466F7277 
 7703      61726400 
 7704              	.LASF14:
 7705 020e 75696E74 		.ascii	"uint32_t\000"
 7705      33325F74 
 7705      00
 7706              	.LASF57:
 7707 0217 67325F64 		.ascii	"g2_direction\000"
 7707      69726563 
 7707      74696F6E 
 7707      00
ARM GAS  C:\Users\Logan\AppData\Local\Temp\ccyYPcsP.s 			page 159


 7708              	.LASF60:
 7709 0224 6973725F 		.ascii	"isr_quad1\000"
 7709      71756164 
 7709      3100
 7710              	.LASF20:
 7711 022e 666C6F61 		.ascii	"float\000"
 7711      7400
 7712              	.LASF79:
 7713 0234 73657453 		.ascii	"setSpeed\000"
 7713      70656564 
 7713      00
 7714              	.LASF175:
 7715 023d 75736242 		.ascii	"usbBuffer\000"
 7715      75666665 
 7715      7200
 7716              	.LASF42:
 7717 0247 696E6465 		.ascii	"index\000"
 7717      7800
 7718              	.LASF23:
 7719 024d 44524956 		.ascii	"DRIVE\000"
 7719      4500
 7720              	.LASF74:
 7721 0253 73747269 		.ascii	"string_packet\000"
 7721      6E675F70 
 7721      61636B65 
 7721      7400
 7722              	.LASF103:
 7723 0261 6368616E 		.ascii	"changeToBT\000"
 7723      6765546F 
 7723      425400
 7724              	.LASF82:
 7725 026c 636F756E 		.ascii	"countsLeft\000"
 7725      74734C65 
 7725      667400
 7726              	.LASF87:
 7727 0277 64726976 		.ascii	"driveForwards\000"
 7727      65466F72 
 7727      77617264 
 7727      7300
 7728              	.LASF89:
 7729 0285 7475726E 		.ascii	"turnLeft\000"
 7729      4C656674 
 7729      00
 7730              	.LASF9:
 7731 028e 6C6F6E67 		.ascii	"long long unsigned int\000"
 7731      206C6F6E 
 7731      6720756E 
 7731      7369676E 
 7731      65642069 
 7732              	.LASF135:
 7733 02a5 666C6167 		.ascii	"flag_packet\000"
 7733      5F706163 
 7733      6B657400 
 7734              	.LASF169:
 7735 02b1 66726F6E 		.ascii	"frontSensors\000"
 7735      7453656E 
 7735      736F7273 
ARM GAS  C:\Users\Logan\AppData\Local\Temp\ccyYPcsP.s 			page 160


 7735      00
 7736              	.LASF66:
 7737 02be 6973725F 		.ascii	"isr_turn_timer\000"
 7737      7475726E 
 7737      5F74696D 
 7737      657200
 7738              	.LASF102:
 7739 02cd 6368616E 		.ascii	"changeToRF\000"
 7739      6765546F 
 7739      524600
 7740              	.LASF91:
 7741 02d8 696E6974 		.ascii	"initTurnLeft\000"
 7741      5475726E 
 7741      4C656674 
 7741      00
 7742              	.LASF168:
 7743 02e5 706F7274 		.ascii	"portOpen\000"
 7743      4F70656E 
 7743      00
 7744              	.LASF95:
 7745 02ee 696E6974 		.ascii	"initBrake\000"
 7745      4272616B 
 7745      6500
 7746              	.LASF131:
 7747 02f8 666C6167 		.ascii	"flag_ts_update\000"
 7747      5F74735F 
 7747      75706461 
 7747      746500
 7748              	.LASF115:
 7749 0307 7363616C 		.ascii	"scalingFactor\000"
 7749      696E6746 
 7749      6163746F 
 7749      7200
 7750              	.LASF105:
 7751 0315 6C656674 		.ascii	"leftSpeed\000"
 7751      53706565 
 7751      6400
 7752              	.LASF130:
 7753 031f 666C6167 		.ascii	"flag_ts_enc\000"
 7753      5F74735F 
 7753      656E6300 
 7754              	.LASF181:
 7755 032b 62797465 		.ascii	"byteCount\000"
 7755      436F756E 
 7755      7400
 7756              	.LASF68:
 7757 0335 61637469 		.ascii	"actionDebounce\000"
 7757      6F6E4465 
 7757      626F756E 
 7757      636500
 7758              	.LASF63:
 7759 0344 62757474 		.ascii	"button\000"
 7759      6F6E00
 7760              	.LASF178:
 7761 034b 70726576 		.ascii	"prev_movement_state\000"
 7761      5F6D6F76 
 7761      656D656E 
ARM GAS  C:\Users\Logan\AppData\Local\Temp\ccyYPcsP.s 			page 161


 7761      745F7374 
 7761      61746500 
 7762              	.LASF121:
 7763 035f 73656E73 		.ascii	"sensorVals\000"
 7763      6F725661 
 7763      6C7300
 7764              	.LASF117:
 7765 036a 72657375 		.ascii	"result_str\000"
 7765      6C745F73 
 7765      747200
 7766              	.LASF124:
 7767 0375 75617274 		.ascii	"uart_set_PWM\000"
 7767      5F736574 
 7767      5F50574D 
 7767      00
 7768              	.LASF98:
 7769 0382 696E6974 		.ascii	"inittrackLineZ\000"
 7769      74726163 
 7769      6B4C696E 
 7769      655A00
 7770              	.LASF44:
 7771 0391 726F626F 		.ascii	"robot_ypos\000"
 7771      745F7970 
 7771      6F7300
 7772              	.LASF129:
 7773 039c 74735F64 		.ascii	"ts_display\000"
 7773      6973706C 
 7773      617900
 7774              	.LASF114:
 7775 03a7 7072696E 		.ascii	"print_ADC\000"
 7775      745F4144 
 7775      4300
 7776              	.LASF107:
 7777 03b1 7363616C 		.ascii	"scalingLeft\000"
 7777      696E674C 
 7777      65667400 
 7778              	.LASF12:
 7779 03bd 63686172 		.ascii	"char\000"
 7779      00
 7780              	.LASF48:
 7781 03c2 67305F73 		.ascii	"g0_speed\000"
 7781      70656564 
 7781      00
 7782              	.LASF157:
 7783 03cb 72696768 		.ascii	"rightSpeedLimit\000"
 7783      74537065 
 7783      65644C69 
 7783      6D697400 
 7784              	.LASF75:
 7785 03db 7365744C 		.ascii	"setLeftDir\000"
 7785      65667444 
 7785      697200
 7786              	.LASF184:
 7787 03e6 696E7374 		.ascii	"instructionCount\000"
 7787      72756374 
 7787      696F6E43 
 7787      6F756E74 
ARM GAS  C:\Users\Logan\AppData\Local\Temp\ccyYPcsP.s 			page 162


 7787      00
 7788              	.LASF90:
 7789 03f7 7475726E 		.ascii	"turnU\000"
 7789      5500
 7790              	.LASF55:
 7791 03fd 67325F79 		.ascii	"g2_ypos\000"
 7791      706F7300 
 7792              	.LASF61:
 7793 0405 64697374 		.ascii	"distTurned\000"
 7793      5475726E 
 7793      656400
 7794              	.LASF16:
 7795 0410 75696E74 		.ascii	"uint16\000"
 7795      313600
 7796              	.LASF18:
 7797 0417 696E7438 		.ascii	"int8\000"
 7797      00
 7798              	.LASF70:
 7799 041c 6E657874 		.ascii	"nextStepDist\000"
 7799      53746570 
 7799      44697374 
 7799      00
 7800              	.LASF53:
 7801 0429 67315F64 		.ascii	"g1_direction\000"
 7801      69726563 
 7801      74696F6E 
 7801      00
 7802              	.LASF187:
 7803 0436 70617468 		.ascii	"path\000"
 7803      00
 7804              	.LASF76:
 7805 043b 73657452 		.ascii	"setRightDir\000"
 7805      69676874 
 7805      44697200 
 7806              	.LASF34:
 7807 0447 43555256 		.ascii	"CURVE_TRACK\000"
 7807      455F5452 
 7807      41434B00 
 7808              	.LASF109:
 7809 0453 696E7465 		.ascii	"interCalc\000"
 7809      7243616C 
 7809      6300
 7810              	.LASF144:
 7811 045d 42545F45 		.ascii	"BT_ENABLED\000"
 7811      4E41424C 
 7811      454400
 7812              	.LASF81:
 7813 0468 72696768 		.ascii	"right\000"
 7813      7400
 7814              	.LASF164:
 7815 046e 696E6974 		.ascii	"initial_pos_valid\000"
 7815      69616C5F 
 7815      706F735F 
 7815      76616C69 
 7815      6400
 7816              	.LASF8:
 7817 0480 6C6F6E67 		.ascii	"long long int\000"
ARM GAS  C:\Users\Logan\AppData\Local\Temp\ccyYPcsP.s 			page 163


 7817      206C6F6E 
 7817      6720696E 
 7817      7400
 7818              	.LASF176:
 7819 048e 62756666 		.ascii	"buffer_state\000"
 7819      65725F73 
 7819      74617465 
 7819      00
 7820              	.LASF50:
 7821 049b 67315F78 		.ascii	"g1_xpos\000"
 7821      706F7300 
 7822              	.LASF96:
 7823 04a3 696E6974 		.ascii	"initTrack\000"
 7823      54726163 
 7823      6B00
 7824              	.LASF69:
 7825 04ad 6E657874 		.ascii	"nextStep\000"
 7825      53746570 
 7825      00
 7826              	.LASF197:
 7827 04b6 474E5520 		.ascii	"GNU C 4.9.3 20150303 (release) [ARM/embedded-4_9-br"
 7827      4320342E 
 7827      392E3320 
 7827      32303135 
 7827      30333033 
 7828 04e9 616E6368 		.ascii	"anch revision 221220] -mcpu=cortex-m3 -mthumb -g -O"
 7828      20726576 
 7828      6973696F 
 7828      6E203232 
 7828      31323230 
 7829 051c 30202D66 		.ascii	"0 -ffunction-sections -ffat-lto-objects\000"
 7829      66756E63 
 7829      74696F6E 
 7829      2D736563 
 7829      74696F6E 
 7830              	.LASF56:
 7831 0544 67325F73 		.ascii	"g2_speed\000"
 7831      70656564 
 7831      00
 7832              	.LASF47:
 7833 054d 67305F79 		.ascii	"g0_ypos\000"
 7833      706F7300 
 7834              	.LASF100:
 7835 0555 72665F63 		.ascii	"rf_char\000"
 7835      68617200 
 7836              	.LASF186:
 7837 055d 666F6F64 		.ascii	"food_list\000"
 7837      5F6C6973 
 7837      7400
 7838              	.LASF143:
 7839 0567 42494E5F 		.ascii	"BIN_ENABLED\000"
 7839      454E4142 
 7839      4C454400 
 7840              	.LASF106:
 7841 0573 72696768 		.ascii	"rightSpeed\000"
 7841      74537065 
 7841      656400
ARM GAS  C:\Users\Logan\AppData\Local\Temp\ccyYPcsP.s 			page 164


 7842              	.LASF128:
 7843 057e 74735F73 		.ascii	"ts_speed\000"
 7843      70656564 
 7843      00
 7844              	.LASF17:
 7845 0587 75696E74 		.ascii	"uint32\000"
 7845      333200
 7846              	.LASF193:
 7847 058e 696E7374 		.ascii	"instructions\000"
 7847      72756374 
 7847      696F6E73 
 7847      00
 7848              	.LASF83:
 7849 059b 636F756E 		.ascii	"countsRight\000"
 7849      74735269 
 7849      67687400 
 7850              	.LASF200:
 7851 05a7 64617461 		.ascii	"data_main\000"
 7851      5F6D6169 
 7851      6E00
 7852              	.LASF116:
 7853 05b1 636F6E76 		.ascii	"converted_val\000"
 7853      65727465 
 7853      645F7661 
 7853      6C00
 7854              	.LASF188:
 7855 05bf 73746172 		.ascii	"start\000"
 7855      7400
 7856              	.LASF41:
 7857 05c5 72737369 		.ascii	"rssi\000"
 7857      00
 7858              	.LASF111:
 7859 05ca 74726163 		.ascii	"trackLine\000"
 7859      6B4C696E 
 7859      6500
 7860              	.LASF49:
 7861 05d4 67305F64 		.ascii	"g0_direction\000"
 7861      69726563 
 7861      74696F6E 
 7861      00
 7862              	.LASF140:
 7863 05e1 666C6167 		.ascii	"flag_receive_ADC\000"
 7863      5F726563 
 7863      65697665 
 7863      5F414443 
 7863      00
 7864              	.LASF26:
 7865 05f2 53544F50 		.ascii	"STOPPED\000"
 7865      50454400 
 7866              	.LASF101:
 7867 05fa 42545F72 		.ascii	"BT_rxInt\000"
 7867      78496E74 
 7867      00
 7868              	.LASF22:
 7869 0603 6C6F6E67 		.ascii	"long double\000"
 7869      20646F75 
 7869      626C6500 
ARM GAS  C:\Users\Logan\AppData\Local\Temp\ccyYPcsP.s 			page 165


 7870              	.LASF64:
 7871 060f 6973725F 		.ascii	"isr_adcTimer\000"
 7871      61646354 
 7871      696D6572 
 7871      00
 7872              	.LASF154:
 7873 061c 6C656674 		.ascii	"left_duty_cycle\000"
 7873      5F647574 
 7873      795F6379 
 7873      636C6500 
 7874              	.LASF65:
 7875 062c 6973725F 		.ascii	"isr_deadzone\000"
 7875      64656164 
 7875      7A6F6E65 
 7875      00
 7876              	.LASF132:
 7877 0639 666C6167 		.ascii	"flag_ts_speed\000"
 7877      5F74735F 
 7877      73706565 
 7877      6400
 7878              	.LASF137:
 7879 0647 64617461 		.ascii	"dataready_flag\000"
 7879      72656164 
 7879      795F666C 
 7879      616700
 7880              	.LASF166:
 7881 0656 696E6974 		.ascii	"initial_y_pos\000"
 7881      69616C5F 
 7881      795F706F 
 7881      7300
 7882              	.LASF134:
 7883 0664 666C6167 		.ascii	"flag_rx\000"
 7883      5F727800 
 7884              	.LASF2:
 7885 066c 73686F72 		.ascii	"short int\000"
 7885      7420696E 
 7885      7400
 7886              	.LASF141:
 7887 0676 6164635F 		.ascii	"adc_result\000"
 7887      72657375 
 7887      6C7400
 7888              	.LASF93:
 7889 0681 696E6974 		.ascii	"initTurnU\000"
 7889      5475726E 
 7889      5500
 7890              	.LASF145:
 7891 068b 666C6167 		.ascii	"flag_calc_wheelspeed\000"
 7891      5F63616C 
 7891      635F7768 
 7891      65656C73 
 7891      70656564 
 7892              	.LASF4:
 7893 06a0 6C6F6E67 		.ascii	"long int\000"
 7893      20696E74 
 7893      00
 7894              	.LASF92:
 7895 06a9 696E6974 		.ascii	"initTurnRight\000"
ARM GAS  C:\Users\Logan\AppData\Local\Temp\ccyYPcsP.s 			page 166


 7895      5475726E 
 7895      52696768 
 7895      7400
 7896              	.LASF35:
 7897 06b7 555F5452 		.ascii	"U_TRACK\000"
 7897      41434B00 
 7898              	.LASF125:
 7899 06bf 49544D5F 		.ascii	"ITM_RxBuffer\000"
 7899      52784275 
 7899      66666572 
 7899      00
 7900              	.LASF119:
 7901 06cc 7072696E 		.ascii	"printString\000"
 7901      74537472 
 7901      696E6700 
 7902              	.LASF99:
 7903 06d8 7278496E 		.ascii	"rxInt\000"
 7903      7400
 7904              	.LASF127:
 7905 06de 74735F75 		.ascii	"ts_update\000"
 7905      70646174 
 7905      6500
 7906              	.LASF33:
 7907 06e8 4E4F5F54 		.ascii	"NO_TRACK\000"
 7907      5241434B 
 7907      00
 7908              	.LASF152:
 7909 06f1 64656164 		.ascii	"deadzone\000"
 7909      7A6F6E65 
 7909      00
 7910              	.LASF156:
 7911 06fa 6C656674 		.ascii	"leftSpeedLimit\000"
 7911      53706565 
 7911      644C696D 
 7911      697400
 7912              	.LASF40:
 7913 0709 4D41505F 		.ascii	"MAP_TRAVERSE\000"
 7913      54524156 
 7913      45525345 
 7913      00
 7914              	.LASF29:
 7915 0716 54524143 		.ascii	"TRACKING_SOFT\000"
 7915      4B494E47 
 7915      5F534F46 
 7915      5400
 7916              	.LASF162:
 7917 0724 6F766572 		.ascii	"overshot_target\000"
 7917      73686F74 
 7917      5F746172 
 7917      67657400 
 7918              	.LASF80:
 7919 0734 6C656674 		.ascii	"left\000"
 7919      00
 7920              	.LASF159:
 7921 0739 61636375 		.ascii	"accum_dist\000"
 7921      6D5F6469 
 7921      737400
ARM GAS  C:\Users\Logan\AppData\Local\Temp\ccyYPcsP.s 			page 167


 7922              	.LASF122:
 7923 0744 75736250 		.ascii	"usbPutString\000"
 7923      75745374 
 7923      72696E67 
 7923      00
 7924              	.LASF88:
 7925 0751 7475726E 		.ascii	"turnRight\000"
 7925      52696768 
 7925      7400
 7926              	.LASF51:
 7927 075b 67315F79 		.ascii	"g1_ypos\000"
 7927      706F7300 
 7928              	.LASF59:
 7929 0763 6164635F 		.ascii	"adc_isr\000"
 7929      69737200 
 7930              	.LASF120:
 7931 076b 72656164 		.ascii	"readFrontSensors\000"
 7931      46726F6E 
 7931      7453656E 
 7931      736F7273 
 7931      00
 7932              	.LASF163:
 7933 077c 71756164 		.ascii	"quad_per_cm\000"
 7933      5F706572 
 7933      5F636D00 
 7934              	.LASF158:
 7935 0788 74617267 		.ascii	"target_distance_cm\000"
 7935      65745F64 
 7935      69737461 
 7935      6E63655F 
 7935      636D00
 7936              	.LASF11:
 7937 079b 73697A65 		.ascii	"sizetype\000"
 7937      74797065 
 7937      00
 7938              	.LASF7:
 7939 07a4 6C6F6E67 		.ascii	"long unsigned int\000"
 7939      20756E73 
 7939      69676E65 
 7939      6420696E 
 7939      7400
 7940              	.LASF73:
 7941 07b6 62797465 		.ascii	"byte_packet\000"
 7941      5F706163 
 7941      6B657400 
 7942              	.LASF13:
 7943 07c2 696E7433 		.ascii	"int32_t\000"
 7943      325F7400 
 7944              	.LASF182:
 7945 07ca 7061636B 		.ascii	"packet\000"
 7945      657400
 7946              	.LASF194:
 7947 07d1 696E7374 		.ascii	"instructionLength\000"
 7947      72756374 
 7947      696F6E4C 
 7947      656E6774 
 7947      6800
ARM GAS  C:\Users\Logan\AppData\Local\Temp\ccyYPcsP.s 			page 168


 7948              	.LASF43:
 7949 07e3 726F626F 		.ascii	"robot_xpos\000"
 7949      745F7870 
 7949      6F7300
 7950              	.LASF86:
 7951 07ee 6272616B 		.ascii	"brakeMotor\000"
 7951      654D6F74 
 7951      6F7200
 7952              	.LASF192:
 7953 07f9 666F6F64 		.ascii	"food_length\000"
 7953      5F6C656E 
 7953      67746800 
 7954              	.LASF174:
 7955 0805 656E7472 		.ascii	"entry\000"
 7955      7900
 7956              	.LASF1:
 7957 080b 756E7369 		.ascii	"unsigned char\000"
 7957      676E6564 
 7957      20636861 
 7957      7200
 7958              	.LASF6:
 7959 0819 5F5F7569 		.ascii	"__uint32_t\000"
 7959      6E743332 
 7959      5F7400
 7960              	.LASF173:
 7961 0824 6C696E65 		.ascii	"line\000"
 7961      00
 7962              	.LASF161:
 7963 0829 72656163 		.ascii	"reached_target\000"
 7963      6865645F 
 7963      74617267 
 7963      657400
 7964              	.LASF62:
 7965 0838 53746F70 		.ascii	"Stop_on_line\000"
 7965      5F6F6E5F 
 7965      6C696E65 
 7965      00
 7966              	.LASF126:
 7967 0845 74735F65 		.ascii	"ts_enc\000"
 7967      6E6300
 7968              	.LASF167:
 7969 084c 6272616B 		.ascii	"brakeFlag\000"
 7969      65466C61 
 7969      6700
 7970              	.LASF133:
 7971 0856 666C6167 		.ascii	"flag_ts_display\000"
 7971      5F74735F 
 7971      64697370 
 7971      6C617900 
 7972              	.LASF31:
 7973 0866 73746174 		.ascii	"state\000"
 7973      6500
 7974              	.LASF78:
 7975 086c 72657665 		.ascii	"reverseDirection\000"
 7975      72736544 
 7975      69726563 
 7975      74696F6E 
ARM GAS  C:\Users\Logan\AppData\Local\Temp\ccyYPcsP.s 			page 169


 7975      00
 7976              	.LASF84:
 7977 087d 6272616B 		.ascii	"brakeLeft\000"
 7977      654C6566 
 7977      7400
 7978              	.LASF172:
 7979 0887 64697370 		.ascii	"displaystring\000"
 7979      6C617973 
 7979      7472696E 
 7979      6700
 7980              	.LASF148:
 7981 0895 6C617374 		.ascii	"last_quad_count1\000"
 7981      5F717561 
 7981      645F636F 
 7981      756E7431 
 7981      00
 7982              	.LASF149:
 7983 08a6 6C617374 		.ascii	"last_quad_count2\000"
 7983      5F717561 
 7983      645F636F 
 7983      756E7432 
 7983      00
 7984              	.LASF189:
 7985 08b7 64657374 		.ascii	"destination\000"
 7985      696E6174 
 7985      696F6E00 
 7986              	.LASF123:
 7987 08c3 75736250 		.ascii	"usbPutChar\000"
 7987      75744368 
 7987      617200
 7988              	.LASF0:
 7989 08ce 7369676E 		.ascii	"signed char\000"
 7989      65642063 
 7989      68617200 
 7990              	.LASF3:
 7991 08da 73686F72 		.ascii	"short unsigned int\000"
 7991      7420756E 
 7991      7369676E 
 7991      65642069 
 7991      6E7400
 7992              	.LASF45:
 7993 08ed 726F626F 		.ascii	"robot_orientation\000"
 7993      745F6F72 
 7993      69656E74 
 7993      6174696F 
 7993      6E00
 7994              	.LASF37:
 7995 08ff 51554144 		.ascii	"QUAD_STOP\000"
 7995      5F53544F 
 7995      5000
 7996              	.LASF67:
 7997 0909 6D61696E 		.ascii	"main\000"
 7997      00
 7998              	.LASF58:
 7999 090e 42545F74 		.ascii	"BT_txInt\000"
 7999      78496E74 
 7999      00
ARM GAS  C:\Users\Logan\AppData\Local\Temp\ccyYPcsP.s 			page 170


 8000              	.LASF110:
 8001 0917 6E657874 		.ascii	"nextSpeed\000"
 8001      53706565 
 8001      6400
 8002              	.LASF15:
 8003 0921 75696E74 		.ascii	"uint8\000"
 8003      3800
 8004              	.LASF21:
 8005 0927 646F7562 		.ascii	"double\000"
 8005      6C6500
 8006              	.LASF155:
 8007 092e 72696768 		.ascii	"right_duty_cycle\000"
 8007      745F6475 
 8007      74795F63 
 8007      79636C65 
 8007      00
 8008              	.LASF38:
 8009 093f 52465F53 		.ascii	"RF_STOP\000"
 8009      544F5000 
 8010              	.LASF77:
 8011 0947 68616E64 		.ascii	"handle_rx_binary\000"
 8011      6C655F72 
 8011      785F6269 
 8011      6E617279 
 8011      00
 8012              	.LASF118:
 8013 0958 7072696E 		.ascii	"print_RF\000"
 8013      745F5246 
 8013      00
 8014              	.LASF30:
 8015 0961 55545552 		.ascii	"UTURN\000"
 8015      4E00
 8016              	.LASF46:
 8017 0967 67305F78 		.ascii	"g0_xpos\000"
 8017      706F7300 
 8018              	.LASF108:
 8019 096f 7363616C 		.ascii	"scalingRight\000"
 8019      696E6752 
 8019      69676874 
 8019      00
 8020              	.LASF136:
 8021 097c 666C6167 		.ascii	"flag_KB_string\000"
 8021      5F4B425F 
 8021      73747269 
 8021      6E6700
 8022              	.LASF52:
 8023 098b 67315F73 		.ascii	"g1_speed\000"
 8023      70656564 
 8023      00
 8024              	.LASF198:
 8025 0994 2E5C6D61 		.ascii	".\\main.c\000"
 8025      696E2E63 
 8025      00
 8026              	.LASF165:
 8027 099d 696E6974 		.ascii	"initial_x_pos\000"
 8027      69616C5F 
 8027      785F706F 
ARM GAS  C:\Users\Logan\AppData\Local\Temp\ccyYPcsP.s 			page 171


 8027      7300
 8028              	.LASF85:
 8029 09ab 6272616B 		.ascii	"brakeRight\000"
 8029      65526967 
 8029      687400
 8030              	.LASF97:
 8031 09b6 696E6974 		.ascii	"initTrackU\000"
 8031      54726163 
 8031      6B5500
 8032              		.ident	"GCC: (GNU Tools for ARM Embedded Processors) 4.9.3 20150303 (release) [ARM/embedded-4_9-br
