ARM GAS  C:\Users\lken274\AppData\Local\Temp\cc82TtV1.s 			page 1


   1              		.syntax unified
   2              		.cpu cortex-m3
   3              		.fpu softvfp
   4              		.eabi_attribute 20, 1
   5              		.eabi_attribute 21, 1
   6              		.eabi_attribute 23, 3
   7              		.eabi_attribute 24, 1
   8              		.eabi_attribute 25, 1
   9              		.eabi_attribute 26, 1
  10              		.eabi_attribute 30, 6
  11              		.eabi_attribute 34, 1
  12              		.eabi_attribute 18, 4
  13              		.thumb
  14              		.file	"main.c"
  15              		.text
  16              	.Ltext0:
  17              		.cfi_sections	.debug_frame
  18              		.global	ts
  19              		.bss
  20              		.type	ts, %object
  21              		.size	ts, 1
  22              	ts:
  23 0000 00       		.space	1
  24              		.global	ts_enc
  25 0001 00       		.align	1
  26              		.type	ts_enc, %object
  27              		.size	ts_enc, 2
  28              	ts_enc:
  29 0002 0000     		.space	2
  30              		.global	ts_update
  31              		.align	1
  32              		.type	ts_update, %object
  33              		.size	ts_update, 2
  34              	ts_update:
  35 0004 0000     		.space	2
  36              		.global	ts_speed
  37              		.align	1
  38              		.type	ts_speed, %object
  39              		.size	ts_speed, 2
  40              	ts_speed:
  41 0006 0000     		.space	2
  42              		.global	ts_display
  43              		.align	1
  44              		.type	ts_display, %object
  45              		.size	ts_display, 2
  46              	ts_display:
  47 0008 0000     		.space	2
  48              		.global	flag_ts_enc
  49              		.type	flag_ts_enc, %object
  50              		.size	flag_ts_enc, 1
  51              	flag_ts_enc:
  52 000a 00       		.space	1
  53              		.global	flag_ts_update
  54              		.type	flag_ts_update, %object
  55              		.size	flag_ts_update, 1
  56              	flag_ts_update:
  57 000b 00       		.space	1
ARM GAS  C:\Users\lken274\AppData\Local\Temp\cc82TtV1.s 			page 2


  58              		.global	flag_ts_speed
  59              		.type	flag_ts_speed, %object
  60              		.size	flag_ts_speed, 1
  61              	flag_ts_speed:
  62 000c 00       		.space	1
  63              		.global	flag_ts_display
  64              		.type	flag_ts_display, %object
  65              		.size	flag_ts_display, 1
  66              	flag_ts_display:
  67 000d 00       		.space	1
  68              		.global	flag_rx
  69              		.type	flag_rx, %object
  70              		.size	flag_rx, 1
  71              	flag_rx:
  72 000e 00       		.space	1
  73              		.global	flag_packet
  74              		.type	flag_packet, %object
  75              		.size	flag_packet, 1
  76              	flag_packet:
  77 000f 00       		.space	1
  78              		.global	flag_KB_string
  79              		.type	flag_KB_string, %object
  80              		.size	flag_KB_string, 1
  81              	flag_KB_string:
  82 0010 00       		.space	1
  83              		.global	dataready_flag
  84              		.type	dataready_flag, %object
  85              		.size	dataready_flag, 1
  86              	dataready_flag:
  87 0011 00       		.space	1
  88              		.global	flag_rf_transmission_active
  89              		.data
  90              		.type	flag_rf_transmission_active, %object
  91              		.size	flag_rf_transmission_active, 1
  92              	flag_rf_transmission_active:
  93 0000 0A       		.byte	10
  94              		.global	flag_receive_ADC
  95              		.bss
  96              		.type	flag_receive_ADC, %object
  97              		.size	flag_receive_ADC, 1
  98              	flag_receive_ADC:
  99 0012 00       		.space	1
 100              		.comm	adc_result,2,2
 101              		.global	direction
 102              		.type	direction, %object
 103              		.size	direction, 1
 104              	direction:
 105 0013 00       		.space	1
 106              		.global	flag_calc_wheelspeed
 107              		.type	flag_calc_wheelspeed, %object
 108              		.size	flag_calc_wheelspeed, 1
 109              	flag_calc_wheelspeed:
 110 0014 00       		.space	1
 111              		.global	quad_count1
 112 0015 00       		.align	1
 113              		.type	quad_count1, %object
 114              		.size	quad_count1, 2
ARM GAS  C:\Users\lken274\AppData\Local\Temp\cc82TtV1.s 			page 3


 115              	quad_count1:
 116 0016 0000     		.space	2
 117              		.global	quad_count2
 118              		.align	1
 119              		.type	quad_count2, %object
 120              		.size	quad_count2, 2
 121              	quad_count2:
 122 0018 0000     		.space	2
 123              		.global	left_duty_cycle
 124              		.align	1
 125              		.type	left_duty_cycle, %object
 126              		.size	left_duty_cycle, 2
 127              	left_duty_cycle:
 128 001a 0000     		.space	2
 129              		.global	right_duty_cycle
 130              		.align	1
 131              		.type	right_duty_cycle, %object
 132              		.size	right_duty_cycle, 2
 133              	right_duty_cycle:
 134 001c 0000     		.space	2
 135              		.global	leftSpeedLimit
 136              		.align	1
 137              		.type	leftSpeedLimit, %object
 138              		.size	leftSpeedLimit, 2
 139              	leftSpeedLimit:
 140 001e 0000     		.space	2
 141              		.global	rightSpeedLimit
 142              		.align	1
 143              		.type	rightSpeedLimit, %object
 144              		.size	rightSpeedLimit, 2
 145              	rightSpeedLimit:
 146 0020 0000     		.space	2
 147              		.comm	brakeFlag,1,1
 148              		.global	portOpen
 149              		.data
 150              		.type	portOpen, %object
 151              		.size	portOpen, 1
 152              	portOpen:
 153 0001 01       		.byte	1
 154              		.global	displaystring
 155 0002 0000     		.align	2
 156              		.type	displaystring, %object
 157              		.size	displaystring, 64
 158              	displaystring:
 159 0004 43533330 		.ascii	"CS301 2016\012\000"
 159      31203230 
 159      31360A00 
 160 0010 00000000 		.space	52
 160      00000000 
 160      00000000 
 160      00000000 
 160      00000000 
 161              		.comm	line,64,4
 162              		.comm	entry,64,4
 163              		.comm	usbBuffer,64,4
 164              		.comm	system_state,32,4
 165              		.section	.text.setSpeed,"ax",%progbits
ARM GAS  C:\Users\lken274\AppData\Local\Temp\cc82TtV1.s 			page 4


 166              		.align	2
 167              		.global	setSpeed
 168              		.thumb
 169              		.thumb_func
 170              		.type	setSpeed, %function
 171              	setSpeed:
 172              	.LFB63:
 173              		.file 1 ".\\main.c"
   1:.\main.c      **** /* ========================================
   2:.\main.c      ****  * This code will test/use the functionality of all of the below peripherals.
   3:.\main.c      ****  * Fully working code: 
   4:.\main.c      ****  * PWM      : done
   5:.\main.c      ****     Cycle up and down when enabled
   6:.\main.c      ****  * Encoder  : 
   7:.\main.c      ****     Calibrate the wheels when enabled
   8:.\main.c      **** 
   9:.\main.c      ****  * ADC      : done
  10:.\main.c      ****     Prints the ADC reading (in volts) to UART
  11:.\main.c      **** 
  12:.\main.c      ****  * USB      : port displays speed and position.
  13:.\main.c      **** 
  14:.\main.c      ****  * CMD: "PW xx"
  15:.\main.c      **** 
  16:.\main.c      ****  * Copyright Univ of Auckland, 2016
  17:.\main.c      ****  * All Rights Reserved
  18:.\main.c      ****  * UNPUBLISHED, LICENSED SOFTWARE.
  19:.\main.c      ****  *
  20:.\main.c      ****  * CONFIDENTIAL AND PROPRIETARY INFORMATION
  21:.\main.c      ****  * WHICH IS THE PROPERTY OF Univ of Auckland.
  22:.\main.c      ****  *
  23:.\main.c      ****  * ========================================
  24:.\main.c      **** */
  25:.\main.c      **** #include <stdio.h>
  26:.\main.c      **** #include <string.h>
  27:.\main.c      **** #include <stdlib.h>
  28:.\main.c      **** #include <project.h>
  29:.\main.c      **** //* ========================================
  30:.\main.c      **** #include "defines.h"
  31:.\main.c      **** #include "vars.h"
  32:.\main.c      **** //* ========================================
  33:.\main.c      **** void usbPutString(char *s);
  34:.\main.c      **** void usbPutChar(char c);
  35:.\main.c      **** //void handle_usb();
  36:.\main.c      **** //* ========================================
  37:.\main.c      **** 
  38:.\main.c      **** void setSpeed(int right, int left){
 174              		.loc 1 38 0
 175              		.cfi_startproc
 176              		@ args = 0, pretend = 0, frame = 8
 177              		@ frame_needed = 1, uses_anonymous_args = 0
 178              		@ link register save eliminated.
 179 0000 80B4     		push	{r7}
 180              		.cfi_def_cfa_offset 4
 181              		.cfi_offset 7, -4
 182 0002 83B0     		sub	sp, sp, #12
 183              		.cfi_def_cfa_offset 16
 184 0004 00AF     		add	r7, sp, #0
ARM GAS  C:\Users\lken274\AppData\Local\Temp\cc82TtV1.s 			page 5


 185              		.cfi_def_cfa_register 7
 186 0006 7860     		str	r0, [r7, #4]
 187 0008 3960     		str	r1, [r7]
  39:.\main.c      ****     leftSpeedLimit = right;
 188              		.loc 1 39 0
 189 000a 7B68     		ldr	r3, [r7, #4]
 190 000c 9AB2     		uxth	r2, r3
 191 000e 054B     		ldr	r3, .L2
 192 0010 1A80     		strh	r2, [r3]	@ movhi
  40:.\main.c      ****     rightSpeedLimit = left;
 193              		.loc 1 40 0
 194 0012 3B68     		ldr	r3, [r7]
 195 0014 9AB2     		uxth	r2, r3
 196 0016 044B     		ldr	r3, .L2+4
 197 0018 1A80     		strh	r2, [r3]	@ movhi
  41:.\main.c      **** }
 198              		.loc 1 41 0
 199 001a 0C37     		adds	r7, r7, #12
 200              		.cfi_def_cfa_offset 4
 201 001c BD46     		mov	sp, r7
 202              		.cfi_def_cfa_register 13
 203              		@ sp needed
 204 001e 5DF8047B 		ldr	r7, [sp], #4
 205              		.cfi_restore 7
 206              		.cfi_def_cfa_offset 0
 207 0022 7047     		bx	lr
 208              	.L3:
 209              		.align	2
 210              	.L2:
 211 0024 00000000 		.word	leftSpeedLimit
 212 0028 00000000 		.word	rightSpeedLimit
 213              		.cfi_endproc
 214              	.LFE63:
 215              		.size	setSpeed, .-setSpeed
 216              		.section	.text.brakeMotor,"ax",%progbits
 217              		.align	2
 218              		.global	brakeMotor
 219              		.thumb
 220              		.thumb_func
 221              		.type	brakeMotor, %function
 222              	brakeMotor:
 223              	.LFB64:
  42:.\main.c      **** 
  43:.\main.c      **** void brakeMotor(){
 224              		.loc 1 43 0
 225              		.cfi_startproc
 226              		@ args = 0, pretend = 0, frame = 0
 227              		@ frame_needed = 1, uses_anonymous_args = 0
 228 0000 80B5     		push	{r7, lr}
 229              		.cfi_def_cfa_offset 8
 230              		.cfi_offset 7, -8
 231              		.cfi_offset 14, -4
 232 0002 00AF     		add	r7, sp, #0
 233              		.cfi_def_cfa_register 7
  44:.\main.c      ****     setSpeed(0, 0);
 234              		.loc 1 44 0
 235 0004 0020     		movs	r0, #0
ARM GAS  C:\Users\lken274\AppData\Local\Temp\cc82TtV1.s 			page 6


 236 0006 0021     		movs	r1, #0
 237 0008 FFF7FEFF 		bl	setSpeed
  45:.\main.c      ****     PWM_1_WriteCompare(0);
 238              		.loc 1 45 0
 239 000c 0020     		movs	r0, #0
 240 000e FFF7FEFF 		bl	PWM_1_WriteCompare
  46:.\main.c      ****     PWM_2_WriteCompare(0);
 241              		.loc 1 46 0
 242 0012 0020     		movs	r0, #0
 243 0014 FFF7FEFF 		bl	PWM_2_WriteCompare
  47:.\main.c      ****     right_duty_cycle = 0;
 244              		.loc 1 47 0
 245 0018 034B     		ldr	r3, .L5
 246 001a 0022     		movs	r2, #0
 247 001c 1A80     		strh	r2, [r3]	@ movhi
  48:.\main.c      ****     left_duty_cycle = 0;
 248              		.loc 1 48 0
 249 001e 034B     		ldr	r3, .L5+4
 250 0020 0022     		movs	r2, #0
 251 0022 1A80     		strh	r2, [r3]	@ movhi
  49:.\main.c      **** }
 252              		.loc 1 49 0
 253 0024 80BD     		pop	{r7, pc}
 254              	.L6:
 255 0026 00BF     		.align	2
 256              	.L5:
 257 0028 00000000 		.word	right_duty_cycle
 258 002c 00000000 		.word	left_duty_cycle
 259              		.cfi_endproc
 260              	.LFE64:
 261              		.size	brakeMotor, .-brakeMotor
 262              		.section	.text.adc_isr,"ax",%progbits
 263              		.align	2
 264              		.global	adc_isr
 265              		.thumb
 266              		.thumb_func
 267              		.type	adc_isr, %function
 268              	adc_isr:
 269              	.LFB65:
  50:.\main.c      **** 
  51:.\main.c      **** //ADC:
  52:.\main.c      **** CY_ISR (adc_isr)
  53:.\main.c      **** {
 270              		.loc 1 53 0
 271              		.cfi_startproc
 272              		@ args = 0, pretend = 0, frame = 0
 273              		@ frame_needed = 1, uses_anonymous_args = 0
 274 0000 80B5     		push	{r7, lr}
 275              		.cfi_def_cfa_offset 8
 276              		.cfi_offset 7, -8
 277              		.cfi_offset 14, -4
 278 0002 00AF     		add	r7, sp, #0
 279              		.cfi_def_cfa_register 7
  54:.\main.c      ****     //adc_result = ADC_GetResult16(0);
  55:.\main.c      ****     adc_result = ADC_GetResult16();
 280              		.loc 1 55 0
 281 0004 FFF7FEFF 		bl	ADC_GetResult16
ARM GAS  C:\Users\lken274\AppData\Local\Temp\cc82TtV1.s 			page 7


 282 0008 0346     		mov	r3, r0
 283 000a 1A46     		mov	r2, r3
 284 000c 024B     		ldr	r3, .L8
 285 000e 1A80     		strh	r2, [r3]	@ movhi
  56:.\main.c      ****     flag_receive_ADC = 1;
 286              		.loc 1 56 0
 287 0010 024B     		ldr	r3, .L8+4
 288 0012 0122     		movs	r2, #1
 289 0014 1A70     		strb	r2, [r3]
  57:.\main.c      ****     //LED_Write(~LED_Read());
  58:.\main.c      **** }
 290              		.loc 1 58 0
 291 0016 80BD     		pop	{r7, pc}
 292              	.L9:
 293              		.align	2
 294              	.L8:
 295 0018 00000000 		.word	adc_result
 296 001c 00000000 		.word	flag_receive_ADC
 297              		.cfi_endproc
 298              	.LFE65:
 299              		.size	adc_isr, .-adc_isr
 300              		.section	.text.isr_quad1,"ax",%progbits
 301              		.align	2
 302              		.global	isr_quad1
 303              		.thumb
 304              		.thumb_func
 305              		.type	isr_quad1, %function
 306              	isr_quad1:
 307              	.LFB66:
  59:.\main.c      **** 
  60:.\main.c      **** CY_ISR (isr_quad1)
  61:.\main.c      **** {
 308              		.loc 1 61 0
 309              		.cfi_startproc
 310              		@ args = 0, pretend = 0, frame = 0
 311              		@ frame_needed = 1, uses_anonymous_args = 0
 312 0000 80B5     		push	{r7, lr}
 313              		.cfi_def_cfa_offset 8
 314              		.cfi_offset 7, -8
 315              		.cfi_offset 14, -4
 316 0002 00AF     		add	r7, sp, #0
 317              		.cfi_def_cfa_register 7
  62:.\main.c      ****     //LED_Write(~LED_Read());
  63:.\main.c      ****     quad_count1 = QuadDec_M1_GetCounter();
 318              		.loc 1 63 0
 319 0004 FFF7FEFF 		bl	QuadDec_M1_GetCounter
 320 0008 0346     		mov	r3, r0
 321 000a 1A46     		mov	r2, r3
 322 000c 084B     		ldr	r3, .L11
 323 000e 1A80     		strh	r2, [r3]	@ movhi
  64:.\main.c      ****     quad_count2 = QuadDec_M2_GetCounter();
 324              		.loc 1 64 0
 325 0010 FFF7FEFF 		bl	QuadDec_M2_GetCounter
 326 0014 0346     		mov	r3, r0
 327 0016 1A46     		mov	r2, r3
 328 0018 064B     		ldr	r3, .L11+4
 329 001a 1A80     		strh	r2, [r3]	@ movhi
ARM GAS  C:\Users\lken274\AppData\Local\Temp\cc82TtV1.s 			page 8


  65:.\main.c      ****     QuadDec_M1_SetCounter(0);
 330              		.loc 1 65 0
 331 001c 0020     		movs	r0, #0
 332 001e FFF7FEFF 		bl	QuadDec_M1_SetCounter
  66:.\main.c      ****     QuadDec_M2_SetCounter(0);
 333              		.loc 1 66 0
 334 0022 0020     		movs	r0, #0
 335 0024 FFF7FEFF 		bl	QuadDec_M2_SetCounter
  67:.\main.c      ****     flag_calc_wheelspeed = 1;
 336              		.loc 1 67 0
 337 0028 034B     		ldr	r3, .L11+8
 338 002a 0122     		movs	r2, #1
 339 002c 1A70     		strb	r2, [r3]
  68:.\main.c      **** }
 340              		.loc 1 68 0
 341 002e 80BD     		pop	{r7, pc}
 342              	.L12:
 343              		.align	2
 344              	.L11:
 345 0030 00000000 		.word	quad_count1
 346 0034 00000000 		.word	quad_count2
 347 0038 00000000 		.word	flag_calc_wheelspeed
 348              		.cfi_endproc
 349              	.LFE66:
 350              		.size	isr_quad1, .-isr_quad1
 351              		.section	.text.Stop_on_line,"ax",%progbits
 352              		.align	2
 353              		.global	Stop_on_line
 354              		.thumb
 355              		.thumb_func
 356              		.type	Stop_on_line, %function
 357              	Stop_on_line:
 358              	.LFB67:
  69:.\main.c      **** 
  70:.\main.c      **** CY_ISR (Stop_on_line)
  71:.\main.c      **** {
 359              		.loc 1 71 0
 360              		.cfi_startproc
 361              		@ args = 0, pretend = 0, frame = 0
 362              		@ frame_needed = 1, uses_anonymous_args = 0
 363 0000 80B5     		push	{r7, lr}
 364              		.cfi_def_cfa_offset 8
 365              		.cfi_offset 7, -8
 366              		.cfi_offset 14, -4
 367 0002 00AF     		add	r7, sp, #0
 368              		.cfi_def_cfa_register 7
  72:.\main.c      ****     brakeMotor();
 369              		.loc 1 72 0
 370 0004 FFF7FEFF 		bl	brakeMotor
  73:.\main.c      **** }
 371              		.loc 1 73 0
 372 0008 80BD     		pop	{r7, pc}
 373              		.cfi_endproc
 374              	.LFE67:
 375              		.size	Stop_on_line, .-Stop_on_line
 376 000a 00BF     		.section	.text.button,"ax",%progbits
 377              		.align	2
ARM GAS  C:\Users\lken274\AppData\Local\Temp\cc82TtV1.s 			page 9


 378              		.global	button
 379              		.thumb
 380              		.thumb_func
 381              		.type	button, %function
 382              	button:
 383              	.LFB68:
  74:.\main.c      **** 
  75:.\main.c      **** CY_ISR (button)
  76:.\main.c      **** {
 384              		.loc 1 76 0
 385              		.cfi_startproc
 386              		@ args = 0, pretend = 0, frame = 0
 387              		@ frame_needed = 1, uses_anonymous_args = 0
 388 0000 80B5     		push	{r7, lr}
 389              		.cfi_def_cfa_offset 8
 390              		.cfi_offset 7, -8
 391              		.cfi_offset 14, -4
 392 0002 00AF     		add	r7, sp, #0
 393              		.cfi_def_cfa_register 7
  77:.\main.c      ****     setSpeed(25, 25);
 394              		.loc 1 77 0
 395 0004 1920     		movs	r0, #25
 396 0006 1921     		movs	r1, #25
 397 0008 FFF7FEFF 		bl	setSpeed
  78:.\main.c      **** }
 398              		.loc 1 78 0
 399 000c 80BD     		pop	{r7, pc}
 400              		.cfi_endproc
 401              	.LFE68:
 402              		.size	button, .-button
 403 000e 00BF     		.section	.rodata
 404              		.align	2
 405              	.LC0:
 406 0000 71756164 		.ascii	"quad count 1 is: %d\012\015\000"
 406      20636F75 
 406      6E742031 
 406      2069733A 
 406      2025640A 
 407 0016 0000     		.align	2
 408              	.LC1:
 409 0018 71756164 		.ascii	"quad count 2 is: %d\012\015\000"
 409      20636F75 
 409      6E742032 
 409      2069733A 
 409      2025640A 
 410 002e 0000     		.align	2
 411              	.LC2:
 412 0030 52696768 		.ascii	"Right wheel too fast! Slowing down \015\012\000"
 412      74207768 
 412      65656C20 
 412      746F6F20 
 412      66617374 
 413 0056 0000     		.align	2
 414              	.LC3:
 415 0058 52696768 		.ascii	"Right wheel duty cycle is now:%d\015\012\000"
 415      74207768 
 415      65656C20 
ARM GAS  C:\Users\lken274\AppData\Local\Temp\cc82TtV1.s 			page 10


 415      64757479 
 415      20637963 
 416 007b 00       		.align	2
 417              	.LC4:
 418 007c 52696768 		.ascii	"Right wheel too slow, speeding up! \015\012\000"
 418      74207768 
 418      65656C20 
 418      746F6F20 
 418      736C6F77 
 419              		.section	.text.Quad_Dec_response,"ax",%progbits
 420              		.align	2
 421              		.global	Quad_Dec_response
 422              		.thumb
 423              		.thumb_func
 424              		.type	Quad_Dec_response, %function
 425              	Quad_Dec_response:
 426              	.LFB69:
  79:.\main.c      **** 
  80:.\main.c      **** void Quad_Dec_response()
  81:.\main.c      **** {
 427              		.loc 1 81 0
 428              		.cfi_startproc
 429              		@ args = 0, pretend = 0, frame = 136
 430              		@ frame_needed = 1, uses_anonymous_args = 0
 431 0000 B0B5     		push	{r4, r5, r7, lr}
 432              		.cfi_def_cfa_offset 16
 433              		.cfi_offset 4, -16
 434              		.cfi_offset 5, -12
 435              		.cfi_offset 7, -8
 436              		.cfi_offset 14, -4
 437 0002 A2B0     		sub	sp, sp, #136
 438              		.cfi_def_cfa_offset 152
 439 0004 00AF     		add	r7, sp, #0
 440              		.cfi_def_cfa_register 7
  82:.\main.c      ****     //Check if the flag has been set
  83:.\main.c      ****     if (!flag_calc_wheelspeed) return;
 441              		.loc 1 83 0
 442 0006 8A4B     		ldr	r3, .L30
 443 0008 1B78     		ldrb	r3, [r3]	@ zero_extendqisi2
 444 000a 002B     		cmp	r3, #0
 445 000c 00F00D81 		beq	.L15
  84:.\main.c      ****     flag_calc_wheelspeed = 0;
 446              		.loc 1 84 0
 447 0010 874B     		ldr	r3, .L30
 448 0012 0022     		movs	r2, #0
 449 0014 1A70     		strb	r2, [r3]
  85:.\main.c      ****     
  86:.\main.c      ****     char wheel_1_str [64];
  87:.\main.c      ****     char wheel_2_str [64];
  88:.\main.c      ****     sprintf(wheel_1_str, "quad count 1 is: %d\n\r", quad_count1);
 450              		.loc 1 88 0
 451 0016 874B     		ldr	r3, .L30+4
 452 0018 1B88     		ldrh	r3, [r3]
 453 001a 1BB2     		sxth	r3, r3
 454 001c 07F14002 		add	r2, r7, #64
 455 0020 1046     		mov	r0, r2
 456 0022 8549     		ldr	r1, .L30+8
ARM GAS  C:\Users\lken274\AppData\Local\Temp\cc82TtV1.s 			page 11


 457 0024 1A46     		mov	r2, r3
 458 0026 FFF7FEFF 		bl	sprintf
  89:.\main.c      ****     usbPutString(wheel_1_str);
 459              		.loc 1 89 0
 460 002a 07F14003 		add	r3, r7, #64
 461 002e 1846     		mov	r0, r3
 462 0030 FFF7FEFF 		bl	usbPutString
  90:.\main.c      ****     sprintf(wheel_2_str, "quad count 2 is: %d\n\r", quad_count2);
 463              		.loc 1 90 0
 464 0034 814B     		ldr	r3, .L30+12
 465 0036 1B88     		ldrh	r3, [r3]
 466 0038 1BB2     		sxth	r3, r3
 467 003a 3A46     		mov	r2, r7
 468 003c 1046     		mov	r0, r2
 469 003e 8049     		ldr	r1, .L30+16
 470 0040 1A46     		mov	r2, r3
 471 0042 FFF7FEFF 		bl	sprintf
  91:.\main.c      ****     
  92:.\main.c      ****     usbPutString(wheel_2_str);
 472              		.loc 1 92 0
 473 0046 3B46     		mov	r3, r7
 474 0048 1846     		mov	r0, r3
 475 004a FFF7FEFF 		bl	usbPutString
  93:.\main.c      ****     
  94:.\main.c      ****     int16 leftSpeed = quad_count1;
 476              		.loc 1 94 0
 477 004e 794B     		ldr	r3, .L30+4
 478 0050 1B88     		ldrh	r3, [r3]	@ movhi
 479 0052 A7F88230 		strh	r3, [r7, #130]	@ movhi
  95:.\main.c      ****     int16 rightSpeed = quad_count2;
 480              		.loc 1 95 0
 481 0056 794B     		ldr	r3, .L30+12
 482 0058 1B88     		ldrh	r3, [r3]	@ movhi
 483 005a A7F88030 		strh	r3, [r7, #128]	@ movhi
  96:.\main.c      ****     
  97:.\main.c      ****     int16 left_direction = 1;
 484              		.loc 1 97 0
 485 005e 0123     		movs	r3, #1
 486 0060 A7F88630 		strh	r3, [r7, #134]	@ movhi
  98:.\main.c      ****     int16 right_direction = 1;
 487              		.loc 1 98 0
 488 0064 0123     		movs	r3, #1
 489 0066 A7F88430 		strh	r3, [r7, #132]	@ movhi
  99:.\main.c      ****     
 100:.\main.c      ****     if (leftSpeed >= 0) {
 490              		.loc 1 100 0
 491 006a B7F98230 		ldrsh	r3, [r7, #130]
 492 006e 002B     		cmp	r3, #0
 493 0070 03DB     		blt	.L18
 101:.\main.c      ****         left_direction = 1;
 494              		.loc 1 101 0
 495 0072 0123     		movs	r3, #1
 496 0074 A7F88630 		strh	r3, [r7, #134]	@ movhi
 497 0078 03E0     		b	.L19
 498              	.L18:
 102:.\main.c      ****     } else {
 103:.\main.c      ****         left_direction = -1;
ARM GAS  C:\Users\lken274\AppData\Local\Temp\cc82TtV1.s 			page 12


 499              		.loc 1 103 0
 500 007a 4FF6FF73 		movw	r3, #65535
 501 007e A7F88630 		strh	r3, [r7, #134]	@ movhi
 502              	.L19:
 104:.\main.c      ****     }
 105:.\main.c      ****     if (rightSpeed <= 0) {
 503              		.loc 1 105 0
 504 0082 B7F98030 		ldrsh	r3, [r7, #128]
 505 0086 002B     		cmp	r3, #0
 506 0088 03DC     		bgt	.L20
 106:.\main.c      ****         right_direction = 1;
 507              		.loc 1 106 0
 508 008a 0123     		movs	r3, #1
 509 008c A7F88430 		strh	r3, [r7, #132]	@ movhi
 510 0090 03E0     		b	.L21
 511              	.L20:
 107:.\main.c      ****     } else {
 108:.\main.c      ****         right_direction = -1;
 512              		.loc 1 108 0
 513 0092 4FF6FF73 		movw	r3, #65535
 514 0096 A7F88430 		strh	r3, [r7, #132]	@ movhi
 515              	.L21:
 109:.\main.c      ****     }
 110:.\main.c      ****     
 111:.\main.c      ****     if (abs(leftSpeed) > leftSpeedLimit){
 516              		.loc 1 111 0
 517 009a B7F98230 		ldrsh	r3, [r7, #130]
 518 009e 83EAE372 		eor	r2, r3, r3, asr #31
 519 00a2 A2EBE372 		sub	r2, r2, r3, asr #31
 520 00a6 674B     		ldr	r3, .L30+20
 521 00a8 1B88     		ldrh	r3, [r3]
 522 00aa 1BB2     		sxth	r3, r3
 523 00ac 9A42     		cmp	r2, r3
 524 00ae 0FDD     		ble	.L22
 112:.\main.c      ****         //sprintf(wheel_1_str,"Left wheel too fast! Slowing down \r\n");
 113:.\main.c      ****         usbPutString(wheel_1_str);
 525              		.loc 1 113 0
 526 00b0 07F14003 		add	r3, r7, #64
 527 00b4 1846     		mov	r0, r3
 528 00b6 FFF7FEFF 		bl	usbPutString
 114:.\main.c      ****         
 115:.\main.c      ****         left_duty_cycle = left_duty_cycle + (-1 * left_direction);
 529              		.loc 1 115 0
 530 00ba 634B     		ldr	r3, .L30+24
 531 00bc 1B88     		ldrh	r3, [r3]
 532 00be 9AB2     		uxth	r2, r3
 533 00c0 B7F88630 		ldrh	r3, [r7, #134]
 534 00c4 D31A     		subs	r3, r2, r3
 535 00c6 9BB2     		uxth	r3, r3
 536 00c8 9AB2     		uxth	r2, r3
 537 00ca 5F4B     		ldr	r3, .L30+24
 538 00cc 1A80     		strh	r2, [r3]	@ movhi
 539 00ce 19E0     		b	.L23
 540              	.L22:
 116:.\main.c      ****     } else if (abs(leftSpeed) < leftSpeedLimit) {
 541              		.loc 1 116 0
 542 00d0 B7F98230 		ldrsh	r3, [r7, #130]
ARM GAS  C:\Users\lken274\AppData\Local\Temp\cc82TtV1.s 			page 13


 543 00d4 83EAE372 		eor	r2, r3, r3, asr #31
 544 00d8 A2EBE372 		sub	r2, r2, r3, asr #31
 545 00dc 594B     		ldr	r3, .L30+20
 546 00de 1B88     		ldrh	r3, [r3]
 547 00e0 1BB2     		sxth	r3, r3
 548 00e2 9A42     		cmp	r2, r3
 549 00e4 0EDA     		bge	.L23
 117:.\main.c      ****        // sprintf(wheel_1_str,"Left wheel too slow! Speeding up \r\n");
 118:.\main.c      ****         usbPutString(wheel_1_str);
 550              		.loc 1 118 0
 551 00e6 07F14003 		add	r3, r7, #64
 552 00ea 1846     		mov	r0, r3
 553 00ec FFF7FEFF 		bl	usbPutString
 119:.\main.c      ****         left_duty_cycle = left_duty_cycle + left_direction;
 554              		.loc 1 119 0
 555 00f0 554B     		ldr	r3, .L30+24
 556 00f2 1B88     		ldrh	r3, [r3]
 557 00f4 9AB2     		uxth	r2, r3
 558 00f6 B7F88630 		ldrh	r3, [r7, #134]
 559 00fa 1344     		add	r3, r3, r2
 560 00fc 9BB2     		uxth	r3, r3
 561 00fe 9AB2     		uxth	r2, r3
 562 0100 514B     		ldr	r3, .L30+24
 563 0102 1A80     		strh	r2, [r3]	@ movhi
 564              	.L23:
 120:.\main.c      ****     }
 121:.\main.c      ****     
 122:.\main.c      ****     if (abs(rightSpeed) > rightSpeedLimit){
 565              		.loc 1 122 0
 566 0104 B7F98030 		ldrsh	r3, [r7, #128]
 567 0108 83EAE372 		eor	r2, r3, r3, asr #31
 568 010c A2EBE372 		sub	r2, r2, r3, asr #31
 569 0110 4E4B     		ldr	r3, .L30+28
 570 0112 1B88     		ldrh	r3, [r3]
 571 0114 1BB2     		sxth	r3, r3
 572 0116 9A42     		cmp	r2, r3
 573 0118 28DD     		ble	.L24
 123:.\main.c      ****         sprintf(wheel_2_str,"Right wheel too fast! Slowing down \r\n");
 574              		.loc 1 123 0
 575 011a 3B46     		mov	r3, r7
 576 011c 4C4A     		ldr	r2, .L30+32
 577 011e 1C46     		mov	r4, r3
 578 0120 1546     		mov	r5, r2
 579 0122 0FCD     		ldmia	r5!, {r0, r1, r2, r3}
 580 0124 0FC4     		stmia	r4!, {r0, r1, r2, r3}
 581 0126 0FCD     		ldmia	r5!, {r0, r1, r2, r3}
 582 0128 0FC4     		stmia	r4!, {r0, r1, r2, r3}
 583 012a 95E80300 		ldmia	r5, {r0, r1}
 584 012e 2060     		str	r0, [r4]
 585 0130 0434     		adds	r4, r4, #4
 586 0132 2180     		strh	r1, [r4]	@ movhi
 124:.\main.c      ****         usbPutString(wheel_2_str);
 587              		.loc 1 124 0
 588 0134 3B46     		mov	r3, r7
 589 0136 1846     		mov	r0, r3
 590 0138 FFF7FEFF 		bl	usbPutString
 125:.\main.c      ****         right_duty_cycle = right_duty_cycle + (-1 * right_direction);
ARM GAS  C:\Users\lken274\AppData\Local\Temp\cc82TtV1.s 			page 14


 591              		.loc 1 125 0
 592 013c 454B     		ldr	r3, .L30+36
 593 013e 1B88     		ldrh	r3, [r3]
 594 0140 9AB2     		uxth	r2, r3
 595 0142 B7F88430 		ldrh	r3, [r7, #132]
 596 0146 D31A     		subs	r3, r2, r3
 597 0148 9BB2     		uxth	r3, r3
 598 014a 9AB2     		uxth	r2, r3
 599 014c 414B     		ldr	r3, .L30+36
 600 014e 1A80     		strh	r2, [r3]	@ movhi
 126:.\main.c      ****         sprintf(wheel_2_str,"Right wheel duty cycle is now:%d\r\n", right_duty_cycle);
 601              		.loc 1 126 0
 602 0150 404B     		ldr	r3, .L30+36
 603 0152 1B88     		ldrh	r3, [r3]
 604 0154 1BB2     		sxth	r3, r3
 605 0156 3A46     		mov	r2, r7
 606 0158 1046     		mov	r0, r2
 607 015a 3F49     		ldr	r1, .L30+40
 608 015c 1A46     		mov	r2, r3
 609 015e FFF7FEFF 		bl	sprintf
 127:.\main.c      ****         usbPutString(wheel_2_str);
 610              		.loc 1 127 0
 611 0162 3B46     		mov	r3, r7
 612 0164 1846     		mov	r0, r3
 613 0166 FFF7FEFF 		bl	usbPutString
 614 016a 32E0     		b	.L25
 615              	.L24:
 128:.\main.c      ****     } else if (abs(rightSpeed) < rightSpeedLimit) {
 616              		.loc 1 128 0
 617 016c B7F98030 		ldrsh	r3, [r7, #128]
 618 0170 83EAE372 		eor	r2, r3, r3, asr #31
 619 0174 A2EBE372 		sub	r2, r2, r3, asr #31
 620 0178 344B     		ldr	r3, .L30+28
 621 017a 1B88     		ldrh	r3, [r3]
 622 017c 1BB2     		sxth	r3, r3
 623 017e 9A42     		cmp	r2, r3
 624 0180 27DA     		bge	.L25
 129:.\main.c      ****         sprintf(wheel_2_str,"Right wheel too slow, speeding up! \r\n");
 625              		.loc 1 129 0
 626 0182 3B46     		mov	r3, r7
 627 0184 354A     		ldr	r2, .L30+44
 628 0186 1C46     		mov	r4, r3
 629 0188 1546     		mov	r5, r2
 630 018a 0FCD     		ldmia	r5!, {r0, r1, r2, r3}
 631 018c 0FC4     		stmia	r4!, {r0, r1, r2, r3}
 632 018e 0FCD     		ldmia	r5!, {r0, r1, r2, r3}
 633 0190 0FC4     		stmia	r4!, {r0, r1, r2, r3}
 634 0192 95E80300 		ldmia	r5, {r0, r1}
 635 0196 2060     		str	r0, [r4]
 636 0198 0434     		adds	r4, r4, #4
 637 019a 2180     		strh	r1, [r4]	@ movhi
 130:.\main.c      ****         usbPutString(wheel_2_str);
 638              		.loc 1 130 0
 639 019c 3B46     		mov	r3, r7
 640 019e 1846     		mov	r0, r3
 641 01a0 FFF7FEFF 		bl	usbPutString
 131:.\main.c      ****         sprintf(wheel_2_str,"Right wheel duty cycle is now:%d\r\n", right_duty_cycle);
ARM GAS  C:\Users\lken274\AppData\Local\Temp\cc82TtV1.s 			page 15


 642              		.loc 1 131 0
 643 01a4 2B4B     		ldr	r3, .L30+36
 644 01a6 1B88     		ldrh	r3, [r3]
 645 01a8 1BB2     		sxth	r3, r3
 646 01aa 3A46     		mov	r2, r7
 647 01ac 1046     		mov	r0, r2
 648 01ae 2A49     		ldr	r1, .L30+40
 649 01b0 1A46     		mov	r2, r3
 650 01b2 FFF7FEFF 		bl	sprintf
 132:.\main.c      ****         usbPutString(wheel_2_str);
 651              		.loc 1 132 0
 652 01b6 3B46     		mov	r3, r7
 653 01b8 1846     		mov	r0, r3
 654 01ba FFF7FEFF 		bl	usbPutString
 133:.\main.c      ****         right_duty_cycle = right_duty_cycle + right_direction;
 655              		.loc 1 133 0
 656 01be 254B     		ldr	r3, .L30+36
 657 01c0 1B88     		ldrh	r3, [r3]
 658 01c2 9AB2     		uxth	r2, r3
 659 01c4 B7F88430 		ldrh	r3, [r7, #132]
 660 01c8 1344     		add	r3, r3, r2
 661 01ca 9BB2     		uxth	r3, r3
 662 01cc 9AB2     		uxth	r2, r3
 663 01ce 214B     		ldr	r3, .L30+36
 664 01d0 1A80     		strh	r2, [r3]	@ movhi
 665              	.L25:
 134:.\main.c      ****     }
 135:.\main.c      ****     
 136:.\main.c      ****     if(right_duty_cycle < 0) right_duty_cycle = 0;
 666              		.loc 1 136 0
 667 01d2 204B     		ldr	r3, .L30+36
 668 01d4 1B88     		ldrh	r3, [r3]
 669 01d6 1BB2     		sxth	r3, r3
 670 01d8 002B     		cmp	r3, #0
 671 01da 02DA     		bge	.L26
 672              		.loc 1 136 0 is_stmt 0 discriminator 1
 673 01dc 1D4B     		ldr	r3, .L30+36
 674 01de 0022     		movs	r2, #0
 675 01e0 1A80     		strh	r2, [r3]	@ movhi
 676              	.L26:
 137:.\main.c      ****     if(left_duty_cycle < 0) left_duty_cycle = 0;
 677              		.loc 1 137 0 is_stmt 1
 678 01e2 194B     		ldr	r3, .L30+24
 679 01e4 1B88     		ldrh	r3, [r3]
 680 01e6 1BB2     		sxth	r3, r3
 681 01e8 002B     		cmp	r3, #0
 682 01ea 02DA     		bge	.L27
 683              		.loc 1 137 0 is_stmt 0 discriminator 1
 684 01ec 164B     		ldr	r3, .L30+24
 685 01ee 0022     		movs	r2, #0
 686 01f0 1A80     		strh	r2, [r3]	@ movhi
 687              	.L27:
 138:.\main.c      ****     if(right_duty_cycle > 100) right_duty_cycle = 100;
 688              		.loc 1 138 0 is_stmt 1
 689 01f2 184B     		ldr	r3, .L30+36
 690 01f4 1B88     		ldrh	r3, [r3]
 691 01f6 1BB2     		sxth	r3, r3
ARM GAS  C:\Users\lken274\AppData\Local\Temp\cc82TtV1.s 			page 16


 692 01f8 642B     		cmp	r3, #100
 693 01fa 02DD     		ble	.L28
 694              		.loc 1 138 0 is_stmt 0 discriminator 1
 695 01fc 154B     		ldr	r3, .L30+36
 696 01fe 6422     		movs	r2, #100
 697 0200 1A80     		strh	r2, [r3]	@ movhi
 698              	.L28:
 139:.\main.c      ****     if(left_duty_cycle > 100) left_duty_cycle = 100;
 699              		.loc 1 139 0 is_stmt 1
 700 0202 114B     		ldr	r3, .L30+24
 701 0204 1B88     		ldrh	r3, [r3]
 702 0206 1BB2     		sxth	r3, r3
 703 0208 642B     		cmp	r3, #100
 704 020a 02DD     		ble	.L29
 705              		.loc 1 139 0 is_stmt 0 discriminator 1
 706 020c 0E4B     		ldr	r3, .L30+24
 707 020e 6422     		movs	r2, #100
 708 0210 1A80     		strh	r2, [r3]	@ movhi
 709              	.L29:
 140:.\main.c      ****     PWM_1_WriteCompare(left_duty_cycle);
 710              		.loc 1 140 0 is_stmt 1
 711 0212 0D4B     		ldr	r3, .L30+24
 712 0214 1B88     		ldrh	r3, [r3]
 713 0216 DBB2     		uxtb	r3, r3
 714 0218 1846     		mov	r0, r3
 715 021a FFF7FEFF 		bl	PWM_1_WriteCompare
 141:.\main.c      ****     PWM_2_WriteCompare(right_duty_cycle);
 716              		.loc 1 141 0
 717 021e 0D4B     		ldr	r3, .L30+36
 718 0220 1B88     		ldrh	r3, [r3]
 719 0222 DBB2     		uxtb	r3, r3
 720 0224 1846     		mov	r0, r3
 721 0226 FFF7FEFF 		bl	PWM_2_WriteCompare
 722              	.L15:
 142:.\main.c      ****         
 143:.\main.c      **** }
 723              		.loc 1 143 0
 724 022a 8837     		adds	r7, r7, #136
 725              		.cfi_def_cfa_offset 16
 726 022c BD46     		mov	sp, r7
 727              		.cfi_def_cfa_register 13
 728              		@ sp needed
 729 022e B0BD     		pop	{r4, r5, r7, pc}
 730              	.L31:
 731              		.align	2
 732              	.L30:
 733 0230 00000000 		.word	flag_calc_wheelspeed
 734 0234 00000000 		.word	quad_count1
 735 0238 00000000 		.word	.LC0
 736 023c 00000000 		.word	quad_count2
 737 0240 18000000 		.word	.LC1
 738 0244 00000000 		.word	leftSpeedLimit
 739 0248 00000000 		.word	left_duty_cycle
 740 024c 00000000 		.word	rightSpeedLimit
 741 0250 30000000 		.word	.LC2
 742 0254 00000000 		.word	right_duty_cycle
 743 0258 58000000 		.word	.LC3
ARM GAS  C:\Users\lken274\AppData\Local\Temp\cc82TtV1.s 			page 17


 744 025c 7C000000 		.word	.LC4
 745              		.cfi_endproc
 746              	.LFE69:
 747              		.size	Quad_Dec_response, .-Quad_Dec_response
 748              		.global	__aeabi_i2f
 749              		.global	__aeabi_fmul
 750              		.global	__aeabi_fadd
 751              		.global	__aeabi_f2iz
 752              		.section	.rodata
 753 00a2 0000     		.align	2
 754              	.LC5:
 755 00a4 42617474 		.ascii	"Battery Voltage: %dmv\012\015\000"
 755      65727920 
 755      566F6C74 
 755      6167653A 
 755      2025646D 
 756              		.section	.text.print_ADC,"ax",%progbits
 757              		.align	2
 758              		.global	print_ADC
 759              		.thumb
 760              		.thumb_func
 761              		.type	print_ADC, %function
 762              	print_ADC:
 763              	.LFB70:
 144:.\main.c      **** 
 145:.\main.c      **** void print_ADC()
 146:.\main.c      **** {
 764              		.loc 1 146 0
 765              		.cfi_startproc
 766              		@ args = 0, pretend = 0, frame = 24
 767              		@ frame_needed = 1, uses_anonymous_args = 0
 768 0000 80B5     		push	{r7, lr}
 769              		.cfi_def_cfa_offset 8
 770              		.cfi_offset 7, -8
 771              		.cfi_offset 14, -4
 772 0002 86B0     		sub	sp, sp, #24
 773              		.cfi_def_cfa_offset 32
 774 0004 00AF     		add	r7, sp, #0
 775              		.cfi_def_cfa_register 7
 147:.\main.c      ****    //usbPutString("HII\n");
 148:.\main.c      ****     if(flag_receive_ADC == 1)
 776              		.loc 1 148 0
 777 0006 1B4B     		ldr	r3, .L35
 778 0008 1B78     		ldrb	r3, [r3]	@ zero_extendqisi2
 779 000a 012B     		cmp	r3, #1
 780 000c 2FD1     		bne	.L32
 781              	.LBB2:
 149:.\main.c      ****     {
 150:.\main.c      ****         //usbPutString("AAA\r\n");
 151:.\main.c      ****         flag_receive_ADC = 0;
 782              		.loc 1 151 0
 783 000e 194B     		ldr	r3, .L35
 784 0010 0022     		movs	r2, #0
 785 0012 1A70     		strb	r2, [r3]
 152:.\main.c      ****         
 153:.\main.c      ****        // int8 channel = ADC_
 154:.\main.c      ****         float scalingFactor = 0.972;
ARM GAS  C:\Users\lken274\AppData\Local\Temp\cc82TtV1.s 			page 18


 786              		.loc 1 154 0
 787 0014 184B     		ldr	r3, .L35+4
 788 0016 7B61     		str	r3, [r7, #20]	@ float
 155:.\main.c      ****         int16 converted_val = (5000 * adc_result) / 4096 * scalingFactor * 2;
 789              		.loc 1 155 0
 790 0018 184B     		ldr	r3, .L35+8
 791 001a 1B88     		ldrh	r3, [r3]
 792 001c 1BB2     		sxth	r3, r3
 793 001e 41F28832 		movw	r2, #5000
 794 0022 02FB03F3 		mul	r3, r2, r3
 795 0026 002B     		cmp	r3, #0
 796 0028 01DA     		bge	.L34
 797 002a 03F6FF73 		addw	r3, r3, #4095
 798              	.L34:
 799 002e 1B13     		asrs	r3, r3, #12
 800 0030 1846     		mov	r0, r3
 801 0032 FFF7FEFF 		bl	__aeabi_i2f
 802 0036 0346     		mov	r3, r0
 803 0038 1846     		mov	r0, r3
 804 003a 7969     		ldr	r1, [r7, #20]	@ float
 805 003c FFF7FEFF 		bl	__aeabi_fmul
 806 0040 0346     		mov	r3, r0
 807 0042 1846     		mov	r0, r3
 808 0044 1946     		mov	r1, r3
 809 0046 FFF7FEFF 		bl	__aeabi_fadd
 810 004a 0346     		mov	r3, r0
 811 004c 1846     		mov	r0, r3
 812 004e FFF7FEFF 		bl	__aeabi_f2iz
 813 0052 0346     		mov	r3, r0
 814 0054 7B82     		strh	r3, [r7, #18]	@ movhi
 156:.\main.c      ****         
 157:.\main.c      ****         char result_str[16];
 158:.\main.c      ****         sprintf(result_str, "Battery Voltage: %dmv\n\r", converted_val);
 815              		.loc 1 158 0
 816 0056 B7F91230 		ldrsh	r3, [r7, #18]
 817 005a 3A46     		mov	r2, r7
 818 005c 1046     		mov	r0, r2
 819 005e 0849     		ldr	r1, .L35+12
 820 0060 1A46     		mov	r2, r3
 821 0062 FFF7FEFF 		bl	sprintf
 159:.\main.c      ****         
 160:.\main.c      ****         usbPutString(result_str);
 822              		.loc 1 160 0
 823 0066 3B46     		mov	r3, r7
 824 0068 1846     		mov	r0, r3
 825 006a FFF7FEFF 		bl	usbPutString
 826              	.L32:
 827              	.LBE2:
 161:.\main.c      ****     }
 162:.\main.c      **** }
 828              		.loc 1 162 0
 829 006e 1837     		adds	r7, r7, #24
 830              		.cfi_def_cfa_offset 8
 831 0070 BD46     		mov	sp, r7
 832              		.cfi_def_cfa_register 13
 833              		@ sp needed
 834 0072 80BD     		pop	{r7, pc}
ARM GAS  C:\Users\lken274\AppData\Local\Temp\cc82TtV1.s 			page 19


 835              	.L36:
 836              		.align	2
 837              	.L35:
 838 0074 00000000 		.word	flag_receive_ADC
 839 0078 FED4783F 		.word	1064883454
 840 007c 00000000 		.word	adc_result
 841 0080 A4000000 		.word	.LC5
 842              		.cfi_endproc
 843              	.LFE70:
 844              		.size	print_ADC, .-print_ADC
 845              		.section	.text.cycle_PWM,"ax",%progbits
 846              		.align	2
 847              		.global	cycle_PWM
 848              		.thumb
 849              		.thumb_func
 850              		.type	cycle_PWM, %function
 851              	cycle_PWM:
 852              	.LFB71:
 163:.\main.c      **** 
 164:.\main.c      **** 
 165:.\main.c      **** //PWM:
 166:.\main.c      **** void cycle_PWM()
 167:.\main.c      **** {
 853              		.loc 1 167 0
 854              		.cfi_startproc
 855              		@ args = 0, pretend = 0, frame = 8
 856              		@ frame_needed = 1, uses_anonymous_args = 0
 857 0000 80B5     		push	{r7, lr}
 858              		.cfi_def_cfa_offset 8
 859              		.cfi_offset 7, -8
 860              		.cfi_offset 14, -4
 861 0002 82B0     		sub	sp, sp, #8
 862              		.cfi_def_cfa_offset 16
 863 0004 00AF     		add	r7, sp, #0
 864              		.cfi_def_cfa_register 7
 168:.\main.c      ****     uint16 fluct;
 169:.\main.c      ****     if (direction == 0){
 865              		.loc 1 169 0
 866 0006 3A4B     		ldr	r3, .L48
 867 0008 1B78     		ldrb	r3, [r3]	@ zero_extendqisi2
 868 000a 002B     		cmp	r3, #0
 869 000c 2CD1     		bne	.L38
 170:.\main.c      ****         for(fluct = 30; fluct < 70; fluct++)
 870              		.loc 1 170 0
 871 000e 1E23     		movs	r3, #30
 872 0010 FB80     		strh	r3, [r7, #6]	@ movhi
 873 0012 0FE0     		b	.L39
 874              	.L40:
 171:.\main.c      ****         {
 172:.\main.c      ****             PWM_1_WriteCompare(fluct);
 875              		.loc 1 172 0 discriminator 3
 876 0014 FB88     		ldrh	r3, [r7, #6]	@ movhi
 877 0016 DBB2     		uxtb	r3, r3
 878 0018 1846     		mov	r0, r3
 879 001a FFF7FEFF 		bl	PWM_1_WriteCompare
 173:.\main.c      ****             PWM_2_WriteCompare(fluct);
 880              		.loc 1 173 0 discriminator 3
ARM GAS  C:\Users\lken274\AppData\Local\Temp\cc82TtV1.s 			page 20


 881 001e FB88     		ldrh	r3, [r7, #6]	@ movhi
 882 0020 DBB2     		uxtb	r3, r3
 883 0022 1846     		mov	r0, r3
 884 0024 FFF7FEFF 		bl	PWM_2_WriteCompare
 174:.\main.c      ****             CyDelay(30);
 885              		.loc 1 174 0 discriminator 3
 886 0028 1E20     		movs	r0, #30
 887 002a FFF7FEFF 		bl	CyDelay
 170:.\main.c      ****         {
 888              		.loc 1 170 0 discriminator 3
 889 002e FB88     		ldrh	r3, [r7, #6]
 890 0030 0133     		adds	r3, r3, #1
 891 0032 FB80     		strh	r3, [r7, #6]	@ movhi
 892              	.L39:
 170:.\main.c      ****         {
 893              		.loc 1 170 0 is_stmt 0 discriminator 1
 894 0034 FB88     		ldrh	r3, [r7, #6]
 895 0036 452B     		cmp	r3, #69
 896 0038 ECD9     		bls	.L40
 175:.\main.c      ****         }
 176:.\main.c      ****         
 177:.\main.c      ****         for(fluct = 70; fluct > 30; fluct--)
 897              		.loc 1 177 0 is_stmt 1
 898 003a 4623     		movs	r3, #70
 899 003c FB80     		strh	r3, [r7, #6]	@ movhi
 900 003e 0FE0     		b	.L41
 901              	.L42:
 178:.\main.c      ****         {
 179:.\main.c      ****             PWM_1_WriteCompare(fluct);
 902              		.loc 1 179 0 discriminator 3
 903 0040 FB88     		ldrh	r3, [r7, #6]	@ movhi
 904 0042 DBB2     		uxtb	r3, r3
 905 0044 1846     		mov	r0, r3
 906 0046 FFF7FEFF 		bl	PWM_1_WriteCompare
 180:.\main.c      ****             PWM_2_WriteCompare(fluct);
 907              		.loc 1 180 0 discriminator 3
 908 004a FB88     		ldrh	r3, [r7, #6]	@ movhi
 909 004c DBB2     		uxtb	r3, r3
 910 004e 1846     		mov	r0, r3
 911 0050 FFF7FEFF 		bl	PWM_2_WriteCompare
 181:.\main.c      ****             CyDelay(30);
 912              		.loc 1 181 0 discriminator 3
 913 0054 1E20     		movs	r0, #30
 914 0056 FFF7FEFF 		bl	CyDelay
 177:.\main.c      ****         {
 915              		.loc 1 177 0 discriminator 3
 916 005a FB88     		ldrh	r3, [r7, #6]
 917 005c 013B     		subs	r3, r3, #1
 918 005e FB80     		strh	r3, [r7, #6]	@ movhi
 919              	.L41:
 177:.\main.c      ****         {
 920              		.loc 1 177 0 is_stmt 0 discriminator 1
 921 0060 FB88     		ldrh	r3, [r7, #6]
 922 0062 1E2B     		cmp	r3, #30
 923 0064 ECD8     		bhi	.L42
 924 0066 2BE0     		b	.L43
 925              	.L38:
ARM GAS  C:\Users\lken274\AppData\Local\Temp\cc82TtV1.s 			page 21


 182:.\main.c      ****         }
 183:.\main.c      ****     } else {
 184:.\main.c      ****         for(fluct = 70; fluct > 30; fluct--)
 926              		.loc 1 184 0 is_stmt 1
 927 0068 4623     		movs	r3, #70
 928 006a FB80     		strh	r3, [r7, #6]	@ movhi
 929 006c 0FE0     		b	.L44
 930              	.L45:
 185:.\main.c      ****         {
 186:.\main.c      ****             PWM_1_WriteCompare(fluct);
 931              		.loc 1 186 0 discriminator 3
 932 006e FB88     		ldrh	r3, [r7, #6]	@ movhi
 933 0070 DBB2     		uxtb	r3, r3
 934 0072 1846     		mov	r0, r3
 935 0074 FFF7FEFF 		bl	PWM_1_WriteCompare
 187:.\main.c      ****             PWM_2_WriteCompare(fluct);
 936              		.loc 1 187 0 discriminator 3
 937 0078 FB88     		ldrh	r3, [r7, #6]	@ movhi
 938 007a DBB2     		uxtb	r3, r3
 939 007c 1846     		mov	r0, r3
 940 007e FFF7FEFF 		bl	PWM_2_WriteCompare
 188:.\main.c      ****             CyDelay(30);
 941              		.loc 1 188 0 discriminator 3
 942 0082 1E20     		movs	r0, #30
 943 0084 FFF7FEFF 		bl	CyDelay
 184:.\main.c      ****         {
 944              		.loc 1 184 0 discriminator 3
 945 0088 FB88     		ldrh	r3, [r7, #6]
 946 008a 013B     		subs	r3, r3, #1
 947 008c FB80     		strh	r3, [r7, #6]	@ movhi
 948              	.L44:
 184:.\main.c      ****         {
 949              		.loc 1 184 0 is_stmt 0 discriminator 1
 950 008e FB88     		ldrh	r3, [r7, #6]
 951 0090 1E2B     		cmp	r3, #30
 952 0092 ECD8     		bhi	.L45
 189:.\main.c      ****         }
 190:.\main.c      ****         
 191:.\main.c      ****         for(fluct = 30; fluct < 70; fluct++)
 953              		.loc 1 191 0 is_stmt 1
 954 0094 1E23     		movs	r3, #30
 955 0096 FB80     		strh	r3, [r7, #6]	@ movhi
 956 0098 0FE0     		b	.L46
 957              	.L47:
 192:.\main.c      ****         {
 193:.\main.c      ****             PWM_1_WriteCompare(fluct);
 958              		.loc 1 193 0 discriminator 3
 959 009a FB88     		ldrh	r3, [r7, #6]	@ movhi
 960 009c DBB2     		uxtb	r3, r3
 961 009e 1846     		mov	r0, r3
 962 00a0 FFF7FEFF 		bl	PWM_1_WriteCompare
 194:.\main.c      ****             PWM_2_WriteCompare(fluct);
 963              		.loc 1 194 0 discriminator 3
 964 00a4 FB88     		ldrh	r3, [r7, #6]	@ movhi
 965 00a6 DBB2     		uxtb	r3, r3
 966 00a8 1846     		mov	r0, r3
 967 00aa FFF7FEFF 		bl	PWM_2_WriteCompare
ARM GAS  C:\Users\lken274\AppData\Local\Temp\cc82TtV1.s 			page 22


 195:.\main.c      ****             CyDelay(30);
 968              		.loc 1 195 0 discriminator 3
 969 00ae 1E20     		movs	r0, #30
 970 00b0 FFF7FEFF 		bl	CyDelay
 191:.\main.c      ****         {
 971              		.loc 1 191 0 discriminator 3
 972 00b4 FB88     		ldrh	r3, [r7, #6]
 973 00b6 0133     		adds	r3, r3, #1
 974 00b8 FB80     		strh	r3, [r7, #6]	@ movhi
 975              	.L46:
 191:.\main.c      ****         {
 976              		.loc 1 191 0 is_stmt 0 discriminator 1
 977 00ba FB88     		ldrh	r3, [r7, #6]
 978 00bc 452B     		cmp	r3, #69
 979 00be ECD9     		bls	.L47
 980              	.L43:
 196:.\main.c      ****         }
 197:.\main.c      ****     }
 198:.\main.c      ****     direction = !direction;
 981              		.loc 1 198 0 is_stmt 1
 982 00c0 0B4B     		ldr	r3, .L48
 983 00c2 1B78     		ldrb	r3, [r3]	@ zero_extendqisi2
 984 00c4 002B     		cmp	r3, #0
 985 00c6 0CBF     		ite	eq
 986 00c8 0123     		moveq	r3, #1
 987 00ca 0023     		movne	r3, #0
 988 00cc DBB2     		uxtb	r3, r3
 989 00ce 1A46     		mov	r2, r3
 990 00d0 074B     		ldr	r3, .L48
 991 00d2 1A70     		strb	r2, [r3]
 199:.\main.c      ****     M1_IN2_Write(direction);
 992              		.loc 1 199 0
 993 00d4 064B     		ldr	r3, .L48
 994 00d6 1B78     		ldrb	r3, [r3]	@ zero_extendqisi2
 995 00d8 1846     		mov	r0, r3
 996 00da FFF7FEFF 		bl	M1_IN2_Write
 200:.\main.c      ****     M2_IN2_Write(direction);
 997              		.loc 1 200 0
 998 00de 044B     		ldr	r3, .L48
 999 00e0 1B78     		ldrb	r3, [r3]	@ zero_extendqisi2
 1000 00e2 1846     		mov	r0, r3
 1001 00e4 FFF7FEFF 		bl	M2_IN2_Write
 201:.\main.c      **** }
 1002              		.loc 1 201 0
 1003 00e8 0837     		adds	r7, r7, #8
 1004              		.cfi_def_cfa_offset 8
 1005 00ea BD46     		mov	sp, r7
 1006              		.cfi_def_cfa_register 13
 1007              		@ sp needed
 1008 00ec 80BD     		pop	{r7, pc}
 1009              	.L49:
 1010 00ee 00BF     		.align	2
 1011              	.L48:
 1012 00f0 00000000 		.word	direction
 1013              		.cfi_endproc
 1014              	.LFE71:
 1015              		.size	cycle_PWM, .-cycle_PWM
ARM GAS  C:\Users\lken274\AppData\Local\Temp\cc82TtV1.s 			page 23


 1016              		.section	.text.main,"ax",%progbits
 1017              		.align	2
 1018              		.global	main
 1019              		.thumb
 1020              		.thumb_func
 1021              		.type	main, %function
 1022              	main:
 1023              	.LFB72:
 202:.\main.c      **** 
 203:.\main.c      **** int main()
 204:.\main.c      **** {  
 1024              		.loc 1 204 0
 1025              		.cfi_startproc
 1026              		@ args = 0, pretend = 0, frame = 0
 1027              		@ frame_needed = 1, uses_anonymous_args = 0
 1028 0000 80B5     		push	{r7, lr}
 1029              		.cfi_def_cfa_offset 8
 1030              		.cfi_offset 7, -8
 1031              		.cfi_offset 14, -4
 1032 0002 00AF     		add	r7, sp, #0
 1033              		.cfi_def_cfa_register 7
 205:.\main.c      **** 
 206:.\main.c      **** // -------------------------------------------------------------------------------MAIN-------------
 207:.\main.c      **** // ----- INITIALIZATIONS ----------
 208:.\main.c      ****     CYGlobalIntEnable;
 1034              		.loc 1 208 0
 1035              	@ 208 ".\main.c" 1
 1036 0004 62B6     		CPSIE   i
 1037              	@ 0 "" 2
 209:.\main.c      ****     if(ENABLE_PWM)
 210:.\main.c      ****     {
 211:.\main.c      ****         PWM_1_Start();// starting the pwm
 1038              		.loc 1 211 0
 1039              		.thumb
 1040 0006 FFF7FEFF 		bl	PWM_1_Start
 212:.\main.c      ****         PWM_2_Start();// starting the pwm
 1041              		.loc 1 212 0
 1042 000a FFF7FEFF 		bl	PWM_2_Start
 213:.\main.c      ****     }
 214:.\main.c      ****     
 215:.\main.c      ****     if(ENABLE_ADC)
 216:.\main.c      ****     {
 217:.\main.c      ****         ADC_Start();
 1043              		.loc 1 217 0
 1044 000e FFF7FEFF 		bl	ADC_Start
 218:.\main.c      ****         isr_eoc_StartEx(adc_isr);
 1045              		.loc 1 218 0
 1046 0012 1348     		ldr	r0, .L53
 1047 0014 FFF7FEFF 		bl	isr_eoc_StartEx
 219:.\main.c      ****         ADC_StartConvert();
 1048              		.loc 1 219 0
 1049 0018 FFF7FEFF 		bl	ADC_StartConvert
 220:.\main.c      ****     }
 221:.\main.c      ****     
 222:.\main.c      ****     if (ENABLE_QUAD)
 223:.\main.c      ****     {
 224:.\main.c      ****         QuadDec_M1_Start();
ARM GAS  C:\Users\lken274\AppData\Local\Temp\cc82TtV1.s 			page 24


 1050              		.loc 1 224 0
 1051 001c FFF7FEFF 		bl	QuadDec_M1_Start
 225:.\main.c      ****         QuadDec_M2_Start();
 1052              		.loc 1 225 0
 1053 0020 FFF7FEFF 		bl	QuadDec_M2_Start
 226:.\main.c      ****         
 227:.\main.c      ****         isr_quad1_StartEx(isr_quad1);
 1054              		.loc 1 227 0
 1055 0024 0F48     		ldr	r0, .L53+4
 1056 0026 FFF7FEFF 		bl	isr_quad1_StartEx
 228:.\main.c      ****         
 229:.\main.c      ****         Timer_1_Start();
 1057              		.loc 1 229 0
 1058 002a FFF7FEFF 		bl	Timer_1_Start
 230:.\main.c      ****         
 231:.\main.c      ****         //isr_quad1_Start();
 232:.\main.c      ****     }
 233:.\main.c      ****     
 234:.\main.c      ****     if(ENABLE_STOP){
 235:.\main.c      ****         isr_OnLine_StartEx(Stop_on_line);
 1059              		.loc 1 235 0
 1060 002e 0E48     		ldr	r0, .L53+8
 1061 0030 FFF7FEFF 		bl	isr_OnLine_StartEx
 236:.\main.c      ****         isr_button_StartEx(button);
 1062              		.loc 1 236 0
 1063 0034 0D48     		ldr	r0, .L53+12
 1064 0036 FFF7FEFF 		bl	isr_button_StartEx
 237:.\main.c      ****     }
 238:.\main.c      **** 
 239:.\main.c      ****     // ------USB SETUP ----------------    
 240:.\main.c      ****     if (USE_USB){    
 241:.\main.c      ****         USBUART_Start(0,USBUART_5V_OPERATION);
 1065              		.loc 1 241 0
 1066 003a 0020     		movs	r0, #0
 1067 003c 0121     		movs	r1, #1
 1068 003e FFF7FEFF 		bl	USBUART_Start
 242:.\main.c      ****         if (USBUART_GetConfiguration())
 1069              		.loc 1 242 0
 1070 0042 FFF7FEFF 		bl	USBUART_GetConfiguration
 1071 0046 0346     		mov	r3, r0
 1072 0048 002B     		cmp	r3, #0
 1073 004a 01D0     		beq	.L51
 243:.\main.c      ****             {
 244:.\main.c      ****                  USBUART_CDC_Init();
 1074              		.loc 1 244 0
 1075 004c FFF7FEFF 		bl	USBUART_CDC_Init
 1076              	.L51:
 245:.\main.c      ****             }
 246:.\main.c      ****     }
 247:.\main.c      ****     
 248:.\main.c      ****     RF_BT_SELECT_Write(0);
 1077              		.loc 1 248 0
 1078 0050 0020     		movs	r0, #0
 1079 0052 FFF7FEFF 		bl	RF_BT_SELECT_Write
 1080              	.L52:
 249:.\main.c      **** 
 250:.\main.c      ****     //usbPutString("Started");
ARM GAS  C:\Users\lken274\AppData\Local\Temp\cc82TtV1.s 			page 25


 251:.\main.c      ****     for(;;)
 252:.\main.c      ****     {
 253:.\main.c      ****         /* Place your application code here. */
 254:.\main.c      ****         if(ENABLE_PWM && ENABLE_CYCLE) cycle_PWM();
 255:.\main.c      ****         if(ENABLE_ADC) print_ADC();
 1081              		.loc 1 255 0
 1082 0056 FFF7FEFF 		bl	print_ADC
 256:.\main.c      ****         if(ENABLE_QUAD) Quad_Dec_response();
 1083              		.loc 1 256 0
 1084 005a FFF7FEFF 		bl	Quad_Dec_response
 257:.\main.c      ****         
 258:.\main.c      ****         //handle_usb();        
 259:.\main.c      ****     }   
 1085              		.loc 1 259 0
 1086 005e FAE7     		b	.L52
 1087              	.L54:
 1088              		.align	2
 1089              	.L53:
 1090 0060 00000000 		.word	adc_isr
 1091 0064 00000000 		.word	isr_quad1
 1092 0068 00000000 		.word	Stop_on_line
 1093 006c 00000000 		.word	button
 1094              		.cfi_endproc
 1095              	.LFE72:
 1096              		.size	main, .-main
 1097              		.section	.text.usbPutString,"ax",%progbits
 1098              		.align	2
 1099              		.global	usbPutString
 1100              		.thumb
 1101              		.thumb_func
 1102              		.type	usbPutString, %function
 1103              	usbPutString:
 1104              	.LFB73:
 260:.\main.c      **** }
 261:.\main.c      **** //* ========================================
 262:.\main.c      **** void usbPutString(char *s)
 263:.\main.c      **** {
 1105              		.loc 1 263 0
 1106              		.cfi_startproc
 1107              		@ args = 0, pretend = 0, frame = 16
 1108              		@ frame_needed = 1, uses_anonymous_args = 0
 1109 0000 80B5     		push	{r7, lr}
 1110              		.cfi_def_cfa_offset 8
 1111              		.cfi_offset 7, -8
 1112              		.cfi_offset 14, -4
 1113 0002 84B0     		sub	sp, sp, #16
 1114              		.cfi_def_cfa_offset 24
 1115 0004 00AF     		add	r7, sp, #0
 1116              		.cfi_def_cfa_register 7
 1117 0006 7860     		str	r0, [r7, #4]
 264:.\main.c      **** // !! Assumes that *s is a string with allocated space >=64 chars     
 265:.\main.c      **** //  Since USB implementation retricts data packets to 64 chars, this function truncates the
 266:.\main.c      **** //  length to 62 char (63rd char is a '!')
 267:.\main.c      ****     if (USE_USB && portOpen)    
 1118              		.loc 1 267 0
 1119 0008 154B     		ldr	r3, .L59
 1120 000a 1B78     		ldrb	r3, [r3]	@ zero_extendqisi2
ARM GAS  C:\Users\lken274\AppData\Local\Temp\cc82TtV1.s 			page 26


 1121 000c 002B     		cmp	r3, #0
 1122 000e 23D0     		beq	.L55
 1123              	.LBB3:
 268:.\main.c      ****     {
 269:.\main.c      ****             uint32 cnt = 0;
 1124              		.loc 1 269 0
 1125 0010 0023     		movs	r3, #0
 1126 0012 FB60     		str	r3, [r7, #12]
 270:.\main.c      ****             while (USBUART_CDCIsReady() == 0)
 1127              		.loc 1 270 0
 1128 0014 0AE0     		b	.L57
 1129              	.L58:
 271:.\main.c      ****             {
 272:.\main.c      ****                 cnt++;
 1130              		.loc 1 272 0
 1131 0016 FB68     		ldr	r3, [r7, #12]
 1132 0018 0133     		adds	r3, r3, #1
 1133 001a FB60     		str	r3, [r7, #12]
 273:.\main.c      ****                 if(cnt == 3000000){
 1134              		.loc 1 273 0
 1135 001c FB68     		ldr	r3, [r7, #12]
 1136 001e 114A     		ldr	r2, .L59+4
 1137 0020 9342     		cmp	r3, r2
 1138 0022 03D1     		bne	.L57
 274:.\main.c      ****                     portOpen = 0;
 1139              		.loc 1 274 0
 1140 0024 0E4B     		ldr	r3, .L59
 1141 0026 0022     		movs	r2, #0
 1142 0028 1A70     		strb	r2, [r3]
 275:.\main.c      ****                     return;
 1143              		.loc 1 275 0
 1144 002a 15E0     		b	.L55
 1145              	.L57:
 270:.\main.c      ****             {
 1146              		.loc 1 270 0
 1147 002c FFF7FEFF 		bl	USBUART_CDCIsReady
 1148 0030 0346     		mov	r3, r0
 1149 0032 002B     		cmp	r3, #0
 1150 0034 EFD0     		beq	.L58
 276:.\main.c      ****                 }
 277:.\main.c      ****             }
 278:.\main.c      ****             s[63]='\0';
 1151              		.loc 1 278 0
 1152 0036 7B68     		ldr	r3, [r7, #4]
 1153 0038 3F33     		adds	r3, r3, #63
 1154 003a 0022     		movs	r2, #0
 1155 003c 1A70     		strb	r2, [r3]
 279:.\main.c      ****             s[62]='!';
 1156              		.loc 1 279 0
 1157 003e 7B68     		ldr	r3, [r7, #4]
 1158 0040 3E33     		adds	r3, r3, #62
 1159 0042 2122     		movs	r2, #33
 1160 0044 1A70     		strb	r2, [r3]
 280:.\main.c      ****             USBUART_PutData((uint8*)s,strlen(s));
 1161              		.loc 1 280 0
 1162 0046 7868     		ldr	r0, [r7, #4]
 1163 0048 FFF7FEFF 		bl	strlen
ARM GAS  C:\Users\lken274\AppData\Local\Temp\cc82TtV1.s 			page 27


 1164 004c 0346     		mov	r3, r0
 1165 004e 9BB2     		uxth	r3, r3
 1166 0050 7868     		ldr	r0, [r7, #4]
 1167 0052 1946     		mov	r1, r3
 1168 0054 FFF7FEFF 		bl	USBUART_PutData
 1169              	.L55:
 1170              	.LBE3:
 281:.\main.c      ****     }
 282:.\main.c      **** }
 1171              		.loc 1 282 0
 1172 0058 1037     		adds	r7, r7, #16
 1173              		.cfi_def_cfa_offset 8
 1174 005a BD46     		mov	sp, r7
 1175              		.cfi_def_cfa_register 13
 1176              		@ sp needed
 1177 005c 80BD     		pop	{r7, pc}
 1178              	.L60:
 1179 005e 00BF     		.align	2
 1180              	.L59:
 1181 0060 00000000 		.word	portOpen
 1182 0064 C0C62D00 		.word	3000000
 1183              		.cfi_endproc
 1184              	.LFE73:
 1185              		.size	usbPutString, .-usbPutString
 1186              		.section	.text.usbPutChar,"ax",%progbits
 1187              		.align	2
 1188              		.global	usbPutChar
 1189              		.thumb
 1190              		.thumb_func
 1191              		.type	usbPutChar, %function
 1192              	usbPutChar:
 1193              	.LFB74:
 283:.\main.c      **** //* ========================================
 284:.\main.c      **** void usbPutChar(char c)
 285:.\main.c      **** {
 1194              		.loc 1 285 0
 1195              		.cfi_startproc
 1196              		@ args = 0, pretend = 0, frame = 16
 1197              		@ frame_needed = 1, uses_anonymous_args = 0
 1198 0000 80B5     		push	{r7, lr}
 1199              		.cfi_def_cfa_offset 8
 1200              		.cfi_offset 7, -8
 1201              		.cfi_offset 14, -4
 1202 0002 84B0     		sub	sp, sp, #16
 1203              		.cfi_def_cfa_offset 24
 1204 0004 00AF     		add	r7, sp, #0
 1205              		.cfi_def_cfa_register 7
 1206 0006 0346     		mov	r3, r0
 1207 0008 FB71     		strb	r3, [r7, #7]
 286:.\main.c      ****     if (USE_USB && portOpen)    
 1208              		.loc 1 286 0
 1209 000a 0F4B     		ldr	r3, .L65
 1210 000c 1B78     		ldrb	r3, [r3]	@ zero_extendqisi2
 1211 000e 002B     		cmp	r3, #0
 1212 0010 16D0     		beq	.L61
 1213              	.LBB4:
 287:.\main.c      ****     {    
ARM GAS  C:\Users\lken274\AppData\Local\Temp\cc82TtV1.s 			page 28


 288:.\main.c      ****         uint32 cnt = 0;
 1214              		.loc 1 288 0
 1215 0012 0023     		movs	r3, #0
 1216 0014 FB60     		str	r3, [r7, #12]
 289:.\main.c      ****         while (USBUART_CDCIsReady() == 0){
 1217              		.loc 1 289 0
 1218 0016 0AE0     		b	.L63
 1219              	.L64:
 290:.\main.c      ****             cnt++;
 1220              		.loc 1 290 0
 1221 0018 FB68     		ldr	r3, [r7, #12]
 1222 001a 0133     		adds	r3, r3, #1
 1223 001c FB60     		str	r3, [r7, #12]
 291:.\main.c      ****             if(cnt == 3000000){
 1224              		.loc 1 291 0
 1225 001e FB68     		ldr	r3, [r7, #12]
 1226 0020 0A4A     		ldr	r2, .L65+4
 1227 0022 9342     		cmp	r3, r2
 1228 0024 03D1     		bne	.L63
 292:.\main.c      ****                 portOpen = 0;
 1229              		.loc 1 292 0
 1230 0026 084B     		ldr	r3, .L65
 1231 0028 0022     		movs	r2, #0
 1232 002a 1A70     		strb	r2, [r3]
 293:.\main.c      ****                 return;
 1233              		.loc 1 293 0
 1234 002c 08E0     		b	.L61
 1235              	.L63:
 289:.\main.c      ****             cnt++;
 1236              		.loc 1 289 0
 1237 002e FFF7FEFF 		bl	USBUART_CDCIsReady
 1238 0032 0346     		mov	r3, r0
 1239 0034 002B     		cmp	r3, #0
 1240 0036 EFD0     		beq	.L64
 294:.\main.c      ****             }
 295:.\main.c      ****         }
 296:.\main.c      ****         USBUART_PutChar(c);
 1241              		.loc 1 296 0
 1242 0038 FB79     		ldrb	r3, [r7, #7]	@ zero_extendqisi2
 1243 003a 1846     		mov	r0, r3
 1244 003c FFF7FEFF 		bl	USBUART_PutChar
 1245              	.L61:
 1246              	.LBE4:
 297:.\main.c      ****     }    
 298:.\main.c      **** }
 1247              		.loc 1 298 0
 1248 0040 1037     		adds	r7, r7, #16
 1249              		.cfi_def_cfa_offset 8
 1250 0042 BD46     		mov	sp, r7
 1251              		.cfi_def_cfa_register 13
 1252              		@ sp needed
 1253 0044 80BD     		pop	{r7, pc}
 1254              	.L66:
 1255 0046 00BF     		.align	2
 1256              	.L65:
 1257 0048 00000000 		.word	portOpen
 1258 004c C0C62D00 		.word	3000000
ARM GAS  C:\Users\lken274\AppData\Local\Temp\cc82TtV1.s 			page 29


 1259              		.cfi_endproc
 1260              	.LFE74:
 1261              		.size	usbPutChar, .-usbPutChar
 1262              		.section	.text.uart_set_PWM,"ax",%progbits
 1263              		.align	2
 1264              		.global	uart_set_PWM
 1265              		.thumb
 1266              		.thumb_func
 1267              		.type	uart_set_PWM, %function
 1268              	uart_set_PWM:
 1269              	.LFB75:
 299:.\main.c      **** //* ========================================
 300:.\main.c      **** 
 301:.\main.c      **** void uart_set_PWM()
 302:.\main.c      **** {
 1270              		.loc 1 302 0
 1271              		.cfi_startproc
 1272              		@ args = 0, pretend = 0, frame = 8
 1273              		@ frame_needed = 1, uses_anonymous_args = 0
 1274 0000 80B5     		push	{r7, lr}
 1275              		.cfi_def_cfa_offset 8
 1276              		.cfi_offset 7, -8
 1277              		.cfi_offset 14, -4
 1278 0002 82B0     		sub	sp, sp, #8
 1279              		.cfi_def_cfa_offset 16
 1280 0004 00AF     		add	r7, sp, #0
 1281              		.cfi_def_cfa_register 7
 303:.\main.c      ****     uint8 c;
 304:.\main.c      ****      if (USBUART_DataIsReady() != 0)
 1282              		.loc 1 304 0
 1283 0006 FFF7FEFF 		bl	USBUART_DataIsReady
 1284 000a 0346     		mov	r3, r0
 1285 000c 002B     		cmp	r3, #0
 1286 000e 11D0     		beq	.L67
 305:.\main.c      ****        {  
 306:.\main.c      ****             c = USBUART_GetChar();
 1287              		.loc 1 306 0
 1288 0010 FFF7FEFF 		bl	USBUART_GetChar
 1289 0014 0346     		mov	r3, r0
 1290 0016 FB71     		strb	r3, [r7, #7]
 307:.\main.c      ****             
 308:.\main.c      ****             if(c <= 100 && c > 0){
 1291              		.loc 1 308 0
 1292 0018 FB79     		ldrb	r3, [r7, #7]	@ zero_extendqisi2
 1293 001a 642B     		cmp	r3, #100
 1294 001c 0AD8     		bhi	.L67
 1295              		.loc 1 308 0 is_stmt 0 discriminator 1
 1296 001e FB79     		ldrb	r3, [r7, #7]	@ zero_extendqisi2
 1297 0020 002B     		cmp	r3, #0
 1298 0022 07D0     		beq	.L67
 309:.\main.c      ****                 PWM_1_WriteCompare(c);
 1299              		.loc 1 309 0 is_stmt 1
 1300 0024 FB79     		ldrb	r3, [r7, #7]	@ zero_extendqisi2
 1301 0026 1846     		mov	r0, r3
 1302 0028 FFF7FEFF 		bl	PWM_1_WriteCompare
 310:.\main.c      ****                 usbPutString(c);
 1303              		.loc 1 310 0
ARM GAS  C:\Users\lken274\AppData\Local\Temp\cc82TtV1.s 			page 30


 1304 002c FB79     		ldrb	r3, [r7, #7]	@ zero_extendqisi2
 1305 002e 1846     		mov	r0, r3
 1306 0030 FFF7FEFF 		bl	usbPutString
 1307              	.L67:
 311:.\main.c      ****             }
 312:.\main.c      ****        }
 313:.\main.c      **** }
 1308              		.loc 1 313 0
 1309 0034 0837     		adds	r7, r7, #8
 1310              		.cfi_def_cfa_offset 8
 1311 0036 BD46     		mov	sp, r7
 1312              		.cfi_def_cfa_register 13
 1313              		@ sp needed
 1314 0038 80BD     		pop	{r7, pc}
 1315              		.cfi_endproc
 1316              	.LFE75:
 1317              		.size	uart_set_PWM, .-uart_set_PWM
 1318 003a 00BF     		.text
 1319              	.Letext0:
 1320              		.file 2 "c:\\program files (x86)\\cypress\\psoc creator\\3.3\\psoc creator\\import\\gnu\\arm\\4.9.
 1321              		.file 3 "c:\\program files (x86)\\cypress\\psoc creator\\3.3\\psoc creator\\import\\gnu\\arm\\4.9.
 1322              		.file 4 "Generated_Source\\PSoC5/cytypes.h"
 1323              		.file 5 ".\\vars.h"
 1324              		.file 6 "Generated_Source\\PSoC5/core_cm3.h"
 1325              		.section	.debug_info,"",%progbits
 1326              	.Ldebug_info0:
 1327 0000 18060000 		.4byte	0x618
 1328 0004 0400     		.2byte	0x4
 1329 0006 00000000 		.4byte	.Ldebug_abbrev0
 1330 000a 04       		.byte	0x4
 1331 000b 01       		.uleb128 0x1
 1332 000c A4010000 		.4byte	.LASF92
 1333 0010 01       		.byte	0x1
 1334 0011 63020000 		.4byte	.LASF93
 1335 0015 FF020000 		.4byte	.LASF94
 1336 0019 00000000 		.4byte	.Ldebug_ranges0+0
 1337 001d 00000000 		.4byte	0
 1338 0021 00000000 		.4byte	.Ldebug_line0
 1339 0025 02       		.uleb128 0x2
 1340 0026 01       		.byte	0x1
 1341 0027 06       		.byte	0x6
 1342 0028 A3020000 		.4byte	.LASF0
 1343 002c 02       		.uleb128 0x2
 1344 002d 01       		.byte	0x1
 1345 002e 08       		.byte	0x8
 1346 002f 72020000 		.4byte	.LASF1
 1347 0033 02       		.uleb128 0x2
 1348 0034 02       		.byte	0x2
 1349 0035 05       		.byte	0x5
 1350 0036 71000000 		.4byte	.LASF2
 1351 003a 02       		.uleb128 0x2
 1352 003b 02       		.byte	0x2
 1353 003c 07       		.byte	0x7
 1354 003d 59030000 		.4byte	.LASF3
 1355 0041 03       		.uleb128 0x3
 1356 0042 3E040000 		.4byte	.LASF11
 1357 0046 02       		.byte	0x2
ARM GAS  C:\Users\lken274\AppData\Local\Temp\cc82TtV1.s 			page 31


 1358 0047 3F       		.byte	0x3f
 1359 0048 4C000000 		.4byte	0x4c
 1360 004c 02       		.uleb128 0x2
 1361 004d 04       		.byte	0x4
 1362 004e 05       		.byte	0x5
 1363 004f 86030000 		.4byte	.LASF4
 1364 0053 02       		.uleb128 0x2
 1365 0054 04       		.byte	0x4
 1366 0055 07       		.byte	0x7
 1367 0056 F3030000 		.4byte	.LASF5
 1368 005a 02       		.uleb128 0x2
 1369 005b 08       		.byte	0x8
 1370 005c 05       		.byte	0x5
 1371 005d 58010000 		.4byte	.LASF6
 1372 0061 02       		.uleb128 0x2
 1373 0062 08       		.byte	0x8
 1374 0063 07       		.byte	0x7
 1375 0064 B7020000 		.4byte	.LASF7
 1376 0068 04       		.uleb128 0x4
 1377 0069 04       		.byte	0x4
 1378 006a 05       		.byte	0x5
 1379 006b 696E7400 		.ascii	"int\000"
 1380 006f 02       		.uleb128 0x2
 1381 0070 04       		.byte	0x4
 1382 0071 07       		.byte	0x7
 1383 0072 D9020000 		.4byte	.LASF8
 1384 0076 02       		.uleb128 0x2
 1385 0077 04       		.byte	0x4
 1386 0078 07       		.byte	0x7
 1387 0079 88000000 		.4byte	.LASF9
 1388 007d 05       		.uleb128 0x5
 1389 007e 04       		.byte	0x4
 1390 007f 83000000 		.4byte	0x83
 1391 0083 02       		.uleb128 0x2
 1392 0084 01       		.byte	0x1
 1393 0085 08       		.byte	0x8
 1394 0086 81030000 		.4byte	.LASF10
 1395 008a 03       		.uleb128 0x3
 1396 008b AF020000 		.4byte	.LASF12
 1397 008f 03       		.byte	0x3
 1398 0090 2C       		.byte	0x2c
 1399 0091 41000000 		.4byte	0x41
 1400 0095 06       		.uleb128 0x6
 1401 0096 0D010000 		.4byte	.LASF13
 1402 009a 04       		.byte	0x4
 1403 009b 9201     		.2byte	0x192
 1404 009d 2C000000 		.4byte	0x2c
 1405 00a1 06       		.uleb128 0x6
 1406 00a2 CB030000 		.4byte	.LASF14
 1407 00a6 04       		.byte	0x4
 1408 00a7 9301     		.2byte	0x193
 1409 00a9 3A000000 		.4byte	0x3a
 1410 00ad 06       		.uleb128 0x6
 1411 00ae EC030000 		.4byte	.LASF15
 1412 00b2 04       		.byte	0x4
 1413 00b3 9401     		.2byte	0x194
 1414 00b5 53000000 		.4byte	0x53
ARM GAS  C:\Users\lken274\AppData\Local\Temp\cc82TtV1.s 			page 32


 1415 00b9 06       		.uleb128 0x6
 1416 00ba 73010000 		.4byte	.LASF16
 1417 00be 04       		.byte	0x4
 1418 00bf 9501     		.2byte	0x195
 1419 00c1 25000000 		.4byte	0x25
 1420 00c5 06       		.uleb128 0x6
 1421 00c6 07010000 		.4byte	.LASF17
 1422 00ca 04       		.byte	0x4
 1423 00cb 9601     		.2byte	0x196
 1424 00cd 33000000 		.4byte	0x33
 1425 00d1 02       		.uleb128 0x2
 1426 00d2 04       		.byte	0x4
 1427 00d3 04       		.byte	0x4
 1428 00d4 52010000 		.4byte	.LASF18
 1429 00d8 02       		.uleb128 0x2
 1430 00d9 08       		.byte	0x8
 1431 00da 04       		.byte	0x4
 1432 00db 1A040000 		.4byte	.LASF19
 1433 00df 07       		.uleb128 0x7
 1434 00e0 77030000 		.4byte	.LASF95
 1435 00e4 20       		.byte	0x20
 1436 00e5 05       		.byte	0x5
 1437 00e6 3F       		.byte	0x3f
 1438 00e7 B8010000 		.4byte	0x1b8
 1439 00eb 08       		.uleb128 0x8
 1440 00ec C5040000 		.4byte	.LASF20
 1441 00f0 05       		.byte	0x5
 1442 00f1 40       		.byte	0x40
 1443 00f2 B9000000 		.4byte	0xb9
 1444 00f6 00       		.byte	0
 1445 00f7 08       		.uleb128 0x8
 1446 00f8 01010000 		.4byte	.LASF21
 1447 00fc 05       		.byte	0x5
 1448 00fd 41       		.byte	0x41
 1449 00fe 95000000 		.4byte	0x95
 1450 0102 01       		.byte	0x1
 1451 0103 08       		.uleb128 0x8
 1452 0104 8F030000 		.4byte	.LASF22
 1453 0108 05       		.byte	0x5
 1454 0109 42       		.byte	0x42
 1455 010a C5000000 		.4byte	0xc5
 1456 010e 02       		.byte	0x2
 1457 010f 08       		.uleb128 0x8
 1458 0110 A2040000 		.4byte	.LASF23
 1459 0114 05       		.byte	0x5
 1460 0115 43       		.byte	0x43
 1461 0116 C5000000 		.4byte	0xc5
 1462 011a 04       		.byte	0x4
 1463 011b 08       		.uleb128 0x8
 1464 011c CA040000 		.4byte	.LASF24
 1465 0120 05       		.byte	0x5
 1466 0121 44       		.byte	0x44
 1467 0122 C5000000 		.4byte	0xc5
 1468 0126 06       		.byte	0x6
 1469 0127 08       		.uleb128 0x8
 1470 0128 9C010000 		.4byte	.LASF25
 1471 012c 05       		.byte	0x5
ARM GAS  C:\Users\lken274\AppData\Local\Temp\cc82TtV1.s 			page 33


 1472 012d 45       		.byte	0x45
 1473 012e C5000000 		.4byte	0xc5
 1474 0132 08       		.byte	0x8
 1475 0133 08       		.uleb128 0x8
 1476 0134 59040000 		.4byte	.LASF26
 1477 0138 05       		.byte	0x5
 1478 0139 46       		.byte	0x46
 1479 013a C5000000 		.4byte	0xc5
 1480 013e 0A       		.byte	0xa
 1481 013f 08       		.uleb128 0x8
 1482 0140 80020000 		.4byte	.LASF27
 1483 0144 05       		.byte	0x5
 1484 0145 47       		.byte	0x47
 1485 0146 C5000000 		.4byte	0xc5
 1486 014a 0C       		.byte	0xc
 1487 014b 08       		.uleb128 0x8
 1488 014c 8F010000 		.4byte	.LASF28
 1489 0150 05       		.byte	0x5
 1490 0151 48       		.byte	0x48
 1491 0152 C5000000 		.4byte	0xc5
 1492 0156 0E       		.byte	0xe
 1493 0157 08       		.uleb128 0x8
 1494 0158 51030000 		.4byte	.LASF29
 1495 015c 05       		.byte	0x5
 1496 015d 49       		.byte	0x49
 1497 015e C5000000 		.4byte	0xc5
 1498 0162 10       		.byte	0x10
 1499 0163 08       		.uleb128 0x8
 1500 0164 9F030000 		.4byte	.LASF30
 1501 0168 05       		.byte	0x5
 1502 0169 4A       		.byte	0x4a
 1503 016a C5000000 		.4byte	0xc5
 1504 016e 12       		.byte	0x12
 1505 016f 08       		.uleb128 0x8
 1506 0170 B4030000 		.4byte	.LASF31
 1507 0174 05       		.byte	0x5
 1508 0175 4B       		.byte	0x4b
 1509 0176 C5000000 		.4byte	0xc5
 1510 017a 14       		.byte	0x14
 1511 017b 08       		.uleb128 0x8
 1512 017c 13010000 		.4byte	.LASF32
 1513 0180 05       		.byte	0x5
 1514 0181 4C       		.byte	0x4c
 1515 0182 C5000000 		.4byte	0xc5
 1516 0186 16       		.byte	0x16
 1517 0187 08       		.uleb128 0x8
 1518 0188 69000000 		.4byte	.LASF33
 1519 018c 05       		.byte	0x5
 1520 018d 4D       		.byte	0x4d
 1521 018e C5000000 		.4byte	0xc5
 1522 0192 18       		.byte	0x18
 1523 0193 08       		.uleb128 0x8
 1524 0194 87010000 		.4byte	.LASF34
 1525 0198 05       		.byte	0x5
 1526 0199 4E       		.byte	0x4e
 1527 019a C5000000 		.4byte	0xc5
 1528 019e 1A       		.byte	0x1a
ARM GAS  C:\Users\lken274\AppData\Local\Temp\cc82TtV1.s 			page 34


 1529 019f 08       		.uleb128 0x8
 1530 01a0 2E030000 		.4byte	.LASF35
 1531 01a4 05       		.byte	0x5
 1532 01a5 4F       		.byte	0x4f
 1533 01a6 C5000000 		.4byte	0xc5
 1534 01aa 1C       		.byte	0x1c
 1535 01ab 08       		.uleb128 0x8
 1536 01ac A7030000 		.4byte	.LASF36
 1537 01b0 05       		.byte	0x5
 1538 01b1 50       		.byte	0x50
 1539 01b2 C5000000 		.4byte	0xc5
 1540 01b6 1E       		.byte	0x1e
 1541 01b7 00       		.byte	0
 1542 01b8 09       		.uleb128 0x9
 1543 01b9 29040000 		.4byte	.LASF57
 1544 01bd 01       		.byte	0x1
 1545 01be 26       		.byte	0x26
 1546 01bf 00000000 		.4byte	.LFB63
 1547 01c3 2C000000 		.4byte	.LFE63-.LFB63
 1548 01c7 01       		.uleb128 0x1
 1549 01c8 9C       		.byte	0x9c
 1550 01c9 EA010000 		.4byte	0x1ea
 1551 01cd 0A       		.uleb128 0xa
 1552 01ce 6C020000 		.4byte	.LASF37
 1553 01d2 01       		.byte	0x1
 1554 01d3 26       		.byte	0x26
 1555 01d4 68000000 		.4byte	0x68
 1556 01d8 02       		.uleb128 0x2
 1557 01d9 91       		.byte	0x91
 1558 01da 74       		.sleb128 -12
 1559 01db 0A       		.uleb128 0xa
 1560 01dc 9A030000 		.4byte	.LASF38
 1561 01e0 01       		.byte	0x1
 1562 01e1 26       		.byte	0x26
 1563 01e2 68000000 		.4byte	0x68
 1564 01e6 02       		.uleb128 0x2
 1565 01e7 91       		.byte	0x91
 1566 01e8 70       		.sleb128 -16
 1567 01e9 00       		.byte	0
 1568 01ea 0B       		.uleb128 0xb
 1569 01eb 89020000 		.4byte	.LASF96
 1570 01ef 01       		.byte	0x1
 1571 01f0 2B       		.byte	0x2b
 1572 01f1 00000000 		.4byte	.LFB64
 1573 01f5 30000000 		.4byte	.LFE64-.LFB64
 1574 01f9 01       		.uleb128 0x1
 1575 01fa 9C       		.byte	0x9c
 1576 01fb 0C       		.uleb128 0xc
 1577 01fc 21040000 		.4byte	.LASF39
 1578 0200 01       		.byte	0x1
 1579 0201 34       		.byte	0x34
 1580 0202 00000000 		.4byte	.LFB65
 1581 0206 20000000 		.4byte	.LFE65-.LFB65
 1582 020a 01       		.uleb128 0x1
 1583 020b 9C       		.byte	0x9c
 1584 020c 0C       		.uleb128 0xc
 1585 020d ED000000 		.4byte	.LASF40
ARM GAS  C:\Users\lken274\AppData\Local\Temp\cc82TtV1.s 			page 35


 1586 0211 01       		.byte	0x1
 1587 0212 3C       		.byte	0x3c
 1588 0213 00000000 		.4byte	.LFB66
 1589 0217 3C000000 		.4byte	.LFE66-.LFB66
 1590 021b 01       		.uleb128 0x1
 1591 021c 9C       		.byte	0x9c
 1592 021d 0C       		.uleb128 0xc
 1593 021e 4E000000 		.4byte	.LASF41
 1594 0222 01       		.byte	0x1
 1595 0223 46       		.byte	0x46
 1596 0224 00000000 		.4byte	.LFB67
 1597 0228 0A000000 		.4byte	.LFE67-.LFB67
 1598 022c 01       		.uleb128 0x1
 1599 022d 9C       		.byte	0x9c
 1600 022e 0C       		.uleb128 0xc
 1601 022f 32020000 		.4byte	.LASF42
 1602 0233 01       		.byte	0x1
 1603 0234 4B       		.byte	0x4b
 1604 0235 00000000 		.4byte	.LFB68
 1605 0239 0E000000 		.4byte	.LFE68-.LFB68
 1606 023d 01       		.uleb128 0x1
 1607 023e 9C       		.byte	0x9c
 1608 023f 0D       		.uleb128 0xd
 1609 0240 91000000 		.4byte	.LASF49
 1610 0244 01       		.byte	0x1
 1611 0245 50       		.byte	0x50
 1612 0246 00000000 		.4byte	.LFB69
 1613 024a 60020000 		.4byte	.LFE69-.LFB69
 1614 024e 01       		.uleb128 0x1
 1615 024f 9C       		.byte	0x9c
 1616 0250 AB020000 		.4byte	0x2ab
 1617 0254 0E       		.uleb128 0xe
 1618 0255 AF000000 		.4byte	.LASF43
 1619 0259 01       		.byte	0x1
 1620 025a 56       		.byte	0x56
 1621 025b AB020000 		.4byte	0x2ab
 1622 025f 03       		.uleb128 0x3
 1623 0260 91       		.byte	0x91
 1624 0261 A87F     		.sleb128 -88
 1625 0263 0E       		.uleb128 0xe
 1626 0264 57020000 		.4byte	.LASF44
 1627 0268 01       		.byte	0x1
 1628 0269 57       		.byte	0x57
 1629 026a AB020000 		.4byte	0x2ab
 1630 026e 03       		.uleb128 0x3
 1631 026f 91       		.byte	0x91
 1632 0270 E87E     		.sleb128 -152
 1633 0272 0E       		.uleb128 0xe
 1634 0273 E6020000 		.4byte	.LASF45
 1635 0277 01       		.byte	0x1
 1636 0278 5E       		.byte	0x5e
 1637 0279 C5000000 		.4byte	0xc5
 1638 027d 02       		.uleb128 0x2
 1639 027e 91       		.byte	0x91
 1640 027f 6A       		.sleb128 -22
 1641 0280 0E       		.uleb128 0xe
 1642 0281 6C030000 		.4byte	.LASF46
ARM GAS  C:\Users\lken274\AppData\Local\Temp\cc82TtV1.s 			page 36


 1643 0285 01       		.byte	0x1
 1644 0286 5F       		.byte	0x5f
 1645 0287 C5000000 		.4byte	0xc5
 1646 028b 02       		.uleb128 0x2
 1647 028c 91       		.byte	0x91
 1648 028d 68       		.sleb128 -24
 1649 028e 0E       		.uleb128 0xe
 1650 028f 43010000 		.4byte	.LASF47
 1651 0293 01       		.byte	0x1
 1652 0294 61       		.byte	0x61
 1653 0295 C5000000 		.4byte	0xc5
 1654 0299 02       		.uleb128 0x2
 1655 029a 91       		.byte	0x91
 1656 029b 6E       		.sleb128 -18
 1657 029c 0E       		.uleb128 0xe
 1658 029d 37030000 		.4byte	.LASF48
 1659 02a1 01       		.byte	0x1
 1660 02a2 62       		.byte	0x62
 1661 02a3 C5000000 		.4byte	0xc5
 1662 02a7 02       		.uleb128 0x2
 1663 02a8 91       		.byte	0x91
 1664 02a9 6C       		.sleb128 -20
 1665 02aa 00       		.byte	0
 1666 02ab 0F       		.uleb128 0xf
 1667 02ac 83000000 		.4byte	0x83
 1668 02b0 BB020000 		.4byte	0x2bb
 1669 02b4 10       		.uleb128 0x10
 1670 02b5 76000000 		.4byte	0x76
 1671 02b9 3F       		.byte	0x3f
 1672 02ba 00       		.byte	0
 1673 02bb 0D       		.uleb128 0xd
 1674 02bc F7000000 		.4byte	.LASF50
 1675 02c0 01       		.byte	0x1
 1676 02c1 91       		.byte	0x91
 1677 02c2 00000000 		.4byte	.LFB70
 1678 02c6 84000000 		.4byte	.LFE70-.LFB70
 1679 02ca 01       		.uleb128 0x1
 1680 02cb 9C       		.byte	0x9c
 1681 02cc 05030000 		.4byte	0x305
 1682 02d0 11       		.uleb128 0x11
 1683 02d1 0E000000 		.4byte	.LBB2
 1684 02d5 60000000 		.4byte	.LBE2-.LBB2
 1685 02d9 0E       		.uleb128 0xe
 1686 02da DE030000 		.4byte	.LASF51
 1687 02de 01       		.byte	0x1
 1688 02df 9A       		.byte	0x9a
 1689 02e0 D1000000 		.4byte	0xd1
 1690 02e4 02       		.uleb128 0x2
 1691 02e5 91       		.byte	0x91
 1692 02e6 74       		.sleb128 -12
 1693 02e7 0E       		.uleb128 0xe
 1694 02e8 0B000000 		.4byte	.LASF52
 1695 02ec 01       		.byte	0x1
 1696 02ed 9B       		.byte	0x9b
 1697 02ee C5000000 		.4byte	0xc5
 1698 02f2 02       		.uleb128 0x2
 1699 02f3 91       		.byte	0x91
ARM GAS  C:\Users\lken274\AppData\Local\Temp\cc82TtV1.s 			page 37


 1700 02f4 72       		.sleb128 -14
 1701 02f5 0E       		.uleb128 0xe
 1702 02f6 BA040000 		.4byte	.LASF53
 1703 02fa 01       		.byte	0x1
 1704 02fb 9D       		.byte	0x9d
 1705 02fc 05030000 		.4byte	0x305
 1706 0300 02       		.uleb128 0x2
 1707 0301 91       		.byte	0x91
 1708 0302 60       		.sleb128 -32
 1709 0303 00       		.byte	0
 1710 0304 00       		.byte	0
 1711 0305 0F       		.uleb128 0xf
 1712 0306 83000000 		.4byte	0x83
 1713 030a 15030000 		.4byte	0x315
 1714 030e 10       		.uleb128 0x10
 1715 030f 76000000 		.4byte	0x76
 1716 0313 0F       		.byte	0xf
 1717 0314 00       		.byte	0
 1718 0315 0D       		.uleb128 0xd
 1719 0316 38000000 		.4byte	.LASF54
 1720 031a 01       		.byte	0x1
 1721 031b A6       		.byte	0xa6
 1722 031c 00000000 		.4byte	.LFB71
 1723 0320 F4000000 		.4byte	.LFE71-.LFB71
 1724 0324 01       		.uleb128 0x1
 1725 0325 9C       		.byte	0x9c
 1726 0326 39030000 		.4byte	0x339
 1727 032a 0E       		.uleb128 0xe
 1728 032b 28030000 		.4byte	.LASF55
 1729 032f 01       		.byte	0x1
 1730 0330 A8       		.byte	0xa8
 1731 0331 A1000000 		.4byte	0xa1
 1732 0335 02       		.uleb128 0x2
 1733 0336 91       		.byte	0x91
 1734 0337 76       		.sleb128 -10
 1735 0338 00       		.byte	0
 1736 0339 12       		.uleb128 0x12
 1737 033a CF000000 		.4byte	.LASF56
 1738 033e 01       		.byte	0x1
 1739 033f CB       		.byte	0xcb
 1740 0340 68000000 		.4byte	0x68
 1741 0344 00000000 		.4byte	.LFB72
 1742 0348 70000000 		.4byte	.LFE72-.LFB72
 1743 034c 01       		.uleb128 0x1
 1744 034d 9C       		.byte	0x9c
 1745 034e 13       		.uleb128 0x13
 1746 034f 66010000 		.4byte	.LASF58
 1747 0353 01       		.byte	0x1
 1748 0354 0601     		.2byte	0x106
 1749 0356 00000000 		.4byte	.LFB73
 1750 035a 68000000 		.4byte	.LFE73-.LFB73
 1751 035e 01       		.uleb128 0x1
 1752 035f 9C       		.byte	0x9c
 1753 0360 8B030000 		.4byte	0x38b
 1754 0364 14       		.uleb128 0x14
 1755 0365 7300     		.ascii	"s\000"
 1756 0367 01       		.byte	0x1
ARM GAS  C:\Users\lken274\AppData\Local\Temp\cc82TtV1.s 			page 38


 1757 0368 0601     		.2byte	0x106
 1758 036a 7D000000 		.4byte	0x7d
 1759 036e 02       		.uleb128 0x2
 1760 036f 91       		.byte	0x91
 1761 0370 6C       		.sleb128 -20
 1762 0371 11       		.uleb128 0x11
 1763 0372 10000000 		.4byte	.LBB3
 1764 0376 48000000 		.4byte	.LBE3-.LBB3
 1765 037a 15       		.uleb128 0x15
 1766 037b 636E7400 		.ascii	"cnt\000"
 1767 037f 01       		.byte	0x1
 1768 0380 0D01     		.2byte	0x10d
 1769 0382 AD000000 		.4byte	0xad
 1770 0386 02       		.uleb128 0x2
 1771 0387 91       		.byte	0x91
 1772 0388 74       		.sleb128 -12
 1773 0389 00       		.byte	0
 1774 038a 00       		.byte	0
 1775 038b 13       		.uleb128 0x13
 1776 038c 00000000 		.4byte	.LASF59
 1777 0390 01       		.byte	0x1
 1778 0391 1C01     		.2byte	0x11c
 1779 0393 00000000 		.4byte	.LFB74
 1780 0397 50000000 		.4byte	.LFE74-.LFB74
 1781 039b 01       		.uleb128 0x1
 1782 039c 9C       		.byte	0x9c
 1783 039d C8030000 		.4byte	0x3c8
 1784 03a1 14       		.uleb128 0x14
 1785 03a2 6300     		.ascii	"c\000"
 1786 03a4 01       		.byte	0x1
 1787 03a5 1C01     		.2byte	0x11c
 1788 03a7 83000000 		.4byte	0x83
 1789 03ab 02       		.uleb128 0x2
 1790 03ac 91       		.byte	0x91
 1791 03ad 6F       		.sleb128 -17
 1792 03ae 11       		.uleb128 0x11
 1793 03af 12000000 		.4byte	.LBB4
 1794 03b3 2E000000 		.4byte	.LBE4-.LBB4
 1795 03b7 15       		.uleb128 0x15
 1796 03b8 636E7400 		.ascii	"cnt\000"
 1797 03bc 01       		.byte	0x1
 1798 03bd 2001     		.2byte	0x120
 1799 03bf AD000000 		.4byte	0xad
 1800 03c3 02       		.uleb128 0x2
 1801 03c4 91       		.byte	0x91
 1802 03c5 74       		.sleb128 -12
 1803 03c6 00       		.byte	0
 1804 03c7 00       		.byte	0
 1805 03c8 16       		.uleb128 0x16
 1806 03c9 36010000 		.4byte	.LASF60
 1807 03cd 01       		.byte	0x1
 1808 03ce 2D01     		.2byte	0x12d
 1809 03d0 00000000 		.4byte	.LFB75
 1810 03d4 3A000000 		.4byte	.LFE75-.LFB75
 1811 03d8 01       		.uleb128 0x1
 1812 03d9 9C       		.byte	0x9c
 1813 03da EC030000 		.4byte	0x3ec
ARM GAS  C:\Users\lken274\AppData\Local\Temp\cc82TtV1.s 			page 39


 1814 03de 15       		.uleb128 0x15
 1815 03df 6300     		.ascii	"c\000"
 1816 03e1 01       		.byte	0x1
 1817 03e2 2F01     		.2byte	0x12f
 1818 03e4 95000000 		.4byte	0x95
 1819 03e8 02       		.uleb128 0x2
 1820 03e9 91       		.byte	0x91
 1821 03ea 77       		.sleb128 -9
 1822 03eb 00       		.byte	0
 1823 03ec 17       		.uleb128 0x17
 1824 03ed AD040000 		.4byte	.LASF61
 1825 03f1 06       		.byte	0x6
 1826 03f2 9606     		.2byte	0x696
 1827 03f4 F8030000 		.4byte	0x3f8
 1828 03f8 18       		.uleb128 0x18
 1829 03f9 8A000000 		.4byte	0x8a
 1830 03fd 19       		.uleb128 0x19
 1831 03fe 747300   		.ascii	"ts\000"
 1832 0401 05       		.byte	0x5
 1833 0402 10       		.byte	0x10
 1834 0403 95000000 		.4byte	0x95
 1835 0407 05       		.uleb128 0x5
 1836 0408 03       		.byte	0x3
 1837 0409 00000000 		.4byte	ts
 1838 040d 1A       		.uleb128 0x1a
 1839 040e 75040000 		.4byte	.LASF62
 1840 0412 05       		.byte	0x5
 1841 0413 11       		.byte	0x11
 1842 0414 A1000000 		.4byte	0xa1
 1843 0418 05       		.uleb128 0x5
 1844 0419 03       		.byte	0x3
 1845 041a 00000000 		.4byte	ts_enc
 1846 041e 1A       		.uleb128 0x1a
 1847 041f 7C040000 		.4byte	.LASF63
 1848 0423 05       		.byte	0x5
 1849 0424 12       		.byte	0x12
 1850 0425 A1000000 		.4byte	0xa1
 1851 0429 05       		.uleb128 0x5
 1852 042a 03       		.byte	0x3
 1853 042b 00000000 		.4byte	ts_update
 1854 042f 1A       		.uleb128 0x1a
 1855 0430 6C040000 		.4byte	.LASF64
 1856 0434 05       		.byte	0x5
 1857 0435 13       		.byte	0x13
 1858 0436 A1000000 		.4byte	0xa1
 1859 043a 05       		.uleb128 0x5
 1860 043b 03       		.byte	0x3
 1861 043c 00000000 		.4byte	ts_speed
 1862 0440 1A       		.uleb128 0x1a
 1863 0441 61040000 		.4byte	.LASF65
 1864 0445 05       		.byte	0x5
 1865 0446 14       		.byte	0x14
 1866 0447 A1000000 		.4byte	0xa1
 1867 044b 05       		.uleb128 0x5
 1868 044c 03       		.byte	0x3
 1869 044d 00000000 		.4byte	ts_display
 1870 0451 1A       		.uleb128 0x1a
ARM GAS  C:\Users\lken274\AppData\Local\Temp\cc82TtV1.s 			page 40


 1871 0452 32040000 		.4byte	.LASF66
 1872 0456 05       		.byte	0x5
 1873 0457 16       		.byte	0x16
 1874 0458 95000000 		.4byte	0x95
 1875 045c 05       		.uleb128 0x5
 1876 045d 03       		.byte	0x3
 1877 045e 00000000 		.4byte	flag_ts_enc
 1878 0462 1A       		.uleb128 0x1a
 1879 0463 78010000 		.4byte	.LASF67
 1880 0467 05       		.byte	0x5
 1881 0468 17       		.byte	0x17
 1882 0469 95000000 		.4byte	0x95
 1883 046d 05       		.uleb128 0x5
 1884 046e 03       		.byte	0x3
 1885 046f 00000000 		.4byte	flag_ts_update
 1886 0473 1A       		.uleb128 0x1a
 1887 0474 5B000000 		.4byte	.LASF68
 1888 0478 05       		.byte	0x5
 1889 0479 18       		.byte	0x18
 1890 047a 95000000 		.4byte	0x95
 1891 047e 05       		.uleb128 0x5
 1892 047f 03       		.byte	0x3
 1893 0480 00000000 		.4byte	flag_ts_speed
 1894 0484 1A       		.uleb128 0x1a
 1895 0485 39020000 		.4byte	.LASF69
 1896 0489 05       		.byte	0x5
 1897 048a 19       		.byte	0x19
 1898 048b 95000000 		.4byte	0x95
 1899 048f 05       		.uleb128 0x5
 1900 0490 03       		.byte	0x3
 1901 0491 00000000 		.4byte	flag_ts_display
 1902 0495 1A       		.uleb128 0x1a
 1903 0496 49020000 		.4byte	.LASF70
 1904 049a 05       		.byte	0x5
 1905 049b 1C       		.byte	0x1c
 1906 049c 95000000 		.4byte	0x95
 1907 04a0 05       		.uleb128 0x5
 1908 04a1 03       		.byte	0x3
 1909 04a2 00000000 		.4byte	flag_rx
 1910 04a6 1A       		.uleb128 0x1a
 1911 04a7 42000000 		.4byte	.LASF71
 1912 04ab 05       		.byte	0x5
 1913 04ac 1D       		.byte	0x1d
 1914 04ad 95000000 		.4byte	0x95
 1915 04b1 05       		.uleb128 0x5
 1916 04b2 03       		.byte	0x3
 1917 04b3 00000000 		.4byte	flag_packet
 1918 04b7 1A       		.uleb128 0x1a
 1919 04b8 F0020000 		.4byte	.LASF72
 1920 04bc 05       		.byte	0x5
 1921 04bd 1E       		.byte	0x1e
 1922 04be 95000000 		.4byte	0x95
 1923 04c2 05       		.uleb128 0x5
 1924 04c3 03       		.byte	0x3
 1925 04c4 00000000 		.4byte	flag_KB_string
 1926 04c8 1A       		.uleb128 0x1a
 1927 04c9 94020000 		.4byte	.LASF73
ARM GAS  C:\Users\lken274\AppData\Local\Temp\cc82TtV1.s 			page 41


 1928 04cd 05       		.byte	0x5
 1929 04ce 20       		.byte	0x20
 1930 04cf 95000000 		.4byte	0x95
 1931 04d3 05       		.uleb128 0x5
 1932 04d4 03       		.byte	0x3
 1933 04d5 00000000 		.4byte	dataready_flag
 1934 04d9 1A       		.uleb128 0x1a
 1935 04da 86040000 		.4byte	.LASF74
 1936 04de 05       		.byte	0x5
 1937 04df 22       		.byte	0x22
 1938 04e0 95000000 		.4byte	0x95
 1939 04e4 05       		.uleb128 0x5
 1940 04e5 03       		.byte	0x3
 1941 04e6 00000000 		.4byte	flag_rf_transmission_active
 1942 04ea 1A       		.uleb128 0x1a
 1943 04eb 48040000 		.4byte	.LASF75
 1944 04ef 05       		.byte	0x5
 1945 04f0 24       		.byte	0x24
 1946 04f1 95000000 		.4byte	0x95
 1947 04f5 05       		.uleb128 0x5
 1948 04f6 03       		.byte	0x3
 1949 04f7 00000000 		.4byte	flag_receive_ADC
 1950 04fb 1A       		.uleb128 0x1a
 1951 04fc CE020000 		.4byte	.LASF76
 1952 0500 05       		.byte	0x5
 1953 0501 25       		.byte	0x25
 1954 0502 C5000000 		.4byte	0xc5
 1955 0506 05       		.uleb128 0x5
 1956 0507 03       		.byte	0x3
 1957 0508 00000000 		.4byte	adc_result
 1958 050c 1A       		.uleb128 0x1a
 1959 050d C5000000 		.4byte	.LASF77
 1960 0511 05       		.byte	0x5
 1961 0512 27       		.byte	0x27
 1962 0513 95000000 		.4byte	0x95
 1963 0517 05       		.uleb128 0x5
 1964 0518 03       		.byte	0x3
 1965 0519 00000000 		.4byte	direction
 1966 051d 1A       		.uleb128 0x1a
 1967 051e 05040000 		.4byte	.LASF78
 1968 0522 05       		.byte	0x5
 1969 0523 2B       		.byte	0x2b
 1970 0524 95000000 		.4byte	0x95
 1971 0528 05       		.uleb128 0x5
 1972 0529 03       		.byte	0x3
 1973 052a 00000000 		.4byte	flag_calc_wheelspeed
 1974 052e 1A       		.uleb128 0x1a
 1975 052f D2030000 		.4byte	.LASF79
 1976 0533 05       		.byte	0x5
 1977 0534 2C       		.byte	0x2c
 1978 0535 C5000000 		.4byte	0xc5
 1979 0539 05       		.uleb128 0x5
 1980 053a 03       		.byte	0x3
 1981 053b 00000000 		.4byte	quad_count1
 1982 053f 1A       		.uleb128 0x1a
 1983 0540 A3000000 		.4byte	.LASF80
 1984 0544 05       		.byte	0x5
ARM GAS  C:\Users\lken274\AppData\Local\Temp\cc82TtV1.s 			page 42


 1985 0545 2D       		.byte	0x2d
 1986 0546 C5000000 		.4byte	0xc5
 1987 054a 05       		.uleb128 0x5
 1988 054b 03       		.byte	0x3
 1989 054c 00000000 		.4byte	quad_count2
 1990 0550 1A       		.uleb128 0x1a
 1991 0551 D4000000 		.4byte	.LASF81
 1992 0555 05       		.byte	0x5
 1993 0556 2F       		.byte	0x2f
 1994 0557 C5000000 		.4byte	0xc5
 1995 055b 05       		.uleb128 0x5
 1996 055c 03       		.byte	0x3
 1997 055d 00000000 		.4byte	left_duty_cycle
 1998 0561 1A       		.uleb128 0x1a
 1999 0562 20010000 		.4byte	.LASF82
 2000 0566 05       		.byte	0x5
 2001 0567 30       		.byte	0x30
 2002 0568 C5000000 		.4byte	0xc5
 2003 056c 05       		.uleb128 0x5
 2004 056d 03       		.byte	0x3
 2005 056e 00000000 		.4byte	right_duty_cycle
 2006 0572 1A       		.uleb128 0x1a
 2007 0573 19000000 		.4byte	.LASF83
 2008 0577 05       		.byte	0x5
 2009 0578 33       		.byte	0x33
 2010 0579 C5000000 		.4byte	0xc5
 2011 057d 05       		.uleb128 0x5
 2012 057e 03       		.byte	0x3
 2013 057f 00000000 		.4byte	leftSpeedLimit
 2014 0583 1A       		.uleb128 0x1a
 2015 0584 28000000 		.4byte	.LASF84
 2016 0588 05       		.byte	0x5
 2017 0589 34       		.byte	0x34
 2018 058a C5000000 		.4byte	0xc5
 2019 058e 05       		.uleb128 0x5
 2020 058f 03       		.byte	0x3
 2021 0590 00000000 		.4byte	rightSpeedLimit
 2022 0594 1A       		.uleb128 0x1a
 2023 0595 47030000 		.4byte	.LASF85
 2024 0599 05       		.byte	0x5
 2025 059a 37       		.byte	0x37
 2026 059b 95000000 		.4byte	0x95
 2027 059f 05       		.uleb128 0x5
 2028 05a0 03       		.byte	0x3
 2029 05a1 00000000 		.4byte	brakeFlag
 2030 05a5 1A       		.uleb128 0x1a
 2031 05a6 E4000000 		.4byte	.LASF86
 2032 05aa 05       		.byte	0x5
 2033 05ab 38       		.byte	0x38
 2034 05ac 95000000 		.4byte	0x95
 2035 05b0 05       		.uleb128 0x5
 2036 05b1 03       		.byte	0x3
 2037 05b2 00000000 		.4byte	portOpen
 2038 05b6 1A       		.uleb128 0x1a
 2039 05b7 BD030000 		.4byte	.LASF87
 2040 05bb 05       		.byte	0x5
 2041 05bc 3B       		.byte	0x3b
ARM GAS  C:\Users\lken274\AppData\Local\Temp\cc82TtV1.s 			page 43


 2042 05bd AB020000 		.4byte	0x2ab
 2043 05c1 05       		.uleb128 0x5
 2044 05c2 03       		.byte	0x3
 2045 05c3 00000000 		.4byte	displaystring
 2046 05c7 1A       		.uleb128 0x1a
 2047 05c8 31010000 		.4byte	.LASF88
 2048 05cc 05       		.byte	0x5
 2049 05cd 3C       		.byte	0x3c
 2050 05ce AB020000 		.4byte	0x2ab
 2051 05d2 05       		.uleb128 0x5
 2052 05d3 03       		.byte	0x3
 2053 05d4 00000000 		.4byte	line
 2054 05d8 1A       		.uleb128 0x1a
 2055 05d9 51020000 		.4byte	.LASF89
 2056 05dd 05       		.byte	0x5
 2057 05de 3C       		.byte	0x3c
 2058 05df AB020000 		.4byte	0x2ab
 2059 05e3 05       		.uleb128 0x5
 2060 05e4 03       		.byte	0x3
 2061 05e5 00000000 		.4byte	entry
 2062 05e9 0F       		.uleb128 0xf
 2063 05ea 95000000 		.4byte	0x95
 2064 05ee F9050000 		.4byte	0x5f9
 2065 05f2 10       		.uleb128 0x10
 2066 05f3 76000000 		.4byte	0x76
 2067 05f7 3F       		.byte	0x3f
 2068 05f8 00       		.byte	0
 2069 05f9 1A       		.uleb128 0x1a
 2070 05fa BB000000 		.4byte	.LASF90
 2071 05fe 05       		.byte	0x5
 2072 05ff 3D       		.byte	0x3d
 2073 0600 E9050000 		.4byte	0x5e9
 2074 0604 05       		.uleb128 0x5
 2075 0605 03       		.byte	0x3
 2076 0606 00000000 		.4byte	usbBuffer
 2077 060a 1A       		.uleb128 0x1a
 2078 060b 7B000000 		.4byte	.LASF91
 2079 060f 05       		.byte	0x5
 2080 0610 52       		.byte	0x52
 2081 0611 DF000000 		.4byte	0xdf
 2082 0615 05       		.uleb128 0x5
 2083 0616 03       		.byte	0x3
 2084 0617 00000000 		.4byte	system_state
 2085 061b 00       		.byte	0
 2086              		.section	.debug_abbrev,"",%progbits
 2087              	.Ldebug_abbrev0:
 2088 0000 01       		.uleb128 0x1
 2089 0001 11       		.uleb128 0x11
 2090 0002 01       		.byte	0x1
 2091 0003 25       		.uleb128 0x25
 2092 0004 0E       		.uleb128 0xe
 2093 0005 13       		.uleb128 0x13
 2094 0006 0B       		.uleb128 0xb
 2095 0007 03       		.uleb128 0x3
 2096 0008 0E       		.uleb128 0xe
 2097 0009 1B       		.uleb128 0x1b
 2098 000a 0E       		.uleb128 0xe
ARM GAS  C:\Users\lken274\AppData\Local\Temp\cc82TtV1.s 			page 44


 2099 000b 55       		.uleb128 0x55
 2100 000c 17       		.uleb128 0x17
 2101 000d 11       		.uleb128 0x11
 2102 000e 01       		.uleb128 0x1
 2103 000f 10       		.uleb128 0x10
 2104 0010 17       		.uleb128 0x17
 2105 0011 00       		.byte	0
 2106 0012 00       		.byte	0
 2107 0013 02       		.uleb128 0x2
 2108 0014 24       		.uleb128 0x24
 2109 0015 00       		.byte	0
 2110 0016 0B       		.uleb128 0xb
 2111 0017 0B       		.uleb128 0xb
 2112 0018 3E       		.uleb128 0x3e
 2113 0019 0B       		.uleb128 0xb
 2114 001a 03       		.uleb128 0x3
 2115 001b 0E       		.uleb128 0xe
 2116 001c 00       		.byte	0
 2117 001d 00       		.byte	0
 2118 001e 03       		.uleb128 0x3
 2119 001f 16       		.uleb128 0x16
 2120 0020 00       		.byte	0
 2121 0021 03       		.uleb128 0x3
 2122 0022 0E       		.uleb128 0xe
 2123 0023 3A       		.uleb128 0x3a
 2124 0024 0B       		.uleb128 0xb
 2125 0025 3B       		.uleb128 0x3b
 2126 0026 0B       		.uleb128 0xb
 2127 0027 49       		.uleb128 0x49
 2128 0028 13       		.uleb128 0x13
 2129 0029 00       		.byte	0
 2130 002a 00       		.byte	0
 2131 002b 04       		.uleb128 0x4
 2132 002c 24       		.uleb128 0x24
 2133 002d 00       		.byte	0
 2134 002e 0B       		.uleb128 0xb
 2135 002f 0B       		.uleb128 0xb
 2136 0030 3E       		.uleb128 0x3e
 2137 0031 0B       		.uleb128 0xb
 2138 0032 03       		.uleb128 0x3
 2139 0033 08       		.uleb128 0x8
 2140 0034 00       		.byte	0
 2141 0035 00       		.byte	0
 2142 0036 05       		.uleb128 0x5
 2143 0037 0F       		.uleb128 0xf
 2144 0038 00       		.byte	0
 2145 0039 0B       		.uleb128 0xb
 2146 003a 0B       		.uleb128 0xb
 2147 003b 49       		.uleb128 0x49
 2148 003c 13       		.uleb128 0x13
 2149 003d 00       		.byte	0
 2150 003e 00       		.byte	0
 2151 003f 06       		.uleb128 0x6
 2152 0040 16       		.uleb128 0x16
 2153 0041 00       		.byte	0
 2154 0042 03       		.uleb128 0x3
 2155 0043 0E       		.uleb128 0xe
ARM GAS  C:\Users\lken274\AppData\Local\Temp\cc82TtV1.s 			page 45


 2156 0044 3A       		.uleb128 0x3a
 2157 0045 0B       		.uleb128 0xb
 2158 0046 3B       		.uleb128 0x3b
 2159 0047 05       		.uleb128 0x5
 2160 0048 49       		.uleb128 0x49
 2161 0049 13       		.uleb128 0x13
 2162 004a 00       		.byte	0
 2163 004b 00       		.byte	0
 2164 004c 07       		.uleb128 0x7
 2165 004d 13       		.uleb128 0x13
 2166 004e 01       		.byte	0x1
 2167 004f 03       		.uleb128 0x3
 2168 0050 0E       		.uleb128 0xe
 2169 0051 0B       		.uleb128 0xb
 2170 0052 0B       		.uleb128 0xb
 2171 0053 3A       		.uleb128 0x3a
 2172 0054 0B       		.uleb128 0xb
 2173 0055 3B       		.uleb128 0x3b
 2174 0056 0B       		.uleb128 0xb
 2175 0057 01       		.uleb128 0x1
 2176 0058 13       		.uleb128 0x13
 2177 0059 00       		.byte	0
 2178 005a 00       		.byte	0
 2179 005b 08       		.uleb128 0x8
 2180 005c 0D       		.uleb128 0xd
 2181 005d 00       		.byte	0
 2182 005e 03       		.uleb128 0x3
 2183 005f 0E       		.uleb128 0xe
 2184 0060 3A       		.uleb128 0x3a
 2185 0061 0B       		.uleb128 0xb
 2186 0062 3B       		.uleb128 0x3b
 2187 0063 0B       		.uleb128 0xb
 2188 0064 49       		.uleb128 0x49
 2189 0065 13       		.uleb128 0x13
 2190 0066 38       		.uleb128 0x38
 2191 0067 0B       		.uleb128 0xb
 2192 0068 00       		.byte	0
 2193 0069 00       		.byte	0
 2194 006a 09       		.uleb128 0x9
 2195 006b 2E       		.uleb128 0x2e
 2196 006c 01       		.byte	0x1
 2197 006d 3F       		.uleb128 0x3f
 2198 006e 19       		.uleb128 0x19
 2199 006f 03       		.uleb128 0x3
 2200 0070 0E       		.uleb128 0xe
 2201 0071 3A       		.uleb128 0x3a
 2202 0072 0B       		.uleb128 0xb
 2203 0073 3B       		.uleb128 0x3b
 2204 0074 0B       		.uleb128 0xb
 2205 0075 27       		.uleb128 0x27
 2206 0076 19       		.uleb128 0x19
 2207 0077 11       		.uleb128 0x11
 2208 0078 01       		.uleb128 0x1
 2209 0079 12       		.uleb128 0x12
 2210 007a 06       		.uleb128 0x6
 2211 007b 40       		.uleb128 0x40
 2212 007c 18       		.uleb128 0x18
ARM GAS  C:\Users\lken274\AppData\Local\Temp\cc82TtV1.s 			page 46


 2213 007d 9742     		.uleb128 0x2117
 2214 007f 19       		.uleb128 0x19
 2215 0080 01       		.uleb128 0x1
 2216 0081 13       		.uleb128 0x13
 2217 0082 00       		.byte	0
 2218 0083 00       		.byte	0
 2219 0084 0A       		.uleb128 0xa
 2220 0085 05       		.uleb128 0x5
 2221 0086 00       		.byte	0
 2222 0087 03       		.uleb128 0x3
 2223 0088 0E       		.uleb128 0xe
 2224 0089 3A       		.uleb128 0x3a
 2225 008a 0B       		.uleb128 0xb
 2226 008b 3B       		.uleb128 0x3b
 2227 008c 0B       		.uleb128 0xb
 2228 008d 49       		.uleb128 0x49
 2229 008e 13       		.uleb128 0x13
 2230 008f 02       		.uleb128 0x2
 2231 0090 18       		.uleb128 0x18
 2232 0091 00       		.byte	0
 2233 0092 00       		.byte	0
 2234 0093 0B       		.uleb128 0xb
 2235 0094 2E       		.uleb128 0x2e
 2236 0095 00       		.byte	0
 2237 0096 3F       		.uleb128 0x3f
 2238 0097 19       		.uleb128 0x19
 2239 0098 03       		.uleb128 0x3
 2240 0099 0E       		.uleb128 0xe
 2241 009a 3A       		.uleb128 0x3a
 2242 009b 0B       		.uleb128 0xb
 2243 009c 3B       		.uleb128 0x3b
 2244 009d 0B       		.uleb128 0xb
 2245 009e 11       		.uleb128 0x11
 2246 009f 01       		.uleb128 0x1
 2247 00a0 12       		.uleb128 0x12
 2248 00a1 06       		.uleb128 0x6
 2249 00a2 40       		.uleb128 0x40
 2250 00a3 18       		.uleb128 0x18
 2251 00a4 9642     		.uleb128 0x2116
 2252 00a6 19       		.uleb128 0x19
 2253 00a7 00       		.byte	0
 2254 00a8 00       		.byte	0
 2255 00a9 0C       		.uleb128 0xc
 2256 00aa 2E       		.uleb128 0x2e
 2257 00ab 00       		.byte	0
 2258 00ac 3F       		.uleb128 0x3f
 2259 00ad 19       		.uleb128 0x19
 2260 00ae 03       		.uleb128 0x3
 2261 00af 0E       		.uleb128 0xe
 2262 00b0 3A       		.uleb128 0x3a
 2263 00b1 0B       		.uleb128 0xb
 2264 00b2 3B       		.uleb128 0x3b
 2265 00b3 0B       		.uleb128 0xb
 2266 00b4 27       		.uleb128 0x27
 2267 00b5 19       		.uleb128 0x19
 2268 00b6 11       		.uleb128 0x11
 2269 00b7 01       		.uleb128 0x1
ARM GAS  C:\Users\lken274\AppData\Local\Temp\cc82TtV1.s 			page 47


 2270 00b8 12       		.uleb128 0x12
 2271 00b9 06       		.uleb128 0x6
 2272 00ba 40       		.uleb128 0x40
 2273 00bb 18       		.uleb128 0x18
 2274 00bc 9642     		.uleb128 0x2116
 2275 00be 19       		.uleb128 0x19
 2276 00bf 00       		.byte	0
 2277 00c0 00       		.byte	0
 2278 00c1 0D       		.uleb128 0xd
 2279 00c2 2E       		.uleb128 0x2e
 2280 00c3 01       		.byte	0x1
 2281 00c4 3F       		.uleb128 0x3f
 2282 00c5 19       		.uleb128 0x19
 2283 00c6 03       		.uleb128 0x3
 2284 00c7 0E       		.uleb128 0xe
 2285 00c8 3A       		.uleb128 0x3a
 2286 00c9 0B       		.uleb128 0xb
 2287 00ca 3B       		.uleb128 0x3b
 2288 00cb 0B       		.uleb128 0xb
 2289 00cc 11       		.uleb128 0x11
 2290 00cd 01       		.uleb128 0x1
 2291 00ce 12       		.uleb128 0x12
 2292 00cf 06       		.uleb128 0x6
 2293 00d0 40       		.uleb128 0x40
 2294 00d1 18       		.uleb128 0x18
 2295 00d2 9642     		.uleb128 0x2116
 2296 00d4 19       		.uleb128 0x19
 2297 00d5 01       		.uleb128 0x1
 2298 00d6 13       		.uleb128 0x13
 2299 00d7 00       		.byte	0
 2300 00d8 00       		.byte	0
 2301 00d9 0E       		.uleb128 0xe
 2302 00da 34       		.uleb128 0x34
 2303 00db 00       		.byte	0
 2304 00dc 03       		.uleb128 0x3
 2305 00dd 0E       		.uleb128 0xe
 2306 00de 3A       		.uleb128 0x3a
 2307 00df 0B       		.uleb128 0xb
 2308 00e0 3B       		.uleb128 0x3b
 2309 00e1 0B       		.uleb128 0xb
 2310 00e2 49       		.uleb128 0x49
 2311 00e3 13       		.uleb128 0x13
 2312 00e4 02       		.uleb128 0x2
 2313 00e5 18       		.uleb128 0x18
 2314 00e6 00       		.byte	0
 2315 00e7 00       		.byte	0
 2316 00e8 0F       		.uleb128 0xf
 2317 00e9 01       		.uleb128 0x1
 2318 00ea 01       		.byte	0x1
 2319 00eb 49       		.uleb128 0x49
 2320 00ec 13       		.uleb128 0x13
 2321 00ed 01       		.uleb128 0x1
 2322 00ee 13       		.uleb128 0x13
 2323 00ef 00       		.byte	0
 2324 00f0 00       		.byte	0
 2325 00f1 10       		.uleb128 0x10
 2326 00f2 21       		.uleb128 0x21
ARM GAS  C:\Users\lken274\AppData\Local\Temp\cc82TtV1.s 			page 48


 2327 00f3 00       		.byte	0
 2328 00f4 49       		.uleb128 0x49
 2329 00f5 13       		.uleb128 0x13
 2330 00f6 2F       		.uleb128 0x2f
 2331 00f7 0B       		.uleb128 0xb
 2332 00f8 00       		.byte	0
 2333 00f9 00       		.byte	0
 2334 00fa 11       		.uleb128 0x11
 2335 00fb 0B       		.uleb128 0xb
 2336 00fc 01       		.byte	0x1
 2337 00fd 11       		.uleb128 0x11
 2338 00fe 01       		.uleb128 0x1
 2339 00ff 12       		.uleb128 0x12
 2340 0100 06       		.uleb128 0x6
 2341 0101 00       		.byte	0
 2342 0102 00       		.byte	0
 2343 0103 12       		.uleb128 0x12
 2344 0104 2E       		.uleb128 0x2e
 2345 0105 00       		.byte	0
 2346 0106 3F       		.uleb128 0x3f
 2347 0107 19       		.uleb128 0x19
 2348 0108 03       		.uleb128 0x3
 2349 0109 0E       		.uleb128 0xe
 2350 010a 3A       		.uleb128 0x3a
 2351 010b 0B       		.uleb128 0xb
 2352 010c 3B       		.uleb128 0x3b
 2353 010d 0B       		.uleb128 0xb
 2354 010e 49       		.uleb128 0x49
 2355 010f 13       		.uleb128 0x13
 2356 0110 11       		.uleb128 0x11
 2357 0111 01       		.uleb128 0x1
 2358 0112 12       		.uleb128 0x12
 2359 0113 06       		.uleb128 0x6
 2360 0114 40       		.uleb128 0x40
 2361 0115 18       		.uleb128 0x18
 2362 0116 9642     		.uleb128 0x2116
 2363 0118 19       		.uleb128 0x19
 2364 0119 00       		.byte	0
 2365 011a 00       		.byte	0
 2366 011b 13       		.uleb128 0x13
 2367 011c 2E       		.uleb128 0x2e
 2368 011d 01       		.byte	0x1
 2369 011e 3F       		.uleb128 0x3f
 2370 011f 19       		.uleb128 0x19
 2371 0120 03       		.uleb128 0x3
 2372 0121 0E       		.uleb128 0xe
 2373 0122 3A       		.uleb128 0x3a
 2374 0123 0B       		.uleb128 0xb
 2375 0124 3B       		.uleb128 0x3b
 2376 0125 05       		.uleb128 0x5
 2377 0126 27       		.uleb128 0x27
 2378 0127 19       		.uleb128 0x19
 2379 0128 11       		.uleb128 0x11
 2380 0129 01       		.uleb128 0x1
 2381 012a 12       		.uleb128 0x12
 2382 012b 06       		.uleb128 0x6
 2383 012c 40       		.uleb128 0x40
ARM GAS  C:\Users\lken274\AppData\Local\Temp\cc82TtV1.s 			page 49


 2384 012d 18       		.uleb128 0x18
 2385 012e 9642     		.uleb128 0x2116
 2386 0130 19       		.uleb128 0x19
 2387 0131 01       		.uleb128 0x1
 2388 0132 13       		.uleb128 0x13
 2389 0133 00       		.byte	0
 2390 0134 00       		.byte	0
 2391 0135 14       		.uleb128 0x14
 2392 0136 05       		.uleb128 0x5
 2393 0137 00       		.byte	0
 2394 0138 03       		.uleb128 0x3
 2395 0139 08       		.uleb128 0x8
 2396 013a 3A       		.uleb128 0x3a
 2397 013b 0B       		.uleb128 0xb
 2398 013c 3B       		.uleb128 0x3b
 2399 013d 05       		.uleb128 0x5
 2400 013e 49       		.uleb128 0x49
 2401 013f 13       		.uleb128 0x13
 2402 0140 02       		.uleb128 0x2
 2403 0141 18       		.uleb128 0x18
 2404 0142 00       		.byte	0
 2405 0143 00       		.byte	0
 2406 0144 15       		.uleb128 0x15
 2407 0145 34       		.uleb128 0x34
 2408 0146 00       		.byte	0
 2409 0147 03       		.uleb128 0x3
 2410 0148 08       		.uleb128 0x8
 2411 0149 3A       		.uleb128 0x3a
 2412 014a 0B       		.uleb128 0xb
 2413 014b 3B       		.uleb128 0x3b
 2414 014c 05       		.uleb128 0x5
 2415 014d 49       		.uleb128 0x49
 2416 014e 13       		.uleb128 0x13
 2417 014f 02       		.uleb128 0x2
 2418 0150 18       		.uleb128 0x18
 2419 0151 00       		.byte	0
 2420 0152 00       		.byte	0
 2421 0153 16       		.uleb128 0x16
 2422 0154 2E       		.uleb128 0x2e
 2423 0155 01       		.byte	0x1
 2424 0156 3F       		.uleb128 0x3f
 2425 0157 19       		.uleb128 0x19
 2426 0158 03       		.uleb128 0x3
 2427 0159 0E       		.uleb128 0xe
 2428 015a 3A       		.uleb128 0x3a
 2429 015b 0B       		.uleb128 0xb
 2430 015c 3B       		.uleb128 0x3b
 2431 015d 05       		.uleb128 0x5
 2432 015e 11       		.uleb128 0x11
 2433 015f 01       		.uleb128 0x1
 2434 0160 12       		.uleb128 0x12
 2435 0161 06       		.uleb128 0x6
 2436 0162 40       		.uleb128 0x40
 2437 0163 18       		.uleb128 0x18
 2438 0164 9642     		.uleb128 0x2116
 2439 0166 19       		.uleb128 0x19
 2440 0167 01       		.uleb128 0x1
ARM GAS  C:\Users\lken274\AppData\Local\Temp\cc82TtV1.s 			page 50


 2441 0168 13       		.uleb128 0x13
 2442 0169 00       		.byte	0
 2443 016a 00       		.byte	0
 2444 016b 17       		.uleb128 0x17
 2445 016c 34       		.uleb128 0x34
 2446 016d 00       		.byte	0
 2447 016e 03       		.uleb128 0x3
 2448 016f 0E       		.uleb128 0xe
 2449 0170 3A       		.uleb128 0x3a
 2450 0171 0B       		.uleb128 0xb
 2451 0172 3B       		.uleb128 0x3b
 2452 0173 05       		.uleb128 0x5
 2453 0174 49       		.uleb128 0x49
 2454 0175 13       		.uleb128 0x13
 2455 0176 3F       		.uleb128 0x3f
 2456 0177 19       		.uleb128 0x19
 2457 0178 3C       		.uleb128 0x3c
 2458 0179 19       		.uleb128 0x19
 2459 017a 00       		.byte	0
 2460 017b 00       		.byte	0
 2461 017c 18       		.uleb128 0x18
 2462 017d 35       		.uleb128 0x35
 2463 017e 00       		.byte	0
 2464 017f 49       		.uleb128 0x49
 2465 0180 13       		.uleb128 0x13
 2466 0181 00       		.byte	0
 2467 0182 00       		.byte	0
 2468 0183 19       		.uleb128 0x19
 2469 0184 34       		.uleb128 0x34
 2470 0185 00       		.byte	0
 2471 0186 03       		.uleb128 0x3
 2472 0187 08       		.uleb128 0x8
 2473 0188 3A       		.uleb128 0x3a
 2474 0189 0B       		.uleb128 0xb
 2475 018a 3B       		.uleb128 0x3b
 2476 018b 0B       		.uleb128 0xb
 2477 018c 49       		.uleb128 0x49
 2478 018d 13       		.uleb128 0x13
 2479 018e 3F       		.uleb128 0x3f
 2480 018f 19       		.uleb128 0x19
 2481 0190 02       		.uleb128 0x2
 2482 0191 18       		.uleb128 0x18
 2483 0192 00       		.byte	0
 2484 0193 00       		.byte	0
 2485 0194 1A       		.uleb128 0x1a
 2486 0195 34       		.uleb128 0x34
 2487 0196 00       		.byte	0
 2488 0197 03       		.uleb128 0x3
 2489 0198 0E       		.uleb128 0xe
 2490 0199 3A       		.uleb128 0x3a
 2491 019a 0B       		.uleb128 0xb
 2492 019b 3B       		.uleb128 0x3b
 2493 019c 0B       		.uleb128 0xb
 2494 019d 49       		.uleb128 0x49
 2495 019e 13       		.uleb128 0x13
 2496 019f 3F       		.uleb128 0x3f
 2497 01a0 19       		.uleb128 0x19
ARM GAS  C:\Users\lken274\AppData\Local\Temp\cc82TtV1.s 			page 51


 2498 01a1 02       		.uleb128 0x2
 2499 01a2 18       		.uleb128 0x18
 2500 01a3 00       		.byte	0
 2501 01a4 00       		.byte	0
 2502 01a5 00       		.byte	0
 2503              		.section	.debug_aranges,"",%progbits
 2504 0000 7C000000 		.4byte	0x7c
 2505 0004 0200     		.2byte	0x2
 2506 0006 00000000 		.4byte	.Ldebug_info0
 2507 000a 04       		.byte	0x4
 2508 000b 00       		.byte	0
 2509 000c 0000     		.2byte	0
 2510 000e 0000     		.2byte	0
 2511 0010 00000000 		.4byte	.LFB63
 2512 0014 2C000000 		.4byte	.LFE63-.LFB63
 2513 0018 00000000 		.4byte	.LFB64
 2514 001c 30000000 		.4byte	.LFE64-.LFB64
 2515 0020 00000000 		.4byte	.LFB65
 2516 0024 20000000 		.4byte	.LFE65-.LFB65
 2517 0028 00000000 		.4byte	.LFB66
 2518 002c 3C000000 		.4byte	.LFE66-.LFB66
 2519 0030 00000000 		.4byte	.LFB67
 2520 0034 0A000000 		.4byte	.LFE67-.LFB67
 2521 0038 00000000 		.4byte	.LFB68
 2522 003c 0E000000 		.4byte	.LFE68-.LFB68
 2523 0040 00000000 		.4byte	.LFB69
 2524 0044 60020000 		.4byte	.LFE69-.LFB69
 2525 0048 00000000 		.4byte	.LFB70
 2526 004c 84000000 		.4byte	.LFE70-.LFB70
 2527 0050 00000000 		.4byte	.LFB71
 2528 0054 F4000000 		.4byte	.LFE71-.LFB71
 2529 0058 00000000 		.4byte	.LFB72
 2530 005c 70000000 		.4byte	.LFE72-.LFB72
 2531 0060 00000000 		.4byte	.LFB73
 2532 0064 68000000 		.4byte	.LFE73-.LFB73
 2533 0068 00000000 		.4byte	.LFB74
 2534 006c 50000000 		.4byte	.LFE74-.LFB74
 2535 0070 00000000 		.4byte	.LFB75
 2536 0074 3A000000 		.4byte	.LFE75-.LFB75
 2537 0078 00000000 		.4byte	0
 2538 007c 00000000 		.4byte	0
 2539              		.section	.debug_ranges,"",%progbits
 2540              	.Ldebug_ranges0:
 2541 0000 00000000 		.4byte	.LFB63
 2542 0004 2C000000 		.4byte	.LFE63
 2543 0008 00000000 		.4byte	.LFB64
 2544 000c 30000000 		.4byte	.LFE64
 2545 0010 00000000 		.4byte	.LFB65
 2546 0014 20000000 		.4byte	.LFE65
 2547 0018 00000000 		.4byte	.LFB66
 2548 001c 3C000000 		.4byte	.LFE66
 2549 0020 00000000 		.4byte	.LFB67
 2550 0024 0A000000 		.4byte	.LFE67
 2551 0028 00000000 		.4byte	.LFB68
 2552 002c 0E000000 		.4byte	.LFE68
 2553 0030 00000000 		.4byte	.LFB69
 2554 0034 60020000 		.4byte	.LFE69
ARM GAS  C:\Users\lken274\AppData\Local\Temp\cc82TtV1.s 			page 52


 2555 0038 00000000 		.4byte	.LFB70
 2556 003c 84000000 		.4byte	.LFE70
 2557 0040 00000000 		.4byte	.LFB71
 2558 0044 F4000000 		.4byte	.LFE71
 2559 0048 00000000 		.4byte	.LFB72
 2560 004c 70000000 		.4byte	.LFE72
 2561 0050 00000000 		.4byte	.LFB73
 2562 0054 68000000 		.4byte	.LFE73
 2563 0058 00000000 		.4byte	.LFB74
 2564 005c 50000000 		.4byte	.LFE74
 2565 0060 00000000 		.4byte	.LFB75
 2566 0064 3A000000 		.4byte	.LFE75
 2567 0068 00000000 		.4byte	0
 2568 006c 00000000 		.4byte	0
 2569              		.section	.debug_line,"",%progbits
 2570              	.Ldebug_line0:
 2571 0000 35030000 		.section	.debug_str,"MS",%progbits,1
 2571      02005501 
 2571      00000201 
 2571      FB0E0D00 
 2571      01010101 
 2572              	.LASF59:
 2573 0000 75736250 		.ascii	"usbPutChar\000"
 2573      75744368 
 2573      617200
 2574              	.LASF52:
 2575 000b 636F6E76 		.ascii	"converted_val\000"
 2575      65727465 
 2575      645F7661 
 2575      6C00
 2576              	.LASF83:
 2577 0019 6C656674 		.ascii	"leftSpeedLimit\000"
 2577      53706565 
 2577      644C696D 
 2577      697400
 2578              	.LASF84:
 2579 0028 72696768 		.ascii	"rightSpeedLimit\000"
 2579      74537065 
 2579      65644C69 
 2579      6D697400 
 2580              	.LASF54:
 2581 0038 6379636C 		.ascii	"cycle_PWM\000"
 2581      655F5057 
 2581      4D00
 2582              	.LASF71:
 2583 0042 666C6167 		.ascii	"flag_packet\000"
 2583      5F706163 
 2583      6B657400 
 2584              	.LASF41:
 2585 004e 53746F70 		.ascii	"Stop_on_line\000"
 2585      5F6F6E5F 
 2585      6C696E65 
 2585      00
 2586              	.LASF68:
 2587 005b 666C6167 		.ascii	"flag_ts_speed\000"
 2587      5F74735F 
 2587      73706565 
ARM GAS  C:\Users\lken274\AppData\Local\Temp\cc82TtV1.s 			page 53


 2587      6400
 2588              	.LASF33:
 2589 0069 67325F78 		.ascii	"g2_xpos\000"
 2589      706F7300 
 2590              	.LASF2:
 2591 0071 73686F72 		.ascii	"short int\000"
 2591      7420696E 
 2591      7400
 2592              	.LASF91:
 2593 007b 73797374 		.ascii	"system_state\000"
 2593      656D5F73 
 2593      74617465 
 2593      00
 2594              	.LASF9:
 2595 0088 73697A65 		.ascii	"sizetype\000"
 2595      74797065 
 2595      00
 2596              	.LASF49:
 2597 0091 51756164 		.ascii	"Quad_Dec_response\000"
 2597      5F446563 
 2597      5F726573 
 2597      706F6E73 
 2597      6500
 2598              	.LASF80:
 2599 00a3 71756164 		.ascii	"quad_count2\000"
 2599      5F636F75 
 2599      6E743200 
 2600              	.LASF43:
 2601 00af 77686565 		.ascii	"wheel_1_str\000"
 2601      6C5F315F 
 2601      73747200 
 2602              	.LASF90:
 2603 00bb 75736242 		.ascii	"usbBuffer\000"
 2603      75666665 
 2603      7200
 2604              	.LASF77:
 2605 00c5 64697265 		.ascii	"direction\000"
 2605      6374696F 
 2605      6E00
 2606              	.LASF56:
 2607 00cf 6D61696E 		.ascii	"main\000"
 2607      00
 2608              	.LASF81:
 2609 00d4 6C656674 		.ascii	"left_duty_cycle\000"
 2609      5F647574 
 2609      795F6379 
 2609      636C6500 
 2610              	.LASF86:
 2611 00e4 706F7274 		.ascii	"portOpen\000"
 2611      4F70656E 
 2611      00
 2612              	.LASF40:
 2613 00ed 6973725F 		.ascii	"isr_quad1\000"
 2613      71756164 
 2613      3100
 2614              	.LASF50:
 2615 00f7 7072696E 		.ascii	"print_ADC\000"
ARM GAS  C:\Users\lken274\AppData\Local\Temp\cc82TtV1.s 			page 54


 2615      745F4144 
 2615      4300
 2616              	.LASF21:
 2617 0101 696E6465 		.ascii	"index\000"
 2617      7800
 2618              	.LASF17:
 2619 0107 696E7431 		.ascii	"int16\000"
 2619      3600
 2620              	.LASF13:
 2621 010d 75696E74 		.ascii	"uint8\000"
 2621      3800
 2622              	.LASF32:
 2623 0113 67315F64 		.ascii	"g1_direction\000"
 2623      69726563 
 2623      74696F6E 
 2623      00
 2624              	.LASF82:
 2625 0120 72696768 		.ascii	"right_duty_cycle\000"
 2625      745F6475 
 2625      74795F63 
 2625      79636C65 
 2625      00
 2626              	.LASF88:
 2627 0131 6C696E65 		.ascii	"line\000"
 2627      00
 2628              	.LASF60:
 2629 0136 75617274 		.ascii	"uart_set_PWM\000"
 2629      5F736574 
 2629      5F50574D 
 2629      00
 2630              	.LASF47:
 2631 0143 6C656674 		.ascii	"left_direction\000"
 2631      5F646972 
 2631      65637469 
 2631      6F6E00
 2632              	.LASF18:
 2633 0152 666C6F61 		.ascii	"float\000"
 2633      7400
 2634              	.LASF6:
 2635 0158 6C6F6E67 		.ascii	"long long int\000"
 2635      206C6F6E 
 2635      6720696E 
 2635      7400
 2636              	.LASF58:
 2637 0166 75736250 		.ascii	"usbPutString\000"
 2637      75745374 
 2637      72696E67 
 2637      00
 2638              	.LASF16:
 2639 0173 696E7438 		.ascii	"int8\000"
 2639      00
 2640              	.LASF67:
 2641 0178 666C6167 		.ascii	"flag_ts_update\000"
 2641      5F74735F 
 2641      75706461 
 2641      746500
 2642              	.LASF34:
ARM GAS  C:\Users\lken274\AppData\Local\Temp\cc82TtV1.s 			page 55


 2643 0187 67325F79 		.ascii	"g2_ypos\000"
 2643      706F7300 
 2644              	.LASF28:
 2645 018f 67305F64 		.ascii	"g0_direction\000"
 2645      69726563 
 2645      74696F6E 
 2645      00
 2646              	.LASF25:
 2647 019c 67305F78 		.ascii	"g0_xpos\000"
 2647      706F7300 
 2648              	.LASF92:
 2649 01a4 474E5520 		.ascii	"GNU C 4.9.3 20150303 (release) [ARM/embedded-4_9-br"
 2649      4320342E 
 2649      392E3320 
 2649      32303135 
 2649      30333033 
 2650 01d7 616E6368 		.ascii	"anch revision 221220] -mcpu=cortex-m3 -mthumb -g -O"
 2650      20726576 
 2650      6973696F 
 2650      6E203232 
 2650      31323230 
 2651 020a 30202D66 		.ascii	"0 -ffunction-sections -ffat-lto-objects\000"
 2651      66756E63 
 2651      74696F6E 
 2651      2D736563 
 2651      74696F6E 
 2652              	.LASF42:
 2653 0232 62757474 		.ascii	"button\000"
 2653      6F6E00
 2654              	.LASF69:
 2655 0239 666C6167 		.ascii	"flag_ts_display\000"
 2655      5F74735F 
 2655      64697370 
 2655      6C617900 
 2656              	.LASF70:
 2657 0249 666C6167 		.ascii	"flag_rx\000"
 2657      5F727800 
 2658              	.LASF89:
 2659 0251 656E7472 		.ascii	"entry\000"
 2659      7900
 2660              	.LASF44:
 2661 0257 77686565 		.ascii	"wheel_2_str\000"
 2661      6C5F325F 
 2661      73747200 
 2662              	.LASF93:
 2663 0263 2E5C6D61 		.ascii	".\\main.c\000"
 2663      696E2E63 
 2663      00
 2664              	.LASF37:
 2665 026c 72696768 		.ascii	"right\000"
 2665      7400
 2666              	.LASF1:
 2667 0272 756E7369 		.ascii	"unsigned char\000"
 2667      676E6564 
 2667      20636861 
 2667      7200
 2668              	.LASF27:
ARM GAS  C:\Users\lken274\AppData\Local\Temp\cc82TtV1.s 			page 56


 2669 0280 67305F73 		.ascii	"g0_speed\000"
 2669      70656564 
 2669      00
 2670              	.LASF96:
 2671 0289 6272616B 		.ascii	"brakeMotor\000"
 2671      654D6F74 
 2671      6F7200
 2672              	.LASF73:
 2673 0294 64617461 		.ascii	"dataready_flag\000"
 2673      72656164 
 2673      795F666C 
 2673      616700
 2674              	.LASF0:
 2675 02a3 7369676E 		.ascii	"signed char\000"
 2675      65642063 
 2675      68617200 
 2676              	.LASF12:
 2677 02af 696E7433 		.ascii	"int32_t\000"
 2677      325F7400 
 2678              	.LASF7:
 2679 02b7 6C6F6E67 		.ascii	"long long unsigned int\000"
 2679      206C6F6E 
 2679      6720756E 
 2679      7369676E 
 2679      65642069 
 2680              	.LASF76:
 2681 02ce 6164635F 		.ascii	"adc_result\000"
 2681      72657375 
 2681      6C7400
 2682              	.LASF8:
 2683 02d9 756E7369 		.ascii	"unsigned int\000"
 2683      676E6564 
 2683      20696E74 
 2683      00
 2684              	.LASF45:
 2685 02e6 6C656674 		.ascii	"leftSpeed\000"
 2685      53706565 
 2685      6400
 2686              	.LASF72:
 2687 02f0 666C6167 		.ascii	"flag_KB_string\000"
 2687      5F4B425F 
 2687      73747269 
 2687      6E6700
 2688              	.LASF94:
 2689 02ff 443A5C67 		.ascii	"D:\\gp1\\CS301-Team-Repo\\CS301_Class.cydsn\000"
 2689      70315C43 
 2689      53333031 
 2689      2D546561 
 2689      6D2D5265 
 2690              	.LASF55:
 2691 0328 666C7563 		.ascii	"fluct\000"
 2691      7400
 2692              	.LASF35:
 2693 032e 67325F73 		.ascii	"g2_speed\000"
 2693      70656564 
 2693      00
 2694              	.LASF48:
ARM GAS  C:\Users\lken274\AppData\Local\Temp\cc82TtV1.s 			page 57


 2695 0337 72696768 		.ascii	"right_direction\000"
 2695      745F6469 
 2695      72656374 
 2695      696F6E00 
 2696              	.LASF85:
 2697 0347 6272616B 		.ascii	"brakeFlag\000"
 2697      65466C61 
 2697      6700
 2698              	.LASF29:
 2699 0351 67315F78 		.ascii	"g1_xpos\000"
 2699      706F7300 
 2700              	.LASF3:
 2701 0359 73686F72 		.ascii	"short unsigned int\000"
 2701      7420756E 
 2701      7369676E 
 2701      65642069 
 2701      6E7400
 2702              	.LASF46:
 2703 036c 72696768 		.ascii	"rightSpeed\000"
 2703      74537065 
 2703      656400
 2704              	.LASF95:
 2705 0377 64617461 		.ascii	"data_main\000"
 2705      5F6D6169 
 2705      6E00
 2706              	.LASF10:
 2707 0381 63686172 		.ascii	"char\000"
 2707      00
 2708              	.LASF4:
 2709 0386 6C6F6E67 		.ascii	"long int\000"
 2709      20696E74 
 2709      00
 2710              	.LASF22:
 2711 038f 726F626F 		.ascii	"robot_xpos\000"
 2711      745F7870 
 2711      6F7300
 2712              	.LASF38:
 2713 039a 6C656674 		.ascii	"left\000"
 2713      00
 2714              	.LASF30:
 2715 039f 67315F79 		.ascii	"g1_ypos\000"
 2715      706F7300 
 2716              	.LASF36:
 2717 03a7 67325F64 		.ascii	"g2_direction\000"
 2717      69726563 
 2717      74696F6E 
 2717      00
 2718              	.LASF31:
 2719 03b4 67315F73 		.ascii	"g1_speed\000"
 2719      70656564 
 2719      00
 2720              	.LASF87:
 2721 03bd 64697370 		.ascii	"displaystring\000"
 2721      6C617973 
 2721      7472696E 
 2721      6700
 2722              	.LASF14:
ARM GAS  C:\Users\lken274\AppData\Local\Temp\cc82TtV1.s 			page 58


 2723 03cb 75696E74 		.ascii	"uint16\000"
 2723      313600
 2724              	.LASF79:
 2725 03d2 71756164 		.ascii	"quad_count1\000"
 2725      5F636F75 
 2725      6E743100 
 2726              	.LASF51:
 2727 03de 7363616C 		.ascii	"scalingFactor\000"
 2727      696E6746 
 2727      6163746F 
 2727      7200
 2728              	.LASF15:
 2729 03ec 75696E74 		.ascii	"uint32\000"
 2729      333200
 2730              	.LASF5:
 2731 03f3 6C6F6E67 		.ascii	"long unsigned int\000"
 2731      20756E73 
 2731      69676E65 
 2731      6420696E 
 2731      7400
 2732              	.LASF78:
 2733 0405 666C6167 		.ascii	"flag_calc_wheelspeed\000"
 2733      5F63616C 
 2733      635F7768 
 2733      65656C73 
 2733      70656564 
 2734              	.LASF19:
 2735 041a 646F7562 		.ascii	"double\000"
 2735      6C6500
 2736              	.LASF39:
 2737 0421 6164635F 		.ascii	"adc_isr\000"
 2737      69737200 
 2738              	.LASF57:
 2739 0429 73657453 		.ascii	"setSpeed\000"
 2739      70656564 
 2739      00
 2740              	.LASF66:
 2741 0432 666C6167 		.ascii	"flag_ts_enc\000"
 2741      5F74735F 
 2741      656E6300 
 2742              	.LASF11:
 2743 043e 5F5F696E 		.ascii	"__int32_t\000"
 2743      7433325F 
 2743      7400
 2744              	.LASF75:
 2745 0448 666C6167 		.ascii	"flag_receive_ADC\000"
 2745      5F726563 
 2745      65697665 
 2745      5F414443 
 2745      00
 2746              	.LASF26:
 2747 0459 67305F79 		.ascii	"g0_ypos\000"
 2747      706F7300 
 2748              	.LASF65:
 2749 0461 74735F64 		.ascii	"ts_display\000"
 2749      6973706C 
 2749      617900
ARM GAS  C:\Users\lken274\AppData\Local\Temp\cc82TtV1.s 			page 59


 2750              	.LASF64:
 2751 046c 74735F73 		.ascii	"ts_speed\000"
 2751      70656564 
 2751      00
 2752              	.LASF62:
 2753 0475 74735F65 		.ascii	"ts_enc\000"
 2753      6E6300
 2754              	.LASF63:
 2755 047c 74735F75 		.ascii	"ts_update\000"
 2755      70646174 
 2755      6500
 2756              	.LASF74:
 2757 0486 666C6167 		.ascii	"flag_rf_transmission_active\000"
 2757      5F72665F 
 2757      7472616E 
 2757      736D6973 
 2757      73696F6E 
 2758              	.LASF23:
 2759 04a2 726F626F 		.ascii	"robot_ypos\000"
 2759      745F7970 
 2759      6F7300
 2760              	.LASF61:
 2761 04ad 49544D5F 		.ascii	"ITM_RxBuffer\000"
 2761      52784275 
 2761      66666572 
 2761      00
 2762              	.LASF53:
 2763 04ba 72657375 		.ascii	"result_str\000"
 2763      6C745F73 
 2763      747200
 2764              	.LASF20:
 2765 04c5 72737369 		.ascii	"rssi\000"
 2765      00
 2766              	.LASF24:
 2767 04ca 726F626F 		.ascii	"robot_orientation\000"
 2767      745F6F72 
 2767      69656E74 
 2767      6174696F 
 2767      6E00
 2768              		.ident	"GCC: (GNU Tools for ARM Embedded Processors) 4.9.3 20150303 (release) [ARM/embedded-4_9-br
