ARM GAS  C:\Users\lken274\AppData\Local\Temp\ccaXuJBR.s 			page 1


   1              		.syntax unified
   2              		.cpu cortex-m3
   3              		.fpu softvfp
   4              		.eabi_attribute 20, 1
   5              		.eabi_attribute 21, 1
   6              		.eabi_attribute 23, 3
   7              		.eabi_attribute 24, 1
   8              		.eabi_attribute 25, 1
   9              		.eabi_attribute 26, 1
  10              		.eabi_attribute 30, 6
  11              		.eabi_attribute 34, 1
  12              		.eabi_attribute 18, 4
  13              		.thumb
  14              		.file	"main.c"
  15              		.text
  16              	.Ltext0:
  17              		.cfi_sections	.debug_frame
  18              		.global	ts
  19              		.bss
  20              		.type	ts, %object
  21              		.size	ts, 1
  22              	ts:
  23 0000 00       		.space	1
  24              		.global	ts_enc
  25 0001 00       		.align	1
  26              		.type	ts_enc, %object
  27              		.size	ts_enc, 2
  28              	ts_enc:
  29 0002 0000     		.space	2
  30              		.global	ts_update
  31              		.align	1
  32              		.type	ts_update, %object
  33              		.size	ts_update, 2
  34              	ts_update:
  35 0004 0000     		.space	2
  36              		.global	ts_speed
  37              		.align	1
  38              		.type	ts_speed, %object
  39              		.size	ts_speed, 2
  40              	ts_speed:
  41 0006 0000     		.space	2
  42              		.global	ts_display
  43              		.align	1
  44              		.type	ts_display, %object
  45              		.size	ts_display, 2
  46              	ts_display:
  47 0008 0000     		.space	2
  48              		.global	flag_ts_enc
  49              		.type	flag_ts_enc, %object
  50              		.size	flag_ts_enc, 1
  51              	flag_ts_enc:
  52 000a 00       		.space	1
  53              		.global	flag_ts_update
  54              		.type	flag_ts_update, %object
  55              		.size	flag_ts_update, 1
  56              	flag_ts_update:
  57 000b 00       		.space	1
ARM GAS  C:\Users\lken274\AppData\Local\Temp\ccaXuJBR.s 			page 2


  58              		.global	flag_ts_speed
  59              		.type	flag_ts_speed, %object
  60              		.size	flag_ts_speed, 1
  61              	flag_ts_speed:
  62 000c 00       		.space	1
  63              		.global	flag_ts_display
  64              		.type	flag_ts_display, %object
  65              		.size	flag_ts_display, 1
  66              	flag_ts_display:
  67 000d 00       		.space	1
  68              		.global	flag_rx
  69              		.type	flag_rx, %object
  70              		.size	flag_rx, 1
  71              	flag_rx:
  72 000e 00       		.space	1
  73              		.global	flag_packet
  74              		.type	flag_packet, %object
  75              		.size	flag_packet, 1
  76              	flag_packet:
  77 000f 00       		.space	1
  78              		.global	flag_KB_string
  79              		.type	flag_KB_string, %object
  80              		.size	flag_KB_string, 1
  81              	flag_KB_string:
  82 0010 00       		.space	1
  83              		.global	dataready_flag
  84              		.type	dataready_flag, %object
  85              		.size	dataready_flag, 1
  86              	dataready_flag:
  87 0011 00       		.space	1
  88              		.global	flag_rf_transmission_active
  89              		.data
  90              		.type	flag_rf_transmission_active, %object
  91              		.size	flag_rf_transmission_active, 1
  92              	flag_rf_transmission_active:
  93 0000 0A       		.byte	10
  94              		.global	flag_print_rf
  95              		.bss
  96              		.type	flag_print_rf, %object
  97              		.size	flag_print_rf, 1
  98              	flag_print_rf:
  99 0012 00       		.space	1
 100              		.global	flag_receive_ADC
 101              		.type	flag_receive_ADC, %object
 102              		.size	flag_receive_ADC, 1
 103              	flag_receive_ADC:
 104 0013 00       		.space	1
 105              		.comm	adc_result,2,2
 106              		.global	direction
 107              		.type	direction, %object
 108              		.size	direction, 1
 109              	direction:
 110 0014 00       		.space	1
 111              		.global	flag_calc_wheelspeed
 112              		.type	flag_calc_wheelspeed, %object
 113              		.size	flag_calc_wheelspeed, 1
 114              	flag_calc_wheelspeed:
ARM GAS  C:\Users\lken274\AppData\Local\Temp\ccaXuJBR.s 			page 3


 115 0015 00       		.space	1
 116              		.global	quad_count1
 117              		.align	1
 118              		.type	quad_count1, %object
 119              		.size	quad_count1, 2
 120              	quad_count1:
 121 0016 0000     		.space	2
 122              		.global	quad_count2
 123              		.align	1
 124              		.type	quad_count2, %object
 125              		.size	quad_count2, 2
 126              	quad_count2:
 127 0018 0000     		.space	2
 128              		.global	last_quad_count1
 129              		.align	1
 130              		.type	last_quad_count1, %object
 131              		.size	last_quad_count1, 2
 132              	last_quad_count1:
 133 001a 0000     		.space	2
 134              		.global	last_quad_count2
 135              		.align	1
 136              		.type	last_quad_count2, %object
 137              		.size	last_quad_count2, 2
 138              	last_quad_count2:
 139 001c 0000     		.space	2
 140              		.global	quad_diff1
 141              		.align	1
 142              		.type	quad_diff1, %object
 143              		.size	quad_diff1, 2
 144              	quad_diff1:
 145 001e 0000     		.space	2
 146              		.global	quad_diff2
 147              		.align	1
 148              		.type	quad_diff2, %object
 149              		.size	quad_diff2, 2
 150              	quad_diff2:
 151 0020 0000     		.space	2
 152              		.global	start_turn_count
 153              		.align	1
 154              		.type	start_turn_count, %object
 155              		.size	start_turn_count, 2
 156              	start_turn_count:
 157 0022 0000     		.space	2
 158              		.global	left_duty_cycle
 159              		.align	1
 160              		.type	left_duty_cycle, %object
 161              		.size	left_duty_cycle, 2
 162              	left_duty_cycle:
 163 0024 0000     		.space	2
 164              		.global	right_duty_cycle
 165              		.align	1
 166              		.type	right_duty_cycle, %object
 167              		.size	right_duty_cycle, 2
 168              	right_duty_cycle:
 169 0026 0000     		.space	2
 170              		.global	leftSpeedLimit
 171              		.align	1
ARM GAS  C:\Users\lken274\AppData\Local\Temp\ccaXuJBR.s 			page 4


 172              		.type	leftSpeedLimit, %object
 173              		.size	leftSpeedLimit, 2
 174              	leftSpeedLimit:
 175 0028 0000     		.space	2
 176              		.global	rightSpeedLimit
 177              		.align	1
 178              		.type	rightSpeedLimit, %object
 179              		.size	rightSpeedLimit, 2
 180              	rightSpeedLimit:
 181 002a 0000     		.space	2
 182              		.comm	brakeFlag,1,1
 183              		.global	portOpen
 184              		.data
 185              		.type	portOpen, %object
 186              		.size	portOpen, 1
 187              	portOpen:
 188 0001 01       		.byte	1
 189              		.comm	prevVoltage,2,2
 190              		.comm	prevVoltage2,2,2
 191              		.global	displaystring
 192 0002 0000     		.align	2
 193              		.type	displaystring, %object
 194              		.size	displaystring, 64
 195              	displaystring:
 196 0004 43533330 		.ascii	"CS301 2016\012\000"
 196      31203230 
 196      31360A00 
 197 0010 00000000 		.space	52
 197      00000000 
 197      00000000 
 197      00000000 
 197      00000000 
 198              		.comm	line,64,4
 199              		.comm	entry,64,4
 200              		.comm	usbBuffer,64,4
 201              		.comm	buffer_state,32,4
 202              		.comm	system_state,32,4
 203              		.global	movement_state
 204              		.type	movement_state, %object
 205              		.size	movement_state, 1
 206              	movement_state:
 207 0044 03       		.byte	3
 208              		.global	byteCount
 209 0045 000000   		.bss
 210              		.type	byteCount, %object
 211              		.size	byteCount, 1
 212              	byteCount:
 213 002c 00       		.space	1
 214              		.comm	packet,2,4
 215 002d 00       		.section	.text.handle_rx_binary,"ax",%progbits
 216              		.align	2
 217              		.global	handle_rx_binary
 218              		.thumb
 219              		.thumb_func
 220              		.type	handle_rx_binary, %function
 221              	handle_rx_binary:
 222              	.LFB63:
ARM GAS  C:\Users\lken274\AppData\Local\Temp\ccaXuJBR.s 			page 5


 223              		.file 1 ".\\main.c"
   1:.\main.c      **** /* ========================================
   2:.\main.c      ****  * This code will test/use the functionality of all of the below peripherals.
   3:.\main.c      ****  * Fully working code: 
   4:.\main.c      ****  * PWM      : done
   5:.\main.c      ****     Cycle up and down when enabled
   6:.\main.c      ****  * Encoder  : 
   7:.\main.c      ****     Calibrate the wheels when enabled
   8:.\main.c      **** 
   9:.\main.c      ****  * ADC      : done
  10:.\main.c      ****     Prints the ADC reading (in volts) to UART
  11:.\main.c      **** 
  12:.\main.c      ****  * USB      : port displays speed and position.
  13:.\main.c      **** 
  14:.\main.c      ****  * CMD: "PW xx"
  15:.\main.c      **** 
  16:.\main.c      ****  * Copyright Univ of Auckland, 2016
  17:.\main.c      ****  * All Rights Reserved
  18:.\main.c      ****  * UNPUBLISHED, LICENSED SOFTWARE.
  19:.\main.c      ****  *
  20:.\main.c      ****  * CONFIDENTIAL AND PROPRIETARY INFORMATION
  21:.\main.c      ****  * WHICH IS THE PROPERTY OF Univ of Auckland.
  22:.\main.c      ****  *
  23:.\main.c      ****  * ========================================
  24:.\main.c      **** */
  25:.\main.c      **** #include <stdio.h>
  26:.\main.c      **** #include <string.h>
  27:.\main.c      **** #include <stdlib.h>
  28:.\main.c      **** #include <project.h>
  29:.\main.c      **** #include <math.h>
  30:.\main.c      **** //* ========================================
  31:.\main.c      **** #include "defines.h"
  32:.\main.c      **** #include "vars.h"
  33:.\main.c      **** //* ========================================
  34:.\main.c      **** void usbPutString(char *s);
  35:.\main.c      **** void usbPutChar(char c);
  36:.\main.c      **** //void handle_usb();
  37:.\main.c      **** //* ========================================
  38:.\main.c      **** 
  39:.\main.c      **** 
  40:.\main.c      **** void handle_rx_binary()
  41:.\main.c      **** {
 224              		.loc 1 41 0
 225              		.cfi_startproc
 226              		@ args = 0, pretend = 0, frame = 32
 227              		@ frame_needed = 1, uses_anonymous_args = 0
 228              		@ link register save eliminated.
 229 0000 80B4     		push	{r7}
 230              		.cfi_def_cfa_offset 4
 231              		.cfi_offset 7, -4
 232 0002 89B0     		sub	sp, sp, #36
 233              		.cfi_def_cfa_offset 40
 234 0004 00AF     		add	r7, sp, #0
 235              		.cfi_def_cfa_register 7
  42:.\main.c      ****     if(flag_rx == 1)
 236              		.loc 1 42 0
 237 0006 524B     		ldr	r3, .L21
ARM GAS  C:\Users\lken274\AppData\Local\Temp\ccaXuJBR.s 			page 6


 238 0008 1B78     		ldrb	r3, [r3]	@ zero_extendqisi2
 239 000a 012B     		cmp	r3, #1
 240 000c 40F09A80 		bne	.L1
 241              	.LBB2:
  43:.\main.c      ****     {    
  44:.\main.c      ****         flag_rx = 0;
 242              		.loc 1 44 0
 243 0010 4F4B     		ldr	r3, .L21
 244 0012 0022     		movs	r2, #0
 245 0014 1A70     		strb	r2, [r3]
  45:.\main.c      ****         
  46:.\main.c      ****         uint16 packet_bytes = (packet[1] << 8) | (packet[0]);
 246              		.loc 1 46 0
 247 0016 4F4B     		ldr	r3, .L21+4
 248 0018 5B78     		ldrb	r3, [r3, #1]	@ zero_extendqisi2
 249 001a 1B02     		lsls	r3, r3, #8
 250 001c 9AB2     		uxth	r2, r3
 251 001e 4D4B     		ldr	r3, .L21+4
 252 0020 1B78     		ldrb	r3, [r3]	@ zero_extendqisi2
 253 0022 9BB2     		uxth	r3, r3
 254 0024 1343     		orrs	r3, r3, r2
 255 0026 9BB2     		uxth	r3, r3
 256 0028 FB83     		strh	r3, [r7, #30]	@ movhi
  47:.\main.c      ****         //uint16 packet_bytes = packet[0] & packet[1];
  48:.\main.c      ****         char byte_packet[12];
  49:.\main.c      ****         char string_packet[12];
  50:.\main.c      ****         //sprintf(string_packet, "%d", packet_bytes);
  51:.\main.c      ****         //sprintf(byte_packet, "%d", (int8)packet[0]);
  52:.\main.c      ****        // sprintf(string_packet, "%d", packet_bytes);
  53:.\main.c      ****         //usbPutString(string_packet);
  54:.\main.c      ****        // usbPutString(string_packet);
  55:.\main.c      ****        // usbPutChar(' ');
  56:.\main.c      ****         
  57:.\main.c      ****         switch(byteCount)
 257              		.loc 1 57 0
 258 002a 4B4B     		ldr	r3, .L21+8
 259 002c 1B78     		ldrb	r3, [r3]	@ zero_extendqisi2
 260 002e 043B     		subs	r3, r3, #4
 261 0030 1E2B     		cmp	r3, #30
 262 0032 00F28780 		bhi	.L1
 263 0036 01A2     		adr	r2, .L5
 264 0038 52F823F0 		ldr	pc, [r2, r3, lsl #2]
 265              		.p2align 2
 266              	.L5:
 267 003c B9000000 		.word	.L4+1
 268 0040 45010000 		.word	.L1+1
 269 0044 CD000000 		.word	.L6+1
 270 0048 45010000 		.word	.L1+1
 271 004c D5000000 		.word	.L7+1
 272 0050 45010000 		.word	.L1+1
 273 0054 DD000000 		.word	.L8+1
 274 0058 45010000 		.word	.L1+1
 275 005c E5000000 		.word	.L9+1
 276 0060 45010000 		.word	.L1+1
 277 0064 ED000000 		.word	.L10+1
 278 0068 45010000 		.word	.L1+1
 279 006c F5000000 		.word	.L11+1
ARM GAS  C:\Users\lken274\AppData\Local\Temp\ccaXuJBR.s 			page 7


 280 0070 45010000 		.word	.L1+1
 281 0074 FD000000 		.word	.L12+1
 282 0078 45010000 		.word	.L1+1
 283 007c 05010000 		.word	.L13+1
 284 0080 45010000 		.word	.L1+1
 285 0084 0D010000 		.word	.L14+1
 286 0088 45010000 		.word	.L1+1
 287 008c 15010000 		.word	.L15+1
 288 0090 45010000 		.word	.L1+1
 289 0094 1D010000 		.word	.L16+1
 290 0098 45010000 		.word	.L1+1
 291 009c 25010000 		.word	.L17+1
 292 00a0 45010000 		.word	.L1+1
 293 00a4 2D010000 		.word	.L18+1
 294 00a8 45010000 		.word	.L1+1
 295 00ac 35010000 		.word	.L19+1
 296 00b0 45010000 		.word	.L1+1
 297 00b4 3D010000 		.word	.L20+1
 298              		.p2align 1
 299              	.L4:
  58:.\main.c      ****         {
  59:.\main.c      ****             case 4:
  60:.\main.c      ****                 //usbPutString("RSSI:");
  61:.\main.c      ****                 //usbPutString(byte_packet);
  62:.\main.c      ****                 //usbPutString("\r\n");
  63:.\main.c      ****                 buffer_state.rssi = packet[0];
 300              		.loc 1 63 0
 301 00b8 264B     		ldr	r3, .L21+4
 302 00ba 1B78     		ldrb	r3, [r3]	@ zero_extendqisi2
 303 00bc DAB2     		uxtb	r2, r3
 304 00be 274B     		ldr	r3, .L21+12
 305 00c0 1A70     		strb	r2, [r3]
  64:.\main.c      ****                 buffer_state.index = packet[1];
 306              		.loc 1 64 0
 307 00c2 244B     		ldr	r3, .L21+4
 308 00c4 5A78     		ldrb	r2, [r3, #1]	@ zero_extendqisi2
 309 00c6 254B     		ldr	r3, .L21+12
 310 00c8 5A70     		strb	r2, [r3, #1]
  65:.\main.c      ****             break;
 311              		.loc 1 65 0
 312 00ca 3BE0     		b	.L1
 313              	.L6:
  66:.\main.c      ****             case 6:
  67:.\main.c      ****                 //usbPutString("robot_x:");
  68:.\main.c      ****                 //usbPutString(string_packet);
  69:.\main.c      ****                 //usbPutString("\r\n");
  70:.\main.c      ****                 buffer_state.robot_xpos = packet_bytes;
 314              		.loc 1 70 0
 315 00cc FA8B     		ldrh	r2, [r7, #30]
 316 00ce 234B     		ldr	r3, .L21+12
 317 00d0 5A80     		strh	r2, [r3, #2]	@ movhi
  71:.\main.c      ****             break;
 318              		.loc 1 71 0
 319 00d2 37E0     		b	.L1
 320              	.L7:
  72:.\main.c      ****             case 8:
  73:.\main.c      ****                 //usbPutString("robot_y:");
ARM GAS  C:\Users\lken274\AppData\Local\Temp\ccaXuJBR.s 			page 8


  74:.\main.c      ****                 //usbPutString(string_packet);
  75:.\main.c      ****                 //usbPutString("\r\n");
  76:.\main.c      ****                 buffer_state.robot_ypos = packet_bytes;
 321              		.loc 1 76 0
 322 00d4 FA8B     		ldrh	r2, [r7, #30]
 323 00d6 214B     		ldr	r3, .L21+12
 324 00d8 9A80     		strh	r2, [r3, #4]	@ movhi
  77:.\main.c      ****             break;
 325              		.loc 1 77 0
 326 00da 33E0     		b	.L1
 327              	.L8:
  78:.\main.c      ****             case 10:
  79:.\main.c      ****                 //usbPutString("robot_dir:");
  80:.\main.c      ****                 //usbPutString(string_packet);
  81:.\main.c      ****                 //usbPutString("\r\n");
  82:.\main.c      ****                 buffer_state.robot_orientation = packet_bytes;
 328              		.loc 1 82 0
 329 00dc FA8B     		ldrh	r2, [r7, #30]
 330 00de 1F4B     		ldr	r3, .L21+12
 331 00e0 DA80     		strh	r2, [r3, #6]	@ movhi
  83:.\main.c      ****             break;
 332              		.loc 1 83 0
 333 00e2 2FE0     		b	.L1
 334              	.L9:
  84:.\main.c      ****             case 12:
  85:.\main.c      ****                 //usbPutString("g0_x:");
  86:.\main.c      ****                 //usbPutString(string_packet);
  87:.\main.c      ****                 //usbPutString("\r\n");
  88:.\main.c      ****                 buffer_state.g0_xpos = packet_bytes;
 335              		.loc 1 88 0
 336 00e4 FA8B     		ldrh	r2, [r7, #30]
 337 00e6 1D4B     		ldr	r3, .L21+12
 338 00e8 1A81     		strh	r2, [r3, #8]	@ movhi
  89:.\main.c      ****             break;
 339              		.loc 1 89 0
 340 00ea 2BE0     		b	.L1
 341              	.L10:
  90:.\main.c      ****             case 14:
  91:.\main.c      ****                 //usbPutString("g0_y:");
  92:.\main.c      ****                 //usbPutString(string_packet);
  93:.\main.c      ****                 //usbPutString("\r\n");
  94:.\main.c      ****                 buffer_state.g0_ypos = packet_bytes;
 342              		.loc 1 94 0
 343 00ec FA8B     		ldrh	r2, [r7, #30]
 344 00ee 1B4B     		ldr	r3, .L21+12
 345 00f0 5A81     		strh	r2, [r3, #10]	@ movhi
  95:.\main.c      ****             break;
 346              		.loc 1 95 0
 347 00f2 27E0     		b	.L1
 348              	.L11:
  96:.\main.c      ****             case 16:
  97:.\main.c      ****                 //usbPutString("g0_speed:");
  98:.\main.c      ****                 //usbPutString(string_packet);
  99:.\main.c      ****                 //usbPutString("\r\n");
 100:.\main.c      ****                 buffer_state.g0_speed = packet_bytes;
 349              		.loc 1 100 0
 350 00f4 FA8B     		ldrh	r2, [r7, #30]
ARM GAS  C:\Users\lken274\AppData\Local\Temp\ccaXuJBR.s 			page 9


 351 00f6 194B     		ldr	r3, .L21+12
 352 00f8 9A81     		strh	r2, [r3, #12]	@ movhi
 101:.\main.c      ****             break;
 353              		.loc 1 101 0
 354 00fa 23E0     		b	.L1
 355              	.L12:
 102:.\main.c      ****             case 18:
 103:.\main.c      ****                 //usbPutString("g1_dir:");
 104:.\main.c      ****                 //usbPutString(string_packet);
 105:.\main.c      ****                 //usbPutString("\r\n");
 106:.\main.c      ****                 buffer_state.g0_direction = packet_bytes;
 356              		.loc 1 106 0
 357 00fc FA8B     		ldrh	r2, [r7, #30]
 358 00fe 174B     		ldr	r3, .L21+12
 359 0100 DA81     		strh	r2, [r3, #14]	@ movhi
 107:.\main.c      ****             break;
 360              		.loc 1 107 0
 361 0102 1FE0     		b	.L1
 362              	.L13:
 108:.\main.c      ****             case 20:
 109:.\main.c      ****                 //usbPutString("g1_x:");
 110:.\main.c      ****                 //usbPutString(string_packet);
 111:.\main.c      ****                 //usbPutString("\r\n");
 112:.\main.c      ****                 buffer_state.g1_xpos = packet_bytes;
 363              		.loc 1 112 0
 364 0104 FA8B     		ldrh	r2, [r7, #30]
 365 0106 154B     		ldr	r3, .L21+12
 366 0108 1A82     		strh	r2, [r3, #16]	@ movhi
 113:.\main.c      ****             break;
 367              		.loc 1 113 0
 368 010a 1BE0     		b	.L1
 369              	.L14:
 114:.\main.c      ****             case 22:
 115:.\main.c      ****                 //usbPutString("g1_y:");
 116:.\main.c      ****                 //usbPutString(string_packet);
 117:.\main.c      ****                 //usbPutString("\r\n");
 118:.\main.c      ****                 buffer_state.g1_ypos = packet_bytes;
 370              		.loc 1 118 0
 371 010c FA8B     		ldrh	r2, [r7, #30]
 372 010e 134B     		ldr	r3, .L21+12
 373 0110 5A82     		strh	r2, [r3, #18]	@ movhi
 119:.\main.c      ****             break;
 374              		.loc 1 119 0
 375 0112 17E0     		b	.L1
 376              	.L15:
 120:.\main.c      ****             case 24:
 121:.\main.c      ****                 //usbPutString("g1_speed:");
 122:.\main.c      ****                 //usbPutString(string_packet);
 123:.\main.c      ****                 //usbPutString("\r\n");
 124:.\main.c      ****                 buffer_state.g1_speed = packet_bytes;
 377              		.loc 1 124 0
 378 0114 FA8B     		ldrh	r2, [r7, #30]
 379 0116 114B     		ldr	r3, .L21+12
 380 0118 9A82     		strh	r2, [r3, #20]	@ movhi
 125:.\main.c      ****             break;
 381              		.loc 1 125 0
 382 011a 13E0     		b	.L1
ARM GAS  C:\Users\lken274\AppData\Local\Temp\ccaXuJBR.s 			page 10


 383              	.L16:
 126:.\main.c      ****             case 26:
 127:.\main.c      ****                 //usbPutString("g1_dir:");
 128:.\main.c      ****                 //usbPutString(string_packet);
 129:.\main.c      ****                 //usbPutString("\r\n");
 130:.\main.c      ****                 buffer_state.g1_direction = packet_bytes;
 384              		.loc 1 130 0
 385 011c FA8B     		ldrh	r2, [r7, #30]
 386 011e 0F4B     		ldr	r3, .L21+12
 387 0120 DA82     		strh	r2, [r3, #22]	@ movhi
 131:.\main.c      ****             break;
 388              		.loc 1 131 0
 389 0122 0FE0     		b	.L1
 390              	.L17:
 132:.\main.c      ****             case 28:
 133:.\main.c      ****                 //usbPutString("g2_x:");
 134:.\main.c      ****                 //usbPutString(string_packet);
 135:.\main.c      ****                 //usbPutString("\r\n");
 136:.\main.c      ****                 buffer_state.g2_xpos = packet_bytes;
 391              		.loc 1 136 0
 392 0124 FA8B     		ldrh	r2, [r7, #30]
 393 0126 0D4B     		ldr	r3, .L21+12
 394 0128 1A83     		strh	r2, [r3, #24]	@ movhi
 137:.\main.c      ****             break;
 395              		.loc 1 137 0
 396 012a 0BE0     		b	.L1
 397              	.L18:
 138:.\main.c      ****             case 30:
 139:.\main.c      ****                 //usbPutString("g2_y:");
 140:.\main.c      ****                 //usbPutString(string_packet);
 141:.\main.c      ****                 //usbPutString("\r\n");
 142:.\main.c      ****                 buffer_state.g2_ypos = packet_bytes;
 398              		.loc 1 142 0
 399 012c FA8B     		ldrh	r2, [r7, #30]
 400 012e 0B4B     		ldr	r3, .L21+12
 401 0130 5A83     		strh	r2, [r3, #26]	@ movhi
 143:.\main.c      ****             break;
 402              		.loc 1 143 0
 403 0132 07E0     		b	.L1
 404              	.L19:
 144:.\main.c      ****             case 32:
 145:.\main.c      ****                 //usbPutString("g1_speed:");
 146:.\main.c      ****                 //usbPutString(string_packet);
 147:.\main.c      ****                 //usbPutString("\r\n");
 148:.\main.c      ****                 buffer_state.g2_speed = packet_bytes;
 405              		.loc 1 148 0
 406 0134 FA8B     		ldrh	r2, [r7, #30]
 407 0136 094B     		ldr	r3, .L21+12
 408 0138 9A83     		strh	r2, [r3, #28]	@ movhi
 149:.\main.c      ****             break;
 409              		.loc 1 149 0
 410 013a 03E0     		b	.L1
 411              	.L20:
 150:.\main.c      ****             case 34:
 151:.\main.c      ****                 buffer_state.g2_direction = packet_bytes;
 412              		.loc 1 151 0
 413 013c FA8B     		ldrh	r2, [r7, #30]
ARM GAS  C:\Users\lken274\AppData\Local\Temp\ccaXuJBR.s 			page 11


 414 013e 074B     		ldr	r3, .L21+12
 415 0140 DA83     		strh	r2, [r3, #30]	@ movhi
 152:.\main.c      ****                 //usbPutString("g2_dir:");
 153:.\main.c      ****                 //usbPutString(string_packet);
 154:.\main.c      ****                 //usbPutString("\r\n");
 155:.\main.c      ****                 
 156:.\main.c      ****             break;
 416              		.loc 1 156 0
 417 0142 00BF     		nop
 418              	.L1:
 419              	.LBE2:
 157:.\main.c      ****         }
 158:.\main.c      ****         
 159:.\main.c      ****     }
 160:.\main.c      **** }
 420              		.loc 1 160 0
 421 0144 2437     		adds	r7, r7, #36
 422              		.cfi_def_cfa_offset 4
 423 0146 BD46     		mov	sp, r7
 424              		.cfi_def_cfa_register 13
 425              		@ sp needed
 426 0148 5DF8047B 		ldr	r7, [sp], #4
 427              		.cfi_restore 7
 428              		.cfi_def_cfa_offset 0
 429 014c 7047     		bx	lr
 430              	.L22:
 431 014e 00BF     		.align	2
 432              	.L21:
 433 0150 00000000 		.word	flag_rx
 434 0154 00000000 		.word	packet
 435 0158 00000000 		.word	byteCount
 436 015c 00000000 		.word	buffer_state
 437              		.cfi_endproc
 438              	.LFE63:
 439              		.size	handle_rx_binary, .-handle_rx_binary
 440              		.section	.text.setSpeed,"ax",%progbits
 441              		.align	2
 442              		.global	setSpeed
 443              		.thumb
 444              		.thumb_func
 445              		.type	setSpeed, %function
 446              	setSpeed:
 447              	.LFB64:
 161:.\main.c      **** 
 162:.\main.c      **** void setSpeed(int right, int left){
 448              		.loc 1 162 0
 449              		.cfi_startproc
 450              		@ args = 0, pretend = 0, frame = 8
 451              		@ frame_needed = 1, uses_anonymous_args = 0
 452              		@ link register save eliminated.
 453 0000 80B4     		push	{r7}
 454              		.cfi_def_cfa_offset 4
 455              		.cfi_offset 7, -4
 456 0002 83B0     		sub	sp, sp, #12
 457              		.cfi_def_cfa_offset 16
 458 0004 00AF     		add	r7, sp, #0
 459              		.cfi_def_cfa_register 7
ARM GAS  C:\Users\lken274\AppData\Local\Temp\ccaXuJBR.s 			page 12


 460 0006 7860     		str	r0, [r7, #4]
 461 0008 3960     		str	r1, [r7]
 163:.\main.c      ****     leftSpeedLimit = right;
 462              		.loc 1 163 0
 463 000a 7B68     		ldr	r3, [r7, #4]
 464 000c 9AB2     		uxth	r2, r3
 465 000e 054B     		ldr	r3, .L24
 466 0010 1A80     		strh	r2, [r3]	@ movhi
 164:.\main.c      ****     rightSpeedLimit = left;
 467              		.loc 1 164 0
 468 0012 3B68     		ldr	r3, [r7]
 469 0014 9AB2     		uxth	r2, r3
 470 0016 044B     		ldr	r3, .L24+4
 471 0018 1A80     		strh	r2, [r3]	@ movhi
 165:.\main.c      **** }
 472              		.loc 1 165 0
 473 001a 0C37     		adds	r7, r7, #12
 474              		.cfi_def_cfa_offset 4
 475 001c BD46     		mov	sp, r7
 476              		.cfi_def_cfa_register 13
 477              		@ sp needed
 478 001e 5DF8047B 		ldr	r7, [sp], #4
 479              		.cfi_restore 7
 480              		.cfi_def_cfa_offset 0
 481 0022 7047     		bx	lr
 482              	.L25:
 483              		.align	2
 484              	.L24:
 485 0024 00000000 		.word	leftSpeedLimit
 486 0028 00000000 		.word	rightSpeedLimit
 487              		.cfi_endproc
 488              	.LFE64:
 489              		.size	setSpeed, .-setSpeed
 490              		.section	.text.brakeMotor,"ax",%progbits
 491              		.align	2
 492              		.global	brakeMotor
 493              		.thumb
 494              		.thumb_func
 495              		.type	brakeMotor, %function
 496              	brakeMotor:
 497              	.LFB65:
 166:.\main.c      **** 
 167:.\main.c      **** void brakeMotor(){
 498              		.loc 1 167 0
 499              		.cfi_startproc
 500              		@ args = 0, pretend = 0, frame = 0
 501              		@ frame_needed = 1, uses_anonymous_args = 0
 502 0000 80B5     		push	{r7, lr}
 503              		.cfi_def_cfa_offset 8
 504              		.cfi_offset 7, -8
 505              		.cfi_offset 14, -4
 506 0002 00AF     		add	r7, sp, #0
 507              		.cfi_def_cfa_register 7
 168:.\main.c      ****     setSpeed(0, 0);
 508              		.loc 1 168 0
 509 0004 0020     		movs	r0, #0
 510 0006 0021     		movs	r1, #0
ARM GAS  C:\Users\lken274\AppData\Local\Temp\ccaXuJBR.s 			page 13


 511 0008 FFF7FEFF 		bl	setSpeed
 169:.\main.c      ****     PWM_1_WriteCompare(0);
 512              		.loc 1 169 0
 513 000c 0020     		movs	r0, #0
 514 000e FFF7FEFF 		bl	PWM_1_WriteCompare
 170:.\main.c      ****     PWM_2_WriteCompare(0);
 515              		.loc 1 170 0
 516 0012 0020     		movs	r0, #0
 517 0014 FFF7FEFF 		bl	PWM_2_WriteCompare
 171:.\main.c      ****     right_duty_cycle = 0;
 518              		.loc 1 171 0
 519 0018 034B     		ldr	r3, .L27
 520 001a 0022     		movs	r2, #0
 521 001c 1A80     		strh	r2, [r3]	@ movhi
 172:.\main.c      ****     left_duty_cycle = 0;
 522              		.loc 1 172 0
 523 001e 034B     		ldr	r3, .L27+4
 524 0020 0022     		movs	r2, #0
 525 0022 1A80     		strh	r2, [r3]	@ movhi
 173:.\main.c      **** }
 526              		.loc 1 173 0
 527 0024 80BD     		pop	{r7, pc}
 528              	.L28:
 529 0026 00BF     		.align	2
 530              	.L27:
 531 0028 00000000 		.word	right_duty_cycle
 532 002c 00000000 		.word	left_duty_cycle
 533              		.cfi_endproc
 534              	.LFE65:
 535              		.size	brakeMotor, .-brakeMotor
 536              		.section	.text.driveForwards,"ax",%progbits
 537              		.align	2
 538              		.global	driveForwards
 539              		.thumb
 540              		.thumb_func
 541              		.type	driveForwards, %function
 542              	driveForwards:
 543              	.LFB66:
 174:.\main.c      **** 
 175:.\main.c      **** void driveForwards()
 176:.\main.c      **** {
 544              		.loc 1 176 0
 545              		.cfi_startproc
 546              		@ args = 0, pretend = 0, frame = 0
 547              		@ frame_needed = 1, uses_anonymous_args = 0
 548 0000 80B5     		push	{r7, lr}
 549              		.cfi_def_cfa_offset 8
 550              		.cfi_offset 7, -8
 551              		.cfi_offset 14, -4
 552 0002 00AF     		add	r7, sp, #0
 553              		.cfi_def_cfa_register 7
 177:.\main.c      ****     setSpeed(20, 20);
 554              		.loc 1 177 0
 555 0004 1420     		movs	r0, #20
 556 0006 1421     		movs	r1, #20
 557 0008 FFF7FEFF 		bl	setSpeed
 178:.\main.c      **** }
ARM GAS  C:\Users\lken274\AppData\Local\Temp\ccaXuJBR.s 			page 14


 558              		.loc 1 178 0
 559 000c 80BD     		pop	{r7, pc}
 560              		.cfi_endproc
 561              	.LFE66:
 562              		.size	driveForwards, .-driveForwards
 563 000e 00BF     		.section	.text.turnLeft,"ax",%progbits
 564              		.align	2
 565              		.global	turnLeft
 566              		.thumb
 567              		.thumb_func
 568              		.type	turnLeft, %function
 569              	turnLeft:
 570              	.LFB67:
 179:.\main.c      **** 
 180:.\main.c      **** void turnLeft()
 181:.\main.c      **** {
 571              		.loc 1 181 0
 572              		.cfi_startproc
 573              		@ args = 0, pretend = 0, frame = 0
 574              		@ frame_needed = 1, uses_anonymous_args = 0
 575 0000 80B5     		push	{r7, lr}
 576              		.cfi_def_cfa_offset 8
 577              		.cfi_offset 7, -8
 578              		.cfi_offset 14, -4
 579 0002 00AF     		add	r7, sp, #0
 580              		.cfi_def_cfa_register 7
 182:.\main.c      ****     setSpeed(0,20);
 581              		.loc 1 182 0
 582 0004 0020     		movs	r0, #0
 583 0006 1421     		movs	r1, #20
 584 0008 FFF7FEFF 		bl	setSpeed
 183:.\main.c      **** }
 585              		.loc 1 183 0
 586 000c 80BD     		pop	{r7, pc}
 587              		.cfi_endproc
 588              	.LFE67:
 589              		.size	turnLeft, .-turnLeft
 590 000e 00BF     		.section	.text.turnRight,"ax",%progbits
 591              		.align	2
 592              		.global	turnRight
 593              		.thumb
 594              		.thumb_func
 595              		.type	turnRight, %function
 596              	turnRight:
 597              	.LFB68:
 184:.\main.c      **** 
 185:.\main.c      **** void turnRight()
 186:.\main.c      **** {
 598              		.loc 1 186 0
 599              		.cfi_startproc
 600              		@ args = 0, pretend = 0, frame = 0
 601              		@ frame_needed = 1, uses_anonymous_args = 0
 602 0000 80B5     		push	{r7, lr}
 603              		.cfi_def_cfa_offset 8
 604              		.cfi_offset 7, -8
 605              		.cfi_offset 14, -4
 606 0002 00AF     		add	r7, sp, #0
ARM GAS  C:\Users\lken274\AppData\Local\Temp\ccaXuJBR.s 			page 15


 607              		.cfi_def_cfa_register 7
 187:.\main.c      ****     setSpeed(20,0);
 608              		.loc 1 187 0
 609 0004 1420     		movs	r0, #20
 610 0006 0021     		movs	r1, #0
 611 0008 FFF7FEFF 		bl	setSpeed
 188:.\main.c      **** }
 612              		.loc 1 188 0
 613 000c 80BD     		pop	{r7, pc}
 614              		.cfi_endproc
 615              	.LFE68:
 616              		.size	turnRight, .-turnRight
 617 000e 00BF     		.section	.text.rxInt,"ax",%progbits
 618              		.align	2
 619              		.global	rxInt
 620              		.thumb
 621              		.thumb_func
 622              		.type	rxInt, %function
 623              	rxInt:
 624              	.LFB69:
 189:.\main.c      **** 
 190:.\main.c      **** 
 191:.\main.c      **** //Binary RF Data
 192:.\main.c      **** CY_ISR(rxInt){
 625              		.loc 1 192 0
 626              		.cfi_startproc
 627              		@ args = 0, pretend = 0, frame = 8
 628              		@ frame_needed = 1, uses_anonymous_args = 0
 629 0000 B0B5     		push	{r4, r5, r7, lr}
 630              		.cfi_def_cfa_offset 16
 631              		.cfi_offset 4, -16
 632              		.cfi_offset 5, -12
 633              		.cfi_offset 7, -8
 634              		.cfi_offset 14, -4
 635 0002 82B0     		sub	sp, sp, #8
 636              		.cfi_def_cfa_offset 24
 637 0004 00AF     		add	r7, sp, #0
 638              		.cfi_def_cfa_register 7
 193:.\main.c      ****     char rf_char = UART_GetChar();
 639              		.loc 1 193 0
 640 0006 FFF7FEFF 		bl	UART_GetChar
 641 000a 0346     		mov	r3, r0
 642 000c FB71     		strb	r3, [r7, #7]
 194:.\main.c      ****     if(rf_char == SOP){
 643              		.loc 1 194 0
 644 000e FB79     		ldrb	r3, [r7, #7]	@ zero_extendqisi2
 645 0010 AA2B     		cmp	r3, #170
 646 0012 1CD1     		bne	.L33
 195:.\main.c      ****             //we should evalute whether the last packet was valid by measuring the length of data
 196:.\main.c      ****             if(byteCount == 34)
 647              		.loc 1 196 0
 648 0014 1B4B     		ldr	r3, .L37
 649 0016 1B78     		ldrb	r3, [r3]	@ zero_extendqisi2
 650 0018 222B     		cmp	r3, #34
 651 001a 11D1     		bne	.L34
 197:.\main.c      ****             {
 198:.\main.c      ****                 system_state = buffer_state;
ARM GAS  C:\Users\lken274\AppData\Local\Temp\ccaXuJBR.s 			page 16


 652              		.loc 1 198 0
 653 001c 1A4B     		ldr	r3, .L37+4
 654 001e 1B4A     		ldr	r2, .L37+8
 655 0020 1568     		ldr	r5, [r2]	@ unaligned
 656 0022 5468     		ldr	r4, [r2, #4]	@ unaligned
 657 0024 9068     		ldr	r0, [r2, #8]	@ unaligned
 658 0026 D168     		ldr	r1, [r2, #12]	@ unaligned
 659 0028 1D60     		str	r5, [r3]	@ unaligned
 660 002a 5C60     		str	r4, [r3, #4]	@ unaligned
 661 002c 9860     		str	r0, [r3, #8]	@ unaligned
 662 002e D960     		str	r1, [r3, #12]	@ unaligned
 663 0030 1569     		ldr	r5, [r2, #16]	@ unaligned
 664 0032 5469     		ldr	r4, [r2, #20]	@ unaligned
 665 0034 9069     		ldr	r0, [r2, #24]	@ unaligned
 666 0036 D169     		ldr	r1, [r2, #28]	@ unaligned
 667 0038 1D61     		str	r5, [r3, #16]	@ unaligned
 668 003a 5C61     		str	r4, [r3, #20]	@ unaligned
 669 003c 9861     		str	r0, [r3, #24]	@ unaligned
 670 003e D961     		str	r1, [r3, #28]	@ unaligned
 671              	.L34:
 199:.\main.c      ****             }
 200:.\main.c      ****             byteCount = 2; //2 for legacy purposes - fix this
 672              		.loc 1 200 0
 673 0040 104B     		ldr	r3, .L37
 674 0042 0222     		movs	r2, #2
 675 0044 1A70     		strb	r2, [r3]
 201:.\main.c      ****             flag_rx = 0;
 676              		.loc 1 201 0
 677 0046 124B     		ldr	r3, .L37+12
 678 0048 0022     		movs	r2, #0
 679 004a 1A70     		strb	r2, [r3]
 680 004c 16E0     		b	.L32
 681              	.L33:
 202:.\main.c      ****              //LED_Write(~LED_Read()); //flash an LED so we know the interrupt is called
 203:.\main.c      ****         }
 204:.\main.c      ****         else
 205:.\main.c      ****         {
 206:.\main.c      ****             packet[byteCount % 2] = rf_char;
 682              		.loc 1 206 0
 683 004e 0D4B     		ldr	r3, .L37
 684 0050 1B78     		ldrb	r3, [r3]	@ zero_extendqisi2
 685 0052 03F00103 		and	r3, r3, #1
 686 0056 0F49     		ldr	r1, .L37+16
 687 0058 FA79     		ldrb	r2, [r7, #7]
 688 005a CA54     		strb	r2, [r1, r3]
 207:.\main.c      ****            
 208:.\main.c      ****             if(byteCount % 2 == 1) //we have received a whole 16-bit packet
 689              		.loc 1 208 0
 690 005c 094B     		ldr	r3, .L37
 691 005e 1B78     		ldrb	r3, [r3]	@ zero_extendqisi2
 692 0060 03F00103 		and	r3, r3, #1
 693 0064 DBB2     		uxtb	r3, r3
 694 0066 002B     		cmp	r3, #0
 695 0068 02D0     		beq	.L36
 209:.\main.c      ****             {
 210:.\main.c      ****                 flag_rx = 1;
 696              		.loc 1 210 0
ARM GAS  C:\Users\lken274\AppData\Local\Temp\ccaXuJBR.s 			page 17


 697 006a 094B     		ldr	r3, .L37+12
 698 006c 0122     		movs	r2, #1
 699 006e 1A70     		strb	r2, [r3]
 700              	.L36:
 211:.\main.c      ****             }
 212:.\main.c      ****             byteCount = (byteCount + 1);
 701              		.loc 1 212 0
 702 0070 044B     		ldr	r3, .L37
 703 0072 1B78     		ldrb	r3, [r3]	@ zero_extendqisi2
 704 0074 0133     		adds	r3, r3, #1
 705 0076 DAB2     		uxtb	r2, r3
 706 0078 024B     		ldr	r3, .L37
 707 007a 1A70     		strb	r2, [r3]
 708              	.L32:
 213:.\main.c      ****         }
 214:.\main.c      **** }
 709              		.loc 1 214 0
 710 007c 0837     		adds	r7, r7, #8
 711              		.cfi_def_cfa_offset 16
 712 007e BD46     		mov	sp, r7
 713              		.cfi_def_cfa_register 13
 714              		@ sp needed
 715 0080 B0BD     		pop	{r4, r5, r7, pc}
 716              	.L38:
 717 0082 00BF     		.align	2
 718              	.L37:
 719 0084 00000000 		.word	byteCount
 720 0088 00000000 		.word	system_state
 721 008c 00000000 		.word	buffer_state
 722 0090 00000000 		.word	flag_rx
 723 0094 00000000 		.word	packet
 724              		.cfi_endproc
 725              	.LFE69:
 726              		.size	rxInt, .-rxInt
 727              		.section	.text.adc_isr,"ax",%progbits
 728              		.align	2
 729              		.global	adc_isr
 730              		.thumb
 731              		.thumb_func
 732              		.type	adc_isr, %function
 733              	adc_isr:
 734              	.LFB70:
 215:.\main.c      **** 
 216:.\main.c      **** //ADC:
 217:.\main.c      **** CY_ISR (adc_isr)
 218:.\main.c      **** {
 735              		.loc 1 218 0
 736              		.cfi_startproc
 737              		@ args = 0, pretend = 0, frame = 0
 738              		@ frame_needed = 1, uses_anonymous_args = 0
 739 0000 80B5     		push	{r7, lr}
 740              		.cfi_def_cfa_offset 8
 741              		.cfi_offset 7, -8
 742              		.cfi_offset 14, -4
 743 0002 00AF     		add	r7, sp, #0
 744              		.cfi_def_cfa_register 7
 219:.\main.c      ****     //adc_result = ADC_GetResult16(0);
ARM GAS  C:\Users\lken274\AppData\Local\Temp\ccaXuJBR.s 			page 18


 220:.\main.c      ****     adc_result = ADC_GetResult16();
 745              		.loc 1 220 0
 746 0004 FFF7FEFF 		bl	ADC_GetResult16
 747 0008 0346     		mov	r3, r0
 748 000a 1A46     		mov	r2, r3
 749 000c 044B     		ldr	r3, .L40
 750 000e 1A80     		strh	r2, [r3]	@ movhi
 221:.\main.c      ****     flag_receive_ADC = 1;
 751              		.loc 1 221 0
 752 0010 044B     		ldr	r3, .L40+4
 753 0012 0122     		movs	r2, #1
 754 0014 1A70     		strb	r2, [r3]
 222:.\main.c      ****     flag_print_rf = 1;
 755              		.loc 1 222 0
 756 0016 044B     		ldr	r3, .L40+8
 757 0018 0122     		movs	r2, #1
 758 001a 1A70     		strb	r2, [r3]
 223:.\main.c      ****     //LED_Write(~LED_Read());
 224:.\main.c      **** }
 759              		.loc 1 224 0
 760 001c 80BD     		pop	{r7, pc}
 761              	.L41:
 762 001e 00BF     		.align	2
 763              	.L40:
 764 0020 00000000 		.word	adc_result
 765 0024 00000000 		.word	flag_receive_ADC
 766 0028 00000000 		.word	flag_print_rf
 767              		.cfi_endproc
 768              	.LFE70:
 769              		.size	adc_isr, .-adc_isr
 770              		.section	.text.isr_quad1,"ax",%progbits
 771              		.align	2
 772              		.global	isr_quad1
 773              		.thumb
 774              		.thumb_func
 775              		.type	isr_quad1, %function
 776              	isr_quad1:
 777              	.LFB71:
 225:.\main.c      **** 
 226:.\main.c      **** CY_ISR (isr_quad1)
 227:.\main.c      **** {
 778              		.loc 1 227 0
 779              		.cfi_startproc
 780              		@ args = 0, pretend = 0, frame = 0
 781              		@ frame_needed = 1, uses_anonymous_args = 0
 782 0000 80B5     		push	{r7, lr}
 783              		.cfi_def_cfa_offset 8
 784              		.cfi_offset 7, -8
 785              		.cfi_offset 14, -4
 786 0002 00AF     		add	r7, sp, #0
 787              		.cfi_def_cfa_register 7
 228:.\main.c      ****     //LED_Write(~LED_Read());
 229:.\main.c      ****     last_quad_count1 = quad_count1;
 788              		.loc 1 229 0
 789 0004 244B     		ldr	r3, .L44
 790 0006 1A88     		ldrh	r2, [r3]
 791 0008 244B     		ldr	r3, .L44+4
ARM GAS  C:\Users\lken274\AppData\Local\Temp\ccaXuJBR.s 			page 19


 792 000a 1A80     		strh	r2, [r3]	@ movhi
 230:.\main.c      ****     last_quad_count2 = quad_count2;
 793              		.loc 1 230 0
 794 000c 244B     		ldr	r3, .L44+8
 795 000e 1A88     		ldrh	r2, [r3]
 796 0010 244B     		ldr	r3, .L44+12
 797 0012 1A80     		strh	r2, [r3]	@ movhi
 231:.\main.c      ****     quad_count1 = QuadDec_M1_GetCounter();
 798              		.loc 1 231 0
 799 0014 FFF7FEFF 		bl	QuadDec_M1_GetCounter
 800 0018 0346     		mov	r3, r0
 801 001a 1A46     		mov	r2, r3
 802 001c 1E4B     		ldr	r3, .L44
 803 001e 1A80     		strh	r2, [r3]	@ movhi
 232:.\main.c      ****     quad_count2 = QuadDec_M2_GetCounter();
 804              		.loc 1 232 0
 805 0020 FFF7FEFF 		bl	QuadDec_M2_GetCounter
 806 0024 0346     		mov	r3, r0
 807 0026 1A46     		mov	r2, r3
 808 0028 1D4B     		ldr	r3, .L44+8
 809 002a 1A80     		strh	r2, [r3]	@ movhi
 233:.\main.c      ****     quad_diff1 = quad_count1 - last_quad_count1;
 810              		.loc 1 233 0
 811 002c 1A4B     		ldr	r3, .L44
 812 002e 1B88     		ldrh	r3, [r3]
 813 0030 9AB2     		uxth	r2, r3
 814 0032 1A4B     		ldr	r3, .L44+4
 815 0034 1B88     		ldrh	r3, [r3]
 816 0036 9BB2     		uxth	r3, r3
 817 0038 D31A     		subs	r3, r2, r3
 818 003a 9BB2     		uxth	r3, r3
 819 003c 9AB2     		uxth	r2, r3
 820 003e 1A4B     		ldr	r3, .L44+16
 821 0040 1A80     		strh	r2, [r3]	@ movhi
 234:.\main.c      ****     quad_diff2 = quad_count2 - last_quad_count2;
 822              		.loc 1 234 0
 823 0042 174B     		ldr	r3, .L44+8
 824 0044 1B88     		ldrh	r3, [r3]
 825 0046 9AB2     		uxth	r2, r3
 826 0048 164B     		ldr	r3, .L44+12
 827 004a 1B88     		ldrh	r3, [r3]
 828 004c 9BB2     		uxth	r3, r3
 829 004e D31A     		subs	r3, r2, r3
 830 0050 9BB2     		uxth	r3, r3
 831 0052 9AB2     		uxth	r2, r3
 832 0054 154B     		ldr	r3, .L44+20
 833 0056 1A80     		strh	r2, [r3]	@ movhi
 235:.\main.c      ****     
 236:.\main.c      ****     if(quad_count1 > 3000 && movement_state != LTURN && movement_state != RTURN)
 834              		.loc 1 236 0
 835 0058 0F4B     		ldr	r3, .L44
 836 005a 1B88     		ldrh	r3, [r3]
 837 005c 1BB2     		sxth	r3, r3
 838 005e 40F6B832 		movw	r2, #3000
 839 0062 9342     		cmp	r3, r2
 840 0064 13DD     		ble	.L43
 841              		.loc 1 236 0 is_stmt 0 discriminator 1
ARM GAS  C:\Users\lken274\AppData\Local\Temp\ccaXuJBR.s 			page 20


 842 0066 124B     		ldr	r3, .L44+24
 843 0068 1B78     		ldrb	r3, [r3]	@ zero_extendqisi2
 844 006a 012B     		cmp	r3, #1
 845 006c 0FD0     		beq	.L43
 846              		.loc 1 236 0 discriminator 2
 847 006e 104B     		ldr	r3, .L44+24
 848 0070 1B78     		ldrb	r3, [r3]	@ zero_extendqisi2
 849 0072 022B     		cmp	r3, #2
 850 0074 0BD0     		beq	.L43
 237:.\main.c      ****     {
 238:.\main.c      ****         QuadDec_M1_SetCounter(0);
 851              		.loc 1 238 0 is_stmt 1
 852 0076 0020     		movs	r0, #0
 853 0078 FFF7FEFF 		bl	QuadDec_M1_SetCounter
 239:.\main.c      ****         QuadDec_M2_SetCounter(0);
 854              		.loc 1 239 0
 855 007c 0020     		movs	r0, #0
 856 007e FFF7FEFF 		bl	QuadDec_M2_SetCounter
 240:.\main.c      ****         quad_count1 = 0;
 857              		.loc 1 240 0
 858 0082 054B     		ldr	r3, .L44
 859 0084 0022     		movs	r2, #0
 860 0086 1A80     		strh	r2, [r3]	@ movhi
 241:.\main.c      ****         quad_count2 = 0;
 861              		.loc 1 241 0
 862 0088 054B     		ldr	r3, .L44+8
 863 008a 0022     		movs	r2, #0
 864 008c 1A80     		strh	r2, [r3]	@ movhi
 865              	.L43:
 242:.\main.c      ****     }
 243:.\main.c      **** 
 244:.\main.c      ****     flag_calc_wheelspeed = 1;
 866              		.loc 1 244 0
 867 008e 094B     		ldr	r3, .L44+28
 868 0090 0122     		movs	r2, #1
 869 0092 1A70     		strb	r2, [r3]
 245:.\main.c      **** }
 870              		.loc 1 245 0
 871 0094 80BD     		pop	{r7, pc}
 872              	.L45:
 873 0096 00BF     		.align	2
 874              	.L44:
 875 0098 00000000 		.word	quad_count1
 876 009c 00000000 		.word	last_quad_count1
 877 00a0 00000000 		.word	quad_count2
 878 00a4 00000000 		.word	last_quad_count2
 879 00a8 00000000 		.word	quad_diff1
 880 00ac 00000000 		.word	quad_diff2
 881 00b0 00000000 		.word	movement_state
 882 00b4 00000000 		.word	flag_calc_wheelspeed
 883              		.cfi_endproc
 884              	.LFE71:
 885              		.size	isr_quad1, .-isr_quad1
 886              		.section	.text.isr_turn_timer,"ax",%progbits
 887              		.align	2
 888              		.global	isr_turn_timer
 889              		.thumb
ARM GAS  C:\Users\lken274\AppData\Local\Temp\ccaXuJBR.s 			page 21


 890              		.thumb_func
 891              		.type	isr_turn_timer, %function
 892              	isr_turn_timer:
 893              	.LFB72:
 246:.\main.c      **** 
 247:.\main.c      **** CY_ISR(isr_turn_timer)
 248:.\main.c      **** {
 894              		.loc 1 248 0
 895              		.cfi_startproc
 896              		@ args = 0, pretend = 0, frame = 0
 897              		@ frame_needed = 1, uses_anonymous_args = 0
 898 0000 80B5     		push	{r7, lr}
 899              		.cfi_def_cfa_offset 8
 900              		.cfi_offset 7, -8
 901              		.cfi_offset 14, -4
 902 0002 00AF     		add	r7, sp, #0
 903              		.cfi_def_cfa_register 7
 249:.\main.c      ****     if(movement_state == LTURN)
 904              		.loc 1 249 0
 905 0004 134B     		ldr	r3, .L50
 906 0006 1B78     		ldrb	r3, [r3]	@ zero_extendqisi2
 907 0008 012B     		cmp	r3, #1
 908 000a 0FD1     		bne	.L47
 250:.\main.c      ****     {
 251:.\main.c      ****         if((QuadDec_M2_GetCounter() - start_turn_count) >= 208)
 909              		.loc 1 251 0
 910 000c FFF7FEFF 		bl	QuadDec_M2_GetCounter
 911 0010 0346     		mov	r3, r0
 912 0012 1A46     		mov	r2, r3
 913 0014 104B     		ldr	r3, .L50+4
 914 0016 1B88     		ldrh	r3, [r3]
 915 0018 1BB2     		sxth	r3, r3
 916 001a D31A     		subs	r3, r2, r3
 917 001c CF2B     		cmp	r3, #207
 918 001e 18DD     		ble	.L46
 252:.\main.c      ****         {
 253:.\main.c      ****             movement_state = STOPPED;
 919              		.loc 1 253 0
 920 0020 0C4B     		ldr	r3, .L50
 921 0022 0322     		movs	r2, #3
 922 0024 1A70     		strb	r2, [r3]
 254:.\main.c      ****             Timer_2_Stop();
 923              		.loc 1 254 0
 924 0026 FFF7FEFF 		bl	Timer_2_Stop
 925 002a 12E0     		b	.L46
 926              	.L47:
 255:.\main.c      ****         }
 256:.\main.c      ****     }
 257:.\main.c      ****     else if (movement_state == RTURN)
 927              		.loc 1 257 0
 928 002c 094B     		ldr	r3, .L50
 929 002e 1B78     		ldrb	r3, [r3]	@ zero_extendqisi2
 930 0030 022B     		cmp	r3, #2
 931 0032 0ED1     		bne	.L46
 258:.\main.c      ****     {
 259:.\main.c      ****         if((QuadDec_M1_GetCounter() - start_turn_count) >= 208)
 932              		.loc 1 259 0
ARM GAS  C:\Users\lken274\AppData\Local\Temp\ccaXuJBR.s 			page 22


 933 0034 FFF7FEFF 		bl	QuadDec_M1_GetCounter
 934 0038 0346     		mov	r3, r0
 935 003a 1A46     		mov	r2, r3
 936 003c 064B     		ldr	r3, .L50+4
 937 003e 1B88     		ldrh	r3, [r3]
 938 0040 1BB2     		sxth	r3, r3
 939 0042 D31A     		subs	r3, r2, r3
 940 0044 CF2B     		cmp	r3, #207
 941 0046 04DD     		ble	.L46
 260:.\main.c      ****         {
 261:.\main.c      ****             movement_state = STOPPED;
 942              		.loc 1 261 0
 943 0048 024B     		ldr	r3, .L50
 944 004a 0322     		movs	r2, #3
 945 004c 1A70     		strb	r2, [r3]
 262:.\main.c      ****             Timer_2_Stop();
 946              		.loc 1 262 0
 947 004e FFF7FEFF 		bl	Timer_2_Stop
 948              	.L46:
 263:.\main.c      ****         }
 264:.\main.c      ****     }
 265:.\main.c      **** }
 949              		.loc 1 265 0
 950 0052 80BD     		pop	{r7, pc}
 951              	.L51:
 952              		.align	2
 953              	.L50:
 954 0054 00000000 		.word	movement_state
 955 0058 00000000 		.word	start_turn_count
 956              		.cfi_endproc
 957              	.LFE72:
 958              		.size	isr_turn_timer, .-isr_turn_timer
 959              		.section	.text.Stop_on_line,"ax",%progbits
 960              		.align	2
 961              		.global	Stop_on_line
 962              		.thumb
 963              		.thumb_func
 964              		.type	Stop_on_line, %function
 965              	Stop_on_line:
 966              	.LFB73:
 266:.\main.c      **** 
 267:.\main.c      **** 
 268:.\main.c      **** CY_ISR (Stop_on_line)
 269:.\main.c      **** {
 967              		.loc 1 269 0
 968              		.cfi_startproc
 969              		@ args = 0, pretend = 0, frame = 0
 970              		@ frame_needed = 1, uses_anonymous_args = 0
 971 0000 80B5     		push	{r7, lr}
 972              		.cfi_def_cfa_offset 8
 973              		.cfi_offset 7, -8
 974              		.cfi_offset 14, -4
 975 0002 00AF     		add	r7, sp, #0
 976              		.cfi_def_cfa_register 7
 270:.\main.c      ****     //movement_state = STOPPED;
 271:.\main.c      ****     if(movement_state != DRIVE) return;
 977              		.loc 1 271 0
ARM GAS  C:\Users\lken274\AppData\Local\Temp\ccaXuJBR.s 			page 23


 978 0004 094B     		ldr	r3, .L55
 979 0006 1B78     		ldrb	r3, [r3]	@ zero_extendqisi2
 980 0008 002B     		cmp	r3, #0
 981 000a 00D0     		beq	.L53
 982 000c 0CE0     		b	.L52
 983              	.L53:
 272:.\main.c      ****     brakeMotor();
 984              		.loc 1 272 0
 985 000e FFF7FEFF 		bl	brakeMotor
 273:.\main.c      ****     movement_state = LTURN;
 986              		.loc 1 273 0
 987 0012 064B     		ldr	r3, .L55
 988 0014 0122     		movs	r2, #1
 989 0016 1A70     		strb	r2, [r3]
 274:.\main.c      ****     start_turn_count = QuadDec_M2_GetCounter();
 990              		.loc 1 274 0
 991 0018 FFF7FEFF 		bl	QuadDec_M2_GetCounter
 992 001c 0346     		mov	r3, r0
 993 001e 1A46     		mov	r2, r3
 994 0020 034B     		ldr	r3, .L55+4
 995 0022 1A80     		strh	r2, [r3]	@ movhi
 275:.\main.c      ****     Timer_2_Start();
 996              		.loc 1 275 0
 997 0024 FFF7FEFF 		bl	Timer_2_Start
 998              	.L52:
 276:.\main.c      **** }
 999              		.loc 1 276 0
 1000 0028 80BD     		pop	{r7, pc}
 1001              	.L56:
 1002 002a 00BF     		.align	2
 1003              	.L55:
 1004 002c 00000000 		.word	movement_state
 1005 0030 00000000 		.word	start_turn_count
 1006              		.cfi_endproc
 1007              	.LFE73:
 1008              		.size	Stop_on_line, .-Stop_on_line
 1009              		.section	.text.button,"ax",%progbits
 1010              		.align	2
 1011              		.global	button
 1012              		.thumb
 1013              		.thumb_func
 1014              		.type	button, %function
 1015              	button:
 1016              	.LFB74:
 277:.\main.c      **** 
 278:.\main.c      **** CY_ISR (button)
 279:.\main.c      **** {
 1017              		.loc 1 279 0
 1018              		.cfi_startproc
 1019              		@ args = 0, pretend = 0, frame = 0
 1020              		@ frame_needed = 1, uses_anonymous_args = 0
 1021              		@ link register save eliminated.
 1022 0000 80B4     		push	{r7}
 1023              		.cfi_def_cfa_offset 4
 1024              		.cfi_offset 7, -4
 1025 0002 00AF     		add	r7, sp, #0
 1026              		.cfi_def_cfa_register 7
ARM GAS  C:\Users\lken274\AppData\Local\Temp\ccaXuJBR.s 			page 24


 280:.\main.c      ****     movement_state = DRIVE;
 1027              		.loc 1 280 0
 1028 0004 034B     		ldr	r3, .L58
 1029 0006 0022     		movs	r2, #0
 1030 0008 1A70     		strb	r2, [r3]
 281:.\main.c      **** }
 1031              		.loc 1 281 0
 1032 000a BD46     		mov	sp, r7
 1033              		.cfi_def_cfa_register 13
 1034              		@ sp needed
 1035 000c 5DF8047B 		ldr	r7, [sp], #4
 1036              		.cfi_restore 7
 1037              		.cfi_def_cfa_offset 0
 1038 0010 7047     		bx	lr
 1039              	.L59:
 1040 0012 00BF     		.align	2
 1041              	.L58:
 1042 0014 00000000 		.word	movement_state
 1043              		.cfi_endproc
 1044              	.LFE74:
 1045              		.size	button, .-button
 1046              		.section	.text.isr_adcTimer,"ax",%progbits
 1047              		.align	2
 1048              		.global	isr_adcTimer
 1049              		.thumb
 1050              		.thumb_func
 1051              		.type	isr_adcTimer, %function
 1052              	isr_adcTimer:
 1053              	.LFB75:
 282:.\main.c      **** 
 283:.\main.c      **** CY_ISR(isr_adcTimer)
 284:.\main.c      **** {
 1054              		.loc 1 284 0
 1055              		.cfi_startproc
 1056              		@ args = 0, pretend = 0, frame = 0
 1057              		@ frame_needed = 1, uses_anonymous_args = 0
 1058 0000 80B5     		push	{r7, lr}
 1059              		.cfi_def_cfa_offset 8
 1060              		.cfi_offset 7, -8
 1061              		.cfi_offset 14, -4
 1062 0002 00AF     		add	r7, sp, #0
 1063              		.cfi_def_cfa_register 7
 285:.\main.c      ****     ADC_StartConvert();
 1064              		.loc 1 285 0
 1065 0004 FFF7FEFF 		bl	ADC_StartConvert
 286:.\main.c      **** }
 1066              		.loc 1 286 0
 1067 0008 80BD     		pop	{r7, pc}
 1068              		.cfi_endproc
 1069              	.LFE75:
 1070              		.size	isr_adcTimer, .-isr_adcTimer
 1071 000a 00BF     		.section	.rodata
 1072              		.align	2
 1073              	.LC0:
 1074 0000 71756164 		.ascii	"quad count 1 is: %d\012\015\000"
 1074      20636F75 
 1074      6E742031 
ARM GAS  C:\Users\lken274\AppData\Local\Temp\ccaXuJBR.s 			page 25


 1074      2069733A 
 1074      2025640A 
 1075 0016 0000     		.align	2
 1076              	.LC1:
 1077 0018 71756164 		.ascii	"quad count 2 is: %d\012\015\000"
 1077      20636F75 
 1077      6E742032 
 1077      2069733A 
 1077      2025640A 
 1078              		.global	__aeabi_i2d
 1079              		.global	__aeabi_dmul
 1080              		.global	__aeabi_d2iz
 1081              		.section	.text.Quad_Dec_response,"ax",%progbits
 1082              		.align	2
 1083              		.global	Quad_Dec_response
 1084              		.thumb
 1085              		.thumb_func
 1086              		.type	Quad_Dec_response, %function
 1087              	Quad_Dec_response:
 1088              	.LFB76:
 287:.\main.c      **** 
 288:.\main.c      **** void Quad_Dec_response()
 289:.\main.c      **** {
 1089              		.loc 1 289 0
 1090              		.cfi_startproc
 1091              		@ args = 0, pretend = 0, frame = 144
 1092              		@ frame_needed = 1, uses_anonymous_args = 0
 1093 0000 B0B5     		push	{r4, r5, r7, lr}
 1094              		.cfi_def_cfa_offset 16
 1095              		.cfi_offset 4, -16
 1096              		.cfi_offset 5, -12
 1097              		.cfi_offset 7, -8
 1098              		.cfi_offset 14, -4
 1099 0002 A4B0     		sub	sp, sp, #144
 1100              		.cfi_def_cfa_offset 160
 1101 0004 00AF     		add	r7, sp, #0
 1102              		.cfi_def_cfa_register 7
 290:.\main.c      ****     //Check if the flag has been set
 291:.\main.c      ****     if (!flag_calc_wheelspeed) return;
 1103              		.loc 1 291 0
 1104 0006 6B4B     		ldr	r3, .L68
 1105 0008 1B78     		ldrb	r3, [r3]	@ zero_extendqisi2
 1106 000a 002B     		cmp	r3, #0
 1107 000c 00F0CE80 		beq	.L61
 292:.\main.c      ****     flag_calc_wheelspeed = 0;
 1108              		.loc 1 292 0
 1109 0010 684B     		ldr	r3, .L68
 1110 0012 0022     		movs	r2, #0
 1111 0014 1A70     		strb	r2, [r3]
 293:.\main.c      ****     
 294:.\main.c      ****     char wheel_1_str [64];
 295:.\main.c      ****     char wheel_2_str [64];
 296:.\main.c      ****     sprintf(wheel_1_str, "quad count 1 is: %d\n\r", quad_diff1);
 1112              		.loc 1 296 0
 1113 0016 684B     		ldr	r3, .L68+4
 1114 0018 1B88     		ldrh	r3, [r3]
 1115 001a 1BB2     		sxth	r3, r3
ARM GAS  C:\Users\lken274\AppData\Local\Temp\ccaXuJBR.s 			page 26


 1116 001c 07F14402 		add	r2, r7, #68
 1117 0020 1046     		mov	r0, r2
 1118 0022 6649     		ldr	r1, .L68+8
 1119 0024 1A46     		mov	r2, r3
 1120 0026 FFF7FEFF 		bl	sprintf
 297:.\main.c      ****     //usbPutString(wheel_1_str);
 298:.\main.c      ****     sprintf(wheel_2_str, "quad count 2 is: %d\n\r", quad_diff2);
 1121              		.loc 1 298 0
 1122 002a 654B     		ldr	r3, .L68+12
 1123 002c 1B88     		ldrh	r3, [r3]
 1124 002e 1BB2     		sxth	r3, r3
 1125 0030 3A1D     		adds	r2, r7, #4
 1126 0032 1046     		mov	r0, r2
 1127 0034 6349     		ldr	r1, .L68+16
 1128 0036 1A46     		mov	r2, r3
 1129 0038 FFF7FEFF 		bl	sprintf
 299:.\main.c      ****     
 300:.\main.c      ****     //usbPutString(wheel_2_str);
 301:.\main.c      ****     
 302:.\main.c      ****     int16 leftSpeed = quad_diff1;
 1130              		.loc 1 302 0
 1131 003c 5E4B     		ldr	r3, .L68+4
 1132 003e 1B88     		ldrh	r3, [r3]	@ movhi
 1133 0040 A7F88E30 		strh	r3, [r7, #142]	@ movhi
 303:.\main.c      ****     int16 rightSpeed = quad_diff2;
 1134              		.loc 1 303 0
 1135 0044 5E4B     		ldr	r3, .L68+12
 1136 0046 1B88     		ldrh	r3, [r3]	@ movhi
 1137 0048 A7F88C30 		strh	r3, [r7, #140]	@ movhi
 304:.\main.c      **** 
 305:.\main.c      ****     int interCalc = leftSpeedLimit - abs(leftSpeed);
 1138              		.loc 1 305 0
 1139 004c 5E4B     		ldr	r3, .L68+20
 1140 004e 1B88     		ldrh	r3, [r3]
 1141 0050 1AB2     		sxth	r2, r3
 1142 0052 B7F98E30 		ldrsh	r3, [r7, #142]
 1143 0056 002B     		cmp	r3, #0
 1144 0058 B8BF     		it	lt
 1145 005a 5B42     		rsblt	r3, r3, #0
 1146 005c D31A     		subs	r3, r2, r3
 1147 005e C7F88830 		str	r3, [r7, #136]
 306:.\main.c      ****     int nextSpeed = (abs(interCalc) / interCalc) * sqrt(abs(interCalc));
 1148              		.loc 1 306 0
 1149 0062 D7F88830 		ldr	r3, [r7, #136]
 1150 0066 83EAE372 		eor	r2, r3, r3, asr #31
 1151 006a A2EBE372 		sub	r2, r2, r3, asr #31
 1152 006e D7F88830 		ldr	r3, [r7, #136]
 1153 0072 92FBF3F3 		sdiv	r3, r2, r3
 1154 0076 1846     		mov	r0, r3
 1155 0078 FFF7FEFF 		bl	__aeabi_i2d
 1156 007c 0446     		mov	r4, r0
 1157 007e 0D46     		mov	r5, r1
 1158 0080 D7F88830 		ldr	r3, [r7, #136]
 1159 0084 002B     		cmp	r3, #0
 1160 0086 B8BF     		it	lt
 1161 0088 5B42     		rsblt	r3, r3, #0
 1162 008a 1846     		mov	r0, r3
ARM GAS  C:\Users\lken274\AppData\Local\Temp\ccaXuJBR.s 			page 27


 1163 008c FFF7FEFF 		bl	__aeabi_i2d
 1164 0090 0246     		mov	r2, r0
 1165 0092 0B46     		mov	r3, r1
 1166 0094 1046     		mov	r0, r2
 1167 0096 1946     		mov	r1, r3
 1168 0098 FFF7FEFF 		bl	sqrt
 1169 009c 0246     		mov	r2, r0
 1170 009e 0B46     		mov	r3, r1
 1171 00a0 2046     		mov	r0, r4
 1172 00a2 2946     		mov	r1, r5
 1173 00a4 FFF7FEFF 		bl	__aeabi_dmul
 1174 00a8 0246     		mov	r2, r0
 1175 00aa 0B46     		mov	r3, r1
 1176 00ac 1046     		mov	r0, r2
 1177 00ae 1946     		mov	r1, r3
 1178 00b0 FFF7FEFF 		bl	__aeabi_d2iz
 1179 00b4 0346     		mov	r3, r0
 1180 00b6 C7F88430 		str	r3, [r7, #132]
 307:.\main.c      ****     left_duty_cycle = left_duty_cycle + nextSpeed;
 1181              		.loc 1 307 0
 1182 00ba D7F88430 		ldr	r3, [r7, #132]
 1183 00be 9AB2     		uxth	r2, r3
 1184 00c0 424B     		ldr	r3, .L68+24
 1185 00c2 1B88     		ldrh	r3, [r3]
 1186 00c4 9BB2     		uxth	r3, r3
 1187 00c6 1344     		add	r3, r3, r2
 1188 00c8 9BB2     		uxth	r3, r3
 1189 00ca 9AB2     		uxth	r2, r3
 1190 00cc 3F4B     		ldr	r3, .L68+24
 1191 00ce 1A80     		strh	r2, [r3]	@ movhi
 308:.\main.c      ****     interCalc = rightSpeedLimit - abs(rightSpeed);
 1192              		.loc 1 308 0
 1193 00d0 3F4B     		ldr	r3, .L68+28
 1194 00d2 1B88     		ldrh	r3, [r3]
 1195 00d4 1AB2     		sxth	r2, r3
 1196 00d6 B7F98C30 		ldrsh	r3, [r7, #140]
 1197 00da 002B     		cmp	r3, #0
 1198 00dc B8BF     		it	lt
 1199 00de 5B42     		rsblt	r3, r3, #0
 1200 00e0 D31A     		subs	r3, r2, r3
 1201 00e2 C7F88830 		str	r3, [r7, #136]
 309:.\main.c      ****     nextSpeed = (abs(interCalc) / interCalc) * sqrt(abs(interCalc));
 1202              		.loc 1 309 0
 1203 00e6 D7F88830 		ldr	r3, [r7, #136]
 1204 00ea 83EAE372 		eor	r2, r3, r3, asr #31
 1205 00ee A2EBE372 		sub	r2, r2, r3, asr #31
 1206 00f2 D7F88830 		ldr	r3, [r7, #136]
 1207 00f6 92FBF3F3 		sdiv	r3, r2, r3
 1208 00fa 1846     		mov	r0, r3
 1209 00fc FFF7FEFF 		bl	__aeabi_i2d
 1210 0100 0446     		mov	r4, r0
 1211 0102 0D46     		mov	r5, r1
 1212 0104 D7F88830 		ldr	r3, [r7, #136]
 1213 0108 002B     		cmp	r3, #0
 1214 010a B8BF     		it	lt
 1215 010c 5B42     		rsblt	r3, r3, #0
 1216 010e 1846     		mov	r0, r3
ARM GAS  C:\Users\lken274\AppData\Local\Temp\ccaXuJBR.s 			page 28


 1217 0110 FFF7FEFF 		bl	__aeabi_i2d
 1218 0114 0246     		mov	r2, r0
 1219 0116 0B46     		mov	r3, r1
 1220 0118 1046     		mov	r0, r2
 1221 011a 1946     		mov	r1, r3
 1222 011c FFF7FEFF 		bl	sqrt
 1223 0120 0246     		mov	r2, r0
 1224 0122 0B46     		mov	r3, r1
 1225 0124 2046     		mov	r0, r4
 1226 0126 2946     		mov	r1, r5
 1227 0128 FFF7FEFF 		bl	__aeabi_dmul
 1228 012c 0246     		mov	r2, r0
 1229 012e 0B46     		mov	r3, r1
 1230 0130 1046     		mov	r0, r2
 1231 0132 1946     		mov	r1, r3
 1232 0134 FFF7FEFF 		bl	__aeabi_d2iz
 1233 0138 0346     		mov	r3, r0
 1234 013a C7F88430 		str	r3, [r7, #132]
 310:.\main.c      ****     right_duty_cycle = right_duty_cycle + nextSpeed;
 1235              		.loc 1 310 0
 1236 013e D7F88430 		ldr	r3, [r7, #132]
 1237 0142 9AB2     		uxth	r2, r3
 1238 0144 234B     		ldr	r3, .L68+32
 1239 0146 1B88     		ldrh	r3, [r3]
 1240 0148 9BB2     		uxth	r3, r3
 1241 014a 1344     		add	r3, r3, r2
 1242 014c 9BB2     		uxth	r3, r3
 1243 014e 9AB2     		uxth	r2, r3
 1244 0150 204B     		ldr	r3, .L68+32
 1245 0152 1A80     		strh	r2, [r3]	@ movhi
 311:.\main.c      ****     
 312:.\main.c      ****     if(right_duty_cycle < 0) right_duty_cycle = 0;
 1246              		.loc 1 312 0
 1247 0154 1F4B     		ldr	r3, .L68+32
 1248 0156 1B88     		ldrh	r3, [r3]
 1249 0158 1BB2     		sxth	r3, r3
 1250 015a 002B     		cmp	r3, #0
 1251 015c 02DA     		bge	.L64
 1252              		.loc 1 312 0 is_stmt 0 discriminator 1
 1253 015e 1D4B     		ldr	r3, .L68+32
 1254 0160 0022     		movs	r2, #0
 1255 0162 1A80     		strh	r2, [r3]	@ movhi
 1256              	.L64:
 313:.\main.c      ****     if(left_duty_cycle < 0) left_duty_cycle = 0;
 1257              		.loc 1 313 0 is_stmt 1
 1258 0164 194B     		ldr	r3, .L68+24
 1259 0166 1B88     		ldrh	r3, [r3]
 1260 0168 1BB2     		sxth	r3, r3
 1261 016a 002B     		cmp	r3, #0
 1262 016c 02DA     		bge	.L65
 1263              		.loc 1 313 0 is_stmt 0 discriminator 1
 1264 016e 174B     		ldr	r3, .L68+24
 1265 0170 0022     		movs	r2, #0
 1266 0172 1A80     		strh	r2, [r3]	@ movhi
 1267              	.L65:
 314:.\main.c      ****     if(right_duty_cycle > 100) right_duty_cycle = 100;
 1268              		.loc 1 314 0 is_stmt 1
ARM GAS  C:\Users\lken274\AppData\Local\Temp\ccaXuJBR.s 			page 29


 1269 0174 174B     		ldr	r3, .L68+32
 1270 0176 1B88     		ldrh	r3, [r3]
 1271 0178 1BB2     		sxth	r3, r3
 1272 017a 642B     		cmp	r3, #100
 1273 017c 02DD     		ble	.L66
 1274              		.loc 1 314 0 is_stmt 0 discriminator 1
 1275 017e 154B     		ldr	r3, .L68+32
 1276 0180 6422     		movs	r2, #100
 1277 0182 1A80     		strh	r2, [r3]	@ movhi
 1278              	.L66:
 315:.\main.c      ****     if(left_duty_cycle > 100) left_duty_cycle = 100;
 1279              		.loc 1 315 0 is_stmt 1
 1280 0184 114B     		ldr	r3, .L68+24
 1281 0186 1B88     		ldrh	r3, [r3]
 1282 0188 1BB2     		sxth	r3, r3
 1283 018a 642B     		cmp	r3, #100
 1284 018c 02DD     		ble	.L67
 1285              		.loc 1 315 0 is_stmt 0 discriminator 1
 1286 018e 0F4B     		ldr	r3, .L68+24
 1287 0190 6422     		movs	r2, #100
 1288 0192 1A80     		strh	r2, [r3]	@ movhi
 1289              	.L67:
 316:.\main.c      ****     PWM_1_WriteCompare(left_duty_cycle);
 1290              		.loc 1 316 0 is_stmt 1
 1291 0194 0D4B     		ldr	r3, .L68+24
 1292 0196 1B88     		ldrh	r3, [r3]
 1293 0198 DBB2     		uxtb	r3, r3
 1294 019a 1846     		mov	r0, r3
 1295 019c FFF7FEFF 		bl	PWM_1_WriteCompare
 317:.\main.c      ****     PWM_2_WriteCompare(right_duty_cycle);
 1296              		.loc 1 317 0
 1297 01a0 0C4B     		ldr	r3, .L68+32
 1298 01a2 1B88     		ldrh	r3, [r3]
 1299 01a4 DBB2     		uxtb	r3, r3
 1300 01a6 1846     		mov	r0, r3
 1301 01a8 FFF7FEFF 		bl	PWM_2_WriteCompare
 1302              	.L61:
 318:.\main.c      **** }
 1303              		.loc 1 318 0
 1304 01ac 9037     		adds	r7, r7, #144
 1305              		.cfi_def_cfa_offset 16
 1306 01ae BD46     		mov	sp, r7
 1307              		.cfi_def_cfa_register 13
 1308              		@ sp needed
 1309 01b0 B0BD     		pop	{r4, r5, r7, pc}
 1310              	.L69:
 1311 01b2 00BF     		.align	2
 1312              	.L68:
 1313 01b4 00000000 		.word	flag_calc_wheelspeed
 1314 01b8 00000000 		.word	quad_diff1
 1315 01bc 00000000 		.word	.LC0
 1316 01c0 00000000 		.word	quad_diff2
 1317 01c4 18000000 		.word	.LC1
 1318 01c8 00000000 		.word	leftSpeedLimit
 1319 01cc 00000000 		.word	left_duty_cycle
 1320 01d0 00000000 		.word	rightSpeedLimit
 1321 01d4 00000000 		.word	right_duty_cycle
ARM GAS  C:\Users\lken274\AppData\Local\Temp\ccaXuJBR.s 			page 30


 1322              		.cfi_endproc
 1323              	.LFE76:
 1324              		.size	Quad_Dec_response, .-Quad_Dec_response
 1325              		.global	__aeabi_i2f
 1326              		.global	__aeabi_fmul
 1327              		.global	__aeabi_fadd
 1328              		.global	__aeabi_f2iz
 1329              		.section	.rodata
 1330 002e 0000     		.align	2
 1331              	.LC2:
 1332 0030 42617474 		.ascii	"Battery Voltage: %dmv\012\015\000"
 1332      65727920 
 1332      566F6C74 
 1332      6167653A 
 1332      2025646D 
 1333              		.section	.text.print_ADC,"ax",%progbits
 1334              		.align	2
 1335              		.global	print_ADC
 1336              		.thumb
 1337              		.thumb_func
 1338              		.type	print_ADC, %function
 1339              	print_ADC:
 1340              	.LFB77:
 319:.\main.c      **** 
 320:.\main.c      **** void print_ADC()
 321:.\main.c      **** {
 1341              		.loc 1 321 0
 1342              		.cfi_startproc
 1343              		@ args = 0, pretend = 0, frame = 24
 1344              		@ frame_needed = 1, uses_anonymous_args = 0
 1345 0000 80B5     		push	{r7, lr}
 1346              		.cfi_def_cfa_offset 8
 1347              		.cfi_offset 7, -8
 1348              		.cfi_offset 14, -4
 1349 0002 86B0     		sub	sp, sp, #24
 1350              		.cfi_def_cfa_offset 32
 1351 0004 00AF     		add	r7, sp, #0
 1352              		.cfi_def_cfa_register 7
 322:.\main.c      ****    //usbPutString("HII\n");
 323:.\main.c      ****     if(flag_receive_ADC == 1)
 1353              		.loc 1 323 0
 1354 0006 274B     		ldr	r3, .L73
 1355 0008 1B78     		ldrb	r3, [r3]	@ zero_extendqisi2
 1356 000a 012B     		cmp	r3, #1
 1357 000c 46D1     		bne	.L70
 1358              	.LBB3:
 324:.\main.c      ****     {
 325:.\main.c      ****         //usbPutString("AAA\r\n");
 326:.\main.c      ****         flag_receive_ADC = 0;
 1359              		.loc 1 326 0
 1360 000e 254B     		ldr	r3, .L73
 1361 0010 0022     		movs	r2, #0
 1362 0012 1A70     		strb	r2, [r3]
 327:.\main.c      ****         
 328:.\main.c      ****        // int8 channel = ADC_
 329:.\main.c      ****         float scalingFactor = 0.972;
 1363              		.loc 1 329 0
ARM GAS  C:\Users\lken274\AppData\Local\Temp\ccaXuJBR.s 			page 31


 1364 0014 244B     		ldr	r3, .L73+4
 1365 0016 7B61     		str	r3, [r7, #20]	@ float
 330:.\main.c      ****         int16 converted_val = (5000 * adc_result) / 4096 * scalingFactor * 2;
 1366              		.loc 1 330 0
 1367 0018 244B     		ldr	r3, .L73+8
 1368 001a 1B88     		ldrh	r3, [r3]
 1369 001c 1BB2     		sxth	r3, r3
 1370 001e 41F28832 		movw	r2, #5000
 1371 0022 02FB03F3 		mul	r3, r2, r3
 1372 0026 002B     		cmp	r3, #0
 1373 0028 01DA     		bge	.L72
 1374 002a 03F6FF73 		addw	r3, r3, #4095
 1375              	.L72:
 1376 002e 1B13     		asrs	r3, r3, #12
 1377 0030 1846     		mov	r0, r3
 1378 0032 FFF7FEFF 		bl	__aeabi_i2f
 1379 0036 0346     		mov	r3, r0
 1380 0038 1846     		mov	r0, r3
 1381 003a 7969     		ldr	r1, [r7, #20]	@ float
 1382 003c FFF7FEFF 		bl	__aeabi_fmul
 1383 0040 0346     		mov	r3, r0
 1384 0042 1846     		mov	r0, r3
 1385 0044 1946     		mov	r1, r3
 1386 0046 FFF7FEFF 		bl	__aeabi_fadd
 1387 004a 0346     		mov	r3, r0
 1388 004c 1846     		mov	r0, r3
 1389 004e FFF7FEFF 		bl	__aeabi_f2iz
 1390 0052 0346     		mov	r3, r0
 1391 0054 7B82     		strh	r3, [r7, #18]	@ movhi
 331:.\main.c      ****         converted_val = (converted_val + prevVoltage + prevVoltage2) / 3; //smooth rapid changes in
 1392              		.loc 1 331 0
 1393 0056 B7F91220 		ldrsh	r2, [r7, #18]
 1394 005a 154B     		ldr	r3, .L73+12
 1395 005c 1B88     		ldrh	r3, [r3]
 1396 005e 1BB2     		sxth	r3, r3
 1397 0060 1A44     		add	r2, r2, r3
 1398 0062 144B     		ldr	r3, .L73+16
 1399 0064 1B88     		ldrh	r3, [r3]
 1400 0066 1BB2     		sxth	r3, r3
 1401 0068 1344     		add	r3, r3, r2
 1402 006a 134A     		ldr	r2, .L73+20
 1403 006c 82FB0312 		smull	r1, r2, r2, r3
 1404 0070 DB17     		asrs	r3, r3, #31
 1405 0072 D31A     		subs	r3, r2, r3
 1406 0074 7B82     		strh	r3, [r7, #18]	@ movhi
 332:.\main.c      ****         prevVoltage2 = prevVoltage;
 1407              		.loc 1 332 0
 1408 0076 0E4B     		ldr	r3, .L73+12
 1409 0078 1A88     		ldrh	r2, [r3]
 1410 007a 0E4B     		ldr	r3, .L73+16
 1411 007c 1A80     		strh	r2, [r3]	@ movhi
 333:.\main.c      ****         prevVoltage = converted_val;
 1412              		.loc 1 333 0
 1413 007e 0C4A     		ldr	r2, .L73+12
 1414 0080 7B8A     		ldrh	r3, [r7, #18]	@ movhi
 1415 0082 1380     		strh	r3, [r2]	@ movhi
 334:.\main.c      ****         
ARM GAS  C:\Users\lken274\AppData\Local\Temp\ccaXuJBR.s 			page 32


 335:.\main.c      ****         char result_str[16];
 336:.\main.c      ****         sprintf(result_str, "Battery Voltage: %dmv\n\r", converted_val);
 1416              		.loc 1 336 0
 1417 0084 B7F91230 		ldrsh	r3, [r7, #18]
 1418 0088 3A46     		mov	r2, r7
 1419 008a 1046     		mov	r0, r2
 1420 008c 0B49     		ldr	r1, .L73+24
 1421 008e 1A46     		mov	r2, r3
 1422 0090 FFF7FEFF 		bl	sprintf
 337:.\main.c      ****         
 338:.\main.c      ****         usbPutString(result_str);
 1423              		.loc 1 338 0
 1424 0094 3B46     		mov	r3, r7
 1425 0096 1846     		mov	r0, r3
 1426 0098 FFF7FEFF 		bl	usbPutString
 1427              	.L70:
 1428              	.LBE3:
 339:.\main.c      ****     }
 340:.\main.c      **** }
 1429              		.loc 1 340 0
 1430 009c 1837     		adds	r7, r7, #24
 1431              		.cfi_def_cfa_offset 8
 1432 009e BD46     		mov	sp, r7
 1433              		.cfi_def_cfa_register 13
 1434              		@ sp needed
 1435 00a0 80BD     		pop	{r7, pc}
 1436              	.L74:
 1437 00a2 00BF     		.align	2
 1438              	.L73:
 1439 00a4 00000000 		.word	flag_receive_ADC
 1440 00a8 FED4783F 		.word	1064883454
 1441 00ac 00000000 		.word	adc_result
 1442 00b0 00000000 		.word	prevVoltage
 1443 00b4 00000000 		.word	prevVoltage2
 1444 00b8 56555555 		.word	1431655766
 1445 00bc 30000000 		.word	.LC2
 1446              		.cfi_endproc
 1447              	.LFE77:
 1448              		.size	print_ADC, .-print_ADC
 1449              		.section	.rodata
 1450              		.align	2
 1451              	.LC3:
 1452 0048 52535349 		.ascii	"RSSI:\000"
 1452      3A00
 1453 004e 0000     		.align	2
 1454              	.LC4:
 1455 0050 25640D0A 		.ascii	"%d\015\012\000"
 1455      00
 1456 0055 000000   		.align	2
 1457              	.LC5:
 1458 0058 726F626F 		.ascii	"robot_x:\000"
 1458      745F783A 
 1458      00
 1459 0061 000000   		.align	2
 1460              	.LC6:
 1461 0064 726F626F 		.ascii	"robot_y:\000"
 1461      745F793A 
ARM GAS  C:\Users\lken274\AppData\Local\Temp\ccaXuJBR.s 			page 33


 1461      00
 1462 006d 000000   		.align	2
 1463              	.LC7:
 1464 0070 726F626F 		.ascii	"robot_dir:\000"
 1464      745F6469 
 1464      723A00
 1465 007b 00       		.section	.text.print_RF,"ax",%progbits
 1466              		.align	2
 1467              		.global	print_RF
 1468              		.thumb
 1469              		.thumb_func
 1470              		.type	print_RF, %function
 1471              	print_RF:
 1472              	.LFB78:
 341:.\main.c      **** 
 342:.\main.c      **** void print_RF()
 343:.\main.c      **** {
 1473              		.loc 1 343 0
 1474              		.cfi_startproc
 1475              		@ args = 0, pretend = 0, frame = 16
 1476              		@ frame_needed = 1, uses_anonymous_args = 0
 1477 0000 80B5     		push	{r7, lr}
 1478              		.cfi_def_cfa_offset 8
 1479              		.cfi_offset 7, -8
 1480              		.cfi_offset 14, -4
 1481 0002 84B0     		sub	sp, sp, #16
 1482              		.cfi_def_cfa_offset 24
 1483 0004 00AF     		add	r7, sp, #0
 1484              		.cfi_def_cfa_register 7
 344:.\main.c      ****     if(flag_print_rf == 1)
 1485              		.loc 1 344 0
 1486 0006 254B     		ldr	r3, .L77
 1487 0008 1B78     		ldrb	r3, [r3]	@ zero_extendqisi2
 1488 000a 012B     		cmp	r3, #1
 1489 000c 42D1     		bne	.L75
 1490              	.LBB4:
 345:.\main.c      ****     {
 346:.\main.c      ****         char printString[16];
 347:.\main.c      ****         flag_print_rf = 0;
 1491              		.loc 1 347 0
 1492 000e 234B     		ldr	r3, .L77
 1493 0010 0022     		movs	r2, #0
 1494 0012 1A70     		strb	r2, [r3]
 348:.\main.c      ****         usbPutString("RSSI:");
 1495              		.loc 1 348 0
 1496 0014 2248     		ldr	r0, .L77+4
 1497 0016 FFF7FEFF 		bl	usbPutString
 349:.\main.c      ****         sprintf(printString, "%d\r\n", system_state.rssi);
 1498              		.loc 1 349 0
 1499 001a 224B     		ldr	r3, .L77+8
 1500 001c 1B78     		ldrb	r3, [r3]	@ zero_extendqisi2
 1501 001e 5BB2     		sxtb	r3, r3
 1502 0020 3A46     		mov	r2, r7
 1503 0022 1046     		mov	r0, r2
 1504 0024 2049     		ldr	r1, .L77+12
 1505 0026 1A46     		mov	r2, r3
 1506 0028 FFF7FEFF 		bl	sprintf
ARM GAS  C:\Users\lken274\AppData\Local\Temp\ccaXuJBR.s 			page 34


 350:.\main.c      ****         usbPutString(printString);
 1507              		.loc 1 350 0
 1508 002c 3B46     		mov	r3, r7
 1509 002e 1846     		mov	r0, r3
 1510 0030 FFF7FEFF 		bl	usbPutString
 351:.\main.c      ****         usbPutString("robot_x:");
 1511              		.loc 1 351 0
 1512 0034 1D48     		ldr	r0, .L77+16
 1513 0036 FFF7FEFF 		bl	usbPutString
 352:.\main.c      ****         sprintf(printString, "%d\r\n", system_state.robot_xpos);
 1514              		.loc 1 352 0
 1515 003a 1A4B     		ldr	r3, .L77+8
 1516 003c 5B88     		ldrh	r3, [r3, #2]
 1517 003e 1BB2     		sxth	r3, r3
 1518 0040 3A46     		mov	r2, r7
 1519 0042 1046     		mov	r0, r2
 1520 0044 1849     		ldr	r1, .L77+12
 1521 0046 1A46     		mov	r2, r3
 1522 0048 FFF7FEFF 		bl	sprintf
 353:.\main.c      ****         usbPutString(printString);
 1523              		.loc 1 353 0
 1524 004c 3B46     		mov	r3, r7
 1525 004e 1846     		mov	r0, r3
 1526 0050 FFF7FEFF 		bl	usbPutString
 354:.\main.c      ****         usbPutString("robot_y:");
 1527              		.loc 1 354 0
 1528 0054 1648     		ldr	r0, .L77+20
 1529 0056 FFF7FEFF 		bl	usbPutString
 355:.\main.c      ****         sprintf(printString, "%d\r\n", system_state.robot_ypos);
 1530              		.loc 1 355 0
 1531 005a 124B     		ldr	r3, .L77+8
 1532 005c 9B88     		ldrh	r3, [r3, #4]
 1533 005e 1BB2     		sxth	r3, r3
 1534 0060 3A46     		mov	r2, r7
 1535 0062 1046     		mov	r0, r2
 1536 0064 1049     		ldr	r1, .L77+12
 1537 0066 1A46     		mov	r2, r3
 1538 0068 FFF7FEFF 		bl	sprintf
 356:.\main.c      ****         usbPutString(printString);
 1539              		.loc 1 356 0
 1540 006c 3B46     		mov	r3, r7
 1541 006e 1846     		mov	r0, r3
 1542 0070 FFF7FEFF 		bl	usbPutString
 357:.\main.c      ****         usbPutString("robot_dir:");
 1543              		.loc 1 357 0
 1544 0074 0F48     		ldr	r0, .L77+24
 1545 0076 FFF7FEFF 		bl	usbPutString
 358:.\main.c      ****         sprintf(printString, "%d\r\n", system_state.robot_orientation);
 1546              		.loc 1 358 0
 1547 007a 0A4B     		ldr	r3, .L77+8
 1548 007c DB88     		ldrh	r3, [r3, #6]
 1549 007e 1BB2     		sxth	r3, r3
 1550 0080 3A46     		mov	r2, r7
 1551 0082 1046     		mov	r0, r2
 1552 0084 0849     		ldr	r1, .L77+12
 1553 0086 1A46     		mov	r2, r3
 1554 0088 FFF7FEFF 		bl	sprintf
ARM GAS  C:\Users\lken274\AppData\Local\Temp\ccaXuJBR.s 			page 35


 359:.\main.c      ****         usbPutString(printString);
 1555              		.loc 1 359 0
 1556 008c 3B46     		mov	r3, r7
 1557 008e 1846     		mov	r0, r3
 1558 0090 FFF7FEFF 		bl	usbPutString
 1559              	.L75:
 1560              	.LBE4:
 360:.\main.c      ****     }
 361:.\main.c      **** }
 1561              		.loc 1 361 0
 1562 0094 1037     		adds	r7, r7, #16
 1563              		.cfi_def_cfa_offset 8
 1564 0096 BD46     		mov	sp, r7
 1565              		.cfi_def_cfa_register 13
 1566              		@ sp needed
 1567 0098 80BD     		pop	{r7, pc}
 1568              	.L78:
 1569 009a 00BF     		.align	2
 1570              	.L77:
 1571 009c 00000000 		.word	flag_print_rf
 1572 00a0 48000000 		.word	.LC3
 1573 00a4 00000000 		.word	system_state
 1574 00a8 50000000 		.word	.LC4
 1575 00ac 58000000 		.word	.LC5
 1576 00b0 64000000 		.word	.LC6
 1577 00b4 70000000 		.word	.LC7
 1578              		.cfi_endproc
 1579              	.LFE78:
 1580              		.size	print_RF, .-print_RF
 1581              		.section	.text.main,"ax",%progbits
 1582              		.align	2
 1583              		.global	main
 1584              		.thumb
 1585              		.thumb_func
 1586              		.type	main, %function
 1587              	main:
 1588              	.LFB79:
 362:.\main.c      **** 
 363:.\main.c      **** int main()
 364:.\main.c      **** {  
 1589              		.loc 1 364 0
 1590              		.cfi_startproc
 1591              		@ args = 0, pretend = 0, frame = 0
 1592              		@ frame_needed = 1, uses_anonymous_args = 0
 1593 0000 80B5     		push	{r7, lr}
 1594              		.cfi_def_cfa_offset 8
 1595              		.cfi_offset 7, -8
 1596              		.cfi_offset 14, -4
 1597 0002 00AF     		add	r7, sp, #0
 1598              		.cfi_def_cfa_register 7
 365:.\main.c      **** 
 366:.\main.c      **** // -------------------------------------------------------------------------------MAIN-------------
 367:.\main.c      **** // ----- INITIALIZATIONS ----------
 368:.\main.c      ****     CYGlobalIntEnable;
 1599              		.loc 1 368 0
 1600              	@ 368 ".\main.c" 1
 1601 0004 62B6     		CPSIE   i
ARM GAS  C:\Users\lken274\AppData\Local\Temp\ccaXuJBR.s 			page 36


 1602              	@ 0 "" 2
 369:.\main.c      ****     if(ENABLE_PWM)
 370:.\main.c      ****     {
 371:.\main.c      ****         PWM_1_Start();// starting the pwm
 1603              		.loc 1 371 0
 1604              		.thumb
 1605 0006 FFF7FEFF 		bl	PWM_1_Start
 372:.\main.c      ****         PWM_2_Start();// starting the pwm
 1606              		.loc 1 372 0
 1607 000a FFF7FEFF 		bl	PWM_2_Start
 373:.\main.c      ****     }
 374:.\main.c      ****     
 375:.\main.c      ****     if(ENABLE_ADC)
 376:.\main.c      ****     {
 377:.\main.c      ****         ADC_Start();
 378:.\main.c      ****         isr_eoc_StartEx(adc_isr);
 379:.\main.c      ****         //ADC_StartConvert();
 380:.\main.c      ****         
 381:.\main.c      ****         //start the ADC timer for software trigger mode
 382:.\main.c      ****         Timer_TS_Start();
 383:.\main.c      ****         isr_TS_StartEx(isr_adcTimer);
 384:.\main.c      ****     }
 385:.\main.c      ****     
 386:.\main.c      ****     if (ENABLE_QUAD)
 387:.\main.c      ****     {
 388:.\main.c      ****         QuadDec_M1_Start();
 1608              		.loc 1 388 0
 1609 000e FFF7FEFF 		bl	QuadDec_M1_Start
 389:.\main.c      ****         QuadDec_M2_Start();
 1610              		.loc 1 389 0
 1611 0012 FFF7FEFF 		bl	QuadDec_M2_Start
 390:.\main.c      ****         
 391:.\main.c      ****         isr_quad1_StartEx(isr_quad1);
 1612              		.loc 1 391 0
 1613 0016 2248     		ldr	r0, .L89
 1614 0018 FFF7FEFF 		bl	isr_quad1_StartEx
 392:.\main.c      ****         isr_turn_count_StartEx(isr_turn_timer);
 1615              		.loc 1 392 0
 1616 001c 2148     		ldr	r0, .L89+4
 1617 001e FFF7FEFF 		bl	isr_turn_count_StartEx
 393:.\main.c      ****         
 394:.\main.c      ****         Timer_1_Start();
 1618              		.loc 1 394 0
 1619 0022 FFF7FEFF 		bl	Timer_1_Start
 395:.\main.c      ****     }
 396:.\main.c      ****     
 397:.\main.c      ****     if(ENABLE_STOP){
 398:.\main.c      ****         isr_OnLine_StartEx(Stop_on_line);
 1620              		.loc 1 398 0
 1621 0026 2048     		ldr	r0, .L89+8
 1622 0028 FFF7FEFF 		bl	isr_OnLine_StartEx
 399:.\main.c      ****         isr_button_StartEx(button);
 1623              		.loc 1 399 0
 1624 002c 1F48     		ldr	r0, .L89+12
 1625 002e FFF7FEFF 		bl	isr_button_StartEx
 400:.\main.c      ****     }
 401:.\main.c      **** 
ARM GAS  C:\Users\lken274\AppData\Local\Temp\ccaXuJBR.s 			page 37


 402:.\main.c      ****     // ------USB SETUP ----------------    
 403:.\main.c      ****     if (USE_USB){    
 404:.\main.c      ****         USBUART_Start(0,USBUART_5V_OPERATION);
 1626              		.loc 1 404 0
 1627 0032 0020     		movs	r0, #0
 1628 0034 0121     		movs	r1, #1
 1629 0036 FFF7FEFF 		bl	USBUART_Start
 405:.\main.c      ****         if (USBUART_GetConfiguration())
 1630              		.loc 1 405 0
 1631 003a FFF7FEFF 		bl	USBUART_GetConfiguration
 1632 003e 0346     		mov	r3, r0
 1633 0040 002B     		cmp	r3, #0
 1634 0042 01D0     		beq	.L88
 406:.\main.c      ****             {
 407:.\main.c      ****                  USBUART_CDC_Init();
 1635              		.loc 1 407 0
 1636 0044 FFF7FEFF 		bl	USBUART_CDC_Init
 1637              	.L88:
 408:.\main.c      ****             }
 409:.\main.c      ****     }
 410:.\main.c      ****     
 411:.\main.c      ****     if(BIN_ENABLED){
 412:.\main.c      ****         isrRF_RX_StartEx(rxInt);
 1638              		.loc 1 412 0
 1639 0048 1948     		ldr	r0, .L89+16
 1640 004a FFF7FEFF 		bl	isrRF_RX_StartEx
 413:.\main.c      ****         UART_Start();
 1641              		.loc 1 413 0
 1642 004e FFF7FEFF 		bl	UART_Start
 414:.\main.c      ****     }
 415:.\main.c      ****     
 416:.\main.c      ****     RF_BT_SELECT_Write(0);
 1643              		.loc 1 416 0
 1644 0052 0020     		movs	r0, #0
 1645 0054 FFF7FEFF 		bl	RF_BT_SELECT_Write
 1646              	.L87:
 417:.\main.c      **** 
 418:.\main.c      ****     //usbPutString("Started");
 419:.\main.c      ****     for(;;)
 420:.\main.c      ****     {
 421:.\main.c      ****         if(ENABLE_ADC) print_ADC();
 422:.\main.c      ****         if(ENABLE_QUAD) Quad_Dec_response();
 1647              		.loc 1 422 0
 1648 0058 FFF7FEFF 		bl	Quad_Dec_response
 423:.\main.c      ****         if(BIN_ENABLED == 1)
 424:.\main.c      ****         {
 425:.\main.c      ****             handle_rx_binary();
 1649              		.loc 1 425 0
 1650 005c FFF7FEFF 		bl	handle_rx_binary
 426:.\main.c      ****             print_RF();
 1651              		.loc 1 426 0
 1652 0060 FFF7FEFF 		bl	print_RF
 427:.\main.c      ****         }
 428:.\main.c      ****         
 429:.\main.c      ****         switch(movement_state)
 1653              		.loc 1 429 0
 1654 0064 134B     		ldr	r3, .L89+20
ARM GAS  C:\Users\lken274\AppData\Local\Temp\ccaXuJBR.s 			page 38


 1655 0066 1B78     		ldrb	r3, [r3]	@ zero_extendqisi2
 1656 0068 032B     		cmp	r3, #3
 1657 006a F5D8     		bhi	.L87
 1658 006c 01A2     		adr	r2, .L83
 1659 006e 52F823F0 		ldr	pc, [r2, r3, lsl #2]
 1660 0072 00BF     		.p2align 2
 1661              	.L83:
 1662 0074 85000000 		.word	.L82+1
 1663 0078 8B000000 		.word	.L84+1
 1664 007c 91000000 		.word	.L85+1
 1665 0080 97000000 		.word	.L86+1
 1666              		.p2align 1
 1667              	.L82:
 430:.\main.c      ****         {
 431:.\main.c      ****             case DRIVE:
 432:.\main.c      ****                 driveForwards();
 1668              		.loc 1 432 0
 1669 0084 FFF7FEFF 		bl	driveForwards
 433:.\main.c      ****             break;
 1670              		.loc 1 433 0
 1671 0088 08E0     		b	.L81
 1672              	.L84:
 434:.\main.c      ****             case LTURN:
 435:.\main.c      ****                 turnLeft();
 1673              		.loc 1 435 0
 1674 008a FFF7FEFF 		bl	turnLeft
 436:.\main.c      ****             break;
 1675              		.loc 1 436 0
 1676 008e 05E0     		b	.L81
 1677              	.L85:
 437:.\main.c      ****             case RTURN:
 438:.\main.c      ****                 turnRight();
 1678              		.loc 1 438 0
 1679 0090 FFF7FEFF 		bl	turnRight
 439:.\main.c      ****             break;
 1680              		.loc 1 439 0
 1681 0094 02E0     		b	.L81
 1682              	.L86:
 440:.\main.c      ****             case STOPPED:
 441:.\main.c      ****                 brakeMotor();
 1683              		.loc 1 441 0
 1684 0096 FFF7FEFF 		bl	brakeMotor
 442:.\main.c      ****             break;
 1685              		.loc 1 442 0
 1686 009a 00BF     		nop
 1687              	.L81:
 443:.\main.c      ****         }
 444:.\main.c      ****         //handle_usb();        
 445:.\main.c      ****     }   
 1688              		.loc 1 445 0
 1689 009c DCE7     		b	.L87
 1690              	.L90:
 1691 009e 00BF     		.align	2
 1692              	.L89:
 1693 00a0 00000000 		.word	isr_quad1
 1694 00a4 00000000 		.word	isr_turn_timer
 1695 00a8 00000000 		.word	Stop_on_line
ARM GAS  C:\Users\lken274\AppData\Local\Temp\ccaXuJBR.s 			page 39


 1696 00ac 00000000 		.word	button
 1697 00b0 00000000 		.word	rxInt
 1698 00b4 00000000 		.word	movement_state
 1699              		.cfi_endproc
 1700              	.LFE79:
 1701              		.size	main, .-main
 1702              		.section	.text.usbPutString,"ax",%progbits
 1703              		.align	2
 1704              		.global	usbPutString
 1705              		.thumb
 1706              		.thumb_func
 1707              		.type	usbPutString, %function
 1708              	usbPutString:
 1709              	.LFB80:
 446:.\main.c      **** }
 447:.\main.c      **** //* ========================================
 448:.\main.c      **** void usbPutString(char *s)
 449:.\main.c      **** {
 1710              		.loc 1 449 0
 1711              		.cfi_startproc
 1712              		@ args = 0, pretend = 0, frame = 16
 1713              		@ frame_needed = 1, uses_anonymous_args = 0
 1714 0000 80B5     		push	{r7, lr}
 1715              		.cfi_def_cfa_offset 8
 1716              		.cfi_offset 7, -8
 1717              		.cfi_offset 14, -4
 1718 0002 84B0     		sub	sp, sp, #16
 1719              		.cfi_def_cfa_offset 24
 1720 0004 00AF     		add	r7, sp, #0
 1721              		.cfi_def_cfa_register 7
 1722 0006 7860     		str	r0, [r7, #4]
 450:.\main.c      **** // !! Assumes that *s is a string with allocated space >=64 chars     
 451:.\main.c      **** //  Since USB implementation retricts data packets to 64 chars, this function truncates the
 452:.\main.c      **** //  length to 62 char (63rd char is a '!')
 453:.\main.c      ****     if (USE_USB && portOpen)    
 1723              		.loc 1 453 0
 1724 0008 154B     		ldr	r3, .L95
 1725 000a 1B78     		ldrb	r3, [r3]	@ zero_extendqisi2
 1726 000c 002B     		cmp	r3, #0
 1727 000e 23D0     		beq	.L91
 1728              	.LBB5:
 454:.\main.c      ****     {
 455:.\main.c      ****             uint32 cnt = 0;
 1729              		.loc 1 455 0
 1730 0010 0023     		movs	r3, #0
 1731 0012 FB60     		str	r3, [r7, #12]
 456:.\main.c      ****             while (USBUART_CDCIsReady() == 0)
 1732              		.loc 1 456 0
 1733 0014 0AE0     		b	.L93
 1734              	.L94:
 457:.\main.c      ****             {
 458:.\main.c      ****                 cnt++;
 1735              		.loc 1 458 0
 1736 0016 FB68     		ldr	r3, [r7, #12]
 1737 0018 0133     		adds	r3, r3, #1
 1738 001a FB60     		str	r3, [r7, #12]
 459:.\main.c      ****                 if(cnt == 3000000){
ARM GAS  C:\Users\lken274\AppData\Local\Temp\ccaXuJBR.s 			page 40


 1739              		.loc 1 459 0
 1740 001c FB68     		ldr	r3, [r7, #12]
 1741 001e 114A     		ldr	r2, .L95+4
 1742 0020 9342     		cmp	r3, r2
 1743 0022 03D1     		bne	.L93
 460:.\main.c      ****                     portOpen = 0;
 1744              		.loc 1 460 0
 1745 0024 0E4B     		ldr	r3, .L95
 1746 0026 0022     		movs	r2, #0
 1747 0028 1A70     		strb	r2, [r3]
 461:.\main.c      ****                     return;
 1748              		.loc 1 461 0
 1749 002a 15E0     		b	.L91
 1750              	.L93:
 456:.\main.c      ****             {
 1751              		.loc 1 456 0
 1752 002c FFF7FEFF 		bl	USBUART_CDCIsReady
 1753 0030 0346     		mov	r3, r0
 1754 0032 002B     		cmp	r3, #0
 1755 0034 EFD0     		beq	.L94
 462:.\main.c      ****                 }
 463:.\main.c      ****             }
 464:.\main.c      ****             s[63]='\0';
 1756              		.loc 1 464 0
 1757 0036 7B68     		ldr	r3, [r7, #4]
 1758 0038 3F33     		adds	r3, r3, #63
 1759 003a 0022     		movs	r2, #0
 1760 003c 1A70     		strb	r2, [r3]
 465:.\main.c      ****             s[62]='!';
 1761              		.loc 1 465 0
 1762 003e 7B68     		ldr	r3, [r7, #4]
 1763 0040 3E33     		adds	r3, r3, #62
 1764 0042 2122     		movs	r2, #33
 1765 0044 1A70     		strb	r2, [r3]
 466:.\main.c      ****             USBUART_PutData((uint8*)s,strlen(s));
 1766              		.loc 1 466 0
 1767 0046 7868     		ldr	r0, [r7, #4]
 1768 0048 FFF7FEFF 		bl	strlen
 1769 004c 0346     		mov	r3, r0
 1770 004e 9BB2     		uxth	r3, r3
 1771 0050 7868     		ldr	r0, [r7, #4]
 1772 0052 1946     		mov	r1, r3
 1773 0054 FFF7FEFF 		bl	USBUART_PutData
 1774              	.L91:
 1775              	.LBE5:
 467:.\main.c      ****     }
 468:.\main.c      **** }
 1776              		.loc 1 468 0
 1777 0058 1037     		adds	r7, r7, #16
 1778              		.cfi_def_cfa_offset 8
 1779 005a BD46     		mov	sp, r7
 1780              		.cfi_def_cfa_register 13
 1781              		@ sp needed
 1782 005c 80BD     		pop	{r7, pc}
 1783              	.L96:
 1784 005e 00BF     		.align	2
 1785              	.L95:
ARM GAS  C:\Users\lken274\AppData\Local\Temp\ccaXuJBR.s 			page 41


 1786 0060 00000000 		.word	portOpen
 1787 0064 C0C62D00 		.word	3000000
 1788              		.cfi_endproc
 1789              	.LFE80:
 1790              		.size	usbPutString, .-usbPutString
 1791              		.section	.text.usbPutChar,"ax",%progbits
 1792              		.align	2
 1793              		.global	usbPutChar
 1794              		.thumb
 1795              		.thumb_func
 1796              		.type	usbPutChar, %function
 1797              	usbPutChar:
 1798              	.LFB81:
 469:.\main.c      **** //* ========================================
 470:.\main.c      **** void usbPutChar(char c)
 471:.\main.c      **** {
 1799              		.loc 1 471 0
 1800              		.cfi_startproc
 1801              		@ args = 0, pretend = 0, frame = 16
 1802              		@ frame_needed = 1, uses_anonymous_args = 0
 1803 0000 80B5     		push	{r7, lr}
 1804              		.cfi_def_cfa_offset 8
 1805              		.cfi_offset 7, -8
 1806              		.cfi_offset 14, -4
 1807 0002 84B0     		sub	sp, sp, #16
 1808              		.cfi_def_cfa_offset 24
 1809 0004 00AF     		add	r7, sp, #0
 1810              		.cfi_def_cfa_register 7
 1811 0006 0346     		mov	r3, r0
 1812 0008 FB71     		strb	r3, [r7, #7]
 472:.\main.c      ****     if (USE_USB && portOpen)    
 1813              		.loc 1 472 0
 1814 000a 0F4B     		ldr	r3, .L101
 1815 000c 1B78     		ldrb	r3, [r3]	@ zero_extendqisi2
 1816 000e 002B     		cmp	r3, #0
 1817 0010 16D0     		beq	.L97
 1818              	.LBB6:
 473:.\main.c      ****     {    
 474:.\main.c      ****         uint32 cnt = 0;
 1819              		.loc 1 474 0
 1820 0012 0023     		movs	r3, #0
 1821 0014 FB60     		str	r3, [r7, #12]
 475:.\main.c      ****         while (USBUART_CDCIsReady() == 0){
 1822              		.loc 1 475 0
 1823 0016 0AE0     		b	.L99
 1824              	.L100:
 476:.\main.c      ****             cnt++;
 1825              		.loc 1 476 0
 1826 0018 FB68     		ldr	r3, [r7, #12]
 1827 001a 0133     		adds	r3, r3, #1
 1828 001c FB60     		str	r3, [r7, #12]
 477:.\main.c      ****             if(cnt == 3000000){
 1829              		.loc 1 477 0
 1830 001e FB68     		ldr	r3, [r7, #12]
 1831 0020 0A4A     		ldr	r2, .L101+4
 1832 0022 9342     		cmp	r3, r2
 1833 0024 03D1     		bne	.L99
ARM GAS  C:\Users\lken274\AppData\Local\Temp\ccaXuJBR.s 			page 42


 478:.\main.c      ****                 portOpen = 0;
 1834              		.loc 1 478 0
 1835 0026 084B     		ldr	r3, .L101
 1836 0028 0022     		movs	r2, #0
 1837 002a 1A70     		strb	r2, [r3]
 479:.\main.c      ****                 return;
 1838              		.loc 1 479 0
 1839 002c 08E0     		b	.L97
 1840              	.L99:
 475:.\main.c      ****             cnt++;
 1841              		.loc 1 475 0
 1842 002e FFF7FEFF 		bl	USBUART_CDCIsReady
 1843 0032 0346     		mov	r3, r0
 1844 0034 002B     		cmp	r3, #0
 1845 0036 EFD0     		beq	.L100
 480:.\main.c      ****             }
 481:.\main.c      ****         }
 482:.\main.c      ****         USBUART_PutChar(c);
 1846              		.loc 1 482 0
 1847 0038 FB79     		ldrb	r3, [r7, #7]	@ zero_extendqisi2
 1848 003a 1846     		mov	r0, r3
 1849 003c FFF7FEFF 		bl	USBUART_PutChar
 1850              	.L97:
 1851              	.LBE6:
 483:.\main.c      ****     }    
 484:.\main.c      **** }
 1852              		.loc 1 484 0
 1853 0040 1037     		adds	r7, r7, #16
 1854              		.cfi_def_cfa_offset 8
 1855 0042 BD46     		mov	sp, r7
 1856              		.cfi_def_cfa_register 13
 1857              		@ sp needed
 1858 0044 80BD     		pop	{r7, pc}
 1859              	.L102:
 1860 0046 00BF     		.align	2
 1861              	.L101:
 1862 0048 00000000 		.word	portOpen
 1863 004c C0C62D00 		.word	3000000
 1864              		.cfi_endproc
 1865              	.LFE81:
 1866              		.size	usbPutChar, .-usbPutChar
 1867              		.section	.text.uart_set_PWM,"ax",%progbits
 1868              		.align	2
 1869              		.global	uart_set_PWM
 1870              		.thumb
 1871              		.thumb_func
 1872              		.type	uart_set_PWM, %function
 1873              	uart_set_PWM:
 1874              	.LFB82:
 485:.\main.c      **** //* ========================================
 486:.\main.c      **** 
 487:.\main.c      **** void uart_set_PWM()
 488:.\main.c      **** {
 1875              		.loc 1 488 0
 1876              		.cfi_startproc
 1877              		@ args = 0, pretend = 0, frame = 8
 1878              		@ frame_needed = 1, uses_anonymous_args = 0
ARM GAS  C:\Users\lken274\AppData\Local\Temp\ccaXuJBR.s 			page 43


 1879 0000 80B5     		push	{r7, lr}
 1880              		.cfi_def_cfa_offset 8
 1881              		.cfi_offset 7, -8
 1882              		.cfi_offset 14, -4
 1883 0002 82B0     		sub	sp, sp, #8
 1884              		.cfi_def_cfa_offset 16
 1885 0004 00AF     		add	r7, sp, #0
 1886              		.cfi_def_cfa_register 7
 489:.\main.c      ****     uint8 c;
 490:.\main.c      ****      if (USBUART_DataIsReady() != 0)
 1887              		.loc 1 490 0
 1888 0006 FFF7FEFF 		bl	USBUART_DataIsReady
 1889 000a 0346     		mov	r3, r0
 1890 000c 002B     		cmp	r3, #0
 1891 000e 11D0     		beq	.L103
 491:.\main.c      ****        {  
 492:.\main.c      ****             c = USBUART_GetChar();
 1892              		.loc 1 492 0
 1893 0010 FFF7FEFF 		bl	USBUART_GetChar
 1894 0014 0346     		mov	r3, r0
 1895 0016 FB71     		strb	r3, [r7, #7]
 493:.\main.c      ****             
 494:.\main.c      ****             if(c <= 100 && c > 0){
 1896              		.loc 1 494 0
 1897 0018 FB79     		ldrb	r3, [r7, #7]	@ zero_extendqisi2
 1898 001a 642B     		cmp	r3, #100
 1899 001c 0AD8     		bhi	.L103
 1900              		.loc 1 494 0 is_stmt 0 discriminator 1
 1901 001e FB79     		ldrb	r3, [r7, #7]	@ zero_extendqisi2
 1902 0020 002B     		cmp	r3, #0
 1903 0022 07D0     		beq	.L103
 495:.\main.c      ****                 PWM_1_WriteCompare(c);
 1904              		.loc 1 495 0 is_stmt 1
 1905 0024 FB79     		ldrb	r3, [r7, #7]	@ zero_extendqisi2
 1906 0026 1846     		mov	r0, r3
 1907 0028 FFF7FEFF 		bl	PWM_1_WriteCompare
 496:.\main.c      ****                 usbPutString(c);
 1908              		.loc 1 496 0
 1909 002c FB79     		ldrb	r3, [r7, #7]	@ zero_extendqisi2
 1910 002e 1846     		mov	r0, r3
 1911 0030 FFF7FEFF 		bl	usbPutString
 1912              	.L103:
 497:.\main.c      ****             }
 498:.\main.c      ****        }
 499:.\main.c      **** }
 1913              		.loc 1 499 0
 1914 0034 0837     		adds	r7, r7, #8
 1915              		.cfi_def_cfa_offset 8
 1916 0036 BD46     		mov	sp, r7
 1917              		.cfi_def_cfa_register 13
 1918              		@ sp needed
 1919 0038 80BD     		pop	{r7, pc}
 1920              		.cfi_endproc
 1921              	.LFE82:
 1922              		.size	uart_set_PWM, .-uart_set_PWM
 1923 003a 00BF     		.text
 1924              	.Letext0:
ARM GAS  C:\Users\lken274\AppData\Local\Temp\ccaXuJBR.s 			page 44


 1925              		.file 2 "c:\\program files (x86)\\cypress\\psoc creator\\3.3\\psoc creator\\import\\gnu\\arm\\4.9.
 1926              		.file 3 "c:\\program files (x86)\\cypress\\psoc creator\\3.3\\psoc creator\\import\\gnu\\arm\\4.9.
 1927              		.file 4 "Generated_Source\\PSoC5/cytypes.h"
 1928              		.file 5 ".\\vars.h"
 1929              		.file 6 "Generated_Source\\PSoC5/core_cm3.h"