ARM GAS  C:\Users\lken274\AppData\Local\Temp\ccV4mmfZ.s 			page 1


   1              		.syntax unified
   2              		.cpu cortex-m3
   3              		.fpu softvfp
   4              		.eabi_attribute 20, 1
   5              		.eabi_attribute 21, 1
   6              		.eabi_attribute 23, 3
   7              		.eabi_attribute 24, 1
   8              		.eabi_attribute 25, 1
   9              		.eabi_attribute 26, 1
  10              		.eabi_attribute 30, 6
  11              		.eabi_attribute 34, 1
  12              		.eabi_attribute 18, 4
  13              		.thumb
  14              		.file	"pathfinder.c"
  15              		.text
  16              	.Ltext0:
  17              		.cfi_sections	.debug_frame
  18              		.comm	tracked_direction,1,1
  19              		.section	.text.djikstras,"ax",%progbits
  20              		.align	2
  21              		.global	djikstras
  22              		.thumb
  23              		.thumb_func
  24              		.type	djikstras, %function
  25              	djikstras:
  26              	.LFB63:
  27              		.file 1 ".\\pathfinder.c"
   1:.\pathfinder.c **** #include "pathfinder.h"
   2:.\pathfinder.c **** //define the variables
   3:.\pathfinder.c **** #define VALUE_OF_FOOD 0 //penalty for going over food pellets.
   4:.\pathfinder.c **** #define DEFAULT_NODE_COST 10 //the cost of moving to a normal node.
   5:.\pathfinder.c **** #define CORNER_PENALTY 0 //penalty for changing direction.
   6:.\pathfinder.c **** #define PATH 0 //idicates weather the path is the 1s or the 0s.
   7:.\pathfinder.c **** 
   8:.\pathfinder.c **** 
   9:.\pathfinder.c **** 
  10:.\pathfinder.c **** #define STRAIGHT 'S'
  11:.\pathfinder.c **** #define LEFT 'L'
  12:.\pathfinder.c **** #define RIGHT 'R'
  13:.\pathfinder.c **** #define UTURN 'U'
  14:.\pathfinder.c **** 
  15:.\pathfinder.c **** #define INF_16 65535
  16:.\pathfinder.c **** 
  17:.\pathfinder.c **** #define VISITED 1
  18:.\pathfinder.c **** #define UNVISITED 0
  19:.\pathfinder.c **** 
  20:.\pathfinder.c **** #define X 1
  21:.\pathfinder.c **** #define Y 0
  22:.\pathfinder.c **** #define DIR 2
  23:.\pathfinder.c **** 
  24:.\pathfinder.c **** //struct for nodes
  25:.\pathfinder.c **** typedef struct node{
  26:.\pathfinder.c ****    uint8 path;// 1
  27:.\pathfinder.c ****    uint8 visited;// 2
  28:.\pathfinder.c ****    uint16 cost;// 6
  29:.\pathfinder.c ****    uint8 x;
  30:.\pathfinder.c ****    uint8 y;
ARM GAS  C:\Users\lken274\AppData\Local\Temp\ccV4mmfZ.s 			page 2


  31:.\pathfinder.c ****    struct node* prevNode;
  32:.\pathfinder.c ****    //uint8 previous_y;// 4
  33:.\pathfinder.c ****    //uint8 previous_x; // 5
  34:.\pathfinder.c ****    uint16 tentative_cost; // 3
  35:.\pathfinder.c ****    uint8 direction;
  36:.\pathfinder.c **** } node;
  37:.\pathfinder.c **** 
  38:.\pathfinder.c **** /**pathfinding algorithm
  39:.\pathfinder.c **** * returns the length of the path array 0 if no path is found
  40:.\pathfinder.c **** * map - map to be searched through (needs size)
  41:.\pathfinder.c **** * food_list - list of food (needs size)
  42:.\pathfinder.c **** * path - will be filled with the path found by the algorithm
  43:.\pathfinder.c **** * start - is the start node duh
  44:.\pathfinder.c **** * destination - end node
  45:.\pathfinder.c **** * direction - the initial direction of the robot
  46:.\pathfinder.c **** */
  47:.\pathfinder.c **** uint8 djikstras(uint8 map[Y_SIZE][X_SIZE], uint8 food_list[6][2], uint8 path[DEFAULT_ARRAY_SIZE][3]
  28              		.loc 1 47 0
  29              		.cfi_startproc
  30              		@ args = 4, pretend = 0, frame = 6216
  31              		@ frame_needed = 1, uses_anonymous_args = 0
  32 0000 B0B5     		push	{r4, r5, r7, lr}
  33              		.cfi_def_cfa_offset 16
  34              		.cfi_offset 4, -16
  35              		.cfi_offset 5, -12
  36              		.cfi_offset 7, -8
  37              		.cfi_offset 14, -4
  38 0002 ADF5C25D 		sub	sp, sp, #6208
  39              		.cfi_def_cfa_offset 6224
  40 0006 82B0     		sub	sp, sp, #8
  41              		.cfi_def_cfa_offset 6232
  42 0008 00AF     		add	r7, sp, #0
  43              		.cfi_def_cfa_register 7
  44 000a 07F12804 		add	r4, r7, #40
  45 000e 1C3C     		subs	r4, r4, #28
  46 0010 2060     		str	r0, [r4]
  47 0012 07F10800 		add	r0, r7, #8
  48 0016 0160     		str	r1, [r0]
  49 0018 07F10801 		add	r1, r7, #8
  50 001c 0439     		subs	r1, r1, #4
  51 001e 0A60     		str	r2, [r1]
  52 0020 07F10802 		add	r2, r7, #8
  53 0024 083A     		subs	r2, r2, #8
  54 0026 1360     		str	r3, [r2]
  48:.\pathfinder.c ****    node Nodes[Y_SIZE][X_SIZE];
  49:.\pathfinder.c ****    //fill up the default information for each node
  50:.\pathfinder.c ****     uint8 i;
  51:.\pathfinder.c ****    for(i = 0; i < Y_SIZE; i++){
  55              		.loc 1 51 0
  56 0028 0023     		movs	r3, #0
  57 002a 07F5C252 		add	r2, r7, #6208
  58 002e 02F10702 		add	r2, r2, #7
  59 0032 1370     		strb	r3, [r2]
  60 0034 FDE0     		b	.L2
  61              	.L5:
  62              	.LBB2:
  52:.\pathfinder.c ****       uint8 j;
ARM GAS  C:\Users\lken274\AppData\Local\Temp\ccV4mmfZ.s 			page 3


  53:.\pathfinder.c ****       for(j = 0; j < X_SIZE; j++){
  63              		.loc 1 53 0
  64 0036 0023     		movs	r3, #0
  65 0038 07F5C252 		add	r2, r7, #6208
  66 003c 02F10602 		add	r2, r2, #6
  67 0040 1370     		strb	r3, [r2]
  68 0042 E3E0     		b	.L3
  69              	.L4:
  54:.\pathfinder.c ****             Nodes[i][j].path = map[i][j];//map information
  70              		.loc 1 54 0 discriminator 3
  71 0044 07F5C253 		add	r3, r7, #6208
  72 0048 03F10703 		add	r3, r3, #7
  73 004c 1978     		ldrb	r1, [r3]	@ zero_extendqisi2
  74 004e 07F5C253 		add	r3, r7, #6208
  75 0052 03F10603 		add	r3, r3, #6
  76 0056 1878     		ldrb	r0, [r3]	@ zero_extendqisi2
  77 0058 07F5C253 		add	r3, r7, #6208
  78 005c 03F10703 		add	r3, r3, #7
  79 0060 1A78     		ldrb	r2, [r3]	@ zero_extendqisi2
  80 0062 1346     		mov	r3, r2
  81 0064 DB00     		lsls	r3, r3, #3
  82 0066 1344     		add	r3, r3, r2
  83 0068 5B00     		lsls	r3, r3, #1
  84 006a 1A44     		add	r2, r2, r3
  85 006c 07F12803 		add	r3, r7, #40
  86 0070 1C3B     		subs	r3, r3, #28
  87 0072 1B68     		ldr	r3, [r3]
  88 0074 1A44     		add	r2, r2, r3
  89 0076 07F5C253 		add	r3, r7, #6208
  90 007a 03F10603 		add	r3, r3, #6
  91 007e 1B78     		ldrb	r3, [r3]	@ zero_extendqisi2
  92 0080 D45C     		ldrb	r4, [r2, r3]	@ zero_extendqisi2
  93 0082 07F5CD62 		add	r2, r7, #1640
  94 0086 083A     		subs	r2, r2, #8
  95 0088 0B46     		mov	r3, r1
  96 008a DB00     		lsls	r3, r3, #3
  97 008c 0B44     		add	r3, r3, r1
  98 008e 5B00     		lsls	r3, r3, #1
  99 0090 0B44     		add	r3, r3, r1
 100 0092 0344     		add	r3, r3, r0
 101 0094 1B01     		lsls	r3, r3, #4
 102 0096 1344     		add	r3, r3, r2
 103 0098 2246     		mov	r2, r4
 104 009a 1A70     		strb	r2, [r3]
  55:.\pathfinder.c ****             //printf("%d\n", map[i][j]);
  56:.\pathfinder.c ****             Nodes[i][j].visited = UNVISITED; //set all unvisited
 105              		.loc 1 56 0 discriminator 3
 106 009c 07F5C253 		add	r3, r7, #6208
 107 00a0 03F10703 		add	r3, r3, #7
 108 00a4 1978     		ldrb	r1, [r3]	@ zero_extendqisi2
 109 00a6 07F5C253 		add	r3, r7, #6208
 110 00aa 03F10603 		add	r3, r3, #6
 111 00ae 1878     		ldrb	r0, [r3]	@ zero_extendqisi2
 112 00b0 07F5CD62 		add	r2, r7, #1640
 113 00b4 083A     		subs	r2, r2, #8
 114 00b6 0B46     		mov	r3, r1
 115 00b8 DB00     		lsls	r3, r3, #3
ARM GAS  C:\Users\lken274\AppData\Local\Temp\ccV4mmfZ.s 			page 4


 116 00ba 0B44     		add	r3, r3, r1
 117 00bc 5B00     		lsls	r3, r3, #1
 118 00be 0B44     		add	r3, r3, r1
 119 00c0 0344     		add	r3, r3, r0
 120 00c2 1B01     		lsls	r3, r3, #4
 121 00c4 1344     		add	r3, r3, r2
 122 00c6 0022     		movs	r2, #0
 123 00c8 5A70     		strb	r2, [r3, #1]
  57:.\pathfinder.c ****             Nodes[i][j].cost = DEFAULT_NODE_COST; // seet the cost of going to this node to the def
 124              		.loc 1 57 0 discriminator 3
 125 00ca 07F5C253 		add	r3, r7, #6208
 126 00ce 03F10703 		add	r3, r3, #7
 127 00d2 1978     		ldrb	r1, [r3]	@ zero_extendqisi2
 128 00d4 07F5C253 		add	r3, r7, #6208
 129 00d8 03F10603 		add	r3, r3, #6
 130 00dc 1878     		ldrb	r0, [r3]	@ zero_extendqisi2
 131 00de 07F5CD62 		add	r2, r7, #1640
 132 00e2 083A     		subs	r2, r2, #8
 133 00e4 0B46     		mov	r3, r1
 134 00e6 DB00     		lsls	r3, r3, #3
 135 00e8 0B44     		add	r3, r3, r1
 136 00ea 5B00     		lsls	r3, r3, #1
 137 00ec 0B44     		add	r3, r3, r1
 138 00ee 0344     		add	r3, r3, r0
 139 00f0 1B01     		lsls	r3, r3, #4
 140 00f2 1344     		add	r3, r3, r2
 141 00f4 0A22     		movs	r2, #10
 142 00f6 5A80     		strh	r2, [r3, #2]	@ movhi
  58:.\pathfinder.c ****             Nodes[i][j].y = i;
 143              		.loc 1 58 0 discriminator 3
 144 00f8 07F5C253 		add	r3, r7, #6208
 145 00fc 03F10703 		add	r3, r3, #7
 146 0100 1978     		ldrb	r1, [r3]	@ zero_extendqisi2
 147 0102 07F5C253 		add	r3, r7, #6208
 148 0106 03F10603 		add	r3, r3, #6
 149 010a 1878     		ldrb	r0, [r3]	@ zero_extendqisi2
 150 010c 07F5CD62 		add	r2, r7, #1640
 151 0110 083A     		subs	r2, r2, #8
 152 0112 0B46     		mov	r3, r1
 153 0114 DB00     		lsls	r3, r3, #3
 154 0116 0B44     		add	r3, r3, r1
 155 0118 5B00     		lsls	r3, r3, #1
 156 011a 0B44     		add	r3, r3, r1
 157 011c 0344     		add	r3, r3, r0
 158 011e 1B01     		lsls	r3, r3, #4
 159 0120 1344     		add	r3, r3, r2
 160 0122 07F5C252 		add	r2, r7, #6208
 161 0126 02F10702 		add	r2, r2, #7
 162 012a 1278     		ldrb	r2, [r2]
 163 012c 5A71     		strb	r2, [r3, #5]
  59:.\pathfinder.c ****             Nodes[i][j].x = j;
 164              		.loc 1 59 0 discriminator 3
 165 012e 07F5C253 		add	r3, r7, #6208
 166 0132 03F10703 		add	r3, r3, #7
 167 0136 1978     		ldrb	r1, [r3]	@ zero_extendqisi2
 168 0138 07F5C253 		add	r3, r7, #6208
 169 013c 03F10603 		add	r3, r3, #6
ARM GAS  C:\Users\lken274\AppData\Local\Temp\ccV4mmfZ.s 			page 5


 170 0140 1878     		ldrb	r0, [r3]	@ zero_extendqisi2
 171 0142 07F5CD62 		add	r2, r7, #1640
 172 0146 083A     		subs	r2, r2, #8
 173 0148 0B46     		mov	r3, r1
 174 014a DB00     		lsls	r3, r3, #3
 175 014c 0B44     		add	r3, r3, r1
 176 014e 5B00     		lsls	r3, r3, #1
 177 0150 0B44     		add	r3, r3, r1
 178 0152 0344     		add	r3, r3, r0
 179 0154 1B01     		lsls	r3, r3, #4
 180 0156 1344     		add	r3, r3, r2
 181 0158 07F5C252 		add	r2, r7, #6208
 182 015c 02F10602 		add	r2, r2, #6
 183 0160 1278     		ldrb	r2, [r2]
 184 0162 1A71     		strb	r2, [r3, #4]
  60:.\pathfinder.c ****             Nodes[i][j].prevNode = 0;
 185              		.loc 1 60 0 discriminator 3
 186 0164 07F5C253 		add	r3, r7, #6208
 187 0168 03F10703 		add	r3, r3, #7
 188 016c 1978     		ldrb	r1, [r3]	@ zero_extendqisi2
 189 016e 07F5C253 		add	r3, r7, #6208
 190 0172 03F10603 		add	r3, r3, #6
 191 0176 1878     		ldrb	r0, [r3]	@ zero_extendqisi2
 192 0178 07F5CD62 		add	r2, r7, #1640
 193 017c 083A     		subs	r2, r2, #8
 194 017e 0B46     		mov	r3, r1
 195 0180 DB00     		lsls	r3, r3, #3
 196 0182 0B44     		add	r3, r3, r1
 197 0184 5B00     		lsls	r3, r3, #1
 198 0186 0B44     		add	r3, r3, r1
 199 0188 0344     		add	r3, r3, r0
 200 018a 1B01     		lsls	r3, r3, #4
 201 018c 1344     		add	r3, r3, r2
 202 018e 0833     		adds	r3, r3, #8
 203 0190 0022     		movs	r2, #0
 204 0192 1A60     		str	r2, [r3]
  61:.\pathfinder.c ****             Nodes[i][j].tentative_cost = INF_16;// set the current cost to infinity
 205              		.loc 1 61 0 discriminator 3
 206 0194 07F5C253 		add	r3, r7, #6208
 207 0198 03F10703 		add	r3, r3, #7
 208 019c 1978     		ldrb	r1, [r3]	@ zero_extendqisi2
 209 019e 07F5C253 		add	r3, r7, #6208
 210 01a2 03F10603 		add	r3, r3, #6
 211 01a6 1878     		ldrb	r0, [r3]	@ zero_extendqisi2
 212 01a8 07F5CD62 		add	r2, r7, #1640
 213 01ac 083A     		subs	r2, r2, #8
 214 01ae 0B46     		mov	r3, r1
 215 01b0 DB00     		lsls	r3, r3, #3
 216 01b2 0B44     		add	r3, r3, r1
 217 01b4 5B00     		lsls	r3, r3, #1
 218 01b6 0B44     		add	r3, r3, r1
 219 01b8 0344     		add	r3, r3, r0
 220 01ba 1B01     		lsls	r3, r3, #4
 221 01bc 1344     		add	r3, r3, r2
 222 01be 0833     		adds	r3, r3, #8
 223 01c0 4FF6FF72 		movw	r2, #65535
 224 01c4 9A80     		strh	r2, [r3, #4]	@ movhi
ARM GAS  C:\Users\lken274\AppData\Local\Temp\ccV4mmfZ.s 			page 6


  62:.\pathfinder.c ****             Nodes[i][j].direction = 0;
 225              		.loc 1 62 0 discriminator 3
 226 01c6 07F5C253 		add	r3, r7, #6208
 227 01ca 03F10703 		add	r3, r3, #7
 228 01ce 1978     		ldrb	r1, [r3]	@ zero_extendqisi2
 229 01d0 07F5C253 		add	r3, r7, #6208
 230 01d4 03F10603 		add	r3, r3, #6
 231 01d8 1878     		ldrb	r0, [r3]	@ zero_extendqisi2
 232 01da 07F5CD62 		add	r2, r7, #1640
 233 01de 083A     		subs	r2, r2, #8
 234 01e0 0B46     		mov	r3, r1
 235 01e2 DB00     		lsls	r3, r3, #3
 236 01e4 0B44     		add	r3, r3, r1
 237 01e6 5B00     		lsls	r3, r3, #1
 238 01e8 0B44     		add	r3, r3, r1
 239 01ea 0344     		add	r3, r3, r0
 240 01ec 1B01     		lsls	r3, r3, #4
 241 01ee 1344     		add	r3, r3, r2
 242 01f0 0833     		adds	r3, r3, #8
 243 01f2 0022     		movs	r2, #0
 244 01f4 9A71     		strb	r2, [r3, #6]
  53:.\pathfinder.c ****             Nodes[i][j].path = map[i][j];//map information
 245              		.loc 1 53 0 discriminator 3
 246 01f6 07F5C253 		add	r3, r7, #6208
 247 01fa 03F10603 		add	r3, r3, #6
 248 01fe 1B78     		ldrb	r3, [r3]	@ zero_extendqisi2
 249 0200 0133     		adds	r3, r3, #1
 250 0202 07F5C252 		add	r2, r7, #6208
 251 0206 02F10602 		add	r2, r2, #6
 252 020a 1370     		strb	r3, [r2]
 253              	.L3:
  53:.\pathfinder.c ****             Nodes[i][j].path = map[i][j];//map information
 254              		.loc 1 53 0 is_stmt 0 discriminator 1
 255 020c 07F5C253 		add	r3, r7, #6208
 256 0210 03F10603 		add	r3, r3, #6
 257 0214 1B78     		ldrb	r3, [r3]	@ zero_extendqisi2
 258 0216 122B     		cmp	r3, #18
 259 0218 7FF614AF 		bls	.L4
 260              	.LBE2:
  51:.\pathfinder.c ****       uint8 j;
 261              		.loc 1 51 0 is_stmt 1 discriminator 2
 262 021c 07F5C253 		add	r3, r7, #6208
 263 0220 03F10703 		add	r3, r3, #7
 264 0224 1B78     		ldrb	r3, [r3]	@ zero_extendqisi2
 265 0226 0133     		adds	r3, r3, #1
 266 0228 07F5C252 		add	r2, r7, #6208
 267 022c 02F10702 		add	r2, r2, #7
 268 0230 1370     		strb	r3, [r2]
 269              	.L2:
  51:.\pathfinder.c ****       uint8 j;
 270              		.loc 1 51 0 is_stmt 0 discriminator 1
 271 0232 07F5C253 		add	r3, r7, #6208
 272 0236 03F10703 		add	r3, r3, #7
 273 023a 1B78     		ldrb	r3, [r3]	@ zero_extendqisi2
 274 023c 0E2B     		cmp	r3, #14
 275 023e 7FF6FAAE 		bls	.L5
  63:.\pathfinder.c ****       }
ARM GAS  C:\Users\lken274\AppData\Local\Temp\ccV4mmfZ.s 			page 7


  64:.\pathfinder.c ****    }
  65:.\pathfinder.c **** 
  66:.\pathfinder.c **** 
  67:.\pathfinder.c ****    uint8 current[2];
  68:.\pathfinder.c ****    //memcpy(current, start, sizeof(current));//because nothing works in c the way you want it to
  69:.\pathfinder.c ****    current[Y] = start[Y];
 276              		.loc 1 69 0 is_stmt 1
 277 0242 07F10803 		add	r3, r7, #8
 278 0246 083B     		subs	r3, r3, #8
 279 0248 1B68     		ldr	r3, [r3]
 280 024a 1A78     		ldrb	r2, [r3]	@ zero_extendqisi2
 281 024c 07F5CD63 		add	r3, r7, #1640
 282 0250 0C3B     		subs	r3, r3, #12
 283 0252 1A70     		strb	r2, [r3]
  70:.\pathfinder.c ****    current[X] = start[X];
 284              		.loc 1 70 0
 285 0254 07F10803 		add	r3, r7, #8
 286 0258 083B     		subs	r3, r3, #8
 287 025a 1B68     		ldr	r3, [r3]
 288 025c 5A78     		ldrb	r2, [r3, #1]	@ zero_extendqisi2
 289 025e 07F5CD63 		add	r3, r7, #1640
 290 0262 0C3B     		subs	r3, r3, #12
 291 0264 5A70     		strb	r2, [r3, #1]
  71:.\pathfinder.c ****    uint8 totalIterationCounter = 0;
 292              		.loc 1 71 0
 293 0266 0023     		movs	r3, #0
 294 0268 07F5C252 		add	r2, r7, #6208
 295 026c 02F10502 		add	r2, r2, #5
 296 0270 1370     		strb	r3, [r2]
  72:.\pathfinder.c ****    uint8 nextNodes[DEFAULT_ARRAY_SIZE][2] = {0};
 297              		.loc 1 72 0
 298 0272 07F12803 		add	r3, r7, #40
 299 0276 0C3B     		subs	r3, r3, #12
 300 0278 1A46     		mov	r2, r3
 301 027a 4FF4C863 		mov	r3, #1600
 302 027e 1046     		mov	r0, r2
 303 0280 0021     		movs	r1, #0
 304 0282 1A46     		mov	r2, r3
 305 0284 FFF7FEFF 		bl	memset
  73:.\pathfinder.c ****    //uint8 nextNodesDirection[DEFAULT_ARRAY_SIZE] = {0};
  74:.\pathfinder.c ****    uint8 tentativeNode[2] = {0};//x and y coordinate of the next node
 306              		.loc 1 74 0
 307 0288 07F12803 		add	r3, r7, #40
 308 028c 103B     		subs	r3, r3, #16
 309 028e 0022     		movs	r2, #0
 310 0290 1A80     		strh	r2, [r3]	@ movhi
  75:.\pathfinder.c ****    uint8 unreachable = 0;
 311              		.loc 1 75 0
 312 0292 0023     		movs	r3, #0
 313 0294 07F5C152 		add	r2, r7, #6176
 314 0298 02F11302 		add	r2, r2, #19
 315 029c 1370     		strb	r3, [r2]
  76:.\pathfinder.c ****    uint8 corner_penalty = 0;
 316              		.loc 1 76 0
 317 029e 0023     		movs	r3, #0
 318 02a0 07F5C252 		add	r2, r7, #6208
 319 02a4 02F10402 		add	r2, r2, #4
ARM GAS  C:\Users\lken274\AppData\Local\Temp\ccV4mmfZ.s 			page 8


 320 02a8 1370     		strb	r3, [r2]
  77:.\pathfinder.c ****    uint8 counter = 0;
 321              		.loc 1 77 0
 322 02aa 0023     		movs	r3, #0
 323 02ac 07F5C252 		add	r2, r7, #6208
 324 02b0 02F10302 		add	r2, r2, #3
 325 02b4 1370     		strb	r3, [r2]
  78:.\pathfinder.c ****    uint16 tmpCost = 0;
 326              		.loc 1 78 0
 327 02b6 0023     		movs	r3, #0
 328 02b8 07F5C152 		add	r2, r7, #6176
 329 02bc 02F11002 		add	r2, r2, #16
 330 02c0 1380     		strh	r3, [r2]	@ movhi
  79:.\pathfinder.c ****    uint8 nextNode[2] = {0, 0};
 331              		.loc 1 79 0
 332 02c2 07F12803 		add	r3, r7, #40
 333 02c6 143B     		subs	r3, r3, #20
 334 02c8 0022     		movs	r2, #0
 335 02ca 1A70     		strb	r2, [r3]
 336 02cc 07F12803 		add	r3, r7, #40
 337 02d0 143B     		subs	r3, r3, #20
 338 02d2 0022     		movs	r2, #0
 339 02d4 5A70     		strb	r2, [r3, #1]
  80:.\pathfinder.c ****    uint8 nextNodeIndex = 0;
 340              		.loc 1 80 0
 341 02d6 0023     		movs	r3, #0
 342 02d8 07F5C252 		add	r2, r7, #6208
 343 02dc 02F10202 		add	r2, r2, #2
 344 02e0 1370     		strb	r3, [r2]
  81:.\pathfinder.c ****    uint8 tmpNextNode[2] = {0};
 345              		.loc 1 81 0
 346 02e2 07F12803 		add	r3, r7, #40
 347 02e6 183B     		subs	r3, r3, #24
 348 02e8 0022     		movs	r2, #0
 349 02ea 1A80     		strh	r2, [r3]	@ movhi
  82:.\pathfinder.c ****    uint16 nextNodeCost = 0;
 350              		.loc 1 82 0
 351 02ec 0023     		movs	r3, #0
 352 02ee 07F5C252 		add	r2, r7, #6208
 353 02f2 1380     		strh	r3, [r2]	@ movhi
  83:.\pathfinder.c ****    uint8 hasNext = 1;
 354              		.loc 1 83 0
 355 02f4 0123     		movs	r3, #1
 356 02f6 07F5C152 		add	r2, r7, #6176
 357 02fa 02F11F02 		add	r2, r2, #31
 358 02fe 1370     		strb	r3, [r2]
  84:.\pathfinder.c **** 
  85:.\pathfinder.c ****    Nodes[current[Y]][current[X]].tentative_cost = 0;
 359              		.loc 1 85 0
 360 0300 07F5CD63 		add	r3, r7, #1640
 361 0304 0C3B     		subs	r3, r3, #12
 362 0306 1B78     		ldrb	r3, [r3]	@ zero_extendqisi2
 363 0308 1946     		mov	r1, r3
 364 030a 07F5CD63 		add	r3, r7, #1640
 365 030e 0C3B     		subs	r3, r3, #12
 366 0310 5B78     		ldrb	r3, [r3, #1]	@ zero_extendqisi2
 367 0312 1846     		mov	r0, r3
ARM GAS  C:\Users\lken274\AppData\Local\Temp\ccV4mmfZ.s 			page 9


 368 0314 07F5CD62 		add	r2, r7, #1640
 369 0318 083A     		subs	r2, r2, #8
 370 031a 0B46     		mov	r3, r1
 371 031c DB00     		lsls	r3, r3, #3
 372 031e 0B44     		add	r3, r3, r1
 373 0320 5B00     		lsls	r3, r3, #1
 374 0322 0B44     		add	r3, r3, r1
 375 0324 0344     		add	r3, r3, r0
 376 0326 1B01     		lsls	r3, r3, #4
 377 0328 1344     		add	r3, r3, r2
 378 032a 0833     		adds	r3, r3, #8
 379 032c 0022     		movs	r2, #0
 380 032e 9A80     		strh	r2, [r3, #4]	@ movhi
  86:.\pathfinder.c ****    Nodes[current[Y]][current[X]].prevNode = &Nodes[current[Y]][current[X]];
 381              		.loc 1 86 0
 382 0330 07F5CD63 		add	r3, r7, #1640
 383 0334 0C3B     		subs	r3, r3, #12
 384 0336 1B78     		ldrb	r3, [r3]	@ zero_extendqisi2
 385 0338 1946     		mov	r1, r3
 386 033a 07F5CD63 		add	r3, r7, #1640
 387 033e 0C3B     		subs	r3, r3, #12
 388 0340 5B78     		ldrb	r3, [r3, #1]	@ zero_extendqisi2
 389 0342 1C46     		mov	r4, r3
 390 0344 07F5CD63 		add	r3, r7, #1640
 391 0348 0C3B     		subs	r3, r3, #12
 392 034a 1B78     		ldrb	r3, [r3]	@ zero_extendqisi2
 393 034c 1846     		mov	r0, r3
 394 034e 07F5CD63 		add	r3, r7, #1640
 395 0352 0C3B     		subs	r3, r3, #12
 396 0354 5B78     		ldrb	r3, [r3, #1]	@ zero_extendqisi2
 397 0356 1D46     		mov	r5, r3
 398 0358 07F5CD62 		add	r2, r7, #1640
 399 035c 083A     		subs	r2, r2, #8
 400 035e 0346     		mov	r3, r0
 401 0360 DB00     		lsls	r3, r3, #3
 402 0362 0344     		add	r3, r3, r0
 403 0364 5B00     		lsls	r3, r3, #1
 404 0366 0344     		add	r3, r3, r0
 405 0368 2B44     		add	r3, r3, r5
 406 036a 1B01     		lsls	r3, r3, #4
 407 036c D018     		adds	r0, r2, r3
 408 036e 07F5CD62 		add	r2, r7, #1640
 409 0372 083A     		subs	r2, r2, #8
 410 0374 0B46     		mov	r3, r1
 411 0376 DB00     		lsls	r3, r3, #3
 412 0378 0B44     		add	r3, r3, r1
 413 037a 5B00     		lsls	r3, r3, #1
 414 037c 0B44     		add	r3, r3, r1
 415 037e 2344     		add	r3, r3, r4
 416 0380 1B01     		lsls	r3, r3, #4
 417 0382 1344     		add	r3, r3, r2
 418 0384 0833     		adds	r3, r3, #8
 419 0386 1860     		str	r0, [r3]
  87:.\pathfinder.c ****    Nodes[current[Y]][current[X]].direction = robot_direction;
 420              		.loc 1 87 0
 421 0388 07F5CD63 		add	r3, r7, #1640
 422 038c 0C3B     		subs	r3, r3, #12
ARM GAS  C:\Users\lken274\AppData\Local\Temp\ccV4mmfZ.s 			page 10


 423 038e 1B78     		ldrb	r3, [r3]	@ zero_extendqisi2
 424 0390 1946     		mov	r1, r3
 425 0392 07F5CD63 		add	r3, r7, #1640
 426 0396 0C3B     		subs	r3, r3, #12
 427 0398 5B78     		ldrb	r3, [r3, #1]	@ zero_extendqisi2
 428 039a 1C46     		mov	r4, r3
 429 039c 414B     		ldr	r3, .L26
 430 039e 1878     		ldrb	r0, [r3]	@ zero_extendqisi2
 431 03a0 07F5CD62 		add	r2, r7, #1640
 432 03a4 083A     		subs	r2, r2, #8
 433 03a6 0B46     		mov	r3, r1
 434 03a8 DB00     		lsls	r3, r3, #3
 435 03aa 0B44     		add	r3, r3, r1
 436 03ac 5B00     		lsls	r3, r3, #1
 437 03ae 0B44     		add	r3, r3, r1
 438 03b0 2344     		add	r3, r3, r4
 439 03b2 1B01     		lsls	r3, r3, #4
 440 03b4 1344     		add	r3, r3, r2
 441 03b6 0833     		adds	r3, r3, #8
 442 03b8 0246     		mov	r2, r0
 443 03ba 9A71     		strb	r2, [r3, #6]
  88:.\pathfinder.c **** 
  89:.\pathfinder.c ****    //early exit, run until x and y are equal
  90:.\pathfinder.c ****    while(!((current[Y] == destination[Y]) && (current[X] == destination[X])) && hasNext == 1){
 444              		.loc 1 90 0
 445 03bc C2E2     		b	.L6
 446              	.L20:
 447              	.LBB3:
  91:.\pathfinder.c ****       counter = 1;
 448              		.loc 1 91 0
 449 03be 0123     		movs	r3, #1
 450 03c0 07F5C252 		add	r2, r7, #6208
 451 03c4 02F10302 		add	r2, r2, #3
 452 03c8 1370     		strb	r3, [r2]
  92:.\pathfinder.c ****       Nodes[current[Y]][current[1]].visited = VISITED; // set visitetd to true
 453              		.loc 1 92 0
 454 03ca 07F5CD63 		add	r3, r7, #1640
 455 03ce 0C3B     		subs	r3, r3, #12
 456 03d0 1B78     		ldrb	r3, [r3]	@ zero_extendqisi2
 457 03d2 1946     		mov	r1, r3
 458 03d4 07F5CD63 		add	r3, r7, #1640
 459 03d8 0C3B     		subs	r3, r3, #12
 460 03da 5B78     		ldrb	r3, [r3, #1]	@ zero_extendqisi2
 461 03dc 1846     		mov	r0, r3
 462 03de 07F5CD62 		add	r2, r7, #1640
 463 03e2 083A     		subs	r2, r2, #8
 464 03e4 0B46     		mov	r3, r1
 465 03e6 DB00     		lsls	r3, r3, #3
 466 03e8 0B44     		add	r3, r3, r1
 467 03ea 5B00     		lsls	r3, r3, #1
 468 03ec 0B44     		add	r3, r3, r1
 469 03ee 0344     		add	r3, r3, r0
 470 03f0 1B01     		lsls	r3, r3, #4
 471 03f2 1344     		add	r3, r3, r2
 472 03f4 0122     		movs	r2, #1
 473 03f6 5A70     		strb	r2, [r3, #1]
  93:.\pathfinder.c ****       //printf("main loop %d | X: %d | Y: %d\n", Nodes[current[0]][current[1]].visited, Nodes[curre
ARM GAS  C:\Users\lken274\AppData\Local\Temp\ccV4mmfZ.s 			page 11


  94:.\pathfinder.c ****       while(counter <= 4){
 474              		.loc 1 94 0
 475 03f8 97E1     		b	.L7
 476              	.L14:
  95:.\pathfinder.c ****          corner_penalty = 0;
 477              		.loc 1 95 0
 478 03fa 0023     		movs	r3, #0
 479 03fc 07F5C252 		add	r2, r7, #6208
 480 0400 02F10402 		add	r2, r2, #4
 481 0404 1370     		strb	r3, [r2]
  96:.\pathfinder.c ****          if(counter == 1){
 482              		.loc 1 96 0
 483 0406 07F5C253 		add	r3, r7, #6208
 484 040a 03F10303 		add	r3, r3, #3
 485 040e 1B78     		ldrb	r3, [r3]	@ zero_extendqisi2
 486 0410 012B     		cmp	r3, #1
 487 0412 12D1     		bne	.L8
  97:.\pathfinder.c ****             tentativeNode[Y] = current[Y] - 1;
 488              		.loc 1 97 0
 489 0414 07F5CD63 		add	r3, r7, #1640
 490 0418 0C3B     		subs	r3, r3, #12
 491 041a 1B78     		ldrb	r3, [r3]	@ zero_extendqisi2
 492 041c 013B     		subs	r3, r3, #1
 493 041e DAB2     		uxtb	r2, r3
 494 0420 07F12803 		add	r3, r7, #40
 495 0424 103B     		subs	r3, r3, #16
 496 0426 1A70     		strb	r2, [r3]
  98:.\pathfinder.c ****             tentativeNode[X] = current[X];
 497              		.loc 1 98 0
 498 0428 07F5CD63 		add	r3, r7, #1640
 499 042c 0C3B     		subs	r3, r3, #12
 500 042e 5A78     		ldrb	r2, [r3, #1]	@ zero_extendqisi2
 501 0430 07F12803 		add	r3, r7, #40
 502 0434 103B     		subs	r3, r3, #16
 503 0436 5A70     		strb	r2, [r3, #1]
 504 0438 4FE0     		b	.L9
 505              	.L8:
  99:.\pathfinder.c ****          }else if(counter == 2){
 506              		.loc 1 99 0
 507 043a 07F5C253 		add	r3, r7, #6208
 508 043e 03F10303 		add	r3, r3, #3
 509 0442 1B78     		ldrb	r3, [r3]	@ zero_extendqisi2
 510 0444 022B     		cmp	r3, #2
 511 0446 12D1     		bne	.L10
 100:.\pathfinder.c ****             tentativeNode[Y] = current[Y];
 512              		.loc 1 100 0
 513 0448 07F5CD63 		add	r3, r7, #1640
 514 044c 0C3B     		subs	r3, r3, #12
 515 044e 1A78     		ldrb	r2, [r3]	@ zero_extendqisi2
 516 0450 07F12803 		add	r3, r7, #40
 517 0454 103B     		subs	r3, r3, #16
 518 0456 1A70     		strb	r2, [r3]
 101:.\pathfinder.c ****             tentativeNode[X] = current[X] + 1;
 519              		.loc 1 101 0
 520 0458 07F5CD63 		add	r3, r7, #1640
 521 045c 0C3B     		subs	r3, r3, #12
 522 045e 5B78     		ldrb	r3, [r3, #1]	@ zero_extendqisi2
ARM GAS  C:\Users\lken274\AppData\Local\Temp\ccV4mmfZ.s 			page 12


 523 0460 0133     		adds	r3, r3, #1
 524 0462 DAB2     		uxtb	r2, r3
 525 0464 07F12803 		add	r3, r7, #40
 526 0468 103B     		subs	r3, r3, #16
 527 046a 5A70     		strb	r2, [r3, #1]
 528 046c 35E0     		b	.L9
 529              	.L10:
 102:.\pathfinder.c ****          }else if(counter == 3){
 530              		.loc 1 102 0
 531 046e 07F5C253 		add	r3, r7, #6208
 532 0472 03F10303 		add	r3, r3, #3
 533 0476 1B78     		ldrb	r3, [r3]	@ zero_extendqisi2
 534 0478 032B     		cmp	r3, #3
 535 047a 15D1     		bne	.L11
 103:.\pathfinder.c ****             tentativeNode[Y] = current[Y] + 1;
 536              		.loc 1 103 0
 537 047c 07F5CD63 		add	r3, r7, #1640
 538 0480 0C3B     		subs	r3, r3, #12
 539 0482 1B78     		ldrb	r3, [r3]	@ zero_extendqisi2
 540 0484 0133     		adds	r3, r3, #1
 541 0486 DAB2     		uxtb	r2, r3
 542 0488 07F12803 		add	r3, r7, #40
 543 048c 103B     		subs	r3, r3, #16
 544 048e 1A70     		strb	r2, [r3]
 104:.\pathfinder.c ****             tentativeNode[X] = current[X];
 545              		.loc 1 104 0
 546 0490 07F5CD63 		add	r3, r7, #1640
 547 0494 0C3B     		subs	r3, r3, #12
 548 0496 5A78     		ldrb	r2, [r3, #1]	@ zero_extendqisi2
 549 0498 07F12803 		add	r3, r7, #40
 550 049c 103B     		subs	r3, r3, #16
 551 049e 5A70     		strb	r2, [r3, #1]
 552 04a0 1BE0     		b	.L9
 553              	.L27:
 554 04a2 00BF     		.align	2
 555              	.L26:
 556 04a4 00000000 		.word	robot_direction
 557              	.L11:
 105:.\pathfinder.c ****          }else if(counter == 4){
 558              		.loc 1 105 0
 559 04a8 07F5C253 		add	r3, r7, #6208
 560 04ac 03F10303 		add	r3, r3, #3
 561 04b0 1B78     		ldrb	r3, [r3]	@ zero_extendqisi2
 562 04b2 042B     		cmp	r3, #4
 563 04b4 11D1     		bne	.L9
 106:.\pathfinder.c ****             tentativeNode[Y] = current[Y];
 564              		.loc 1 106 0
 565 04b6 07F5CD63 		add	r3, r7, #1640
 566 04ba 0C3B     		subs	r3, r3, #12
 567 04bc 1A78     		ldrb	r2, [r3]	@ zero_extendqisi2
 568 04be 07F12803 		add	r3, r7, #40
 569 04c2 103B     		subs	r3, r3, #16
 570 04c4 1A70     		strb	r2, [r3]
 107:.\pathfinder.c ****             tentativeNode[X] = current[X] - 1;
 571              		.loc 1 107 0
 572 04c6 07F5CD63 		add	r3, r7, #1640
 573 04ca 0C3B     		subs	r3, r3, #12
ARM GAS  C:\Users\lken274\AppData\Local\Temp\ccV4mmfZ.s 			page 13


 574 04cc 5B78     		ldrb	r3, [r3, #1]	@ zero_extendqisi2
 575 04ce 013B     		subs	r3, r3, #1
 576 04d0 DAB2     		uxtb	r2, r3
 577 04d2 07F12803 		add	r3, r7, #40
 578 04d6 103B     		subs	r3, r3, #16
 579 04d8 5A70     		strb	r2, [r3, #1]
 580              	.L9:
 108:.\pathfinder.c ****          }
 109:.\pathfinder.c ****          if(counter != robot_direction){
 581              		.loc 1 109 0
 582 04da A14B     		ldr	r3, .L28
 583 04dc 1B78     		ldrb	r3, [r3]	@ zero_extendqisi2
 584 04de 07F5C252 		add	r2, r7, #6208
 585 04e2 02F10302 		add	r2, r2, #3
 586 04e6 1278     		ldrb	r2, [r2]	@ zero_extendqisi2
 587 04e8 9A42     		cmp	r2, r3
 588 04ea 05D0     		beq	.L12
 110:.\pathfinder.c ****             corner_penalty = CORNER_PENALTY;
 589              		.loc 1 110 0
 590 04ec 0023     		movs	r3, #0
 591 04ee 07F5C252 		add	r2, r7, #6208
 592 04f2 02F10402 		add	r2, r2, #4
 593 04f6 1370     		strb	r3, [r2]
 594              	.L12:
 111:.\pathfinder.c ****          }
 112:.\pathfinder.c **** 
 113:.\pathfinder.c ****          if(tentativeNode[Y] >= 0 && tentativeNode[X] >= 0 && tentativeNode[Y] <= Y_SIZE && tentati
 595              		.loc 1 113 0
 596 04f8 07F12803 		add	r3, r7, #40
 597 04fc 103B     		subs	r3, r3, #16
 598 04fe 1B78     		ldrb	r3, [r3]	@ zero_extendqisi2
 599 0500 0F2B     		cmp	r3, #15
 600 0502 00F20781 		bhi	.L13
 601              		.loc 1 113 0 is_stmt 0 discriminator 1
 602 0506 07F12803 		add	r3, r7, #40
 603 050a 103B     		subs	r3, r3, #16
 604 050c 5B78     		ldrb	r3, [r3, #1]	@ zero_extendqisi2
 605 050e 132B     		cmp	r3, #19
 606 0510 00F20081 		bhi	.L13
 114:.\pathfinder.c ****             if(Nodes[tentativeNode[Y]][tentativeNode[X]].path == PATH){//check the node is a path
 607              		.loc 1 114 0 is_stmt 1
 608 0514 07F12803 		add	r3, r7, #40
 609 0518 103B     		subs	r3, r3, #16
 610 051a 1B78     		ldrb	r3, [r3]	@ zero_extendqisi2
 611 051c 1946     		mov	r1, r3
 612 051e 07F12803 		add	r3, r7, #40
 613 0522 103B     		subs	r3, r3, #16
 614 0524 5B78     		ldrb	r3, [r3, #1]	@ zero_extendqisi2
 615 0526 1846     		mov	r0, r3
 616 0528 07F5CD62 		add	r2, r7, #1640
 617 052c 083A     		subs	r2, r2, #8
 618 052e 0B46     		mov	r3, r1
 619 0530 DB00     		lsls	r3, r3, #3
 620 0532 0B44     		add	r3, r3, r1
 621 0534 5B00     		lsls	r3, r3, #1
 622 0536 0B44     		add	r3, r3, r1
 623 0538 0344     		add	r3, r3, r0
ARM GAS  C:\Users\lken274\AppData\Local\Temp\ccV4mmfZ.s 			page 14


 624 053a 1B01     		lsls	r3, r3, #4
 625 053c 1344     		add	r3, r3, r2
 626 053e 1B78     		ldrb	r3, [r3]	@ zero_extendqisi2
 627 0540 002B     		cmp	r3, #0
 628 0542 40F0E780 		bne	.L13
 115:.\pathfinder.c ****                //printf("3\n", hasNext);
 116:.\pathfinder.c ****                tmpCost = Nodes[current[Y]][current[X]].tentative_cost + Nodes[tentativeNode[Y]][ten
 629              		.loc 1 116 0
 630 0546 07F5CD63 		add	r3, r7, #1640
 631 054a 0C3B     		subs	r3, r3, #12
 632 054c 1B78     		ldrb	r3, [r3]	@ zero_extendqisi2
 633 054e 1946     		mov	r1, r3
 634 0550 07F5CD63 		add	r3, r7, #1640
 635 0554 0C3B     		subs	r3, r3, #12
 636 0556 5B78     		ldrb	r3, [r3, #1]	@ zero_extendqisi2
 637 0558 1846     		mov	r0, r3
 638 055a 07F5CD62 		add	r2, r7, #1640
 639 055e 083A     		subs	r2, r2, #8
 640 0560 0B46     		mov	r3, r1
 641 0562 DB00     		lsls	r3, r3, #3
 642 0564 0B44     		add	r3, r3, r1
 643 0566 5B00     		lsls	r3, r3, #1
 644 0568 0B44     		add	r3, r3, r1
 645 056a 0344     		add	r3, r3, r0
 646 056c 1B01     		lsls	r3, r3, #4
 647 056e 1344     		add	r3, r3, r2
 648 0570 0833     		adds	r3, r3, #8
 649 0572 9888     		ldrh	r0, [r3, #4]
 650 0574 07F12803 		add	r3, r7, #40
 651 0578 103B     		subs	r3, r3, #16
 652 057a 1B78     		ldrb	r3, [r3]	@ zero_extendqisi2
 653 057c 1946     		mov	r1, r3
 654 057e 07F12803 		add	r3, r7, #40
 655 0582 103B     		subs	r3, r3, #16
 656 0584 5B78     		ldrb	r3, [r3, #1]	@ zero_extendqisi2
 657 0586 1C46     		mov	r4, r3
 658 0588 07F5CD62 		add	r2, r7, #1640
 659 058c 083A     		subs	r2, r2, #8
 660 058e 0B46     		mov	r3, r1
 661 0590 DB00     		lsls	r3, r3, #3
 662 0592 0B44     		add	r3, r3, r1
 663 0594 5B00     		lsls	r3, r3, #1
 664 0596 0B44     		add	r3, r3, r1
 665 0598 2344     		add	r3, r3, r4
 666 059a 1B01     		lsls	r3, r3, #4
 667 059c 1344     		add	r3, r3, r2
 668 059e 5B88     		ldrh	r3, [r3, #2]
 669 05a0 0344     		add	r3, r3, r0
 670 05a2 9AB2     		uxth	r2, r3
 671 05a4 07F5C253 		add	r3, r7, #6208
 672 05a8 03F10403 		add	r3, r3, #4
 673 05ac 1B78     		ldrb	r3, [r3]	@ zero_extendqisi2
 674 05ae 9BB2     		uxth	r3, r3
 675 05b0 1344     		add	r3, r3, r2
 676 05b2 07F5C152 		add	r2, r7, #6176
 677 05b6 02F11002 		add	r2, r2, #16
 678 05ba 1380     		strh	r3, [r2]	@ movhi
ARM GAS  C:\Users\lken274\AppData\Local\Temp\ccV4mmfZ.s 			page 15


 117:.\pathfinder.c ****                if(tmpCost < Nodes[tentativeNode[Y]][tentativeNode[X]].tentative_cost){
 679              		.loc 1 117 0
 680 05bc 07F12803 		add	r3, r7, #40
 681 05c0 103B     		subs	r3, r3, #16
 682 05c2 1B78     		ldrb	r3, [r3]	@ zero_extendqisi2
 683 05c4 1946     		mov	r1, r3
 684 05c6 07F12803 		add	r3, r7, #40
 685 05ca 103B     		subs	r3, r3, #16
 686 05cc 5B78     		ldrb	r3, [r3, #1]	@ zero_extendqisi2
 687 05ce 1846     		mov	r0, r3
 688 05d0 07F5CD62 		add	r2, r7, #1640
 689 05d4 083A     		subs	r2, r2, #8
 690 05d6 0B46     		mov	r3, r1
 691 05d8 DB00     		lsls	r3, r3, #3
 692 05da 0B44     		add	r3, r3, r1
 693 05dc 5B00     		lsls	r3, r3, #1
 694 05de 0B44     		add	r3, r3, r1
 695 05e0 0344     		add	r3, r3, r0
 696 05e2 1B01     		lsls	r3, r3, #4
 697 05e4 1344     		add	r3, r3, r2
 698 05e6 0833     		adds	r3, r3, #8
 699 05e8 9B88     		ldrh	r3, [r3, #4]
 700 05ea 07F5C152 		add	r2, r7, #6176
 701 05ee 02F11002 		add	r2, r2, #16
 702 05f2 1288     		ldrh	r2, [r2]
 703 05f4 9A42     		cmp	r2, r3
 704 05f6 80F08D80 		bcs	.L13
 118:.\pathfinder.c ****                   //printf("5 %d\n", tmpCost);
 119:.\pathfinder.c ****                   Nodes[tentativeNode[Y]][tentativeNode[X]].tentative_cost = tmpCost;
 705              		.loc 1 119 0
 706 05fa 07F12803 		add	r3, r7, #40
 707 05fe 103B     		subs	r3, r3, #16
 708 0600 1B78     		ldrb	r3, [r3]	@ zero_extendqisi2
 709 0602 1946     		mov	r1, r3
 710 0604 07F12803 		add	r3, r7, #40
 711 0608 103B     		subs	r3, r3, #16
 712 060a 5B78     		ldrb	r3, [r3, #1]	@ zero_extendqisi2
 713 060c 1846     		mov	r0, r3
 714 060e 07F5CD62 		add	r2, r7, #1640
 715 0612 083A     		subs	r2, r2, #8
 716 0614 0B46     		mov	r3, r1
 717 0616 DB00     		lsls	r3, r3, #3
 718 0618 0B44     		add	r3, r3, r1
 719 061a 5B00     		lsls	r3, r3, #1
 720 061c 0B44     		add	r3, r3, r1
 721 061e 0344     		add	r3, r3, r0
 722 0620 1B01     		lsls	r3, r3, #4
 723 0622 1344     		add	r3, r3, r2
 724 0624 0833     		adds	r3, r3, #8
 725 0626 07F5C152 		add	r2, r7, #6176
 726 062a 02F11002 		add	r2, r2, #16
 727 062e 1288     		ldrh	r2, [r2]	@ movhi
 728 0630 9A80     		strh	r2, [r3, #4]	@ movhi
 120:.\pathfinder.c ****                   //printf("6 currentX : %d, currentY : %d\n", current[0], current[1]);
 121:.\pathfinder.c **** 
 122:.\pathfinder.c ****                   //printf("Discovered node at X : %d, Y : %d\n", tentativeNode[0], tentativeNode[1
 123:.\pathfinder.c ****                   Nodes[tentativeNode[Y]][tentativeNode[X]].prevNode = &Nodes[current[Y]][current[1
ARM GAS  C:\Users\lken274\AppData\Local\Temp\ccV4mmfZ.s 			page 16


 729              		.loc 1 123 0
 730 0632 07F12803 		add	r3, r7, #40
 731 0636 103B     		subs	r3, r3, #16
 732 0638 1B78     		ldrb	r3, [r3]	@ zero_extendqisi2
 733 063a 1946     		mov	r1, r3
 734 063c 07F12803 		add	r3, r7, #40
 735 0640 103B     		subs	r3, r3, #16
 736 0642 5B78     		ldrb	r3, [r3, #1]	@ zero_extendqisi2
 737 0644 1C46     		mov	r4, r3
 738 0646 07F5CD63 		add	r3, r7, #1640
 739 064a 0C3B     		subs	r3, r3, #12
 740 064c 1B78     		ldrb	r3, [r3]	@ zero_extendqisi2
 741 064e 1846     		mov	r0, r3
 742 0650 07F5CD63 		add	r3, r7, #1640
 743 0654 0C3B     		subs	r3, r3, #12
 744 0656 5B78     		ldrb	r3, [r3, #1]	@ zero_extendqisi2
 745 0658 1D46     		mov	r5, r3
 746 065a 07F5CD62 		add	r2, r7, #1640
 747 065e 083A     		subs	r2, r2, #8
 748 0660 0346     		mov	r3, r0
 749 0662 DB00     		lsls	r3, r3, #3
 750 0664 0344     		add	r3, r3, r0
 751 0666 5B00     		lsls	r3, r3, #1
 752 0668 0344     		add	r3, r3, r0
 753 066a 2B44     		add	r3, r3, r5
 754 066c 1B01     		lsls	r3, r3, #4
 755 066e D018     		adds	r0, r2, r3
 756 0670 07F5CD62 		add	r2, r7, #1640
 757 0674 083A     		subs	r2, r2, #8
 758 0676 0B46     		mov	r3, r1
 759 0678 DB00     		lsls	r3, r3, #3
 760 067a 0B44     		add	r3, r3, r1
 761 067c 5B00     		lsls	r3, r3, #1
 762 067e 0B44     		add	r3, r3, r1
 763 0680 2344     		add	r3, r3, r4
 764 0682 1B01     		lsls	r3, r3, #4
 765 0684 1344     		add	r3, r3, r2
 766 0686 0833     		adds	r3, r3, #8
 767 0688 1860     		str	r0, [r3]
 124:.\pathfinder.c ****                   nextNodes[totalIterationCounter][Y] = tentativeNode[Y];
 768              		.loc 1 124 0
 769 068a 07F5C253 		add	r3, r7, #6208
 770 068e 03F10503 		add	r3, r3, #5
 771 0692 1A78     		ldrb	r2, [r3]	@ zero_extendqisi2
 772 0694 07F12803 		add	r3, r7, #40
 773 0698 103B     		subs	r3, r3, #16
 774 069a 1978     		ldrb	r1, [r3]	@ zero_extendqisi2
 775 069c 07F12803 		add	r3, r7, #40
 776 06a0 0C3B     		subs	r3, r3, #12
 777 06a2 03F81210 		strb	r1, [r3, r2, lsl #1]
 125:.\pathfinder.c ****                   nextNodes[totalIterationCounter][X] = tentativeNode[X];
 778              		.loc 1 125 0
 779 06a6 07F5C253 		add	r3, r7, #6208
 780 06aa 03F10503 		add	r3, r3, #5
 781 06ae 1978     		ldrb	r1, [r3]	@ zero_extendqisi2
 782 06b0 07F12803 		add	r3, r7, #40
 783 06b4 103B     		subs	r3, r3, #16
ARM GAS  C:\Users\lken274\AppData\Local\Temp\ccV4mmfZ.s 			page 17


 784 06b6 5878     		ldrb	r0, [r3, #1]	@ zero_extendqisi2
 785 06b8 07F12802 		add	r2, r7, #40
 786 06bc 0C3A     		subs	r2, r2, #12
 787 06be 4B00     		lsls	r3, r1, #1
 788 06c0 1344     		add	r3, r3, r2
 789 06c2 0246     		mov	r2, r0
 790 06c4 5A70     		strb	r2, [r3, #1]
 126:.\pathfinder.c ****                   Nodes[tentativeNode[Y]][tentativeNode[X]].direction = counter;
 791              		.loc 1 126 0
 792 06c6 07F12803 		add	r3, r7, #40
 793 06ca 103B     		subs	r3, r3, #16
 794 06cc 1B78     		ldrb	r3, [r3]	@ zero_extendqisi2
 795 06ce 1946     		mov	r1, r3
 796 06d0 07F12803 		add	r3, r7, #40
 797 06d4 103B     		subs	r3, r3, #16
 798 06d6 5B78     		ldrb	r3, [r3, #1]	@ zero_extendqisi2
 799 06d8 1846     		mov	r0, r3
 800 06da 07F5CD62 		add	r2, r7, #1640
 801 06de 083A     		subs	r2, r2, #8
 802 06e0 0B46     		mov	r3, r1
 803 06e2 DB00     		lsls	r3, r3, #3
 804 06e4 0B44     		add	r3, r3, r1
 805 06e6 5B00     		lsls	r3, r3, #1
 806 06e8 0B44     		add	r3, r3, r1
 807 06ea 0344     		add	r3, r3, r0
 808 06ec 1B01     		lsls	r3, r3, #4
 809 06ee 1344     		add	r3, r3, r2
 810 06f0 0833     		adds	r3, r3, #8
 811 06f2 07F5C252 		add	r2, r7, #6208
 812 06f6 02F10302 		add	r2, r2, #3
 813 06fa 1278     		ldrb	r2, [r2]
 814 06fc 9A71     		strb	r2, [r3, #6]
 127:.\pathfinder.c ****                   //nextNodesDirection[totalIterationCounter] = counter;
 128:.\pathfinder.c ****                   totalIterationCounter = 1 + totalIterationCounter;
 815              		.loc 1 128 0
 816 06fe 07F5C253 		add	r3, r7, #6208
 817 0702 03F10503 		add	r3, r3, #5
 818 0706 1B78     		ldrb	r3, [r3]
 819 0708 0133     		adds	r3, r3, #1
 820 070a 07F5C252 		add	r2, r7, #6208
 821 070e 02F10502 		add	r2, r2, #5
 822 0712 1370     		strb	r3, [r2]
 823              	.L13:
 129:.\pathfinder.c ****                }
 130:.\pathfinder.c ****             }
 131:.\pathfinder.c ****          }
 132:.\pathfinder.c ****          counter++;
 824              		.loc 1 132 0
 825 0714 07F5C253 		add	r3, r7, #6208
 826 0718 03F10303 		add	r3, r3, #3
 827 071c 1B78     		ldrb	r3, [r3]	@ zero_extendqisi2
 828 071e 0133     		adds	r3, r3, #1
 829 0720 07F5C252 		add	r2, r7, #6208
 830 0724 02F10302 		add	r2, r2, #3
 831 0728 1370     		strb	r3, [r2]
 832              	.L7:
  94:.\pathfinder.c ****          corner_penalty = 0;
ARM GAS  C:\Users\lken274\AppData\Local\Temp\ccV4mmfZ.s 			page 18


 833              		.loc 1 94 0
 834 072a 07F5C253 		add	r3, r7, #6208
 835 072e 03F10303 		add	r3, r3, #3
 836 0732 1B78     		ldrb	r3, [r3]	@ zero_extendqisi2
 837 0734 042B     		cmp	r3, #4
 838 0736 7FF660AE 		bls	.L14
 133:.\pathfinder.c ****       }
 134:.\pathfinder.c ****       //set the default cost value so that the for loop will find the lowest unvisited node
 135:.\pathfinder.c ****       nextNodeCost = INF_16;
 839              		.loc 1 135 0
 840 073a 4FF6FF73 		movw	r3, #65535
 841 073e 07F5C252 		add	r2, r7, #6208
 842 0742 1380     		strh	r3, [r2]	@ movhi
 136:.\pathfinder.c ****       //find the lowest unvisited node
 137:.\pathfinder.c ****       hasNext = 0;
 843              		.loc 1 137 0
 844 0744 0023     		movs	r3, #0
 845 0746 07F5C152 		add	r2, r7, #6176
 846 074a 02F11F02 		add	r2, r2, #31
 847 074e 1370     		strb	r3, [r2]
 138:.\pathfinder.c **** 
 139:.\pathfinder.c ****       //find the next node to visit
 140:.\pathfinder.c ****       //printf("totalIterationCounter : %d\n", totalIterationCounter);
 141:.\pathfinder.c ****         int i;
 142:.\pathfinder.c ****       for(i = 0; i < totalIterationCounter; i++){
 848              		.loc 1 142 0
 849 0750 0023     		movs	r3, #0
 850 0752 07F5C152 		add	r2, r7, #6176
 851 0756 02F11802 		add	r2, r2, #24
 852 075a 1360     		str	r3, [r2]
 853 075c AFE0     		b	.L15
 854              	.L29:
 855 075e 00BF     		.align	2
 856              	.L28:
 857 0760 00000000 		.word	robot_direction
 858              	.L17:
 143:.\pathfinder.c ****          //printf("i : %d\n", i);
 144:.\pathfinder.c ****          tmpNextNode[Y] = nextNodes[i][Y];
 859              		.loc 1 144 0
 860 0764 07F12803 		add	r3, r7, #40
 861 0768 0C3B     		subs	r3, r3, #12
 862 076a 07F5C152 		add	r2, r7, #6176
 863 076e 02F11802 		add	r2, r2, #24
 864 0772 1268     		ldr	r2, [r2]
 865 0774 13F81220 		ldrb	r2, [r3, r2, lsl #1]	@ zero_extendqisi2
 866 0778 07F12803 		add	r3, r7, #40
 867 077c 183B     		subs	r3, r3, #24
 868 077e 1A70     		strb	r2, [r3]
 145:.\pathfinder.c ****          tmpNextNode[X] = nextNodes[i][X];
 869              		.loc 1 145 0
 870 0780 07F12802 		add	r2, r7, #40
 871 0784 0C3A     		subs	r2, r2, #12
 872 0786 07F5C153 		add	r3, r7, #6176
 873 078a 03F11803 		add	r3, r3, #24
 874 078e 1B68     		ldr	r3, [r3]
 875 0790 5B00     		lsls	r3, r3, #1
 876 0792 1344     		add	r3, r3, r2
ARM GAS  C:\Users\lken274\AppData\Local\Temp\ccV4mmfZ.s 			page 19


 877 0794 5A78     		ldrb	r2, [r3, #1]	@ zero_extendqisi2
 878 0796 07F12803 		add	r3, r7, #40
 879 079a 183B     		subs	r3, r3, #24
 880 079c 5A70     		strb	r2, [r3, #1]
 146:.\pathfinder.c ****          //printf("tentative_cost : %d\n", Nodes[nextNodes[i][0]][nextNodes[i][1]].tentative_cost);
 147:.\pathfinder.c ****          if(Nodes[nextNodes[i][Y]][nextNodes[i][X]].tentative_cost < nextNodeCost){
 881              		.loc 1 147 0
 882 079e 07F12803 		add	r3, r7, #40
 883 07a2 0C3B     		subs	r3, r3, #12
 884 07a4 07F5C152 		add	r2, r7, #6176
 885 07a8 02F11802 		add	r2, r2, #24
 886 07ac 1268     		ldr	r2, [r2]
 887 07ae 13F81230 		ldrb	r3, [r3, r2, lsl #1]	@ zero_extendqisi2
 888 07b2 1946     		mov	r1, r3
 889 07b4 07F12802 		add	r2, r7, #40
 890 07b8 0C3A     		subs	r2, r2, #12
 891 07ba 07F5C153 		add	r3, r7, #6176
 892 07be 03F11803 		add	r3, r3, #24
 893 07c2 1B68     		ldr	r3, [r3]
 894 07c4 5B00     		lsls	r3, r3, #1
 895 07c6 1344     		add	r3, r3, r2
 896 07c8 5B78     		ldrb	r3, [r3, #1]	@ zero_extendqisi2
 897 07ca 1846     		mov	r0, r3
 898 07cc 07F5CD62 		add	r2, r7, #1640
 899 07d0 083A     		subs	r2, r2, #8
 900 07d2 0B46     		mov	r3, r1
 901 07d4 DB00     		lsls	r3, r3, #3
 902 07d6 0B44     		add	r3, r3, r1
 903 07d8 5B00     		lsls	r3, r3, #1
 904 07da 0B44     		add	r3, r3, r1
 905 07dc 0344     		add	r3, r3, r0
 906 07de 1B01     		lsls	r3, r3, #4
 907 07e0 1344     		add	r3, r3, r2
 908 07e2 0833     		adds	r3, r3, #8
 909 07e4 9B88     		ldrh	r3, [r3, #4]
 910 07e6 07F5C252 		add	r2, r7, #6208
 911 07ea 1288     		ldrh	r2, [r2]
 912 07ec 9A42     		cmp	r2, r3
 913 07ee 5BD9     		bls	.L16
 148:.\pathfinder.c ****             //printf("1 : %d\n", Nodes[nextNodes[i][0]][nextNodes[i][1]].tentative_cost);
 149:.\pathfinder.c ****             if(Nodes[nextNodes[i][Y]][nextNodes[i][X]].visited == UNVISITED){
 914              		.loc 1 149 0
 915 07f0 07F12803 		add	r3, r7, #40
 916 07f4 0C3B     		subs	r3, r3, #12
 917 07f6 07F5C152 		add	r2, r7, #6176
 918 07fa 02F11802 		add	r2, r2, #24
 919 07fe 1268     		ldr	r2, [r2]
 920 0800 13F81230 		ldrb	r3, [r3, r2, lsl #1]	@ zero_extendqisi2
 921 0804 1946     		mov	r1, r3
 922 0806 07F12802 		add	r2, r7, #40
 923 080a 0C3A     		subs	r2, r2, #12
 924 080c 07F5C153 		add	r3, r7, #6176
 925 0810 03F11803 		add	r3, r3, #24
 926 0814 1B68     		ldr	r3, [r3]
 927 0816 5B00     		lsls	r3, r3, #1
 928 0818 1344     		add	r3, r3, r2
 929 081a 5B78     		ldrb	r3, [r3, #1]	@ zero_extendqisi2
ARM GAS  C:\Users\lken274\AppData\Local\Temp\ccV4mmfZ.s 			page 20


 930 081c 1846     		mov	r0, r3
 931 081e 07F5CD62 		add	r2, r7, #1640
 932 0822 083A     		subs	r2, r2, #8
 933 0824 0B46     		mov	r3, r1
 934 0826 DB00     		lsls	r3, r3, #3
 935 0828 0B44     		add	r3, r3, r1
 936 082a 5B00     		lsls	r3, r3, #1
 937 082c 0B44     		add	r3, r3, r1
 938 082e 0344     		add	r3, r3, r0
 939 0830 1B01     		lsls	r3, r3, #4
 940 0832 1344     		add	r3, r3, r2
 941 0834 5B78     		ldrb	r3, [r3, #1]	@ zero_extendqisi2
 942 0836 002B     		cmp	r3, #0
 943 0838 36D1     		bne	.L16
 150:.\pathfinder.c **** 
 151:.\pathfinder.c ****                //printf("2 : %d\n", Nodes[nextNodes[i][0]][nextNodes[i][1]].visited);
 152:.\pathfinder.c ****                nextNodeCost = Nodes[nextNodes[i][Y]][nextNodes[i][X]].tentative_cost;
 944              		.loc 1 152 0
 945 083a 07F12803 		add	r3, r7, #40
 946 083e 0C3B     		subs	r3, r3, #12
 947 0840 07F5C152 		add	r2, r7, #6176
 948 0844 02F11802 		add	r2, r2, #24
 949 0848 1268     		ldr	r2, [r2]
 950 084a 13F81230 		ldrb	r3, [r3, r2, lsl #1]	@ zero_extendqisi2
 951 084e 1946     		mov	r1, r3
 952 0850 07F12802 		add	r2, r7, #40
 953 0854 0C3A     		subs	r2, r2, #12
 954 0856 07F5C153 		add	r3, r7, #6176
 955 085a 03F11803 		add	r3, r3, #24
 956 085e 1B68     		ldr	r3, [r3]
 957 0860 5B00     		lsls	r3, r3, #1
 958 0862 1344     		add	r3, r3, r2
 959 0864 5B78     		ldrb	r3, [r3, #1]	@ zero_extendqisi2
 960 0866 1846     		mov	r0, r3
 961 0868 07F5CD62 		add	r2, r7, #1640
 962 086c 083A     		subs	r2, r2, #8
 963 086e 0B46     		mov	r3, r1
 964 0870 DB00     		lsls	r3, r3, #3
 965 0872 0B44     		add	r3, r3, r1
 966 0874 5B00     		lsls	r3, r3, #1
 967 0876 0B44     		add	r3, r3, r1
 968 0878 0344     		add	r3, r3, r0
 969 087a 1B01     		lsls	r3, r3, #4
 970 087c 1344     		add	r3, r3, r2
 971 087e 0833     		adds	r3, r3, #8
 972 0880 9B88     		ldrh	r3, [r3, #4]	@ movhi
 973 0882 07F5C252 		add	r2, r7, #6208
 974 0886 1380     		strh	r3, [r2]	@ movhi
 153:.\pathfinder.c **** 
 154:.\pathfinder.c ****                nextNodeIndex = i;
 975              		.loc 1 154 0
 976 0888 07F5C153 		add	r3, r7, #6176
 977 088c 03F11803 		add	r3, r3, #24
 978 0890 1B68     		ldr	r3, [r3]
 979 0892 07F5C252 		add	r2, r7, #6208
 980 0896 02F10202 		add	r2, r2, #2
 981 089a 1370     		strb	r3, [r2]
ARM GAS  C:\Users\lken274\AppData\Local\Temp\ccV4mmfZ.s 			page 21


 155:.\pathfinder.c ****                hasNext = 1;
 982              		.loc 1 155 0
 983 089c 0123     		movs	r3, #1
 984 089e 07F5C152 		add	r2, r7, #6176
 985 08a2 02F11F02 		add	r2, r2, #31
 986 08a6 1370     		strb	r3, [r2]
 987              	.L16:
 142:.\pathfinder.c ****          //printf("i : %d\n", i);
 988              		.loc 1 142 0 discriminator 2
 989 08a8 07F5C153 		add	r3, r7, #6176
 990 08ac 03F11803 		add	r3, r3, #24
 991 08b0 1B68     		ldr	r3, [r3]
 992 08b2 0133     		adds	r3, r3, #1
 993 08b4 07F5C152 		add	r2, r7, #6176
 994 08b8 02F11802 		add	r2, r2, #24
 995 08bc 1360     		str	r3, [r2]
 996              	.L15:
 142:.\pathfinder.c ****          //printf("i : %d\n", i);
 997              		.loc 1 142 0 is_stmt 0 discriminator 1
 998 08be 07F5C253 		add	r3, r7, #6208
 999 08c2 03F10503 		add	r3, r3, #5
 1000 08c6 1A78     		ldrb	r2, [r3]	@ zero_extendqisi2
 1001 08c8 07F5C153 		add	r3, r7, #6176
 1002 08cc 03F11803 		add	r3, r3, #24
 1003 08d0 1B68     		ldr	r3, [r3]
 1004 08d2 9A42     		cmp	r2, r3
 1005 08d4 3FF746AF 		bgt	.L17
 156:.\pathfinder.c ****             }
 157:.\pathfinder.c ****          }
 158:.\pathfinder.c ****       }
 159:.\pathfinder.c ****       //printf("has next %d\n", hasNext);
 160:.\pathfinder.c ****       current[Y] = nextNodes[nextNodeIndex][Y];
 1006              		.loc 1 160 0 is_stmt 1
 1007 08d8 07F5C253 		add	r3, r7, #6208
 1008 08dc 03F10203 		add	r3, r3, #2
 1009 08e0 1A78     		ldrb	r2, [r3]	@ zero_extendqisi2
 1010 08e2 07F12803 		add	r3, r7, #40
 1011 08e6 0C3B     		subs	r3, r3, #12
 1012 08e8 13F81220 		ldrb	r2, [r3, r2, lsl #1]	@ zero_extendqisi2
 1013 08ec 07F5CD63 		add	r3, r7, #1640
 1014 08f0 0C3B     		subs	r3, r3, #12
 1015 08f2 1A70     		strb	r2, [r3]
 161:.\pathfinder.c ****       current[X] = nextNodes[nextNodeIndex][X];
 1016              		.loc 1 161 0
 1017 08f4 07F5C253 		add	r3, r7, #6208
 1018 08f8 03F10203 		add	r3, r3, #2
 1019 08fc 1B78     		ldrb	r3, [r3]	@ zero_extendqisi2
 1020 08fe 07F12802 		add	r2, r7, #40
 1021 0902 0C3A     		subs	r2, r2, #12
 1022 0904 5B00     		lsls	r3, r3, #1
 1023 0906 1344     		add	r3, r3, r2
 1024 0908 5A78     		ldrb	r2, [r3, #1]	@ zero_extendqisi2
 1025 090a 07F5CD63 		add	r3, r7, #1640
 1026 090e 0C3B     		subs	r3, r3, #12
 1027 0910 5A70     		strb	r2, [r3, #1]
 162:.\pathfinder.c ****       robot_direction = Nodes[current[Y]][current[X]].direction;
 1028              		.loc 1 162 0
ARM GAS  C:\Users\lken274\AppData\Local\Temp\ccV4mmfZ.s 			page 22


 1029 0912 07F5CD63 		add	r3, r7, #1640
 1030 0916 0C3B     		subs	r3, r3, #12
 1031 0918 1B78     		ldrb	r3, [r3]	@ zero_extendqisi2
 1032 091a 1946     		mov	r1, r3
 1033 091c 07F5CD63 		add	r3, r7, #1640
 1034 0920 0C3B     		subs	r3, r3, #12
 1035 0922 5B78     		ldrb	r3, [r3, #1]	@ zero_extendqisi2
 1036 0924 1846     		mov	r0, r3
 1037 0926 07F5CD62 		add	r2, r7, #1640
 1038 092a 083A     		subs	r2, r2, #8
 1039 092c 0B46     		mov	r3, r1
 1040 092e DB00     		lsls	r3, r3, #3
 1041 0930 0B44     		add	r3, r3, r1
 1042 0932 5B00     		lsls	r3, r3, #1
 1043 0934 0B44     		add	r3, r3, r1
 1044 0936 0344     		add	r3, r3, r0
 1045 0938 1B01     		lsls	r3, r3, #4
 1046 093a 1344     		add	r3, r3, r2
 1047 093c 0833     		adds	r3, r3, #8
 1048 093e 9A79     		ldrb	r2, [r3, #6]	@ zero_extendqisi2
 1049 0940 9F4B     		ldr	r3, .L30
 1050 0942 1A70     		strb	r2, [r3]
 1051              	.L6:
 1052              	.LBE3:
  90:.\pathfinder.c ****       counter = 1;
 1053              		.loc 1 90 0
 1054 0944 07F5CD63 		add	r3, r7, #1640
 1055 0948 0C3B     		subs	r3, r3, #12
 1056 094a 1A78     		ldrb	r2, [r3]	@ zero_extendqisi2
 1057 094c 07F5C253 		add	r3, r7, #6208
 1058 0950 03F11803 		add	r3, r3, #24
 1059 0954 1B68     		ldr	r3, [r3]
 1060 0956 1B78     		ldrb	r3, [r3]	@ zero_extendqisi2
 1061 0958 9A42     		cmp	r2, r3
 1062 095a 0CD1     		bne	.L18
  90:.\pathfinder.c ****       counter = 1;
 1063              		.loc 1 90 0 is_stmt 0 discriminator 2
 1064 095c 07F5CD63 		add	r3, r7, #1640
 1065 0960 0C3B     		subs	r3, r3, #12
 1066 0962 5A78     		ldrb	r2, [r3, #1]	@ zero_extendqisi2
 1067 0964 07F5C253 		add	r3, r7, #6208
 1068 0968 03F11803 		add	r3, r3, #24
 1069 096c 1B68     		ldr	r3, [r3]
 1070 096e 0133     		adds	r3, r3, #1
 1071 0970 1B78     		ldrb	r3, [r3]	@ zero_extendqisi2
 1072 0972 9A42     		cmp	r2, r3
 1073 0974 07D0     		beq	.L19
 1074              	.L18:
  90:.\pathfinder.c ****       counter = 1;
 1075              		.loc 1 90 0 discriminator 3
 1076 0976 07F5C153 		add	r3, r7, #6176
 1077 097a 03F11F03 		add	r3, r3, #31
 1078 097e 1B78     		ldrb	r3, [r3]	@ zero_extendqisi2
 1079 0980 012B     		cmp	r3, #1
 1080 0982 3FF41CAD 		beq	.L20
 1081              	.L19:
 163:.\pathfinder.c **** 
ARM GAS  C:\Users\lken274\AppData\Local\Temp\ccV4mmfZ.s 			page 23


 164:.\pathfinder.c ****    }
 165:.\pathfinder.c **** 
 166:.\pathfinder.c ****    counter = 0;
 1082              		.loc 1 166 0 is_stmt 1
 1083 0986 0023     		movs	r3, #0
 1084 0988 07F5C252 		add	r2, r7, #6208
 1085 098c 02F10302 		add	r2, r2, #3
 1086 0990 1370     		strb	r3, [r2]
 167:.\pathfinder.c ****    //printf("Node %d | X: %d | Y: %d\n", counter, current[0], current[1]);
 168:.\pathfinder.c ****    if((current[Y] == destination[Y]) && (current[X] == destination[X])){
 1087              		.loc 1 168 0
 1088 0992 07F5CD63 		add	r3, r7, #1640
 1089 0996 0C3B     		subs	r3, r3, #12
 1090 0998 1A78     		ldrb	r2, [r3]	@ zero_extendqisi2
 1091 099a 07F5C253 		add	r3, r7, #6208
 1092 099e 03F11803 		add	r3, r3, #24
 1093 09a2 1B68     		ldr	r3, [r3]
 1094 09a4 1B78     		ldrb	r3, [r3]	@ zero_extendqisi2
 1095 09a6 9A42     		cmp	r2, r3
 1096 09a8 40F00381 		bne	.L21
 1097              		.loc 1 168 0 is_stmt 0 discriminator 1
 1098 09ac 07F5CD63 		add	r3, r7, #1640
 1099 09b0 0C3B     		subs	r3, r3, #12
 1100 09b2 5A78     		ldrb	r2, [r3, #1]	@ zero_extendqisi2
 1101 09b4 07F5C253 		add	r3, r7, #6208
 1102 09b8 03F11803 		add	r3, r3, #24
 1103 09bc 1B68     		ldr	r3, [r3]
 1104 09be 0133     		adds	r3, r3, #1
 1105 09c0 1B78     		ldrb	r3, [r3]	@ zero_extendqisi2
 1106 09c2 9A42     		cmp	r2, r3
 1107 09c4 40F0F580 		bne	.L21
 1108              	.LBB4:
 169:.\pathfinder.c ****       //printf("1 : startX: %d, startY: %d\n", start[0], start[1]);
 170:.\pathfinder.c ****       node* currentNode = &(Nodes[current[Y]][current[X]]);
 1109              		.loc 1 170 0 is_stmt 1
 1110 09c8 07F5CD63 		add	r3, r7, #1640
 1111 09cc 0C3B     		subs	r3, r3, #12
 1112 09ce 1B78     		ldrb	r3, [r3]	@ zero_extendqisi2
 1113 09d0 1946     		mov	r1, r3
 1114 09d2 07F5CD63 		add	r3, r7, #1640
 1115 09d6 0C3B     		subs	r3, r3, #12
 1116 09d8 5B78     		ldrb	r3, [r3, #1]	@ zero_extendqisi2
 1117 09da 1846     		mov	r0, r3
 1118 09dc 07F5CD62 		add	r2, r7, #1640
 1119 09e0 083A     		subs	r2, r2, #8
 1120 09e2 0B46     		mov	r3, r1
 1121 09e4 DB00     		lsls	r3, r3, #3
 1122 09e6 0B44     		add	r3, r3, r1
 1123 09e8 5B00     		lsls	r3, r3, #1
 1124 09ea 0B44     		add	r3, r3, r1
 1125 09ec 0344     		add	r3, r3, r0
 1126 09ee 1B01     		lsls	r3, r3, #4
 1127 09f0 1344     		add	r3, r3, r2
 1128 09f2 07F5C152 		add	r2, r7, #6176
 1129 09f6 02F11402 		add	r2, r2, #20
 1130 09fa 1360     		str	r3, [r2]
 171:.\pathfinder.c ****       while(!((currentNode->y == start[Y]) && (currentNode->x == start[X]))){
ARM GAS  C:\Users\lken274\AppData\Local\Temp\ccV4mmfZ.s 			page 24


 1131              		.loc 1 171 0
 1132 09fc 66E0     		b	.L22
 1133              	.L23:
 172:.\pathfinder.c ****          //printf("1 : %d\n", Nodes[nextNodes[i][0]][nextNodes[i][1]].tentative_cost);
 173:.\pathfinder.c ****          path[counter][Y] = currentNode->y;
 1134              		.loc 1 173 0
 1135 09fe 07F5C253 		add	r3, r7, #6208
 1136 0a02 03F10303 		add	r3, r3, #3
 1137 0a06 1A78     		ldrb	r2, [r3]	@ zero_extendqisi2
 1138 0a08 1346     		mov	r3, r2
 1139 0a0a 5B00     		lsls	r3, r3, #1
 1140 0a0c 1A44     		add	r2, r2, r3
 1141 0a0e 07F10803 		add	r3, r7, #8
 1142 0a12 043B     		subs	r3, r3, #4
 1143 0a14 1B68     		ldr	r3, [r3]
 1144 0a16 1344     		add	r3, r3, r2
 1145 0a18 07F5C152 		add	r2, r7, #6176
 1146 0a1c 02F11402 		add	r2, r2, #20
 1147 0a20 1268     		ldr	r2, [r2]
 1148 0a22 5279     		ldrb	r2, [r2, #5]	@ zero_extendqisi2
 1149 0a24 1A70     		strb	r2, [r3]
 174:.\pathfinder.c ****          path[counter][X] = currentNode->x;
 1150              		.loc 1 174 0
 1151 0a26 07F5C253 		add	r3, r7, #6208
 1152 0a2a 03F10303 		add	r3, r3, #3
 1153 0a2e 1A78     		ldrb	r2, [r3]	@ zero_extendqisi2
 1154 0a30 1346     		mov	r3, r2
 1155 0a32 5B00     		lsls	r3, r3, #1
 1156 0a34 1A44     		add	r2, r2, r3
 1157 0a36 07F10803 		add	r3, r7, #8
 1158 0a3a 043B     		subs	r3, r3, #4
 1159 0a3c 1B68     		ldr	r3, [r3]
 1160 0a3e 1344     		add	r3, r3, r2
 1161 0a40 07F5C152 		add	r2, r7, #6176
 1162 0a44 02F11402 		add	r2, r2, #20
 1163 0a48 1268     		ldr	r2, [r2]
 1164 0a4a 1279     		ldrb	r2, [r2, #4]	@ zero_extendqisi2
 1165 0a4c 5A70     		strb	r2, [r3, #1]
 175:.\pathfinder.c ****          path[counter][DIR] = Nodes[currentNode->y][currentNode->x].direction;
 1166              		.loc 1 175 0
 1167 0a4e 07F5C253 		add	r3, r7, #6208
 1168 0a52 03F10303 		add	r3, r3, #3
 1169 0a56 1A78     		ldrb	r2, [r3]	@ zero_extendqisi2
 1170 0a58 1346     		mov	r3, r2
 1171 0a5a 5B00     		lsls	r3, r3, #1
 1172 0a5c 1A44     		add	r2, r2, r3
 1173 0a5e 07F10803 		add	r3, r7, #8
 1174 0a62 043B     		subs	r3, r3, #4
 1175 0a64 1B68     		ldr	r3, [r3]
 1176 0a66 9818     		adds	r0, r3, r2
 1177 0a68 07F5C153 		add	r3, r7, #6176
 1178 0a6c 03F11403 		add	r3, r3, #20
 1179 0a70 1B68     		ldr	r3, [r3]
 1180 0a72 5B79     		ldrb	r3, [r3, #5]	@ zero_extendqisi2
 1181 0a74 1946     		mov	r1, r3
 1182 0a76 07F5C153 		add	r3, r7, #6176
 1183 0a7a 03F11403 		add	r3, r3, #20
ARM GAS  C:\Users\lken274\AppData\Local\Temp\ccV4mmfZ.s 			page 25


 1184 0a7e 1B68     		ldr	r3, [r3]
 1185 0a80 1B79     		ldrb	r3, [r3, #4]	@ zero_extendqisi2
 1186 0a82 1C46     		mov	r4, r3
 1187 0a84 07F5CD62 		add	r2, r7, #1640
 1188 0a88 083A     		subs	r2, r2, #8
 1189 0a8a 0B46     		mov	r3, r1
 1190 0a8c DB00     		lsls	r3, r3, #3
 1191 0a8e 0B44     		add	r3, r3, r1
 1192 0a90 5B00     		lsls	r3, r3, #1
 1193 0a92 0B44     		add	r3, r3, r1
 1194 0a94 2344     		add	r3, r3, r4
 1195 0a96 1B01     		lsls	r3, r3, #4
 1196 0a98 1344     		add	r3, r3, r2
 1197 0a9a 0833     		adds	r3, r3, #8
 1198 0a9c 9B79     		ldrb	r3, [r3, #6]	@ zero_extendqisi2
 1199 0a9e 8370     		strb	r3, [r0, #2]
 176:.\pathfinder.c ****          //printf("direction2 %d\n", path[0][DIR]);
 177:.\pathfinder.c ****          currentNode = currentNode->prevNode;
 1200              		.loc 1 177 0
 1201 0aa0 07F5C153 		add	r3, r7, #6176
 1202 0aa4 03F11403 		add	r3, r3, #20
 1203 0aa8 1B68     		ldr	r3, [r3]
 1204 0aaa 9B68     		ldr	r3, [r3, #8]
 1205 0aac 07F5C152 		add	r2, r7, #6176
 1206 0ab0 02F11402 		add	r2, r2, #20
 1207 0ab4 1360     		str	r3, [r2]
 178:.\pathfinder.c **** 
 179:.\pathfinder.c ****          counter++;
 1208              		.loc 1 179 0
 1209 0ab6 07F5C253 		add	r3, r7, #6208
 1210 0aba 03F10303 		add	r3, r3, #3
 1211 0abe 1B78     		ldrb	r3, [r3]	@ zero_extendqisi2
 1212 0ac0 0133     		adds	r3, r3, #1
 1213 0ac2 07F5C252 		add	r2, r7, #6208
 1214 0ac6 02F10302 		add	r2, r2, #3
 1215 0aca 1370     		strb	r3, [r2]
 1216              	.L22:
 171:.\pathfinder.c ****          //printf("1 : %d\n", Nodes[nextNodes[i][0]][nextNodes[i][1]].tentative_cost);
 1217              		.loc 1 171 0
 1218 0acc 07F5C153 		add	r3, r7, #6176
 1219 0ad0 03F11403 		add	r3, r3, #20
 1220 0ad4 1B68     		ldr	r3, [r3]
 1221 0ad6 5A79     		ldrb	r2, [r3, #5]	@ zero_extendqisi2
 1222 0ad8 07F10803 		add	r3, r7, #8
 1223 0adc 083B     		subs	r3, r3, #8
 1224 0ade 1B68     		ldr	r3, [r3]
 1225 0ae0 1B78     		ldrb	r3, [r3]	@ zero_extendqisi2
 1226 0ae2 9A42     		cmp	r2, r3
 1227 0ae4 8BD1     		bne	.L23
 171:.\pathfinder.c ****          //printf("1 : %d\n", Nodes[nextNodes[i][0]][nextNodes[i][1]].tentative_cost);
 1228              		.loc 1 171 0 is_stmt 0 discriminator 1
 1229 0ae6 07F5C153 		add	r3, r7, #6176
 1230 0aea 03F11403 		add	r3, r3, #20
 1231 0aee 1B68     		ldr	r3, [r3]
 1232 0af0 1A79     		ldrb	r2, [r3, #4]	@ zero_extendqisi2
 1233 0af2 07F10803 		add	r3, r7, #8
 1234 0af6 083B     		subs	r3, r3, #8
ARM GAS  C:\Users\lken274\AppData\Local\Temp\ccV4mmfZ.s 			page 26


 1235 0af8 1B68     		ldr	r3, [r3]
 1236 0afa 0133     		adds	r3, r3, #1
 1237 0afc 1B78     		ldrb	r3, [r3]	@ zero_extendqisi2
 1238 0afe 9A42     		cmp	r2, r3
 1239 0b00 7FF47DAF 		bne	.L23
 180:.\pathfinder.c ****       }
 181:.\pathfinder.c ****       path[counter][Y] = currentNode->y;
 1240              		.loc 1 181 0 is_stmt 1
 1241 0b04 07F5C253 		add	r3, r7, #6208
 1242 0b08 03F10303 		add	r3, r3, #3
 1243 0b0c 1A78     		ldrb	r2, [r3]	@ zero_extendqisi2
 1244 0b0e 1346     		mov	r3, r2
 1245 0b10 5B00     		lsls	r3, r3, #1
 1246 0b12 1A44     		add	r2, r2, r3
 1247 0b14 07F10803 		add	r3, r7, #8
 1248 0b18 043B     		subs	r3, r3, #4
 1249 0b1a 1B68     		ldr	r3, [r3]
 1250 0b1c 1344     		add	r3, r3, r2
 1251 0b1e 07F5C152 		add	r2, r7, #6176
 1252 0b22 02F11402 		add	r2, r2, #20
 1253 0b26 1268     		ldr	r2, [r2]
 1254 0b28 5279     		ldrb	r2, [r2, #5]	@ zero_extendqisi2
 1255 0b2a 1A70     		strb	r2, [r3]
 182:.\pathfinder.c ****       path[counter][X] = currentNode->x;
 1256              		.loc 1 182 0
 1257 0b2c 07F5C253 		add	r3, r7, #6208
 1258 0b30 03F10303 		add	r3, r3, #3
 1259 0b34 1A78     		ldrb	r2, [r3]	@ zero_extendqisi2
 1260 0b36 1346     		mov	r3, r2
 1261 0b38 5B00     		lsls	r3, r3, #1
 1262 0b3a 1A44     		add	r2, r2, r3
 1263 0b3c 07F10803 		add	r3, r7, #8
 1264 0b40 043B     		subs	r3, r3, #4
 1265 0b42 1B68     		ldr	r3, [r3]
 1266 0b44 1344     		add	r3, r3, r2
 1267 0b46 07F5C152 		add	r2, r7, #6176
 1268 0b4a 02F11402 		add	r2, r2, #20
 1269 0b4e 1268     		ldr	r2, [r2]
 1270 0b50 1279     		ldrb	r2, [r2, #4]	@ zero_extendqisi2
 1271 0b52 5A70     		strb	r2, [r3, #1]
 183:.\pathfinder.c ****       path[counter][DIR] = Nodes[currentNode->y][currentNode->x].direction;
 1272              		.loc 1 183 0
 1273 0b54 07F5C253 		add	r3, r7, #6208
 1274 0b58 03F10303 		add	r3, r3, #3
 1275 0b5c 1A78     		ldrb	r2, [r3]	@ zero_extendqisi2
 1276 0b5e 1346     		mov	r3, r2
 1277 0b60 5B00     		lsls	r3, r3, #1
 1278 0b62 1A44     		add	r2, r2, r3
 1279 0b64 07F10803 		add	r3, r7, #8
 1280 0b68 043B     		subs	r3, r3, #4
 1281 0b6a 1B68     		ldr	r3, [r3]
 1282 0b6c 9818     		adds	r0, r3, r2
 1283 0b6e 07F5C153 		add	r3, r7, #6176
 1284 0b72 03F11403 		add	r3, r3, #20
 1285 0b76 1B68     		ldr	r3, [r3]
 1286 0b78 5B79     		ldrb	r3, [r3, #5]	@ zero_extendqisi2
 1287 0b7a 1946     		mov	r1, r3
ARM GAS  C:\Users\lken274\AppData\Local\Temp\ccV4mmfZ.s 			page 27


 1288 0b7c 07F5C153 		add	r3, r7, #6176
 1289 0b80 03F11403 		add	r3, r3, #20
 1290 0b84 1B68     		ldr	r3, [r3]
 1291 0b86 1B79     		ldrb	r3, [r3, #4]	@ zero_extendqisi2
 1292 0b88 1C46     		mov	r4, r3
 1293 0b8a 07F5CD62 		add	r2, r7, #1640
 1294 0b8e 083A     		subs	r2, r2, #8
 1295 0b90 0B46     		mov	r3, r1
 1296 0b92 DB00     		lsls	r3, r3, #3
 1297 0b94 0B44     		add	r3, r3, r1
 1298 0b96 5B00     		lsls	r3, r3, #1
 1299 0b98 0B44     		add	r3, r3, r1
 1300 0b9a 2344     		add	r3, r3, r4
 1301 0b9c 1B01     		lsls	r3, r3, #4
 1302 0b9e 1344     		add	r3, r3, r2
 1303 0ba0 0833     		adds	r3, r3, #8
 1304 0ba2 9B79     		ldrb	r3, [r3, #6]	@ zero_extendqisi2
 1305 0ba4 8370     		strb	r3, [r0, #2]
 184:.\pathfinder.c ****       return counter;
 1306              		.loc 1 184 0
 1307 0ba6 07F5C253 		add	r3, r7, #6208
 1308 0baa 03F10303 		add	r3, r3, #3
 1309 0bae 1B78     		ldrb	r3, [r3]	@ zero_extendqisi2
 1310 0bb0 00E0     		b	.L25
 1311              	.L21:
 1312              	.LBE4:
 185:.\pathfinder.c ****    }else{
 186:.\pathfinder.c ****       return 0;
 1313              		.loc 1 186 0
 1314 0bb2 0023     		movs	r3, #0
 1315              	.L25:
 187:.\pathfinder.c ****    }
 188:.\pathfinder.c **** 
 189:.\pathfinder.c ****    //return 0;
 190:.\pathfinder.c **** }
 1316              		.loc 1 190 0 discriminator 1
 1317 0bb4 1846     		mov	r0, r3
 1318 0bb6 07F5C257 		add	r7, r7, #6208
 1319 0bba 0837     		adds	r7, r7, #8
 1320              		.cfi_def_cfa_offset 16
 1321 0bbc BD46     		mov	sp, r7
 1322              		.cfi_def_cfa_register 13
 1323              		@ sp needed
 1324 0bbe B0BD     		pop	{r4, r5, r7, pc}
 1325              	.L31:
 1326              		.align	2
 1327              	.L30:
 1328 0bc0 00000000 		.word	robot_direction
 1329              		.cfi_endproc
 1330              	.LFE63:
 1331              		.size	djikstras, .-djikstras
 1332              		.section	.rodata
 1333              		.align	2
 1334              	.LC0:
 1335 0000 70617468 		.ascii	"pathing from %d,%d to %d,%d from dir %d\015\012\000"
 1335      696E6720 
 1335      66726F6D 
ARM GAS  C:\Users\lken274\AppData\Local\Temp\ccV4mmfZ.s 			page 28


 1335      2025642C 
 1335      25642074 
 1336 002a 0000     		.section	.text.generateDirections,"ax",%progbits
 1337              		.align	2
 1338              		.global	generateDirections
 1339              		.thumb
 1340              		.thumb_func
 1341              		.type	generateDirections, %function
 1342              	generateDirections:
 1343              	.LFB64:
 191:.\pathfinder.c **** 
 192:.\pathfinder.c **** int generateDirections(){
 1344              		.loc 1 192 0
 1345              		.cfi_startproc
 1346              		@ args = 0, pretend = 0, frame = 144
 1347              		@ frame_needed = 1, uses_anonymous_args = 0
 1348 0000 B0B5     		push	{r4, r5, r7, lr}
 1349              		.cfi_def_cfa_offset 16
 1350              		.cfi_offset 4, -16
 1351              		.cfi_offset 5, -12
 1352              		.cfi_offset 7, -8
 1353              		.cfi_offset 14, -4
 1354 0002 A8B0     		sub	sp, sp, #160
 1355              		.cfi_def_cfa_offset 176
 1356 0004 04AF     		add	r7, sp, #16
 1357              		.cfi_def_cfa 7, 160
 193:.\pathfinder.c ****    uint8 counter = 0;
 1358              		.loc 1 193 0
 1359 0006 0023     		movs	r3, #0
 1360 0008 87F88F30 		strb	r3, [r7, #143]
 194:.\pathfinder.c ****    int food_count;
 195:.\pathfinder.c ****     
 196:.\pathfinder.c ****    for(food_count = 0; food_count < food_length; food_count++)
 1361              		.loc 1 196 0
 1362 000c 0023     		movs	r3, #0
 1363 000e C7F88830 		str	r3, [r7, #136]
 1364 0012 21E3     		b	.L33
 1365              	.L75:
 1366              	.LBB5:
 197:.\pathfinder.c **** {   
 198:.\pathfinder.c ****     if(counter != 0)
 1367              		.loc 1 198 0
 1368 0014 97F88F30 		ldrb	r3, [r7, #143]	@ zero_extendqisi2
 1369 0018 002B     		cmp	r3, #0
 1370 001a 07D0     		beq	.L34
 199:.\pathfinder.c ****     {
 200:.\pathfinder.c ****         start[0] = destination[0];
 1371              		.loc 1 200 0
 1372 001c AA4B     		ldr	r3, .L77
 1373 001e 1A78     		ldrb	r2, [r3]	@ zero_extendqisi2
 1374 0020 AA4B     		ldr	r3, .L77+4
 1375 0022 1A70     		strb	r2, [r3]
 201:.\pathfinder.c ****         start[1] = destination[1];
 1376              		.loc 1 201 0
 1377 0024 A84B     		ldr	r3, .L77
 1378 0026 5A78     		ldrb	r2, [r3, #1]	@ zero_extendqisi2
 1379 0028 A84B     		ldr	r3, .L77+4
ARM GAS  C:\Users\lken274\AppData\Local\Temp\ccV4mmfZ.s 			page 29


 1380 002a 5A70     		strb	r2, [r3, #1]
 1381              	.L34:
 202:.\pathfinder.c ****         
 203:.\pathfinder.c **** //        if(robot_direction != tracked_direction)
 204:.\pathfinder.c **** //        {
 205:.\pathfinder.c **** //            if((tracked_direction == (robot_direction - 1)) || ((tracked_direction == 3) && (robo
 206:.\pathfinder.c **** //            {
 207:.\pathfinder.c **** //                instructions[counter] = RIGHT;
 208:.\pathfinder.c **** //                counter++;
 209:.\pathfinder.c **** //            }
 210:.\pathfinder.c **** //            else if((tracked_direction == (robot_direction + 1)) || ((tracked_direction == 0) && 
 211:.\pathfinder.c **** //            {
 212:.\pathfinder.c **** //                instructions[counter] = LEFT;
 213:.\pathfinder.c **** //                counter++;
 214:.\pathfinder.c **** //            }
 215:.\pathfinder.c **** //        }
 216:.\pathfinder.c ****     }
 217:.\pathfinder.c ****     
 218:.\pathfinder.c ****     destination[0] = food_list[food_count][0];
 1382              		.loc 1 218 0
 1383 002c A84A     		ldr	r2, .L77+8
 1384 002e D7F88830 		ldr	r3, [r7, #136]
 1385 0032 12F81320 		ldrb	r2, [r2, r3, lsl #1]	@ zero_extendqisi2
 1386 0036 A44B     		ldr	r3, .L77
 1387 0038 1A70     		strb	r2, [r3]
 219:.\pathfinder.c ****     destination[1] = food_list[food_count][1];
 1388              		.loc 1 219 0
 1389 003a A54A     		ldr	r2, .L77+8
 1390 003c D7F88830 		ldr	r3, [r7, #136]
 1391 0040 5B00     		lsls	r3, r3, #1
 1392 0042 1344     		add	r3, r3, r2
 1393 0044 5A78     		ldrb	r2, [r3, #1]	@ zero_extendqisi2
 1394 0046 A04B     		ldr	r3, .L77
 1395 0048 5A70     		strb	r2, [r3, #1]
 220:.\pathfinder.c ****     
 221:.\pathfinder.c ****     char message[128];
 222:.\pathfinder.c ****     sprintf(message, "pathing from %d,%d to %d,%d from dir %d\r\n", start[0], start[1], destination
 1396              		.loc 1 222 0
 1397 004a A04B     		ldr	r3, .L77+4
 1398 004c 1B78     		ldrb	r3, [r3]	@ zero_extendqisi2
 1399 004e 1D46     		mov	r5, r3
 1400 0050 9E4B     		ldr	r3, .L77+4
 1401 0052 5B78     		ldrb	r3, [r3, #1]	@ zero_extendqisi2
 1402 0054 1C46     		mov	r4, r3
 1403 0056 9C4B     		ldr	r3, .L77
 1404 0058 1B78     		ldrb	r3, [r3]	@ zero_extendqisi2
 1405 005a 1846     		mov	r0, r3
 1406 005c 9A4B     		ldr	r3, .L77
 1407 005e 5B78     		ldrb	r3, [r3, #1]	@ zero_extendqisi2
 1408 0060 1946     		mov	r1, r3
 1409 0062 9C4B     		ldr	r3, .L77+12
 1410 0064 1B78     		ldrb	r3, [r3]	@ zero_extendqisi2
 1411 0066 1A46     		mov	r2, r3
 1412 0068 3B46     		mov	r3, r7
 1413 006a 0090     		str	r0, [sp]
 1414 006c 0191     		str	r1, [sp, #4]
 1415 006e 0292     		str	r2, [sp, #8]
ARM GAS  C:\Users\lken274\AppData\Local\Temp\ccV4mmfZ.s 			page 30


 1416 0070 1846     		mov	r0, r3
 1417 0072 9949     		ldr	r1, .L77+16
 1418 0074 2A46     		mov	r2, r5
 1419 0076 2346     		mov	r3, r4
 1420 0078 FFF7FEFF 		bl	sprintf
 223:.\pathfinder.c ****     UART_PutString(message);
 1421              		.loc 1 223 0
 1422 007c 3B46     		mov	r3, r7
 1423 007e 1846     		mov	r0, r3
 1424 0080 FFF7FEFF 		bl	UART_PutString
 224:.\pathfinder.c ****     
 225:.\pathfinder.c ****    int end = djikstras(map, food_list, path, start, destination);
 1425              		.loc 1 225 0
 1426 0084 904B     		ldr	r3, .L77
 1427 0086 0093     		str	r3, [sp]
 1428 0088 9448     		ldr	r0, .L77+20
 1429 008a 9149     		ldr	r1, .L77+8
 1430 008c 944A     		ldr	r2, .L77+24
 1431 008e 8F4B     		ldr	r3, .L77+4
 1432 0090 FFF7FEFF 		bl	djikstras
 1433 0094 0346     		mov	r3, r0
 1434 0096 C7F88030 		str	r3, [r7, #128]
 226:.\pathfinder.c **** 
 227:.\pathfinder.c ****    int i;
 228:.\pathfinder.c ****    for(i = end; i >= 1; i--){
 1435              		.loc 1 228 0
 1436 009a D7F88030 		ldr	r3, [r7, #128]
 1437 009e C7F88430 		str	r3, [r7, #132]
 1438 00a2 CFE2     		b	.L35
 1439              	.L74:
 229:.\pathfinder.c ****       if(path[i][DIR] == 1 || path[i][DIR] == 3){
 1440              		.loc 1 229 0
 1441 00a4 8E49     		ldr	r1, .L77+24
 1442 00a6 D7F88420 		ldr	r2, [r7, #132]
 1443 00aa 1346     		mov	r3, r2
 1444 00ac 5B00     		lsls	r3, r3, #1
 1445 00ae 1344     		add	r3, r3, r2
 1446 00b0 0B44     		add	r3, r3, r1
 1447 00b2 0233     		adds	r3, r3, #2
 1448 00b4 1B78     		ldrb	r3, [r3]	@ zero_extendqisi2
 1449 00b6 012B     		cmp	r3, #1
 1450 00b8 0BD0     		beq	.L36
 1451              		.loc 1 229 0 is_stmt 0 discriminator 1
 1452 00ba 8949     		ldr	r1, .L77+24
 1453 00bc D7F88420 		ldr	r2, [r7, #132]
 1454 00c0 1346     		mov	r3, r2
 1455 00c2 5B00     		lsls	r3, r3, #1
 1456 00c4 1344     		add	r3, r3, r2
 1457 00c6 0B44     		add	r3, r3, r1
 1458 00c8 0233     		adds	r3, r3, #2
 1459 00ca 1B78     		ldrb	r3, [r3]	@ zero_extendqisi2
 1460 00cc 032B     		cmp	r3, #3
 1461 00ce 40F06081 		bne	.L37
 1462              	.L36:
 230:.\pathfinder.c ****          //There should be a check that it is within the map
 231:.\pathfinder.c ****          if(map[path[i][Y]][path[i][X] - 1] == PATH || map[path[i][Y]][path[i][X] + 1] == PATH){
 1463              		.loc 1 231 0 is_stmt 1
ARM GAS  C:\Users\lken274\AppData\Local\Temp\ccV4mmfZ.s 			page 31


 1464 00d2 8349     		ldr	r1, .L77+24
 1465 00d4 D7F88420 		ldr	r2, [r7, #132]
 1466 00d8 1346     		mov	r3, r2
 1467 00da 5B00     		lsls	r3, r3, #1
 1468 00dc 1344     		add	r3, r3, r2
 1469 00de 0B44     		add	r3, r3, r1
 1470 00e0 1B78     		ldrb	r3, [r3]	@ zero_extendqisi2
 1471 00e2 1A46     		mov	r2, r3
 1472 00e4 7E48     		ldr	r0, .L77+24
 1473 00e6 D7F88410 		ldr	r1, [r7, #132]
 1474 00ea 0B46     		mov	r3, r1
 1475 00ec 5B00     		lsls	r3, r3, #1
 1476 00ee 0B44     		add	r3, r3, r1
 1477 00f0 0344     		add	r3, r3, r0
 1478 00f2 0133     		adds	r3, r3, #1
 1479 00f4 1B78     		ldrb	r3, [r3]	@ zero_extendqisi2
 1480 00f6 591E     		subs	r1, r3, #1
 1481 00f8 7848     		ldr	r0, .L77+20
 1482 00fa 1346     		mov	r3, r2
 1483 00fc DB00     		lsls	r3, r3, #3
 1484 00fe 1344     		add	r3, r3, r2
 1485 0100 5B00     		lsls	r3, r3, #1
 1486 0102 1344     		add	r3, r3, r2
 1487 0104 0B44     		add	r3, r3, r1
 1488 0106 0344     		add	r3, r3, r0
 1489 0108 1B78     		ldrb	r3, [r3]	@ zero_extendqisi2
 1490 010a 002B     		cmp	r3, #0
 1491 010c 1ED0     		beq	.L38
 1492              		.loc 1 231 0 is_stmt 0 discriminator 1
 1493 010e 7449     		ldr	r1, .L77+24
 1494 0110 D7F88420 		ldr	r2, [r7, #132]
 1495 0114 1346     		mov	r3, r2
 1496 0116 5B00     		lsls	r3, r3, #1
 1497 0118 1344     		add	r3, r3, r2
 1498 011a 0B44     		add	r3, r3, r1
 1499 011c 1B78     		ldrb	r3, [r3]	@ zero_extendqisi2
 1500 011e 1A46     		mov	r2, r3
 1501 0120 6F48     		ldr	r0, .L77+24
 1502 0122 D7F88410 		ldr	r1, [r7, #132]
 1503 0126 0B46     		mov	r3, r1
 1504 0128 5B00     		lsls	r3, r3, #1
 1505 012a 0B44     		add	r3, r3, r1
 1506 012c 0344     		add	r3, r3, r0
 1507 012e 0133     		adds	r3, r3, #1
 1508 0130 1B78     		ldrb	r3, [r3]	@ zero_extendqisi2
 1509 0132 591C     		adds	r1, r3, #1
 1510 0134 6948     		ldr	r0, .L77+20
 1511 0136 1346     		mov	r3, r2
 1512 0138 DB00     		lsls	r3, r3, #3
 1513 013a 1344     		add	r3, r3, r2
 1514 013c 5B00     		lsls	r3, r3, #1
 1515 013e 1344     		add	r3, r3, r2
 1516 0140 0B44     		add	r3, r3, r1
 1517 0142 0344     		add	r3, r3, r0
 1518 0144 1B78     		ldrb	r3, [r3]	@ zero_extendqisi2
 1519 0146 002B     		cmp	r3, #0
 1520 0148 40F0CE80 		bne	.L39
ARM GAS  C:\Users\lken274\AppData\Local\Temp\ccV4mmfZ.s 			page 32


 1521              	.L38:
 232:.\pathfinder.c ****             if(path[i][DIR] != path[i - 1][DIR]){
 1522              		.loc 1 232 0 is_stmt 1
 1523 014c 6449     		ldr	r1, .L77+24
 1524 014e D7F88420 		ldr	r2, [r7, #132]
 1525 0152 1346     		mov	r3, r2
 1526 0154 5B00     		lsls	r3, r3, #1
 1527 0156 1344     		add	r3, r3, r2
 1528 0158 0B44     		add	r3, r3, r1
 1529 015a 0233     		adds	r3, r3, #2
 1530 015c 1978     		ldrb	r1, [r3]	@ zero_extendqisi2
 1531 015e D7F88430 		ldr	r3, [r7, #132]
 1532 0162 5A1E     		subs	r2, r3, #1
 1533 0164 5E48     		ldr	r0, .L77+24
 1534 0166 1346     		mov	r3, r2
 1535 0168 5B00     		lsls	r3, r3, #1
 1536 016a 1344     		add	r3, r3, r2
 1537 016c 0344     		add	r3, r3, r0
 1538 016e 0233     		adds	r3, r3, #2
 1539 0170 1B78     		ldrb	r3, [r3]	@ zero_extendqisi2
 1540 0172 9942     		cmp	r1, r3
 1541 0174 00F09D80 		beq	.L40
 233:.\pathfinder.c ****                if((path[i][DIR] == 1 && path[i-1][DIR] == 4)||(path[i][DIR] == 3 && path[i-1][DIR] 
 1542              		.loc 1 233 0
 1543 0178 5949     		ldr	r1, .L77+24
 1544 017a D7F88420 		ldr	r2, [r7, #132]
 1545 017e 1346     		mov	r3, r2
 1546 0180 5B00     		lsls	r3, r3, #1
 1547 0182 1344     		add	r3, r3, r2
 1548 0184 0B44     		add	r3, r3, r1
 1549 0186 0233     		adds	r3, r3, #2
 1550 0188 1B78     		ldrb	r3, [r3]	@ zero_extendqisi2
 1551 018a 012B     		cmp	r3, #1
 1552 018c 0BD1     		bne	.L41
 1553              		.loc 1 233 0 is_stmt 0 discriminator 1
 1554 018e D7F88430 		ldr	r3, [r7, #132]
 1555 0192 5A1E     		subs	r2, r3, #1
 1556 0194 5249     		ldr	r1, .L77+24
 1557 0196 1346     		mov	r3, r2
 1558 0198 5B00     		lsls	r3, r3, #1
 1559 019a 1344     		add	r3, r3, r2
 1560 019c 0B44     		add	r3, r3, r1
 1561 019e 0233     		adds	r3, r3, #2
 1562 01a0 1B78     		ldrb	r3, [r3]	@ zero_extendqisi2
 1563 01a2 042B     		cmp	r3, #4
 1564 01a4 16D0     		beq	.L42
 1565              	.L41:
 1566              		.loc 1 233 0 discriminator 3
 1567 01a6 4E49     		ldr	r1, .L77+24
 1568 01a8 D7F88420 		ldr	r2, [r7, #132]
 1569 01ac 1346     		mov	r3, r2
 1570 01ae 5B00     		lsls	r3, r3, #1
 1571 01b0 1344     		add	r3, r3, r2
 1572 01b2 0B44     		add	r3, r3, r1
 1573 01b4 0233     		adds	r3, r3, #2
 1574 01b6 1B78     		ldrb	r3, [r3]	@ zero_extendqisi2
 1575 01b8 032B     		cmp	r3, #3
ARM GAS  C:\Users\lken274\AppData\Local\Temp\ccV4mmfZ.s 			page 33


 1576 01ba 11D1     		bne	.L43
 1577              		.loc 1 233 0 discriminator 4
 1578 01bc D7F88430 		ldr	r3, [r7, #132]
 1579 01c0 5A1E     		subs	r2, r3, #1
 1580 01c2 4749     		ldr	r1, .L77+24
 1581 01c4 1346     		mov	r3, r2
 1582 01c6 5B00     		lsls	r3, r3, #1
 1583 01c8 1344     		add	r3, r3, r2
 1584 01ca 0B44     		add	r3, r3, r1
 1585 01cc 0233     		adds	r3, r3, #2
 1586 01ce 1B78     		ldrb	r3, [r3]	@ zero_extendqisi2
 1587 01d0 022B     		cmp	r3, #2
 1588 01d2 05D1     		bne	.L43
 1589              	.L42:
 234:.\pathfinder.c ****                   instructions[counter] = LEFT;
 1590              		.loc 1 234 0 is_stmt 1
 1591 01d4 97F88F30 		ldrb	r3, [r7, #143]	@ zero_extendqisi2
 1592 01d8 424A     		ldr	r2, .L77+28
 1593 01da 4C21     		movs	r1, #76
 1594 01dc D154     		strb	r1, [r2, r3]
 1595 01de 67E0     		b	.L44
 1596              	.L43:
 235:.\pathfinder.c ****                }else if((path[i][DIR] == 1 && path[i-1][DIR] == 2)||(path[i][DIR] == 3 && path[i-1]
 1597              		.loc 1 235 0
 1598 01e0 3F49     		ldr	r1, .L77+24
 1599 01e2 D7F88420 		ldr	r2, [r7, #132]
 1600 01e6 1346     		mov	r3, r2
 1601 01e8 5B00     		lsls	r3, r3, #1
 1602 01ea 1344     		add	r3, r3, r2
 1603 01ec 0B44     		add	r3, r3, r1
 1604 01ee 0233     		adds	r3, r3, #2
 1605 01f0 1B78     		ldrb	r3, [r3]	@ zero_extendqisi2
 1606 01f2 012B     		cmp	r3, #1
 1607 01f4 0BD1     		bne	.L45
 1608              		.loc 1 235 0 is_stmt 0 discriminator 1
 1609 01f6 D7F88430 		ldr	r3, [r7, #132]
 1610 01fa 5A1E     		subs	r2, r3, #1
 1611 01fc 3849     		ldr	r1, .L77+24
 1612 01fe 1346     		mov	r3, r2
 1613 0200 5B00     		lsls	r3, r3, #1
 1614 0202 1344     		add	r3, r3, r2
 1615 0204 0B44     		add	r3, r3, r1
 1616 0206 0233     		adds	r3, r3, #2
 1617 0208 1B78     		ldrb	r3, [r3]	@ zero_extendqisi2
 1618 020a 022B     		cmp	r3, #2
 1619 020c 16D0     		beq	.L46
 1620              	.L45:
 1621              		.loc 1 235 0 discriminator 3
 1622 020e 3449     		ldr	r1, .L77+24
 1623 0210 D7F88420 		ldr	r2, [r7, #132]
 1624 0214 1346     		mov	r3, r2
 1625 0216 5B00     		lsls	r3, r3, #1
 1626 0218 1344     		add	r3, r3, r2
 1627 021a 0B44     		add	r3, r3, r1
 1628 021c 0233     		adds	r3, r3, #2
 1629 021e 1B78     		ldrb	r3, [r3]	@ zero_extendqisi2
 1630 0220 032B     		cmp	r3, #3
ARM GAS  C:\Users\lken274\AppData\Local\Temp\ccV4mmfZ.s 			page 34


 1631 0222 11D1     		bne	.L47
 1632              		.loc 1 235 0 discriminator 4
 1633 0224 D7F88430 		ldr	r3, [r7, #132]
 1634 0228 5A1E     		subs	r2, r3, #1
 1635 022a 2D49     		ldr	r1, .L77+24
 1636 022c 1346     		mov	r3, r2
 1637 022e 5B00     		lsls	r3, r3, #1
 1638 0230 1344     		add	r3, r3, r2
 1639 0232 0B44     		add	r3, r3, r1
 1640 0234 0233     		adds	r3, r3, #2
 1641 0236 1B78     		ldrb	r3, [r3]	@ zero_extendqisi2
 1642 0238 042B     		cmp	r3, #4
 1643 023a 05D1     		bne	.L47
 1644              	.L46:
 236:.\pathfinder.c ****                   instructions[counter] = RIGHT;
 1645              		.loc 1 236 0 is_stmt 1
 1646 023c 97F88F30 		ldrb	r3, [r7, #143]	@ zero_extendqisi2
 1647 0240 284A     		ldr	r2, .L77+28
 1648 0242 5221     		movs	r1, #82
 1649 0244 D154     		strb	r1, [r2, r3]
 1650 0246 33E0     		b	.L44
 1651              	.L47:
 237:.\pathfinder.c ****                }else if((path[i][DIR] == 1 && path[i-1][DIR] == 3)||(path[i][DIR] == 3 && path[i-1]
 1652              		.loc 1 237 0
 1653 0248 2549     		ldr	r1, .L77+24
 1654 024a D7F88420 		ldr	r2, [r7, #132]
 1655 024e 1346     		mov	r3, r2
 1656 0250 5B00     		lsls	r3, r3, #1
 1657 0252 1344     		add	r3, r3, r2
 1658 0254 0B44     		add	r3, r3, r1
 1659 0256 0233     		adds	r3, r3, #2
 1660 0258 1B78     		ldrb	r3, [r3]	@ zero_extendqisi2
 1661 025a 012B     		cmp	r3, #1
 1662 025c 0BD1     		bne	.L48
 1663              		.loc 1 237 0 is_stmt 0 discriminator 1
 1664 025e D7F88430 		ldr	r3, [r7, #132]
 1665 0262 5A1E     		subs	r2, r3, #1
 1666 0264 1E49     		ldr	r1, .L77+24
 1667 0266 1346     		mov	r3, r2
 1668 0268 5B00     		lsls	r3, r3, #1
 1669 026a 1344     		add	r3, r3, r2
 1670 026c 0B44     		add	r3, r3, r1
 1671 026e 0233     		adds	r3, r3, #2
 1672 0270 1B78     		ldrb	r3, [r3]	@ zero_extendqisi2
 1673 0272 032B     		cmp	r3, #3
 1674 0274 16D0     		beq	.L49
 1675              	.L48:
 1676              		.loc 1 237 0 discriminator 3
 1677 0276 1A49     		ldr	r1, .L77+24
 1678 0278 D7F88420 		ldr	r2, [r7, #132]
 1679 027c 1346     		mov	r3, r2
 1680 027e 5B00     		lsls	r3, r3, #1
 1681 0280 1344     		add	r3, r3, r2
 1682 0282 0B44     		add	r3, r3, r1
 1683 0284 0233     		adds	r3, r3, #2
 1684 0286 1B78     		ldrb	r3, [r3]	@ zero_extendqisi2
 1685 0288 032B     		cmp	r3, #3
ARM GAS  C:\Users\lken274\AppData\Local\Temp\ccV4mmfZ.s 			page 35


 1686 028a 17D1     		bne	.L50
 1687              		.loc 1 237 0 discriminator 4
 1688 028c D7F88430 		ldr	r3, [r7, #132]
 1689 0290 5A1E     		subs	r2, r3, #1
 1690 0292 1349     		ldr	r1, .L77+24
 1691 0294 1346     		mov	r3, r2
 1692 0296 5B00     		lsls	r3, r3, #1
 1693 0298 1344     		add	r3, r3, r2
 1694 029a 0B44     		add	r3, r3, r1
 1695 029c 0233     		adds	r3, r3, #2
 1696 029e 1B78     		ldrb	r3, [r3]	@ zero_extendqisi2
 1697 02a0 012B     		cmp	r3, #1
 1698 02a2 0BD1     		bne	.L50
 1699              	.L49:
 238:.\pathfinder.c ****                   instructions[counter] = UTURN;
 1700              		.loc 1 238 0 is_stmt 1
 1701 02a4 97F88F30 		ldrb	r3, [r7, #143]	@ zero_extendqisi2
 1702 02a8 0E4A     		ldr	r2, .L77+28
 1703 02aa 5521     		movs	r1, #85
 1704 02ac D154     		strb	r1, [r2, r3]
 1705 02ae 05E0     		b	.L50
 1706              	.L44:
 1707 02b0 04E0     		b	.L50
 1708              	.L40:
 239:.\pathfinder.c ****                }
 240:.\pathfinder.c ****             }else{
 241:.\pathfinder.c ****                instructions[counter] = STRAIGHT;
 1709              		.loc 1 241 0
 1710 02b2 97F88F30 		ldrb	r3, [r7, #143]	@ zero_extendqisi2
 1711 02b6 0B4A     		ldr	r2, .L77+28
 1712 02b8 5321     		movs	r1, #83
 1713 02ba D154     		strb	r1, [r2, r3]
 1714              	.L50:
 242:.\pathfinder.c ****             }
 243:.\pathfinder.c ****             counter++;
 1715              		.loc 1 243 0
 1716 02bc 97F88F30 		ldrb	r3, [r7, #143]	@ zero_extendqisi2
 1717 02c0 0133     		adds	r3, r3, #1
 1718 02c2 87F88F30 		strb	r3, [r7, #143]
 1719 02c6 63E0     		b	.L51
 1720              	.L78:
 1721              		.align	2
 1722              	.L77:
 1723 02c8 00000000 		.word	destination
 1724 02cc 00000000 		.word	start
 1725 02d0 00000000 		.word	food_list
 1726 02d4 00000000 		.word	robot_direction
 1727 02d8 00000000 		.word	.LC0
 1728 02dc 00000000 		.word	map
 1729 02e0 00000000 		.word	path
 1730 02e4 00000000 		.word	instructions
 1731              	.L39:
 244:.\pathfinder.c ****         }else{
 245:.\pathfinder.c ****             if(path[i][DIR] != path[i - 1][DIR]){
 1732              		.loc 1 245 0
 1733 02e8 A749     		ldr	r1, .L79
 1734 02ea D7F88420 		ldr	r2, [r7, #132]
ARM GAS  C:\Users\lken274\AppData\Local\Temp\ccV4mmfZ.s 			page 36


 1735 02ee 1346     		mov	r3, r2
 1736 02f0 5B00     		lsls	r3, r3, #1
 1737 02f2 1344     		add	r3, r3, r2
 1738 02f4 0B44     		add	r3, r3, r1
 1739 02f6 0233     		adds	r3, r3, #2
 1740 02f8 1978     		ldrb	r1, [r3]	@ zero_extendqisi2
 1741 02fa D7F88430 		ldr	r3, [r7, #132]
 1742 02fe 5A1E     		subs	r2, r3, #1
 1743 0300 A148     		ldr	r0, .L79
 1744 0302 1346     		mov	r3, r2
 1745 0304 5B00     		lsls	r3, r3, #1
 1746 0306 1344     		add	r3, r3, r2
 1747 0308 0344     		add	r3, r3, r0
 1748 030a 0233     		adds	r3, r3, #2
 1749 030c 1B78     		ldrb	r3, [r3]	@ zero_extendqisi2
 1750 030e 9942     		cmp	r1, r3
 1751 0310 38D0     		beq	.L52
 246:.\pathfinder.c ****                if((path[i][DIR] == 1 && path[i-1][DIR] == 3)||(path[i][DIR] == 3 && path[i-1][DIR] 
 1752              		.loc 1 246 0
 1753 0312 9D49     		ldr	r1, .L79
 1754 0314 D7F88420 		ldr	r2, [r7, #132]
 1755 0318 1346     		mov	r3, r2
 1756 031a 5B00     		lsls	r3, r3, #1
 1757 031c 1344     		add	r3, r3, r2
 1758 031e 0B44     		add	r3, r3, r1
 1759 0320 0233     		adds	r3, r3, #2
 1760 0322 1B78     		ldrb	r3, [r3]	@ zero_extendqisi2
 1761 0324 012B     		cmp	r3, #1
 1762 0326 0BD1     		bne	.L53
 1763              		.loc 1 246 0 is_stmt 0 discriminator 1
 1764 0328 D7F88430 		ldr	r3, [r7, #132]
 1765 032c 5A1E     		subs	r2, r3, #1
 1766 032e 9649     		ldr	r1, .L79
 1767 0330 1346     		mov	r3, r2
 1768 0332 5B00     		lsls	r3, r3, #1
 1769 0334 1344     		add	r3, r3, r2
 1770 0336 0B44     		add	r3, r3, r1
 1771 0338 0233     		adds	r3, r3, #2
 1772 033a 1B78     		ldrb	r3, [r3]	@ zero_extendqisi2
 1773 033c 032B     		cmp	r3, #3
 1774 033e 16D0     		beq	.L54
 1775              	.L53:
 1776              		.loc 1 246 0 discriminator 3
 1777 0340 9149     		ldr	r1, .L79
 1778 0342 D7F88420 		ldr	r2, [r7, #132]
 1779 0346 1346     		mov	r3, r2
 1780 0348 5B00     		lsls	r3, r3, #1
 1781 034a 1344     		add	r3, r3, r2
 1782 034c 0B44     		add	r3, r3, r1
 1783 034e 0233     		adds	r3, r3, #2
 1784 0350 1B78     		ldrb	r3, [r3]	@ zero_extendqisi2
 1785 0352 032B     		cmp	r3, #3
 1786 0354 1CD1     		bne	.L51
 1787              		.loc 1 246 0 discriminator 4
 1788 0356 D7F88430 		ldr	r3, [r7, #132]
 1789 035a 5A1E     		subs	r2, r3, #1
 1790 035c 8A49     		ldr	r1, .L79
ARM GAS  C:\Users\lken274\AppData\Local\Temp\ccV4mmfZ.s 			page 37


 1791 035e 1346     		mov	r3, r2
 1792 0360 5B00     		lsls	r3, r3, #1
 1793 0362 1344     		add	r3, r3, r2
 1794 0364 0B44     		add	r3, r3, r1
 1795 0366 0233     		adds	r3, r3, #2
 1796 0368 1B78     		ldrb	r3, [r3]	@ zero_extendqisi2
 1797 036a 012B     		cmp	r3, #1
 1798 036c 10D1     		bne	.L51
 1799              	.L54:
 247:.\pathfinder.c ****                   instructions[counter] = UTURN;
 1800              		.loc 1 247 0 is_stmt 1
 1801 036e 97F88F30 		ldrb	r3, [r7, #143]	@ zero_extendqisi2
 1802 0372 864A     		ldr	r2, .L79+4
 1803 0374 5521     		movs	r1, #85
 1804 0376 D154     		strb	r1, [r2, r3]
 248:.\pathfinder.c ****                 counter++;
 1805              		.loc 1 248 0
 1806 0378 97F88F30 		ldrb	r3, [r7, #143]	@ zero_extendqisi2
 1807 037c 0133     		adds	r3, r3, #1
 1808 037e 87F88F30 		strb	r3, [r7, #143]
 231:.\pathfinder.c ****             if(path[i][DIR] != path[i - 1][DIR]){
 1809              		.loc 1 231 0
 1810 0382 5AE1     		b	.L56
 1811              	.L52:
 249:.\pathfinder.c ****                }
 250:.\pathfinder.c ****             }else{
 251:.\pathfinder.c ****                instructions[counter] = STRAIGHT;
 1812              		.loc 1 251 0
 1813 0384 97F88F30 		ldrb	r3, [r7, #143]	@ zero_extendqisi2
 1814 0388 804A     		ldr	r2, .L79+4
 1815 038a 5321     		movs	r1, #83
 1816 038c D154     		strb	r1, [r2, r3]
 231:.\pathfinder.c ****             if(path[i][DIR] != path[i - 1][DIR]){
 1817              		.loc 1 231 0
 1818 038e 54E1     		b	.L56
 1819              	.L51:
 231:.\pathfinder.c ****             if(path[i][DIR] != path[i - 1][DIR]){
 1820              		.loc 1 231 0 is_stmt 0 discriminator 1
 1821 0390 53E1     		b	.L56
 1822              	.L37:
 252:.\pathfinder.c ****             }
 253:.\pathfinder.c ****         } 
 254:.\pathfinder.c ****         
 255:.\pathfinder.c ****       }else{
 256:.\pathfinder.c ****          if(map[path[i][Y] - 1][path[i][X]] == PATH || map[path[i][Y] + 1][path[i][X]] == PATH){
 1823              		.loc 1 256 0 is_stmt 1
 1824 0392 7D49     		ldr	r1, .L79
 1825 0394 D7F88420 		ldr	r2, [r7, #132]
 1826 0398 1346     		mov	r3, r2
 1827 039a 5B00     		lsls	r3, r3, #1
 1828 039c 1344     		add	r3, r3, r2
 1829 039e 0B44     		add	r3, r3, r1
 1830 03a0 1B78     		ldrb	r3, [r3]	@ zero_extendqisi2
 1831 03a2 5A1E     		subs	r2, r3, #1
 1832 03a4 7848     		ldr	r0, .L79
 1833 03a6 D7F88410 		ldr	r1, [r7, #132]
 1834 03aa 0B46     		mov	r3, r1
ARM GAS  C:\Users\lken274\AppData\Local\Temp\ccV4mmfZ.s 			page 38


 1835 03ac 5B00     		lsls	r3, r3, #1
 1836 03ae 0B44     		add	r3, r3, r1
 1837 03b0 0344     		add	r3, r3, r0
 1838 03b2 0133     		adds	r3, r3, #1
 1839 03b4 1B78     		ldrb	r3, [r3]	@ zero_extendqisi2
 1840 03b6 1846     		mov	r0, r3
 1841 03b8 7549     		ldr	r1, .L79+8
 1842 03ba 1346     		mov	r3, r2
 1843 03bc DB00     		lsls	r3, r3, #3
 1844 03be 1344     		add	r3, r3, r2
 1845 03c0 5B00     		lsls	r3, r3, #1
 1846 03c2 1344     		add	r3, r3, r2
 1847 03c4 0344     		add	r3, r3, r0
 1848 03c6 0B44     		add	r3, r3, r1
 1849 03c8 1B78     		ldrb	r3, [r3]	@ zero_extendqisi2
 1850 03ca 002B     		cmp	r3, #0
 1851 03cc 1ED0     		beq	.L57
 1852              		.loc 1 256 0 is_stmt 0 discriminator 1
 1853 03ce 6E49     		ldr	r1, .L79
 1854 03d0 D7F88420 		ldr	r2, [r7, #132]
 1855 03d4 1346     		mov	r3, r2
 1856 03d6 5B00     		lsls	r3, r3, #1
 1857 03d8 1344     		add	r3, r3, r2
 1858 03da 0B44     		add	r3, r3, r1
 1859 03dc 1B78     		ldrb	r3, [r3]	@ zero_extendqisi2
 1860 03de 5A1C     		adds	r2, r3, #1
 1861 03e0 6948     		ldr	r0, .L79
 1862 03e2 D7F88410 		ldr	r1, [r7, #132]
 1863 03e6 0B46     		mov	r3, r1
 1864 03e8 5B00     		lsls	r3, r3, #1
 1865 03ea 0B44     		add	r3, r3, r1
 1866 03ec 0344     		add	r3, r3, r0
 1867 03ee 0133     		adds	r3, r3, #1
 1868 03f0 1B78     		ldrb	r3, [r3]	@ zero_extendqisi2
 1869 03f2 1846     		mov	r0, r3
 1870 03f4 6649     		ldr	r1, .L79+8
 1871 03f6 1346     		mov	r3, r2
 1872 03f8 DB00     		lsls	r3, r3, #3
 1873 03fa 1344     		add	r3, r3, r2
 1874 03fc 5B00     		lsls	r3, r3, #1
 1875 03fe 1344     		add	r3, r3, r2
 1876 0400 0344     		add	r3, r3, r0
 1877 0402 0B44     		add	r3, r3, r1
 1878 0404 1B78     		ldrb	r3, [r3]	@ zero_extendqisi2
 1879 0406 002B     		cmp	r3, #0
 1880 0408 40F0C480 		bne	.L58
 1881              	.L57:
 257:.\pathfinder.c ****             if(path[i][DIR] != path[i - 1][DIR]){
 1882              		.loc 1 257 0 is_stmt 1
 1883 040c 5E49     		ldr	r1, .L79
 1884 040e D7F88420 		ldr	r2, [r7, #132]
 1885 0412 1346     		mov	r3, r2
 1886 0414 5B00     		lsls	r3, r3, #1
 1887 0416 1344     		add	r3, r3, r2
 1888 0418 0B44     		add	r3, r3, r1
 1889 041a 0233     		adds	r3, r3, #2
 1890 041c 1978     		ldrb	r1, [r3]	@ zero_extendqisi2
ARM GAS  C:\Users\lken274\AppData\Local\Temp\ccV4mmfZ.s 			page 39


 1891 041e D7F88430 		ldr	r3, [r7, #132]
 1892 0422 5A1E     		subs	r2, r3, #1
 1893 0424 5848     		ldr	r0, .L79
 1894 0426 1346     		mov	r3, r2
 1895 0428 5B00     		lsls	r3, r3, #1
 1896 042a 1344     		add	r3, r3, r2
 1897 042c 0344     		add	r3, r3, r0
 1898 042e 0233     		adds	r3, r3, #2
 1899 0430 1B78     		ldrb	r3, [r3]	@ zero_extendqisi2
 1900 0432 9942     		cmp	r1, r3
 1901 0434 00F09D80 		beq	.L59
 258:.\pathfinder.c ****                if((path[i][DIR] == 4 && path[i-1][DIR] == 3)||(path[i][DIR] == 2 && path[i-1][DIR] 
 1902              		.loc 1 258 0
 1903 0438 5349     		ldr	r1, .L79
 1904 043a D7F88420 		ldr	r2, [r7, #132]
 1905 043e 1346     		mov	r3, r2
 1906 0440 5B00     		lsls	r3, r3, #1
 1907 0442 1344     		add	r3, r3, r2
 1908 0444 0B44     		add	r3, r3, r1
 1909 0446 0233     		adds	r3, r3, #2
 1910 0448 1B78     		ldrb	r3, [r3]	@ zero_extendqisi2
 1911 044a 042B     		cmp	r3, #4
 1912 044c 0BD1     		bne	.L60
 1913              		.loc 1 258 0 is_stmt 0 discriminator 1
 1914 044e D7F88430 		ldr	r3, [r7, #132]
 1915 0452 5A1E     		subs	r2, r3, #1
 1916 0454 4C49     		ldr	r1, .L79
 1917 0456 1346     		mov	r3, r2
 1918 0458 5B00     		lsls	r3, r3, #1
 1919 045a 1344     		add	r3, r3, r2
 1920 045c 0B44     		add	r3, r3, r1
 1921 045e 0233     		adds	r3, r3, #2
 1922 0460 1B78     		ldrb	r3, [r3]	@ zero_extendqisi2
 1923 0462 032B     		cmp	r3, #3
 1924 0464 16D0     		beq	.L61
 1925              	.L60:
 1926              		.loc 1 258 0 discriminator 3
 1927 0466 4849     		ldr	r1, .L79
 1928 0468 D7F88420 		ldr	r2, [r7, #132]
 1929 046c 1346     		mov	r3, r2
 1930 046e 5B00     		lsls	r3, r3, #1
 1931 0470 1344     		add	r3, r3, r2
 1932 0472 0B44     		add	r3, r3, r1
 1933 0474 0233     		adds	r3, r3, #2
 1934 0476 1B78     		ldrb	r3, [r3]	@ zero_extendqisi2
 1935 0478 022B     		cmp	r3, #2
 1936 047a 11D1     		bne	.L62
 1937              		.loc 1 258 0 discriminator 4
 1938 047c D7F88430 		ldr	r3, [r7, #132]
 1939 0480 5A1E     		subs	r2, r3, #1
 1940 0482 4149     		ldr	r1, .L79
 1941 0484 1346     		mov	r3, r2
 1942 0486 5B00     		lsls	r3, r3, #1
 1943 0488 1344     		add	r3, r3, r2
 1944 048a 0B44     		add	r3, r3, r1
 1945 048c 0233     		adds	r3, r3, #2
 1946 048e 1B78     		ldrb	r3, [r3]	@ zero_extendqisi2
ARM GAS  C:\Users\lken274\AppData\Local\Temp\ccV4mmfZ.s 			page 40


 1947 0490 012B     		cmp	r3, #1
 1948 0492 05D1     		bne	.L62
 1949              	.L61:
 259:.\pathfinder.c ****                   instructions[counter] = LEFT;
 1950              		.loc 1 259 0 is_stmt 1
 1951 0494 97F88F30 		ldrb	r3, [r7, #143]	@ zero_extendqisi2
 1952 0498 3C4A     		ldr	r2, .L79+4
 1953 049a 4C21     		movs	r1, #76
 1954 049c D154     		strb	r1, [r2, r3]
 1955 049e 67E0     		b	.L63
 1956              	.L62:
 260:.\pathfinder.c ****                }else if((path[i][DIR] == 4 && path[i-1][DIR] == 1)||(path[i][DIR] == 2 && path[i-1]
 1957              		.loc 1 260 0
 1958 04a0 3949     		ldr	r1, .L79
 1959 04a2 D7F88420 		ldr	r2, [r7, #132]
 1960 04a6 1346     		mov	r3, r2
 1961 04a8 5B00     		lsls	r3, r3, #1
 1962 04aa 1344     		add	r3, r3, r2
 1963 04ac 0B44     		add	r3, r3, r1
 1964 04ae 0233     		adds	r3, r3, #2
 1965 04b0 1B78     		ldrb	r3, [r3]	@ zero_extendqisi2
 1966 04b2 042B     		cmp	r3, #4
 1967 04b4 0BD1     		bne	.L64
 1968              		.loc 1 260 0 is_stmt 0 discriminator 1
 1969 04b6 D7F88430 		ldr	r3, [r7, #132]
 1970 04ba 5A1E     		subs	r2, r3, #1
 1971 04bc 3249     		ldr	r1, .L79
 1972 04be 1346     		mov	r3, r2
 1973 04c0 5B00     		lsls	r3, r3, #1
 1974 04c2 1344     		add	r3, r3, r2
 1975 04c4 0B44     		add	r3, r3, r1
 1976 04c6 0233     		adds	r3, r3, #2
 1977 04c8 1B78     		ldrb	r3, [r3]	@ zero_extendqisi2
 1978 04ca 012B     		cmp	r3, #1
 1979 04cc 16D0     		beq	.L65
 1980              	.L64:
 1981              		.loc 1 260 0 discriminator 3
 1982 04ce 2E49     		ldr	r1, .L79
 1983 04d0 D7F88420 		ldr	r2, [r7, #132]
 1984 04d4 1346     		mov	r3, r2
 1985 04d6 5B00     		lsls	r3, r3, #1
 1986 04d8 1344     		add	r3, r3, r2
 1987 04da 0B44     		add	r3, r3, r1
 1988 04dc 0233     		adds	r3, r3, #2
 1989 04de 1B78     		ldrb	r3, [r3]	@ zero_extendqisi2
 1990 04e0 022B     		cmp	r3, #2
 1991 04e2 11D1     		bne	.L66
 1992              		.loc 1 260 0 discriminator 4
 1993 04e4 D7F88430 		ldr	r3, [r7, #132]
 1994 04e8 5A1E     		subs	r2, r3, #1
 1995 04ea 2749     		ldr	r1, .L79
 1996 04ec 1346     		mov	r3, r2
 1997 04ee 5B00     		lsls	r3, r3, #1
 1998 04f0 1344     		add	r3, r3, r2
 1999 04f2 0B44     		add	r3, r3, r1
 2000 04f4 0233     		adds	r3, r3, #2
 2001 04f6 1B78     		ldrb	r3, [r3]	@ zero_extendqisi2
ARM GAS  C:\Users\lken274\AppData\Local\Temp\ccV4mmfZ.s 			page 41


 2002 04f8 032B     		cmp	r3, #3
 2003 04fa 05D1     		bne	.L66
 2004              	.L65:
 261:.\pathfinder.c ****                   instructions[counter] = RIGHT;
 2005              		.loc 1 261 0 is_stmt 1
 2006 04fc 97F88F30 		ldrb	r3, [r7, #143]	@ zero_extendqisi2
 2007 0500 224A     		ldr	r2, .L79+4
 2008 0502 5221     		movs	r1, #82
 2009 0504 D154     		strb	r1, [r2, r3]
 2010 0506 33E0     		b	.L63
 2011              	.L66:
 262:.\pathfinder.c ****                }else if((path[i][DIR] == 4 && path[i-1][DIR] == 2)||(path[i][DIR] == 2 && path[i-1]
 2012              		.loc 1 262 0
 2013 0508 1F49     		ldr	r1, .L79
 2014 050a D7F88420 		ldr	r2, [r7, #132]
 2015 050e 1346     		mov	r3, r2
 2016 0510 5B00     		lsls	r3, r3, #1
 2017 0512 1344     		add	r3, r3, r2
 2018 0514 0B44     		add	r3, r3, r1
 2019 0516 0233     		adds	r3, r3, #2
 2020 0518 1B78     		ldrb	r3, [r3]	@ zero_extendqisi2
 2021 051a 042B     		cmp	r3, #4
 2022 051c 0BD1     		bne	.L67
 2023              		.loc 1 262 0 is_stmt 0 discriminator 1
 2024 051e D7F88430 		ldr	r3, [r7, #132]
 2025 0522 5A1E     		subs	r2, r3, #1
 2026 0524 1849     		ldr	r1, .L79
 2027 0526 1346     		mov	r3, r2
 2028 0528 5B00     		lsls	r3, r3, #1
 2029 052a 1344     		add	r3, r3, r2
 2030 052c 0B44     		add	r3, r3, r1
 2031 052e 0233     		adds	r3, r3, #2
 2032 0530 1B78     		ldrb	r3, [r3]	@ zero_extendqisi2
 2033 0532 022B     		cmp	r3, #2
 2034 0534 16D0     		beq	.L68
 2035              	.L67:
 2036              		.loc 1 262 0 discriminator 3
 2037 0536 1449     		ldr	r1, .L79
 2038 0538 D7F88420 		ldr	r2, [r7, #132]
 2039 053c 1346     		mov	r3, r2
 2040 053e 5B00     		lsls	r3, r3, #1
 2041 0540 1344     		add	r3, r3, r2
 2042 0542 0B44     		add	r3, r3, r1
 2043 0544 0233     		adds	r3, r3, #2
 2044 0546 1B78     		ldrb	r3, [r3]	@ zero_extendqisi2
 2045 0548 022B     		cmp	r3, #2
 2046 054a 17D1     		bne	.L69
 2047              		.loc 1 262 0 discriminator 4
 2048 054c D7F88430 		ldr	r3, [r7, #132]
 2049 0550 5A1E     		subs	r2, r3, #1
 2050 0552 0D49     		ldr	r1, .L79
 2051 0554 1346     		mov	r3, r2
 2052 0556 5B00     		lsls	r3, r3, #1
 2053 0558 1344     		add	r3, r3, r2
 2054 055a 0B44     		add	r3, r3, r1
 2055 055c 0233     		adds	r3, r3, #2
 2056 055e 1B78     		ldrb	r3, [r3]	@ zero_extendqisi2
ARM GAS  C:\Users\lken274\AppData\Local\Temp\ccV4mmfZ.s 			page 42


 2057 0560 042B     		cmp	r3, #4
 2058 0562 0BD1     		bne	.L69
 2059              	.L68:
 263:.\pathfinder.c ****                   instructions[counter] = UTURN;
 2060              		.loc 1 263 0 is_stmt 1
 2061 0564 97F88F30 		ldrb	r3, [r7, #143]	@ zero_extendqisi2
 2062 0568 084A     		ldr	r2, .L79+4
 2063 056a 5521     		movs	r1, #85
 2064 056c D154     		strb	r1, [r2, r3]
 2065 056e 05E0     		b	.L69
 2066              	.L63:
 2067 0570 04E0     		b	.L69
 2068              	.L59:
 264:.\pathfinder.c ****                }
 265:.\pathfinder.c ****             }else{
 266:.\pathfinder.c ****                instructions[counter] = STRAIGHT;
 2069              		.loc 1 266 0
 2070 0572 97F88F30 		ldrb	r3, [r7, #143]	@ zero_extendqisi2
 2071 0576 054A     		ldr	r2, .L79+4
 2072 0578 5321     		movs	r1, #83
 2073 057a D154     		strb	r1, [r2, r3]
 2074              	.L69:
 267:.\pathfinder.c ****             }
 268:.\pathfinder.c ****             counter++;
 2075              		.loc 1 268 0
 2076 057c 97F88F30 		ldrb	r3, [r7, #143]	@ zero_extendqisi2
 2077 0580 0133     		adds	r3, r3, #1
 2078 0582 87F88F30 		strb	r3, [r7, #143]
 2079 0586 58E0     		b	.L56
 2080              	.L80:
 2081              		.align	2
 2082              	.L79:
 2083 0588 00000000 		.word	path
 2084 058c 00000000 		.word	instructions
 2085 0590 00000000 		.word	map
 2086              	.L58:
 269:.\pathfinder.c ****          }else{
 270:.\pathfinder.c ****             if(path[i][DIR] != path[i - 1][DIR]){
 2087              		.loc 1 270 0
 2088 0594 3749     		ldr	r1, .L81
 2089 0596 D7F88420 		ldr	r2, [r7, #132]
 2090 059a 1346     		mov	r3, r2
 2091 059c 5B00     		lsls	r3, r3, #1
 2092 059e 1344     		add	r3, r3, r2
 2093 05a0 0B44     		add	r3, r3, r1
 2094 05a2 0233     		adds	r3, r3, #2
 2095 05a4 1978     		ldrb	r1, [r3]	@ zero_extendqisi2
 2096 05a6 D7F88430 		ldr	r3, [r7, #132]
 2097 05aa 5A1E     		subs	r2, r3, #1
 2098 05ac 3148     		ldr	r0, .L81
 2099 05ae 1346     		mov	r3, r2
 2100 05b0 5B00     		lsls	r3, r3, #1
 2101 05b2 1344     		add	r3, r3, r2
 2102 05b4 0344     		add	r3, r3, r0
 2103 05b6 0233     		adds	r3, r3, #2
 2104 05b8 1B78     		ldrb	r3, [r3]	@ zero_extendqisi2
 2105 05ba 9942     		cmp	r1, r3
ARM GAS  C:\Users\lken274\AppData\Local\Temp\ccV4mmfZ.s 			page 43


 2106 05bc 38D0     		beq	.L70
 271:.\pathfinder.c ****                if((path[i][DIR] == 4 && path[i-1][DIR] == 2)||(path[i][DIR] == 2 && path[i-1][DIR] 
 2107              		.loc 1 271 0
 2108 05be 2D49     		ldr	r1, .L81
 2109 05c0 D7F88420 		ldr	r2, [r7, #132]
 2110 05c4 1346     		mov	r3, r2
 2111 05c6 5B00     		lsls	r3, r3, #1
 2112 05c8 1344     		add	r3, r3, r2
 2113 05ca 0B44     		add	r3, r3, r1
 2114 05cc 0233     		adds	r3, r3, #2
 2115 05ce 1B78     		ldrb	r3, [r3]	@ zero_extendqisi2
 2116 05d0 042B     		cmp	r3, #4
 2117 05d2 0BD1     		bne	.L71
 2118              		.loc 1 271 0 is_stmt 0 discriminator 1
 2119 05d4 D7F88430 		ldr	r3, [r7, #132]
 2120 05d8 5A1E     		subs	r2, r3, #1
 2121 05da 2649     		ldr	r1, .L81
 2122 05dc 1346     		mov	r3, r2
 2123 05de 5B00     		lsls	r3, r3, #1
 2124 05e0 1344     		add	r3, r3, r2
 2125 05e2 0B44     		add	r3, r3, r1
 2126 05e4 0233     		adds	r3, r3, #2
 2127 05e6 1B78     		ldrb	r3, [r3]	@ zero_extendqisi2
 2128 05e8 022B     		cmp	r3, #2
 2129 05ea 16D0     		beq	.L72
 2130              	.L71:
 2131              		.loc 1 271 0 discriminator 3
 2132 05ec 2149     		ldr	r1, .L81
 2133 05ee D7F88420 		ldr	r2, [r7, #132]
 2134 05f2 1346     		mov	r3, r2
 2135 05f4 5B00     		lsls	r3, r3, #1
 2136 05f6 1344     		add	r3, r3, r2
 2137 05f8 0B44     		add	r3, r3, r1
 2138 05fa 0233     		adds	r3, r3, #2
 2139 05fc 1B78     		ldrb	r3, [r3]	@ zero_extendqisi2
 2140 05fe 022B     		cmp	r3, #2
 2141 0600 1BD1     		bne	.L56
 2142              		.loc 1 271 0 discriminator 4
 2143 0602 D7F88430 		ldr	r3, [r7, #132]
 2144 0606 5A1E     		subs	r2, r3, #1
 2145 0608 1A49     		ldr	r1, .L81
 2146 060a 1346     		mov	r3, r2
 2147 060c 5B00     		lsls	r3, r3, #1
 2148 060e 1344     		add	r3, r3, r2
 2149 0610 0B44     		add	r3, r3, r1
 2150 0612 0233     		adds	r3, r3, #2
 2151 0614 1B78     		ldrb	r3, [r3]	@ zero_extendqisi2
 2152 0616 042B     		cmp	r3, #4
 2153 0618 0FD1     		bne	.L56
 2154              	.L72:
 272:.\pathfinder.c ****                   instructions[counter] = UTURN;
 2155              		.loc 1 272 0 is_stmt 1
 2156 061a 97F88F30 		ldrb	r3, [r7, #143]	@ zero_extendqisi2
 2157 061e 164A     		ldr	r2, .L81+4
 2158 0620 5521     		movs	r1, #85
 2159 0622 D154     		strb	r1, [r2, r3]
 273:.\pathfinder.c ****                 counter++;
ARM GAS  C:\Users\lken274\AppData\Local\Temp\ccV4mmfZ.s 			page 44


 2160              		.loc 1 273 0
 2161 0624 97F88F30 		ldrb	r3, [r7, #143]	@ zero_extendqisi2
 2162 0628 0133     		adds	r3, r3, #1
 2163 062a 87F88F30 		strb	r3, [r7, #143]
 2164 062e 04E0     		b	.L56
 2165              	.L70:
 274:.\pathfinder.c ****                }
 275:.\pathfinder.c ****             }else{
 276:.\pathfinder.c ****                instructions[counter] = STRAIGHT;
 2166              		.loc 1 276 0
 2167 0630 97F88F30 		ldrb	r3, [r7, #143]	@ zero_extendqisi2
 2168 0634 104A     		ldr	r2, .L81+4
 2169 0636 5321     		movs	r1, #83
 2170 0638 D154     		strb	r1, [r2, r3]
 2171              	.L56:
 228:.\pathfinder.c ****       if(path[i][DIR] == 1 || path[i][DIR] == 3){
 2172              		.loc 1 228 0 discriminator 2
 2173 063a D7F88430 		ldr	r3, [r7, #132]
 2174 063e 013B     		subs	r3, r3, #1
 2175 0640 C7F88430 		str	r3, [r7, #132]
 2176              	.L35:
 228:.\pathfinder.c ****       if(path[i][DIR] == 1 || path[i][DIR] == 3){
 2177              		.loc 1 228 0 is_stmt 0 discriminator 1
 2178 0644 D7F88430 		ldr	r3, [r7, #132]
 2179 0648 002B     		cmp	r3, #0
 2180 064a 3FF72BAD 		bgt	.L74
 2181              	.LBE5:
 196:.\pathfinder.c **** {   
 2182              		.loc 1 196 0 is_stmt 1 discriminator 2
 2183 064e D7F88830 		ldr	r3, [r7, #136]
 2184 0652 0133     		adds	r3, r3, #1
 2185 0654 C7F88830 		str	r3, [r7, #136]
 2186              	.L33:
 196:.\pathfinder.c **** {   
 2187              		.loc 1 196 0 is_stmt 0 discriminator 1
 2188 0658 084B     		ldr	r3, .L81+8
 2189 065a 1B78     		ldrb	r3, [r3]	@ zero_extendqisi2
 2190 065c 1A46     		mov	r2, r3
 2191 065e D7F88830 		ldr	r3, [r7, #136]
 2192 0662 9A42     		cmp	r2, r3
 2193 0664 3FF7D6AC 		bgt	.L75
 277:.\pathfinder.c ****             }
 278:.\pathfinder.c ****          }
 279:.\pathfinder.c ****       }
 280:.\pathfinder.c ****    }
 281:.\pathfinder.c ****    //instructions[counter] = '\0';
 282:.\pathfinder.c **** }
 283:.\pathfinder.c ****    return 0;
 2194              		.loc 1 283 0 is_stmt 1
 2195 0668 0023     		movs	r3, #0
 284:.\pathfinder.c **** }
 2196              		.loc 1 284 0
 2197 066a 1846     		mov	r0, r3
 2198 066c 9037     		adds	r7, r7, #144
 2199              		.cfi_def_cfa_offset 16
 2200 066e BD46     		mov	sp, r7
 2201              		.cfi_def_cfa_register 13
ARM GAS  C:\Users\lken274\AppData\Local\Temp\ccV4mmfZ.s 			page 45


 2202              		@ sp needed
 2203 0670 B0BD     		pop	{r4, r5, r7, pc}
 2204              	.L82:
 2205 0672 00BF     		.align	2
 2206              	.L81:
 2207 0674 00000000 		.word	path
 2208 0678 00000000 		.word	instructions
 2209 067c 00000000 		.word	food_length
 2210              		.cfi_endproc
 2211              	.LFE64:
 2212              		.size	generateDirections, .-generateDirections
 2213              		.text
 2214              	.Letext0:
 2215              		.file 2 "c:\\program files (x86)\\cypress\\psoc creator\\3.3\\psoc creator\\import\\gnu\\arm\\4.9.
 2216              		.file 3 "c:\\program files (x86)\\cypress\\psoc creator\\3.3\\psoc creator\\import\\gnu\\arm\\4.9.
 2217              		.file 4 "Generated_Source\\PSoC5/cytypes.h"
 2218              		.file 5 "Generated_Source\\PSoC5/core_cm3.h"
 2219              		.file 6 ".\\pathfinder.h"
 2220              		.section	.debug_info,"",%progbits
 2221              	.Ldebug_info0:
 2222 0000 7B040000 		.4byte	0x47b
 2223 0004 0400     		.2byte	0x4
 2224 0006 00000000 		.4byte	.Ldebug_abbrev0
 2225 000a 04       		.byte	0x4
 2226 000b 01       		.uleb128 0x1
 2227 000c 3D000000 		.4byte	.LASF50
 2228 0010 01       		.byte	0x1
 2229 0011 DE020000 		.4byte	.LASF51
 2230 0015 83010000 		.4byte	.LASF52
 2231 0019 00000000 		.4byte	.Ldebug_ranges0+0
 2232 001d 00000000 		.4byte	0
 2233 0021 00000000 		.4byte	.Ldebug_line0
 2234 0025 02       		.uleb128 0x2
 2235 0026 01       		.byte	0x1
 2236 0027 06       		.byte	0x6
 2237 0028 B8020000 		.4byte	.LASF0
 2238 002c 02       		.uleb128 0x2
 2239 002d 01       		.byte	0x1
 2240 002e 08       		.byte	0x8
 2241 002f 0C010000 		.4byte	.LASF1
 2242 0033 02       		.uleb128 0x2
 2243 0034 02       		.byte	0x2
 2244 0035 05       		.byte	0x5
 2245 0036 60020000 		.4byte	.LASF2
 2246 003a 02       		.uleb128 0x2
 2247 003b 02       		.byte	0x2
 2248 003c 07       		.byte	0x7
 2249 003d 64010000 		.4byte	.LASF3
 2250 0041 03       		.uleb128 0x3
 2251 0042 24000000 		.4byte	.LASF14
 2252 0046 02       		.byte	0x2
 2253 0047 3F       		.byte	0x3f
 2254 0048 4C000000 		.4byte	0x4c
 2255 004c 02       		.uleb128 0x2
 2256 004d 04       		.byte	0x4
 2257 004e 05       		.byte	0x5
 2258 004f 9E020000 		.4byte	.LASF4
ARM GAS  C:\Users\lken274\AppData\Local\Temp\ccV4mmfZ.s 			page 46


 2259 0053 02       		.uleb128 0x2
 2260 0054 04       		.byte	0x4
 2261 0055 07       		.byte	0x7
 2262 0056 4A010000 		.4byte	.LASF5
 2263 005a 02       		.uleb128 0x2
 2264 005b 08       		.byte	0x8
 2265 005c 05       		.byte	0x5
 2266 005d 86020000 		.4byte	.LASF6
 2267 0061 02       		.uleb128 0x2
 2268 0062 08       		.byte	0x8
 2269 0063 07       		.byte	0x7
 2270 0064 BB010000 		.4byte	.LASF7
 2271 0068 04       		.uleb128 0x4
 2272 0069 04       		.byte	0x4
 2273 006a 05       		.byte	0x5
 2274 006b 696E7400 		.ascii	"int\000"
 2275 006f 02       		.uleb128 0x2
 2276 0070 04       		.byte	0x4
 2277 0071 07       		.byte	0x7
 2278 0072 A8010000 		.4byte	.LASF8
 2279 0076 02       		.uleb128 0x2
 2280 0077 04       		.byte	0x4
 2281 0078 07       		.byte	0x7
 2282 0079 29020000 		.4byte	.LASF9
 2283 007d 02       		.uleb128 0x2
 2284 007e 01       		.byte	0x1
 2285 007f 08       		.byte	0x8
 2286 0080 3E020000 		.4byte	.LASF10
 2287 0084 02       		.uleb128 0x2
 2288 0085 08       		.byte	0x8
 2289 0086 04       		.byte	0x4
 2290 0087 D3000000 		.4byte	.LASF11
 2291 008b 02       		.uleb128 0x2
 2292 008c 04       		.byte	0x4
 2293 008d 04       		.byte	0x4
 2294 008e FE000000 		.4byte	.LASF12
 2295 0092 02       		.uleb128 0x2
 2296 0093 08       		.byte	0x8
 2297 0094 04       		.byte	0x4
 2298 0095 AC020000 		.4byte	.LASF13
 2299 0099 03       		.uleb128 0x3
 2300 009a F6000000 		.4byte	.LASF15
 2301 009e 03       		.byte	0x3
 2302 009f 2C       		.byte	0x2c
 2303 00a0 41000000 		.4byte	0x41
 2304 00a4 05       		.uleb128 0x5
 2305 00a5 DA000000 		.4byte	.LASF16
 2306 00a9 04       		.byte	0x4
 2307 00aa 9201     		.2byte	0x192
 2308 00ac 2C000000 		.4byte	0x2c
 2309 00b0 05       		.uleb128 0x5
 2310 00b1 77010000 		.4byte	.LASF17
 2311 00b5 04       		.byte	0x4
 2312 00b6 9301     		.2byte	0x193
 2313 00b8 3A000000 		.4byte	0x3a
 2314 00bc 06       		.uleb128 0x6
 2315 00bd 12000000 		.4byte	.LASF24
ARM GAS  C:\Users\lken274\AppData\Local\Temp\ccV4mmfZ.s 			page 47


 2316 00c1 10       		.byte	0x10
 2317 00c2 01       		.byte	0x1
 2318 00c3 19       		.byte	0x19
 2319 00c4 25010000 		.4byte	0x125
 2320 00c8 07       		.uleb128 0x7
 2321 00c9 A7020000 		.4byte	.LASF18
 2322 00cd 01       		.byte	0x1
 2323 00ce 1A       		.byte	0x1a
 2324 00cf A4000000 		.4byte	0xa4
 2325 00d3 00       		.byte	0
 2326 00d4 07       		.uleb128 0x7
 2327 00d5 34010000 		.4byte	.LASF19
 2328 00d9 01       		.byte	0x1
 2329 00da 1B       		.byte	0x1b
 2330 00db A4000000 		.4byte	0xa4
 2331 00df 01       		.byte	0x1
 2332 00e0 07       		.uleb128 0x7
 2333 00e1 7E010000 		.4byte	.LASF20
 2334 00e5 01       		.byte	0x1
 2335 00e6 1C       		.byte	0x1c
 2336 00e7 B0000000 		.4byte	0xb0
 2337 00eb 02       		.byte	0x2
 2338 00ec 08       		.uleb128 0x8
 2339 00ed 7800     		.ascii	"x\000"
 2340 00ef 01       		.byte	0x1
 2341 00f0 1D       		.byte	0x1d
 2342 00f1 A4000000 		.4byte	0xa4
 2343 00f5 04       		.byte	0x4
 2344 00f6 08       		.uleb128 0x8
 2345 00f7 7900     		.ascii	"y\000"
 2346 00f9 01       		.byte	0x1
 2347 00fa 1E       		.byte	0x1e
 2348 00fb A4000000 		.4byte	0xa4
 2349 00ff 05       		.byte	0x5
 2350 0100 07       		.uleb128 0x7
 2351 0101 F7010000 		.4byte	.LASF21
 2352 0105 01       		.byte	0x1
 2353 0106 1F       		.byte	0x1f
 2354 0107 25010000 		.4byte	0x125
 2355 010b 08       		.byte	0x8
 2356 010c 07       		.uleb128 0x7
 2357 010d D2010000 		.4byte	.LASF22
 2358 0111 01       		.byte	0x1
 2359 0112 22       		.byte	0x22
 2360 0113 B0000000 		.4byte	0xb0
 2361 0117 0C       		.byte	0xc
 2362 0118 07       		.uleb128 0x7
 2363 0119 E0000000 		.4byte	.LASF23
 2364 011d 01       		.byte	0x1
 2365 011e 23       		.byte	0x23
 2366 011f A4000000 		.4byte	0xa4
 2367 0123 0E       		.byte	0xe
 2368 0124 00       		.byte	0
 2369 0125 09       		.uleb128 0x9
 2370 0126 04       		.byte	0x4
 2371 0127 BC000000 		.4byte	0xbc
 2372 012b 03       		.uleb128 0x3
ARM GAS  C:\Users\lken274\AppData\Local\Temp\ccV4mmfZ.s 			page 48


 2373 012c 12000000 		.4byte	.LASF24
 2374 0130 01       		.byte	0x1
 2375 0131 24       		.byte	0x24
 2376 0132 BC000000 		.4byte	0xbc
 2377 0136 0A       		.uleb128 0xa
 2378 0137 94020000 		.4byte	.LASF53
 2379 013b 01       		.byte	0x1
 2380 013c 2F       		.byte	0x2f
 2381 013d A4000000 		.4byte	0xa4
 2382 0141 00000000 		.4byte	.LFB63
 2383 0145 C40B0000 		.4byte	.LFE63-.LFB63
 2384 0149 01       		.uleb128 0x1
 2385 014a 9C       		.byte	0x9c
 2386 014b BC020000 		.4byte	0x2bc
 2387 014f 0B       		.uleb128 0xb
 2388 0150 6D617000 		.ascii	"map\000"
 2389 0154 01       		.byte	0x1
 2390 0155 2F       		.byte	0x2f
 2391 0156 CC020000 		.4byte	0x2cc
 2392 015a 03       		.uleb128 0x3
 2393 015b 91       		.byte	0x91
 2394 015c B44F     		.sleb128 -6220
 2395 015e 0C       		.uleb128 0xc
 2396 015f 56020000 		.4byte	.LASF25
 2397 0163 01       		.byte	0x1
 2398 0164 2F       		.byte	0x2f
 2399 0165 E2020000 		.4byte	0x2e2
 2400 0169 03       		.uleb128 0x3
 2401 016a 91       		.byte	0x91
 2402 016b B04F     		.sleb128 -6224
 2403 016d 0C       		.uleb128 0xc
 2404 016e A7020000 		.4byte	.LASF18
 2405 0172 01       		.byte	0x1
 2406 0173 2F       		.byte	0x2f
 2407 0174 F8020000 		.4byte	0x2f8
 2408 0178 03       		.uleb128 0x3
 2409 0179 91       		.byte	0x91
 2410 017a AC4F     		.sleb128 -6228
 2411 017c 0C       		.uleb128 0xc
 2412 017d B5010000 		.4byte	.LASF26
 2413 0181 01       		.byte	0x1
 2414 0182 2F       		.byte	0x2f
 2415 0183 FE020000 		.4byte	0x2fe
 2416 0187 03       		.uleb128 0x3
 2417 0188 91       		.byte	0x91
 2418 0189 A84F     		.sleb128 -6232
 2419 018b 0C       		.uleb128 0xc
 2420 018c C4020000 		.4byte	.LASF27
 2421 0190 01       		.byte	0x1
 2422 0191 2F       		.byte	0x2f
 2423 0192 FE020000 		.4byte	0x2fe
 2424 0196 02       		.uleb128 0x2
 2425 0197 91       		.byte	0x91
 2426 0198 00       		.sleb128 0
 2427 0199 0D       		.uleb128 0xd
 2428 019a 1A010000 		.4byte	.LASF28
 2429 019e 01       		.byte	0x1
ARM GAS  C:\Users\lken274\AppData\Local\Temp\ccV4mmfZ.s 			page 49


 2430 019f 30       		.byte	0x30
 2431 01a0 04030000 		.4byte	0x304
 2432 01a4 03       		.uleb128 0x3
 2433 01a5 91       		.byte	0x91
 2434 01a6 885C     		.sleb128 -4600
 2435 01a8 0E       		.uleb128 0xe
 2436 01a9 6900     		.ascii	"i\000"
 2437 01ab 01       		.byte	0x1
 2438 01ac 32       		.byte	0x32
 2439 01ad A4000000 		.4byte	0xa4
 2440 01b1 02       		.uleb128 0x2
 2441 01b2 91       		.byte	0x91
 2442 01b3 6F       		.sleb128 -17
 2443 01b4 0D       		.uleb128 0xd
 2444 01b5 76020000 		.4byte	.LASF29
 2445 01b9 01       		.byte	0x1
 2446 01ba 43       		.byte	0x43
 2447 01bb D2020000 		.4byte	0x2d2
 2448 01bf 03       		.uleb128 0x3
 2449 01c0 91       		.byte	0x91
 2450 01c1 845C     		.sleb128 -4604
 2451 01c3 0D       		.uleb128 0xd
 2452 01c4 E1010000 		.4byte	.LASF30
 2453 01c8 01       		.byte	0x1
 2454 01c9 47       		.byte	0x47
 2455 01ca A4000000 		.4byte	0xa4
 2456 01ce 02       		.uleb128 0x2
 2457 01cf 91       		.byte	0x91
 2458 01d0 6D       		.sleb128 -19
 2459 01d1 0D       		.uleb128 0xd
 2460 01d2 FA020000 		.4byte	.LASF31
 2461 01d6 01       		.byte	0x1
 2462 01d7 48       		.byte	0x48
 2463 01d8 1A030000 		.4byte	0x31a
 2464 01dc 03       		.uleb128 0x3
 2465 01dd 91       		.byte	0x91
 2466 01de C44F     		.sleb128 -6204
 2467 01e0 0D       		.uleb128 0xd
 2468 01e1 3C010000 		.4byte	.LASF32
 2469 01e5 01       		.byte	0x1
 2470 01e6 4A       		.byte	0x4a
 2471 01e7 D2020000 		.4byte	0x2d2
 2472 01eb 03       		.uleb128 0x3
 2473 01ec 91       		.byte	0x91
 2474 01ed C04F     		.sleb128 -6208
 2475 01ef 0D       		.uleb128 0xd
 2476 01f0 6A020000 		.4byte	.LASF33
 2477 01f4 01       		.byte	0x1
 2478 01f5 4B       		.byte	0x4b
 2479 01f6 A4000000 		.4byte	0xa4
 2480 01fa 02       		.uleb128 0x2
 2481 01fb 91       		.byte	0x91
 2482 01fc 5B       		.sleb128 -37
 2483 01fd 0D       		.uleb128 0xd
 2484 01fe 2E000000 		.4byte	.LASF34
 2485 0202 01       		.byte	0x1
 2486 0203 4C       		.byte	0x4c
ARM GAS  C:\Users\lken274\AppData\Local\Temp\ccV4mmfZ.s 			page 50


 2487 0204 A4000000 		.4byte	0xa4
 2488 0208 02       		.uleb128 0x2
 2489 0209 91       		.byte	0x91
 2490 020a 6C       		.sleb128 -20
 2491 020b 0D       		.uleb128 0xd
 2492 020c 04010000 		.4byte	.LASF35
 2493 0210 01       		.byte	0x1
 2494 0211 4D       		.byte	0x4d
 2495 0212 A4000000 		.4byte	0xa4
 2496 0216 02       		.uleb128 0x2
 2497 0217 91       		.byte	0x91
 2498 0218 6B       		.sleb128 -21
 2499 0219 0D       		.uleb128 0xd
 2500 021a 5C010000 		.4byte	.LASF36
 2501 021e 01       		.byte	0x1
 2502 021f 4E       		.byte	0x4e
 2503 0220 B0000000 		.4byte	0xb0
 2504 0224 02       		.uleb128 0x2
 2505 0225 91       		.byte	0x91
 2506 0226 58       		.sleb128 -40
 2507 0227 0D       		.uleb128 0xd
 2508 0228 2B010000 		.4byte	.LASF37
 2509 022c 01       		.byte	0x1
 2510 022d 4F       		.byte	0x4f
 2511 022e D2020000 		.4byte	0x2d2
 2512 0232 03       		.uleb128 0x3
 2513 0233 91       		.byte	0x91
 2514 0234 BC4F     		.sleb128 -6212
 2515 0236 0D       		.uleb128 0xd
 2516 0237 D0020000 		.4byte	.LASF38
 2517 023b 01       		.byte	0x1
 2518 023c 50       		.byte	0x50
 2519 023d A4000000 		.4byte	0xa4
 2520 0241 02       		.uleb128 0x2
 2521 0242 91       		.byte	0x91
 2522 0243 6A       		.sleb128 -22
 2523 0244 0D       		.uleb128 0xd
 2524 0245 32020000 		.4byte	.LASF39
 2525 0249 01       		.byte	0x1
 2526 024a 51       		.byte	0x51
 2527 024b D2020000 		.4byte	0x2d2
 2528 024f 03       		.uleb128 0x3
 2529 0250 91       		.byte	0x91
 2530 0251 B84F     		.sleb128 -6216
 2531 0253 0D       		.uleb128 0xd
 2532 0254 ED020000 		.4byte	.LASF40
 2533 0258 01       		.byte	0x1
 2534 0259 52       		.byte	0x52
 2535 025a B0000000 		.4byte	0xb0
 2536 025e 02       		.uleb128 0x2
 2537 025f 91       		.byte	0x91
 2538 0260 68       		.sleb128 -24
 2539 0261 0D       		.uleb128 0xd
 2540 0262 7E020000 		.4byte	.LASF41
 2541 0266 01       		.byte	0x1
 2542 0267 53       		.byte	0x53
 2543 0268 A4000000 		.4byte	0xa4
ARM GAS  C:\Users\lken274\AppData\Local\Temp\ccV4mmfZ.s 			page 51


 2544 026c 02       		.uleb128 0x2
 2545 026d 91       		.byte	0x91
 2546 026e 67       		.sleb128 -25
 2547 026f 0F       		.uleb128 0xf
 2548 0270 36000000 		.4byte	.LBB2
 2549 0274 E6010000 		.4byte	.LBE2-.LBB2
 2550 0278 89020000 		.4byte	0x289
 2551 027c 0E       		.uleb128 0xe
 2552 027d 6A00     		.ascii	"j\000"
 2553 027f 01       		.byte	0x1
 2554 0280 34       		.byte	0x34
 2555 0281 A4000000 		.4byte	0xa4
 2556 0285 02       		.uleb128 0x2
 2557 0286 91       		.byte	0x91
 2558 0287 6E       		.sleb128 -18
 2559 0288 00       		.byte	0
 2560 0289 0F       		.uleb128 0xf
 2561 028a BE030000 		.4byte	.LBB3
 2562 028e 86050000 		.4byte	.LBE3-.LBB3
 2563 0292 A3020000 		.4byte	0x2a3
 2564 0296 0E       		.uleb128 0xe
 2565 0297 6900     		.ascii	"i\000"
 2566 0299 01       		.byte	0x1
 2567 029a 8D       		.byte	0x8d
 2568 029b 68000000 		.4byte	0x68
 2569 029f 02       		.uleb128 0x2
 2570 02a0 91       		.byte	0x91
 2571 02a1 60       		.sleb128 -32
 2572 02a2 00       		.byte	0
 2573 02a3 10       		.uleb128 0x10
 2574 02a4 C8090000 		.4byte	.LBB4
 2575 02a8 EA010000 		.4byte	.LBE4-.LBB4
 2576 02ac 0D       		.uleb128 0xd
 2577 02ad 1D020000 		.4byte	.LASF42
 2578 02b1 01       		.byte	0x1
 2579 02b2 AA       		.byte	0xaa
 2580 02b3 31030000 		.4byte	0x331
 2581 02b7 02       		.uleb128 0x2
 2582 02b8 91       		.byte	0x91
 2583 02b9 5C       		.sleb128 -36
 2584 02ba 00       		.byte	0
 2585 02bb 00       		.byte	0
 2586 02bc 11       		.uleb128 0x11
 2587 02bd A4000000 		.4byte	0xa4
 2588 02c1 CC020000 		.4byte	0x2cc
 2589 02c5 12       		.uleb128 0x12
 2590 02c6 76000000 		.4byte	0x76
 2591 02ca 12       		.byte	0x12
 2592 02cb 00       		.byte	0
 2593 02cc 09       		.uleb128 0x9
 2594 02cd 04       		.byte	0x4
 2595 02ce BC020000 		.4byte	0x2bc
 2596 02d2 11       		.uleb128 0x11
 2597 02d3 A4000000 		.4byte	0xa4
 2598 02d7 E2020000 		.4byte	0x2e2
 2599 02db 12       		.uleb128 0x12
 2600 02dc 76000000 		.4byte	0x76
ARM GAS  C:\Users\lken274\AppData\Local\Temp\ccV4mmfZ.s 			page 52


 2601 02e0 01       		.byte	0x1
 2602 02e1 00       		.byte	0
 2603 02e2 09       		.uleb128 0x9
 2604 02e3 04       		.byte	0x4
 2605 02e4 D2020000 		.4byte	0x2d2
 2606 02e8 11       		.uleb128 0x11
 2607 02e9 A4000000 		.4byte	0xa4
 2608 02ed F8020000 		.4byte	0x2f8
 2609 02f1 12       		.uleb128 0x12
 2610 02f2 76000000 		.4byte	0x76
 2611 02f6 02       		.byte	0x2
 2612 02f7 00       		.byte	0
 2613 02f8 09       		.uleb128 0x9
 2614 02f9 04       		.byte	0x4
 2615 02fa E8020000 		.4byte	0x2e8
 2616 02fe 09       		.uleb128 0x9
 2617 02ff 04       		.byte	0x4
 2618 0300 A4000000 		.4byte	0xa4
 2619 0304 11       		.uleb128 0x11
 2620 0305 2B010000 		.4byte	0x12b
 2621 0309 1A030000 		.4byte	0x31a
 2622 030d 12       		.uleb128 0x12
 2623 030e 76000000 		.4byte	0x76
 2624 0312 0E       		.byte	0xe
 2625 0313 12       		.uleb128 0x12
 2626 0314 76000000 		.4byte	0x76
 2627 0318 12       		.byte	0x12
 2628 0319 00       		.byte	0
 2629 031a 11       		.uleb128 0x11
 2630 031b A4000000 		.4byte	0xa4
 2631 031f 31030000 		.4byte	0x331
 2632 0323 13       		.uleb128 0x13
 2633 0324 76000000 		.4byte	0x76
 2634 0328 1F03     		.2byte	0x31f
 2635 032a 12       		.uleb128 0x12
 2636 032b 76000000 		.4byte	0x76
 2637 032f 01       		.byte	0x1
 2638 0330 00       		.byte	0
 2639 0331 09       		.uleb128 0x9
 2640 0332 04       		.byte	0x4
 2641 0333 2B010000 		.4byte	0x12b
 2642 0337 14       		.uleb128 0x14
 2643 0338 43020000 		.4byte	.LASF54
 2644 033c 01       		.byte	0x1
 2645 033d C0       		.byte	0xc0
 2646 033e 68000000 		.4byte	0x68
 2647 0342 00000000 		.4byte	.LFB64
 2648 0346 80060000 		.4byte	.LFE64-.LFB64
 2649 034a 01       		.uleb128 0x1
 2650 034b 9C       		.byte	0x9c
 2651 034c A0030000 		.4byte	0x3a0
 2652 0350 0D       		.uleb128 0xd
 2653 0351 04010000 		.4byte	.LASF35
 2654 0355 01       		.byte	0x1
 2655 0356 C1       		.byte	0xc1
 2656 0357 A4000000 		.4byte	0xa4
 2657 035b 02       		.uleb128 0x2
ARM GAS  C:\Users\lken274\AppData\Local\Temp\ccV4mmfZ.s 			page 53


 2658 035c 91       		.byte	0x91
 2659 035d 6F       		.sleb128 -17
 2660 035e 0D       		.uleb128 0xd
 2661 035f 20010000 		.4byte	.LASF43
 2662 0363 01       		.byte	0x1
 2663 0364 C2       		.byte	0xc2
 2664 0365 68000000 		.4byte	0x68
 2665 0369 02       		.uleb128 0x2
 2666 036a 91       		.byte	0x91
 2667 036b 68       		.sleb128 -24
 2668 036c 10       		.uleb128 0x10
 2669 036d 14000000 		.4byte	.LBB5
 2670 0371 3A060000 		.4byte	.LBE5-.LBB5
 2671 0375 0D       		.uleb128 0xd
 2672 0376 CB000000 		.4byte	.LASF44
 2673 037a 01       		.byte	0x1
 2674 037b DD       		.byte	0xdd
 2675 037c A0030000 		.4byte	0x3a0
 2676 0380 03       		.uleb128 0x3
 2677 0381 91       		.byte	0x91
 2678 0382 E07E     		.sleb128 -160
 2679 0384 0E       		.uleb128 0xe
 2680 0385 656E6400 		.ascii	"end\000"
 2681 0389 01       		.byte	0x1
 2682 038a E1       		.byte	0xe1
 2683 038b 68000000 		.4byte	0x68
 2684 038f 02       		.uleb128 0x2
 2685 0390 91       		.byte	0x91
 2686 0391 60       		.sleb128 -32
 2687 0392 0E       		.uleb128 0xe
 2688 0393 6900     		.ascii	"i\000"
 2689 0395 01       		.byte	0x1
 2690 0396 E3       		.byte	0xe3
 2691 0397 68000000 		.4byte	0x68
 2692 039b 02       		.uleb128 0x2
 2693 039c 91       		.byte	0x91
 2694 039d 64       		.sleb128 -28
 2695 039e 00       		.byte	0
 2696 039f 00       		.byte	0
 2697 03a0 11       		.uleb128 0x11
 2698 03a1 7D000000 		.4byte	0x7d
 2699 03a5 B0030000 		.4byte	0x3b0
 2700 03a9 12       		.uleb128 0x12
 2701 03aa 76000000 		.4byte	0x76
 2702 03ae 7F       		.byte	0x7f
 2703 03af 00       		.byte	0
 2704 03b0 15       		.uleb128 0x15
 2705 03b1 00020000 		.4byte	.LASF45
 2706 03b5 05       		.byte	0x5
 2707 03b6 9606     		.2byte	0x696
 2708 03b8 BC030000 		.4byte	0x3bc
 2709 03bc 16       		.uleb128 0x16
 2710 03bd 99000000 		.4byte	0x99
 2711 03c1 11       		.uleb128 0x11
 2712 03c2 A4000000 		.4byte	0xa4
 2713 03c6 D7030000 		.4byte	0x3d7
 2714 03ca 12       		.uleb128 0x12
ARM GAS  C:\Users\lken274\AppData\Local\Temp\ccV4mmfZ.s 			page 54


 2715 03cb 76000000 		.4byte	0x76
 2716 03cf 0E       		.byte	0xe
 2717 03d0 12       		.uleb128 0x12
 2718 03d1 76000000 		.4byte	0x76
 2719 03d5 12       		.byte	0x12
 2720 03d6 00       		.byte	0
 2721 03d7 17       		.uleb128 0x17
 2722 03d8 6D617000 		.ascii	"map\000"
 2723 03dc 06       		.byte	0x6
 2724 03dd 1B       		.byte	0x1b
 2725 03de C1030000 		.4byte	0x3c1
 2726 03e2 11       		.uleb128 0x11
 2727 03e3 A4000000 		.4byte	0xa4
 2728 03e7 F8030000 		.4byte	0x3f8
 2729 03eb 12       		.uleb128 0x12
 2730 03ec 76000000 		.4byte	0x76
 2731 03f0 05       		.byte	0x5
 2732 03f1 12       		.uleb128 0x12
 2733 03f2 76000000 		.4byte	0x76
 2734 03f6 01       		.byte	0x1
 2735 03f7 00       		.byte	0
 2736 03f8 18       		.uleb128 0x18
 2737 03f9 56020000 		.4byte	.LASF25
 2738 03fd 06       		.byte	0x6
 2739 03fe 1D       		.byte	0x1d
 2740 03ff E2030000 		.4byte	0x3e2
 2741 0403 11       		.uleb128 0x11
 2742 0404 A4000000 		.4byte	0xa4
 2743 0408 1A040000 		.4byte	0x41a
 2744 040c 13       		.uleb128 0x13
 2745 040d 76000000 		.4byte	0x76
 2746 0411 1F03     		.2byte	0x31f
 2747 0413 12       		.uleb128 0x12
 2748 0414 76000000 		.4byte	0x76
 2749 0418 02       		.byte	0x2
 2750 0419 00       		.byte	0
 2751 041a 18       		.uleb128 0x18
 2752 041b A7020000 		.4byte	.LASF18
 2753 041f 06       		.byte	0x6
 2754 0420 1E       		.byte	0x1e
 2755 0421 03040000 		.4byte	0x403
 2756 0425 18       		.uleb128 0x18
 2757 0426 B5010000 		.4byte	.LASF26
 2758 042a 06       		.byte	0x6
 2759 042b 1F       		.byte	0x1f
 2760 042c D2020000 		.4byte	0x2d2
 2761 0430 18       		.uleb128 0x18
 2762 0431 C4020000 		.4byte	.LASF27
 2763 0435 06       		.byte	0x6
 2764 0436 20       		.byte	0x20
 2765 0437 D2020000 		.4byte	0x2d2
 2766 043b 18       		.uleb128 0x18
 2767 043c 0D020000 		.4byte	.LASF46
 2768 0440 06       		.byte	0x6
 2769 0441 21       		.byte	0x21
 2770 0442 A4000000 		.4byte	0xa4
 2771 0446 19       		.uleb128 0x19
ARM GAS  C:\Users\lken274\AppData\Local\Temp\ccV4mmfZ.s 			page 55


 2772 0447 00000000 		.4byte	.LASF47
 2773 044b 06       		.byte	0x6
 2774 044c 22       		.byte	0x22
 2775 044d A4000000 		.4byte	0xa4
 2776 0451 05       		.uleb128 0x5
 2777 0452 03       		.byte	0x3
 2778 0453 00000000 		.4byte	tracked_direction
 2779 0457 18       		.uleb128 0x18
 2780 0458 EA000000 		.4byte	.LASF48
 2781 045c 06       		.byte	0x6
 2782 045d 23       		.byte	0x23
 2783 045e A4000000 		.4byte	0xa4
 2784 0462 11       		.uleb128 0x11
 2785 0463 7D000000 		.4byte	0x7d
 2786 0467 73040000 		.4byte	0x473
 2787 046b 13       		.uleb128 0x13
 2788 046c 76000000 		.4byte	0x76
 2789 0470 1F03     		.2byte	0x31f
 2790 0472 00       		.byte	0
 2791 0473 18       		.uleb128 0x18
 2792 0474 17000000 		.4byte	.LASF49
 2793 0478 06       		.byte	0x6
 2794 0479 24       		.byte	0x24
 2795 047a 62040000 		.4byte	0x462
 2796 047e 00       		.byte	0
 2797              		.section	.debug_abbrev,"",%progbits
 2798              	.Ldebug_abbrev0:
 2799 0000 01       		.uleb128 0x1
 2800 0001 11       		.uleb128 0x11
 2801 0002 01       		.byte	0x1
 2802 0003 25       		.uleb128 0x25
 2803 0004 0E       		.uleb128 0xe
 2804 0005 13       		.uleb128 0x13
 2805 0006 0B       		.uleb128 0xb
 2806 0007 03       		.uleb128 0x3
 2807 0008 0E       		.uleb128 0xe
 2808 0009 1B       		.uleb128 0x1b
 2809 000a 0E       		.uleb128 0xe
 2810 000b 55       		.uleb128 0x55
 2811 000c 17       		.uleb128 0x17
 2812 000d 11       		.uleb128 0x11
 2813 000e 01       		.uleb128 0x1
 2814 000f 10       		.uleb128 0x10
 2815 0010 17       		.uleb128 0x17
 2816 0011 00       		.byte	0
 2817 0012 00       		.byte	0
 2818 0013 02       		.uleb128 0x2
 2819 0014 24       		.uleb128 0x24
 2820 0015 00       		.byte	0
 2821 0016 0B       		.uleb128 0xb
 2822 0017 0B       		.uleb128 0xb
 2823 0018 3E       		.uleb128 0x3e
 2824 0019 0B       		.uleb128 0xb
 2825 001a 03       		.uleb128 0x3
 2826 001b 0E       		.uleb128 0xe
 2827 001c 00       		.byte	0
 2828 001d 00       		.byte	0
ARM GAS  C:\Users\lken274\AppData\Local\Temp\ccV4mmfZ.s 			page 56


 2829 001e 03       		.uleb128 0x3
 2830 001f 16       		.uleb128 0x16
 2831 0020 00       		.byte	0
 2832 0021 03       		.uleb128 0x3
 2833 0022 0E       		.uleb128 0xe
 2834 0023 3A       		.uleb128 0x3a
 2835 0024 0B       		.uleb128 0xb
 2836 0025 3B       		.uleb128 0x3b
 2837 0026 0B       		.uleb128 0xb
 2838 0027 49       		.uleb128 0x49
 2839 0028 13       		.uleb128 0x13
 2840 0029 00       		.byte	0
 2841 002a 00       		.byte	0
 2842 002b 04       		.uleb128 0x4
 2843 002c 24       		.uleb128 0x24
 2844 002d 00       		.byte	0
 2845 002e 0B       		.uleb128 0xb
 2846 002f 0B       		.uleb128 0xb
 2847 0030 3E       		.uleb128 0x3e
 2848 0031 0B       		.uleb128 0xb
 2849 0032 03       		.uleb128 0x3
 2850 0033 08       		.uleb128 0x8
 2851 0034 00       		.byte	0
 2852 0035 00       		.byte	0
 2853 0036 05       		.uleb128 0x5
 2854 0037 16       		.uleb128 0x16
 2855 0038 00       		.byte	0
 2856 0039 03       		.uleb128 0x3
 2857 003a 0E       		.uleb128 0xe
 2858 003b 3A       		.uleb128 0x3a
 2859 003c 0B       		.uleb128 0xb
 2860 003d 3B       		.uleb128 0x3b
 2861 003e 05       		.uleb128 0x5
 2862 003f 49       		.uleb128 0x49
 2863 0040 13       		.uleb128 0x13
 2864 0041 00       		.byte	0
 2865 0042 00       		.byte	0
 2866 0043 06       		.uleb128 0x6
 2867 0044 13       		.uleb128 0x13
 2868 0045 01       		.byte	0x1
 2869 0046 03       		.uleb128 0x3
 2870 0047 0E       		.uleb128 0xe
 2871 0048 0B       		.uleb128 0xb
 2872 0049 0B       		.uleb128 0xb
 2873 004a 3A       		.uleb128 0x3a
 2874 004b 0B       		.uleb128 0xb
 2875 004c 3B       		.uleb128 0x3b
 2876 004d 0B       		.uleb128 0xb
 2877 004e 01       		.uleb128 0x1
 2878 004f 13       		.uleb128 0x13
 2879 0050 00       		.byte	0
 2880 0051 00       		.byte	0
 2881 0052 07       		.uleb128 0x7
 2882 0053 0D       		.uleb128 0xd
 2883 0054 00       		.byte	0
 2884 0055 03       		.uleb128 0x3
 2885 0056 0E       		.uleb128 0xe
ARM GAS  C:\Users\lken274\AppData\Local\Temp\ccV4mmfZ.s 			page 57


 2886 0057 3A       		.uleb128 0x3a
 2887 0058 0B       		.uleb128 0xb
 2888 0059 3B       		.uleb128 0x3b
 2889 005a 0B       		.uleb128 0xb
 2890 005b 49       		.uleb128 0x49
 2891 005c 13       		.uleb128 0x13
 2892 005d 38       		.uleb128 0x38
 2893 005e 0B       		.uleb128 0xb
 2894 005f 00       		.byte	0
 2895 0060 00       		.byte	0
 2896 0061 08       		.uleb128 0x8
 2897 0062 0D       		.uleb128 0xd
 2898 0063 00       		.byte	0
 2899 0064 03       		.uleb128 0x3
 2900 0065 08       		.uleb128 0x8
 2901 0066 3A       		.uleb128 0x3a
 2902 0067 0B       		.uleb128 0xb
 2903 0068 3B       		.uleb128 0x3b
 2904 0069 0B       		.uleb128 0xb
 2905 006a 49       		.uleb128 0x49
 2906 006b 13       		.uleb128 0x13
 2907 006c 38       		.uleb128 0x38
 2908 006d 0B       		.uleb128 0xb
 2909 006e 00       		.byte	0
 2910 006f 00       		.byte	0
 2911 0070 09       		.uleb128 0x9
 2912 0071 0F       		.uleb128 0xf
 2913 0072 00       		.byte	0
 2914 0073 0B       		.uleb128 0xb
 2915 0074 0B       		.uleb128 0xb
 2916 0075 49       		.uleb128 0x49
 2917 0076 13       		.uleb128 0x13
 2918 0077 00       		.byte	0
 2919 0078 00       		.byte	0
 2920 0079 0A       		.uleb128 0xa
 2921 007a 2E       		.uleb128 0x2e
 2922 007b 01       		.byte	0x1
 2923 007c 3F       		.uleb128 0x3f
 2924 007d 19       		.uleb128 0x19
 2925 007e 03       		.uleb128 0x3
 2926 007f 0E       		.uleb128 0xe
 2927 0080 3A       		.uleb128 0x3a
 2928 0081 0B       		.uleb128 0xb
 2929 0082 3B       		.uleb128 0x3b
 2930 0083 0B       		.uleb128 0xb
 2931 0084 27       		.uleb128 0x27
 2932 0085 19       		.uleb128 0x19
 2933 0086 49       		.uleb128 0x49
 2934 0087 13       		.uleb128 0x13
 2935 0088 11       		.uleb128 0x11
 2936 0089 01       		.uleb128 0x1
 2937 008a 12       		.uleb128 0x12
 2938 008b 06       		.uleb128 0x6
 2939 008c 40       		.uleb128 0x40
 2940 008d 18       		.uleb128 0x18
 2941 008e 9642     		.uleb128 0x2116
 2942 0090 19       		.uleb128 0x19
ARM GAS  C:\Users\lken274\AppData\Local\Temp\ccV4mmfZ.s 			page 58


 2943 0091 01       		.uleb128 0x1
 2944 0092 13       		.uleb128 0x13
 2945 0093 00       		.byte	0
 2946 0094 00       		.byte	0
 2947 0095 0B       		.uleb128 0xb
 2948 0096 05       		.uleb128 0x5
 2949 0097 00       		.byte	0
 2950 0098 03       		.uleb128 0x3
 2951 0099 08       		.uleb128 0x8
 2952 009a 3A       		.uleb128 0x3a
 2953 009b 0B       		.uleb128 0xb
 2954 009c 3B       		.uleb128 0x3b
 2955 009d 0B       		.uleb128 0xb
 2956 009e 49       		.uleb128 0x49
 2957 009f 13       		.uleb128 0x13
 2958 00a0 02       		.uleb128 0x2
 2959 00a1 18       		.uleb128 0x18
 2960 00a2 00       		.byte	0
 2961 00a3 00       		.byte	0
 2962 00a4 0C       		.uleb128 0xc
 2963 00a5 05       		.uleb128 0x5
 2964 00a6 00       		.byte	0
 2965 00a7 03       		.uleb128 0x3
 2966 00a8 0E       		.uleb128 0xe
 2967 00a9 3A       		.uleb128 0x3a
 2968 00aa 0B       		.uleb128 0xb
 2969 00ab 3B       		.uleb128 0x3b
 2970 00ac 0B       		.uleb128 0xb
 2971 00ad 49       		.uleb128 0x49
 2972 00ae 13       		.uleb128 0x13
 2973 00af 02       		.uleb128 0x2
 2974 00b0 18       		.uleb128 0x18
 2975 00b1 00       		.byte	0
 2976 00b2 00       		.byte	0
 2977 00b3 0D       		.uleb128 0xd
 2978 00b4 34       		.uleb128 0x34
 2979 00b5 00       		.byte	0
 2980 00b6 03       		.uleb128 0x3
 2981 00b7 0E       		.uleb128 0xe
 2982 00b8 3A       		.uleb128 0x3a
 2983 00b9 0B       		.uleb128 0xb
 2984 00ba 3B       		.uleb128 0x3b
 2985 00bb 0B       		.uleb128 0xb
 2986 00bc 49       		.uleb128 0x49
 2987 00bd 13       		.uleb128 0x13
 2988 00be 02       		.uleb128 0x2
 2989 00bf 18       		.uleb128 0x18
 2990 00c0 00       		.byte	0
 2991 00c1 00       		.byte	0
 2992 00c2 0E       		.uleb128 0xe
 2993 00c3 34       		.uleb128 0x34
 2994 00c4 00       		.byte	0
 2995 00c5 03       		.uleb128 0x3
 2996 00c6 08       		.uleb128 0x8
 2997 00c7 3A       		.uleb128 0x3a
 2998 00c8 0B       		.uleb128 0xb
 2999 00c9 3B       		.uleb128 0x3b
ARM GAS  C:\Users\lken274\AppData\Local\Temp\ccV4mmfZ.s 			page 59


 3000 00ca 0B       		.uleb128 0xb
 3001 00cb 49       		.uleb128 0x49
 3002 00cc 13       		.uleb128 0x13
 3003 00cd 02       		.uleb128 0x2
 3004 00ce 18       		.uleb128 0x18
 3005 00cf 00       		.byte	0
 3006 00d0 00       		.byte	0
 3007 00d1 0F       		.uleb128 0xf
 3008 00d2 0B       		.uleb128 0xb
 3009 00d3 01       		.byte	0x1
 3010 00d4 11       		.uleb128 0x11
 3011 00d5 01       		.uleb128 0x1
 3012 00d6 12       		.uleb128 0x12
 3013 00d7 06       		.uleb128 0x6
 3014 00d8 01       		.uleb128 0x1
 3015 00d9 13       		.uleb128 0x13
 3016 00da 00       		.byte	0
 3017 00db 00       		.byte	0
 3018 00dc 10       		.uleb128 0x10
 3019 00dd 0B       		.uleb128 0xb
 3020 00de 01       		.byte	0x1
 3021 00df 11       		.uleb128 0x11
 3022 00e0 01       		.uleb128 0x1
 3023 00e1 12       		.uleb128 0x12
 3024 00e2 06       		.uleb128 0x6
 3025 00e3 00       		.byte	0
 3026 00e4 00       		.byte	0
 3027 00e5 11       		.uleb128 0x11
 3028 00e6 01       		.uleb128 0x1
 3029 00e7 01       		.byte	0x1
 3030 00e8 49       		.uleb128 0x49
 3031 00e9 13       		.uleb128 0x13
 3032 00ea 01       		.uleb128 0x1
 3033 00eb 13       		.uleb128 0x13
 3034 00ec 00       		.byte	0
 3035 00ed 00       		.byte	0
 3036 00ee 12       		.uleb128 0x12
 3037 00ef 21       		.uleb128 0x21
 3038 00f0 00       		.byte	0
 3039 00f1 49       		.uleb128 0x49
 3040 00f2 13       		.uleb128 0x13
 3041 00f3 2F       		.uleb128 0x2f
 3042 00f4 0B       		.uleb128 0xb
 3043 00f5 00       		.byte	0
 3044 00f6 00       		.byte	0
 3045 00f7 13       		.uleb128 0x13
 3046 00f8 21       		.uleb128 0x21
 3047 00f9 00       		.byte	0
 3048 00fa 49       		.uleb128 0x49
 3049 00fb 13       		.uleb128 0x13
 3050 00fc 2F       		.uleb128 0x2f
 3051 00fd 05       		.uleb128 0x5
 3052 00fe 00       		.byte	0
 3053 00ff 00       		.byte	0
 3054 0100 14       		.uleb128 0x14
 3055 0101 2E       		.uleb128 0x2e
 3056 0102 01       		.byte	0x1
ARM GAS  C:\Users\lken274\AppData\Local\Temp\ccV4mmfZ.s 			page 60


 3057 0103 3F       		.uleb128 0x3f
 3058 0104 19       		.uleb128 0x19
 3059 0105 03       		.uleb128 0x3
 3060 0106 0E       		.uleb128 0xe
 3061 0107 3A       		.uleb128 0x3a
 3062 0108 0B       		.uleb128 0xb
 3063 0109 3B       		.uleb128 0x3b
 3064 010a 0B       		.uleb128 0xb
 3065 010b 49       		.uleb128 0x49
 3066 010c 13       		.uleb128 0x13
 3067 010d 11       		.uleb128 0x11
 3068 010e 01       		.uleb128 0x1
 3069 010f 12       		.uleb128 0x12
 3070 0110 06       		.uleb128 0x6
 3071 0111 40       		.uleb128 0x40
 3072 0112 18       		.uleb128 0x18
 3073 0113 9642     		.uleb128 0x2116
 3074 0115 19       		.uleb128 0x19
 3075 0116 01       		.uleb128 0x1
 3076 0117 13       		.uleb128 0x13
 3077 0118 00       		.byte	0
 3078 0119 00       		.byte	0
 3079 011a 15       		.uleb128 0x15
 3080 011b 34       		.uleb128 0x34
 3081 011c 00       		.byte	0
 3082 011d 03       		.uleb128 0x3
 3083 011e 0E       		.uleb128 0xe
 3084 011f 3A       		.uleb128 0x3a
 3085 0120 0B       		.uleb128 0xb
 3086 0121 3B       		.uleb128 0x3b
 3087 0122 05       		.uleb128 0x5
 3088 0123 49       		.uleb128 0x49
 3089 0124 13       		.uleb128 0x13
 3090 0125 3F       		.uleb128 0x3f
 3091 0126 19       		.uleb128 0x19
 3092 0127 3C       		.uleb128 0x3c
 3093 0128 19       		.uleb128 0x19
 3094 0129 00       		.byte	0
 3095 012a 00       		.byte	0
 3096 012b 16       		.uleb128 0x16
 3097 012c 35       		.uleb128 0x35
 3098 012d 00       		.byte	0
 3099 012e 49       		.uleb128 0x49
 3100 012f 13       		.uleb128 0x13
 3101 0130 00       		.byte	0
 3102 0131 00       		.byte	0
 3103 0132 17       		.uleb128 0x17
 3104 0133 34       		.uleb128 0x34
 3105 0134 00       		.byte	0
 3106 0135 03       		.uleb128 0x3
 3107 0136 08       		.uleb128 0x8
 3108 0137 3A       		.uleb128 0x3a
 3109 0138 0B       		.uleb128 0xb
 3110 0139 3B       		.uleb128 0x3b
 3111 013a 0B       		.uleb128 0xb
 3112 013b 49       		.uleb128 0x49
 3113 013c 13       		.uleb128 0x13
ARM GAS  C:\Users\lken274\AppData\Local\Temp\ccV4mmfZ.s 			page 61


 3114 013d 3F       		.uleb128 0x3f
 3115 013e 19       		.uleb128 0x19
 3116 013f 3C       		.uleb128 0x3c
 3117 0140 19       		.uleb128 0x19
 3118 0141 00       		.byte	0
 3119 0142 00       		.byte	0
 3120 0143 18       		.uleb128 0x18
 3121 0144 34       		.uleb128 0x34
 3122 0145 00       		.byte	0
 3123 0146 03       		.uleb128 0x3
 3124 0147 0E       		.uleb128 0xe
 3125 0148 3A       		.uleb128 0x3a
 3126 0149 0B       		.uleb128 0xb
 3127 014a 3B       		.uleb128 0x3b
 3128 014b 0B       		.uleb128 0xb
 3129 014c 49       		.uleb128 0x49
 3130 014d 13       		.uleb128 0x13
 3131 014e 3F       		.uleb128 0x3f
 3132 014f 19       		.uleb128 0x19
 3133 0150 3C       		.uleb128 0x3c
 3134 0151 19       		.uleb128 0x19
 3135 0152 00       		.byte	0
 3136 0153 00       		.byte	0
 3137 0154 19       		.uleb128 0x19
 3138 0155 34       		.uleb128 0x34
 3139 0156 00       		.byte	0
 3140 0157 03       		.uleb128 0x3
 3141 0158 0E       		.uleb128 0xe
 3142 0159 3A       		.uleb128 0x3a
 3143 015a 0B       		.uleb128 0xb
 3144 015b 3B       		.uleb128 0x3b
 3145 015c 0B       		.uleb128 0xb
 3146 015d 49       		.uleb128 0x49
 3147 015e 13       		.uleb128 0x13
 3148 015f 3F       		.uleb128 0x3f
 3149 0160 19       		.uleb128 0x19
 3150 0161 02       		.uleb128 0x2
 3151 0162 18       		.uleb128 0x18
 3152 0163 00       		.byte	0
 3153 0164 00       		.byte	0
 3154 0165 00       		.byte	0
 3155              		.section	.debug_aranges,"",%progbits
 3156 0000 24000000 		.4byte	0x24
 3157 0004 0200     		.2byte	0x2
 3158 0006 00000000 		.4byte	.Ldebug_info0
 3159 000a 04       		.byte	0x4
 3160 000b 00       		.byte	0
 3161 000c 0000     		.2byte	0
 3162 000e 0000     		.2byte	0
 3163 0010 00000000 		.4byte	.LFB63
 3164 0014 C40B0000 		.4byte	.LFE63-.LFB63
 3165 0018 00000000 		.4byte	.LFB64
 3166 001c 80060000 		.4byte	.LFE64-.LFB64
 3167 0020 00000000 		.4byte	0
 3168 0024 00000000 		.4byte	0
 3169              		.section	.debug_ranges,"",%progbits
 3170              	.Ldebug_ranges0:
ARM GAS  C:\Users\lken274\AppData\Local\Temp\ccV4mmfZ.s 			page 62


 3171 0000 00000000 		.4byte	.LFB63
 3172 0004 C40B0000 		.4byte	.LFE63
 3173 0008 00000000 		.4byte	.LFB64
 3174 000c 80060000 		.4byte	.LFE64
 3175 0010 00000000 		.4byte	0
 3176 0014 00000000 		.4byte	0
 3177              		.section	.debug_line,"",%progbits
 3178              	.Ldebug_line0:
 3179 0000 89030000 		.section	.debug_str,"MS",%progbits,1
 3179      02006101 
 3179      00000201 
 3179      FB0E0D00 
 3179      01010101 
 3180              	.LASF47:
 3181 0000 74726163 		.ascii	"tracked_direction\000"
 3181      6B65645F 
 3181      64697265 
 3181      6374696F 
 3181      6E00
 3182              	.LASF24:
 3183 0012 6E6F6465 		.ascii	"node\000"
 3183      00
 3184              	.LASF49:
 3185 0017 696E7374 		.ascii	"instructions\000"
 3185      72756374 
 3185      696F6E73 
 3185      00
 3186              	.LASF14:
 3187 0024 5F5F696E 		.ascii	"__int32_t\000"
 3187      7433325F 
 3187      7400
 3188              	.LASF34:
 3189 002e 636F726E 		.ascii	"corner_penalty\000"
 3189      65725F70 
 3189      656E616C 
 3189      747900
 3190              	.LASF50:
 3191 003d 474E5520 		.ascii	"GNU C 4.9.3 20150303 (release) [ARM/embedded-4_9-br"
 3191      4320342E 
 3191      392E3320 
 3191      32303135 
 3191      30333033 
 3192 0070 616E6368 		.ascii	"anch revision 221220] -mcpu=cortex-m3 -mthumb -g -O"
 3192      20726576 
 3192      6973696F 
 3192      6E203232 
 3192      31323230 
 3193 00a3 30202D66 		.ascii	"0 -ffunction-sections -ffat-lto-objects\000"
 3193      66756E63 
 3193      74696F6E 
 3193      2D736563 
 3193      74696F6E 
 3194              	.LASF44:
 3195 00cb 6D657373 		.ascii	"message\000"
 3195      61676500 
 3196              	.LASF11:
 3197 00d3 646F7562 		.ascii	"double\000"
ARM GAS  C:\Users\lken274\AppData\Local\Temp\ccV4mmfZ.s 			page 63


 3197      6C6500
 3198              	.LASF16:
 3199 00da 75696E74 		.ascii	"uint8\000"
 3199      3800
 3200              	.LASF23:
 3201 00e0 64697265 		.ascii	"direction\000"
 3201      6374696F 
 3201      6E00
 3202              	.LASF48:
 3203 00ea 666F6F64 		.ascii	"food_length\000"
 3203      5F6C656E 
 3203      67746800 
 3204              	.LASF15:
 3205 00f6 696E7433 		.ascii	"int32_t\000"
 3205      325F7400 
 3206              	.LASF12:
 3207 00fe 666C6F61 		.ascii	"float\000"
 3207      7400
 3208              	.LASF35:
 3209 0104 636F756E 		.ascii	"counter\000"
 3209      74657200 
 3210              	.LASF1:
 3211 010c 756E7369 		.ascii	"unsigned char\000"
 3211      676E6564 
 3211      20636861 
 3211      7200
 3212              	.LASF28:
 3213 011a 4E6F6465 		.ascii	"Nodes\000"
 3213      7300
 3214              	.LASF43:
 3215 0120 666F6F64 		.ascii	"food_count\000"
 3215      5F636F75 
 3215      6E7400
 3216              	.LASF37:
 3217 012b 6E657874 		.ascii	"nextNode\000"
 3217      4E6F6465 
 3217      00
 3218              	.LASF19:
 3219 0134 76697369 		.ascii	"visited\000"
 3219      74656400 
 3220              	.LASF32:
 3221 013c 74656E74 		.ascii	"tentativeNode\000"
 3221      61746976 
 3221      654E6F64 
 3221      6500
 3222              	.LASF5:
 3223 014a 6C6F6E67 		.ascii	"long unsigned int\000"
 3223      20756E73 
 3223      69676E65 
 3223      6420696E 
 3223      7400
 3224              	.LASF36:
 3225 015c 746D7043 		.ascii	"tmpCost\000"
 3225      6F737400 
 3226              	.LASF3:
 3227 0164 73686F72 		.ascii	"short unsigned int\000"
 3227      7420756E 
ARM GAS  C:\Users\lken274\AppData\Local\Temp\ccV4mmfZ.s 			page 64


 3227      7369676E 
 3227      65642069 
 3227      6E7400
 3228              	.LASF17:
 3229 0177 75696E74 		.ascii	"uint16\000"
 3229      313600
 3230              	.LASF20:
 3231 017e 636F7374 		.ascii	"cost\000"
 3231      00
 3232              	.LASF52:
 3233 0183 443A5C43 		.ascii	"D:\\CS301-Team-Repo\\CS301_Class.cydsn\000"
 3233      53333031 
 3233      2D546561 
 3233      6D2D5265 
 3233      706F5C43 
 3234              	.LASF8:
 3235 01a8 756E7369 		.ascii	"unsigned int\000"
 3235      676E6564 
 3235      20696E74 
 3235      00
 3236              	.LASF26:
 3237 01b5 73746172 		.ascii	"start\000"
 3237      7400
 3238              	.LASF7:
 3239 01bb 6C6F6E67 		.ascii	"long long unsigned int\000"
 3239      206C6F6E 
 3239      6720756E 
 3239      7369676E 
 3239      65642069 
 3240              	.LASF22:
 3241 01d2 74656E74 		.ascii	"tentative_cost\000"
 3241      61746976 
 3241      655F636F 
 3241      737400
 3242              	.LASF30:
 3243 01e1 746F7461 		.ascii	"totalIterationCounter\000"
 3243      6C497465 
 3243      72617469 
 3243      6F6E436F 
 3243      756E7465 
 3244              	.LASF21:
 3245 01f7 70726576 		.ascii	"prevNode\000"
 3245      4E6F6465 
 3245      00
 3246              	.LASF45:
 3247 0200 49544D5F 		.ascii	"ITM_RxBuffer\000"
 3247      52784275 
 3247      66666572 
 3247      00
 3248              	.LASF46:
 3249 020d 726F626F 		.ascii	"robot_direction\000"
 3249      745F6469 
 3249      72656374 
 3249      696F6E00 
 3250              	.LASF42:
 3251 021d 63757272 		.ascii	"currentNode\000"
 3251      656E744E 
ARM GAS  C:\Users\lken274\AppData\Local\Temp\ccV4mmfZ.s 			page 65


 3251      6F646500 
 3252              	.LASF9:
 3253 0229 73697A65 		.ascii	"sizetype\000"
 3253      74797065 
 3253      00
 3254              	.LASF39:
 3255 0232 746D704E 		.ascii	"tmpNextNode\000"
 3255      6578744E 
 3255      6F646500 
 3256              	.LASF10:
 3257 023e 63686172 		.ascii	"char\000"
 3257      00
 3258              	.LASF54:
 3259 0243 67656E65 		.ascii	"generateDirections\000"
 3259      72617465 
 3259      44697265 
 3259      6374696F 
 3259      6E7300
 3260              	.LASF25:
 3261 0256 666F6F64 		.ascii	"food_list\000"
 3261      5F6C6973 
 3261      7400
 3262              	.LASF2:
 3263 0260 73686F72 		.ascii	"short int\000"
 3263      7420696E 
 3263      7400
 3264              	.LASF33:
 3265 026a 756E7265 		.ascii	"unreachable\000"
 3265      61636861 
 3265      626C6500 
 3266              	.LASF29:
 3267 0276 63757272 		.ascii	"current\000"
 3267      656E7400 
 3268              	.LASF41:
 3269 027e 6861734E 		.ascii	"hasNext\000"
 3269      65787400 
 3270              	.LASF6:
 3271 0286 6C6F6E67 		.ascii	"long long int\000"
 3271      206C6F6E 
 3271      6720696E 
 3271      7400
 3272              	.LASF53:
 3273 0294 646A696B 		.ascii	"djikstras\000"
 3273      73747261 
 3273      7300
 3274              	.LASF4:
 3275 029e 6C6F6E67 		.ascii	"long int\000"
 3275      20696E74 
 3275      00
 3276              	.LASF18:
 3277 02a7 70617468 		.ascii	"path\000"
 3277      00
 3278              	.LASF13:
 3279 02ac 6C6F6E67 		.ascii	"long double\000"
 3279      20646F75 
 3279      626C6500 
 3280              	.LASF0:
ARM GAS  C:\Users\lken274\AppData\Local\Temp\ccV4mmfZ.s 			page 66


 3281 02b8 7369676E 		.ascii	"signed char\000"
 3281      65642063 
 3281      68617200 
 3282              	.LASF27:
 3283 02c4 64657374 		.ascii	"destination\000"
 3283      696E6174 
 3283      696F6E00 
 3284              	.LASF38:
 3285 02d0 6E657874 		.ascii	"nextNodeIndex\000"
 3285      4E6F6465 
 3285      496E6465 
 3285      7800
 3286              	.LASF51:
 3287 02de 2E5C7061 		.ascii	".\\pathfinder.c\000"
 3287      74686669 
 3287      6E646572 
 3287      2E6300
 3288              	.LASF40:
 3289 02ed 6E657874 		.ascii	"nextNodeCost\000"
 3289      4E6F6465 
 3289      436F7374 
 3289      00
 3290              	.LASF31:
 3291 02fa 6E657874 		.ascii	"nextNodes\000"
 3291      4E6F6465 
 3291      7300
 3292              		.ident	"GCC: (GNU Tools for ARM Embedded Processors) 4.9.3 20150303 (release) [ARM/embedded-4_9-br
