ARM GAS  C:\Users\Logan\AppData\Local\Temp\ccKKo5Vz.s 			page 1


   1              		.syntax unified
   2              		.cpu cortex-m3
   3              		.fpu softvfp
   4              		.eabi_attribute 20, 1
   5              		.eabi_attribute 21, 1
   6              		.eabi_attribute 23, 3
   7              		.eabi_attribute 24, 1
   8              		.eabi_attribute 25, 1
   9              		.eabi_attribute 26, 1
  10              		.eabi_attribute 30, 6
  11              		.eabi_attribute 34, 1
  12              		.eabi_attribute 18, 4
  13              		.thumb
  14              		.file	"pathfinder.c"
  15              		.text
  16              	.Ltext0:
  17              		.cfi_sections	.debug_frame
  18              		.comm	tracked_direction,4,4
  19              		.section	.text.djikstras,"ax",%progbits
  20              		.align	2
  21              		.global	djikstras
  22              		.thumb
  23              		.thumb_func
  24              		.type	djikstras, %function
  25              	djikstras:
  26              	.LFB63:
  27              		.file 1 ".\\pathfinder.c"
   1:.\pathfinder.c **** #include "pathfinder.h"
   2:.\pathfinder.c **** //define the variables
   3:.\pathfinder.c **** #define VALUE_OF_FOOD 0 //penalty for going over food pellets.
   4:.\pathfinder.c **** #define DEFAULT_NODE_COST 10 //the cost of moving to a normal node.
   5:.\pathfinder.c **** #define CORNER_PENALTY 0 //penalty for changing direction.
   6:.\pathfinder.c **** #define PATH 0 //idicates weather the path is the 1s or the 0s.
   7:.\pathfinder.c **** 
   8:.\pathfinder.c **** 
   9:.\pathfinder.c **** 
  10:.\pathfinder.c **** #define STRAIGHT 'S'
  11:.\pathfinder.c **** #define LEFT 'L'
  12:.\pathfinder.c **** #define RIGHT 'R'
  13:.\pathfinder.c **** #define UTURN 'U'
  14:.\pathfinder.c **** #define DRIVE 'D'
  15:.\pathfinder.c **** 
  16:.\pathfinder.c **** #define INF_16 65535
  17:.\pathfinder.c **** 
  18:.\pathfinder.c **** #define VISITED 1
  19:.\pathfinder.c **** #define UNVISITED 0
  20:.\pathfinder.c **** 
  21:.\pathfinder.c **** #define X 1
  22:.\pathfinder.c **** #define Y 0
  23:.\pathfinder.c **** #define DIR 2
  24:.\pathfinder.c **** 
  25:.\pathfinder.c **** //struct for nodes
  26:.\pathfinder.c **** typedef struct node{
  27:.\pathfinder.c ****    uint32_t path;// 1
  28:.\pathfinder.c ****    uint32_t visited;// 2
  29:.\pathfinder.c ****    uint16 cost;// 6
  30:.\pathfinder.c ****    uint32_t x;
ARM GAS  C:\Users\Logan\AppData\Local\Temp\ccKKo5Vz.s 			page 2


  31:.\pathfinder.c ****    uint32_t y;
  32:.\pathfinder.c ****    struct node* prevNode;
  33:.\pathfinder.c ****    //uint32_t previous_y;// 4
  34:.\pathfinder.c ****    //uint32_t previous_x; // 5
  35:.\pathfinder.c ****    uint16 tentative_cost; // 3
  36:.\pathfinder.c ****    uint32_t direction;
  37:.\pathfinder.c **** } node;
  38:.\pathfinder.c **** 
  39:.\pathfinder.c **** /**pathfinding algorithm
  40:.\pathfinder.c **** * returns the length of the path array 0 if no path is found
  41:.\pathfinder.c **** * map - map to be searched through (needs size)
  42:.\pathfinder.c **** * food_list - list of food (needs size)
  43:.\pathfinder.c **** * path - will be filled with the path found by the algorithm
  44:.\pathfinder.c **** * start - is the start node duh
  45:.\pathfinder.c **** * destination - end node
  46:.\pathfinder.c **** * direction - the initial direction of the robot
  47:.\pathfinder.c **** */
  48:.\pathfinder.c **** uint32_t djikstras(uint32_t map[Y_SIZE][X_SIZE], uint32_t food_list[6][2], uint32_t path[DEFAULT_AR
  28              		.loc 1 48 0
  29              		.cfi_startproc
  30              		@ args = 4, pretend = 0, frame = 15616
  31              		@ frame_needed = 1, uses_anonymous_args = 0
  32 0000 B0B5     		push	{r4, r5, r7, lr}
  33              		.cfi_def_cfa_offset 16
  34              		.cfi_offset 4, -16
  35              		.cfi_offset 5, -12
  36              		.cfi_offset 7, -8
  37              		.cfi_offset 14, -4
  38 0002 ADF5745D 		sub	sp, sp, #15616
  39              		.cfi_def_cfa_offset 15632
  40 0006 00AF     		add	r7, sp, #0
  41              		.cfi_def_cfa_register 7
  42 0008 07F14004 		add	r4, r7, #64
  43 000c 343C     		subs	r4, r4, #52
  44 000e 2060     		str	r0, [r4]
  45 0010 07F14000 		add	r0, r7, #64
  46 0014 3838     		subs	r0, r0, #56
  47 0016 0160     		str	r1, [r0]
  48 0018 07F14001 		add	r1, r7, #64
  49 001c 3C39     		subs	r1, r1, #60
  50 001e 0A60     		str	r2, [r1]
  51 0020 3A46     		mov	r2, r7
  52 0022 1360     		str	r3, [r2]
  49:.\pathfinder.c ****    node Nodes[Y_SIZE][X_SIZE];
  50:.\pathfinder.c ****    //fill up the default information for each node
  51:.\pathfinder.c ****     uint32_t i;
  52:.\pathfinder.c ****    for(i = 0; i < Y_SIZE; i++){
  53              		.loc 1 52 0
  54 0024 0023     		movs	r3, #0
  55 0026 07F57352 		add	r2, r7, #15552
  56 002a 02F13C02 		add	r2, r2, #60
  57 002e 1360     		str	r3, [r2]
  58 0030 FEE0     		b	.L2
  59              	.L5:
  60              	.LBB2:
  53:.\pathfinder.c ****       uint32_t j;
  54:.\pathfinder.c ****       for(j = 0; j < X_SIZE; j++){
ARM GAS  C:\Users\Logan\AppData\Local\Temp\ccKKo5Vz.s 			page 3


  61              		.loc 1 54 0
  62 0032 0023     		movs	r3, #0
  63 0034 07F57352 		add	r2, r7, #15552
  64 0038 02F13802 		add	r2, r2, #56
  65 003c 1360     		str	r3, [r2]
  66 003e E4E0     		b	.L3
  67              	.L4:
  55:.\pathfinder.c ****             Nodes[i][j].path = map[i][j];//map information
  68              		.loc 1 55 0 discriminator 3
  69 0040 07F57353 		add	r3, r7, #15552
  70 0044 03F13C03 		add	r3, r3, #60
  71 0048 1B68     		ldr	r3, [r3]
  72 004a 4C22     		movs	r2, #76
  73 004c 02FB03F2 		mul	r2, r2, r3
  74 0050 07F14003 		add	r3, r7, #64
  75 0054 343B     		subs	r3, r3, #52
  76 0056 1B68     		ldr	r3, [r3]
  77 0058 1344     		add	r3, r3, r2
  78 005a 07F57352 		add	r2, r7, #15552
  79 005e 02F13802 		add	r2, r2, #56
  80 0062 1268     		ldr	r2, [r2]
  81 0064 53F82200 		ldr	r0, [r3, r2, lsl #2]
  82 0068 07F5CA52 		add	r2, r7, #6464
  83 006c 103A     		subs	r2, r2, #16
  84 006e 07F57353 		add	r3, r7, #15552
  85 0072 03F13C03 		add	r3, r3, #60
  86 0076 1968     		ldr	r1, [r3]
  87 0078 0B46     		mov	r3, r1
  88 007a DB00     		lsls	r3, r3, #3
  89 007c 0B44     		add	r3, r3, r1
  90 007e 5B00     		lsls	r3, r3, #1
  91 0080 0B44     		add	r3, r3, r1
  92 0082 07F57351 		add	r1, r7, #15552
  93 0086 01F13801 		add	r1, r1, #56
  94 008a 0968     		ldr	r1, [r1]
  95 008c 0B44     		add	r3, r3, r1
  96 008e 5B01     		lsls	r3, r3, #5
  97 0090 1344     		add	r3, r3, r2
  98 0092 1860     		str	r0, [r3]
  56:.\pathfinder.c ****             //printf("%d\n", map[i][j]);
  57:.\pathfinder.c ****             Nodes[i][j].visited = UNVISITED; //set all unvisited
  99              		.loc 1 57 0 discriminator 3
 100 0094 07F5CA52 		add	r2, r7, #6464
 101 0098 103A     		subs	r2, r2, #16
 102 009a 07F57353 		add	r3, r7, #15552
 103 009e 03F13C03 		add	r3, r3, #60
 104 00a2 1968     		ldr	r1, [r3]
 105 00a4 0B46     		mov	r3, r1
 106 00a6 DB00     		lsls	r3, r3, #3
 107 00a8 0B44     		add	r3, r3, r1
 108 00aa 5B00     		lsls	r3, r3, #1
 109 00ac 0B44     		add	r3, r3, r1
 110 00ae 07F57351 		add	r1, r7, #15552
 111 00b2 01F13801 		add	r1, r1, #56
 112 00b6 0968     		ldr	r1, [r1]
 113 00b8 0B44     		add	r3, r3, r1
 114 00ba 5B01     		lsls	r3, r3, #5
ARM GAS  C:\Users\Logan\AppData\Local\Temp\ccKKo5Vz.s 			page 4


 115 00bc 1344     		add	r3, r3, r2
 116 00be 0022     		movs	r2, #0
 117 00c0 5A60     		str	r2, [r3, #4]
  58:.\pathfinder.c ****             Nodes[i][j].cost = DEFAULT_NODE_COST; // seet the cost of going to this node to the def
 118              		.loc 1 58 0 discriminator 3
 119 00c2 07F5CA52 		add	r2, r7, #6464
 120 00c6 103A     		subs	r2, r2, #16
 121 00c8 07F57353 		add	r3, r7, #15552
 122 00cc 03F13C03 		add	r3, r3, #60
 123 00d0 1968     		ldr	r1, [r3]
 124 00d2 0B46     		mov	r3, r1
 125 00d4 DB00     		lsls	r3, r3, #3
 126 00d6 0B44     		add	r3, r3, r1
 127 00d8 5B00     		lsls	r3, r3, #1
 128 00da 0B44     		add	r3, r3, r1
 129 00dc 07F57351 		add	r1, r7, #15552
 130 00e0 01F13801 		add	r1, r1, #56
 131 00e4 0968     		ldr	r1, [r1]
 132 00e6 0B44     		add	r3, r3, r1
 133 00e8 5B01     		lsls	r3, r3, #5
 134 00ea 1344     		add	r3, r3, r2
 135 00ec 0833     		adds	r3, r3, #8
 136 00ee 0A22     		movs	r2, #10
 137 00f0 1A80     		strh	r2, [r3]	@ movhi
  59:.\pathfinder.c ****             Nodes[i][j].y = i;
 138              		.loc 1 59 0 discriminator 3
 139 00f2 07F5CA52 		add	r2, r7, #6464
 140 00f6 103A     		subs	r2, r2, #16
 141 00f8 07F57353 		add	r3, r7, #15552
 142 00fc 03F13C03 		add	r3, r3, #60
 143 0100 1968     		ldr	r1, [r3]
 144 0102 0B46     		mov	r3, r1
 145 0104 DB00     		lsls	r3, r3, #3
 146 0106 0B44     		add	r3, r3, r1
 147 0108 5B00     		lsls	r3, r3, #1
 148 010a 0B44     		add	r3, r3, r1
 149 010c 07F57351 		add	r1, r7, #15552
 150 0110 01F13801 		add	r1, r1, #56
 151 0114 0968     		ldr	r1, [r1]
 152 0116 0B44     		add	r3, r3, r1
 153 0118 5B01     		lsls	r3, r3, #5
 154 011a 1344     		add	r3, r3, r2
 155 011c 1033     		adds	r3, r3, #16
 156 011e 07F57352 		add	r2, r7, #15552
 157 0122 02F13C02 		add	r2, r2, #60
 158 0126 1268     		ldr	r2, [r2]
 159 0128 1A60     		str	r2, [r3]
  60:.\pathfinder.c ****             Nodes[i][j].x = j;
 160              		.loc 1 60 0 discriminator 3
 161 012a 07F5CA52 		add	r2, r7, #6464
 162 012e 103A     		subs	r2, r2, #16
 163 0130 07F57353 		add	r3, r7, #15552
 164 0134 03F13C03 		add	r3, r3, #60
 165 0138 1968     		ldr	r1, [r3]
 166 013a 0B46     		mov	r3, r1
 167 013c DB00     		lsls	r3, r3, #3
 168 013e 0B44     		add	r3, r3, r1
ARM GAS  C:\Users\Logan\AppData\Local\Temp\ccKKo5Vz.s 			page 5


 169 0140 5B00     		lsls	r3, r3, #1
 170 0142 0B44     		add	r3, r3, r1
 171 0144 07F57351 		add	r1, r7, #15552
 172 0148 01F13801 		add	r1, r1, #56
 173 014c 0968     		ldr	r1, [r1]
 174 014e 0B44     		add	r3, r3, r1
 175 0150 5B01     		lsls	r3, r3, #5
 176 0152 1344     		add	r3, r3, r2
 177 0154 0833     		adds	r3, r3, #8
 178 0156 07F57352 		add	r2, r7, #15552
 179 015a 02F13802 		add	r2, r2, #56
 180 015e 1268     		ldr	r2, [r2]
 181 0160 5A60     		str	r2, [r3, #4]
  61:.\pathfinder.c ****             Nodes[i][j].prevNode = 0;
 182              		.loc 1 61 0 discriminator 3
 183 0162 07F5CA52 		add	r2, r7, #6464
 184 0166 103A     		subs	r2, r2, #16
 185 0168 07F57353 		add	r3, r7, #15552
 186 016c 03F13C03 		add	r3, r3, #60
 187 0170 1968     		ldr	r1, [r3]
 188 0172 0B46     		mov	r3, r1
 189 0174 DB00     		lsls	r3, r3, #3
 190 0176 0B44     		add	r3, r3, r1
 191 0178 5B00     		lsls	r3, r3, #1
 192 017a 0B44     		add	r3, r3, r1
 193 017c 07F57351 		add	r1, r7, #15552
 194 0180 01F13801 		add	r1, r1, #56
 195 0184 0968     		ldr	r1, [r1]
 196 0186 0B44     		add	r3, r3, r1
 197 0188 5B01     		lsls	r3, r3, #5
 198 018a 1344     		add	r3, r3, r2
 199 018c 1033     		adds	r3, r3, #16
 200 018e 0022     		movs	r2, #0
 201 0190 5A60     		str	r2, [r3, #4]
  62:.\pathfinder.c ****             Nodes[i][j].tentative_cost = INF_16;// set the current cost to infinity
 202              		.loc 1 62 0 discriminator 3
 203 0192 07F5CA52 		add	r2, r7, #6464
 204 0196 103A     		subs	r2, r2, #16
 205 0198 07F57353 		add	r3, r7, #15552
 206 019c 03F13C03 		add	r3, r3, #60
 207 01a0 1968     		ldr	r1, [r3]
 208 01a2 0B46     		mov	r3, r1
 209 01a4 DB00     		lsls	r3, r3, #3
 210 01a6 0B44     		add	r3, r3, r1
 211 01a8 5B00     		lsls	r3, r3, #1
 212 01aa 0B44     		add	r3, r3, r1
 213 01ac 07F57351 		add	r1, r7, #15552
 214 01b0 01F13801 		add	r1, r1, #56
 215 01b4 0968     		ldr	r1, [r1]
 216 01b6 0B44     		add	r3, r3, r1
 217 01b8 5B01     		lsls	r3, r3, #5
 218 01ba 1344     		add	r3, r3, r2
 219 01bc 1833     		adds	r3, r3, #24
 220 01be 4FF6FF72 		movw	r2, #65535
 221 01c2 1A80     		strh	r2, [r3]	@ movhi
  63:.\pathfinder.c ****             Nodes[i][j].direction = 0;
 222              		.loc 1 63 0 discriminator 3
ARM GAS  C:\Users\Logan\AppData\Local\Temp\ccKKo5Vz.s 			page 6


 223 01c4 07F5CA52 		add	r2, r7, #6464
 224 01c8 103A     		subs	r2, r2, #16
 225 01ca 07F57353 		add	r3, r7, #15552
 226 01ce 03F13C03 		add	r3, r3, #60
 227 01d2 1968     		ldr	r1, [r3]
 228 01d4 0B46     		mov	r3, r1
 229 01d6 DB00     		lsls	r3, r3, #3
 230 01d8 0B44     		add	r3, r3, r1
 231 01da 5B00     		lsls	r3, r3, #1
 232 01dc 0B44     		add	r3, r3, r1
 233 01de 07F57351 		add	r1, r7, #15552
 234 01e2 01F13801 		add	r1, r1, #56
 235 01e6 0968     		ldr	r1, [r1]
 236 01e8 0B44     		add	r3, r3, r1
 237 01ea 5B01     		lsls	r3, r3, #5
 238 01ec 1344     		add	r3, r3, r2
 239 01ee 1833     		adds	r3, r3, #24
 240 01f0 0022     		movs	r2, #0
 241 01f2 5A60     		str	r2, [r3, #4]
  54:.\pathfinder.c ****             Nodes[i][j].path = map[i][j];//map information
 242              		.loc 1 54 0 discriminator 3
 243 01f4 07F57353 		add	r3, r7, #15552
 244 01f8 03F13803 		add	r3, r3, #56
 245 01fc 1B68     		ldr	r3, [r3]
 246 01fe 0133     		adds	r3, r3, #1
 247 0200 07F57352 		add	r2, r7, #15552
 248 0204 02F13802 		add	r2, r2, #56
 249 0208 1360     		str	r3, [r2]
 250              	.L3:
  54:.\pathfinder.c ****             Nodes[i][j].path = map[i][j];//map information
 251              		.loc 1 54 0 is_stmt 0 discriminator 1
 252 020a 07F57353 		add	r3, r7, #15552
 253 020e 03F13803 		add	r3, r3, #56
 254 0212 1B68     		ldr	r3, [r3]
 255 0214 122B     		cmp	r3, #18
 256 0216 7FF613AF 		bls	.L4
 257              	.LBE2:
  52:.\pathfinder.c ****       uint32_t j;
 258              		.loc 1 52 0 is_stmt 1 discriminator 2
 259 021a 07F57353 		add	r3, r7, #15552
 260 021e 03F13C03 		add	r3, r3, #60
 261 0222 1B68     		ldr	r3, [r3]
 262 0224 0133     		adds	r3, r3, #1
 263 0226 07F57352 		add	r2, r7, #15552
 264 022a 02F13C02 		add	r2, r2, #60
 265 022e 1360     		str	r3, [r2]
 266              	.L2:
  52:.\pathfinder.c ****       uint32_t j;
 267              		.loc 1 52 0 is_stmt 0 discriminator 1
 268 0230 07F57353 		add	r3, r7, #15552
 269 0234 03F13C03 		add	r3, r3, #60
 270 0238 1B68     		ldr	r3, [r3]
 271 023a 0E2B     		cmp	r3, #14
 272 023c 7FF6F9AE 		bls	.L5
  64:.\pathfinder.c ****       }
  65:.\pathfinder.c ****    }
  66:.\pathfinder.c **** 
ARM GAS  C:\Users\Logan\AppData\Local\Temp\ccKKo5Vz.s 			page 7


  67:.\pathfinder.c **** 
  68:.\pathfinder.c ****    uint32_t current[2];
  69:.\pathfinder.c ****    //memcpy(current, start, sizeof(current));//because nothing works in c the way you want it to
  70:.\pathfinder.c ****    current[Y] = start[Y];
 273              		.loc 1 70 0 is_stmt 1
 274 0240 3B46     		mov	r3, r7
 275 0242 1B68     		ldr	r3, [r3]
 276 0244 1A68     		ldr	r2, [r3]
 277 0246 07F5CA53 		add	r3, r7, #6464
 278 024a 183B     		subs	r3, r3, #24
 279 024c 1A60     		str	r2, [r3]
  71:.\pathfinder.c ****    current[X] = start[X];
 280              		.loc 1 71 0
 281 024e 3B46     		mov	r3, r7
 282 0250 1B68     		ldr	r3, [r3]
 283 0252 5A68     		ldr	r2, [r3, #4]
 284 0254 07F5CA53 		add	r3, r7, #6464
 285 0258 183B     		subs	r3, r3, #24
 286 025a 5A60     		str	r2, [r3, #4]
  72:.\pathfinder.c ****    uint32_t totalIterationCounter = 0;
 287              		.loc 1 72 0
 288 025c 0023     		movs	r3, #0
 289 025e 07F57352 		add	r2, r7, #15552
 290 0262 02F13402 		add	r2, r2, #52
 291 0266 1360     		str	r3, [r2]
  73:.\pathfinder.c ****    uint32_t nextNodes[DEFAULT_ARRAY_SIZE][2] = {0};
 292              		.loc 1 73 0
 293 0268 07F14003 		add	r3, r7, #64
 294 026c 183B     		subs	r3, r3, #24
 295 026e 1A46     		mov	r2, r3
 296 0270 4FF4C853 		mov	r3, #6400
 297 0274 1046     		mov	r0, r2
 298 0276 0021     		movs	r1, #0
 299 0278 1A46     		mov	r2, r3
 300 027a FFF7FEFF 		bl	memset
  74:.\pathfinder.c ****    //uint32_t nextNodesDirection[DEFAULT_ARRAY_SIZE] = {0};
  75:.\pathfinder.c ****    uint32_t tentativeNode[2] = {0};//x and y coordinate of the next node
 301              		.loc 1 75 0
 302 027e 07F14003 		add	r3, r7, #64
 303 0282 203B     		subs	r3, r3, #32
 304 0284 0022     		movs	r2, #0
 305 0286 1A60     		str	r2, [r3]
 306 0288 0022     		movs	r2, #0
 307 028a 5A60     		str	r2, [r3, #4]
  76:.\pathfinder.c ****    uint32_t unreachable = 0;
 308              		.loc 1 76 0
 309 028c 0023     		movs	r3, #0
 310 028e 07F57352 		add	r2, r7, #15552
 311 0292 02F11402 		add	r2, r2, #20
 312 0296 1360     		str	r3, [r2]
  77:.\pathfinder.c ****    uint32_t corner_penalty = 0;
 313              		.loc 1 77 0
 314 0298 0023     		movs	r3, #0
 315 029a 07F57352 		add	r2, r7, #15552
 316 029e 02F13002 		add	r2, r2, #48
 317 02a2 1360     		str	r3, [r2]
  78:.\pathfinder.c ****    uint32_t counter = 0;
ARM GAS  C:\Users\Logan\AppData\Local\Temp\ccKKo5Vz.s 			page 8


 318              		.loc 1 78 0
 319 02a4 0023     		movs	r3, #0
 320 02a6 07F57352 		add	r2, r7, #15552
 321 02aa 02F12C02 		add	r2, r2, #44
 322 02ae 1360     		str	r3, [r2]
  79:.\pathfinder.c ****    uint16 tmpCost = 0;
 323              		.loc 1 79 0
 324 02b0 0023     		movs	r3, #0
 325 02b2 07F57352 		add	r2, r7, #15552
 326 02b6 02F11202 		add	r2, r2, #18
 327 02ba 1380     		strh	r3, [r2]	@ movhi
  80:.\pathfinder.c ****    uint32_t nextNode[2] = {0, 0};
 328              		.loc 1 80 0
 329 02bc 07F14003 		add	r3, r7, #64
 330 02c0 283B     		subs	r3, r3, #40
 331 02c2 0022     		movs	r2, #0
 332 02c4 1A60     		str	r2, [r3]
 333 02c6 07F14003 		add	r3, r7, #64
 334 02ca 283B     		subs	r3, r3, #40
 335 02cc 0022     		movs	r2, #0
 336 02ce 5A60     		str	r2, [r3, #4]
  81:.\pathfinder.c ****    uint32_t nextNodeIndex = 0;
 337              		.loc 1 81 0
 338 02d0 0023     		movs	r3, #0
 339 02d2 07F57352 		add	r2, r7, #15552
 340 02d6 02F12802 		add	r2, r2, #40
 341 02da 1360     		str	r3, [r2]
  82:.\pathfinder.c ****    uint32_t tmpNextNode[2] = {0};
 342              		.loc 1 82 0
 343 02dc 07F14003 		add	r3, r7, #64
 344 02e0 303B     		subs	r3, r3, #48
 345 02e2 0022     		movs	r2, #0
 346 02e4 1A60     		str	r2, [r3]
 347 02e6 0022     		movs	r2, #0
 348 02e8 5A60     		str	r2, [r3, #4]
  83:.\pathfinder.c ****    uint16 nextNodeCost = 0;
 349              		.loc 1 83 0
 350 02ea 0023     		movs	r3, #0
 351 02ec 07F57352 		add	r2, r7, #15552
 352 02f0 02F12602 		add	r2, r2, #38
 353 02f4 1380     		strh	r3, [r2]	@ movhi
  84:.\pathfinder.c ****    uint32_t hasNext = 1;
 354              		.loc 1 84 0
 355 02f6 0123     		movs	r3, #1
 356 02f8 07F57352 		add	r2, r7, #15552
 357 02fc 02F12002 		add	r2, r2, #32
 358 0300 1360     		str	r3, [r2]
  85:.\pathfinder.c **** 
  86:.\pathfinder.c ****    Nodes[current[Y]][current[X]].tentative_cost = 0;
 359              		.loc 1 86 0
 360 0302 07F5CA53 		add	r3, r7, #6464
 361 0306 183B     		subs	r3, r3, #24
 362 0308 1968     		ldr	r1, [r3]
 363 030a 07F5CA53 		add	r3, r7, #6464
 364 030e 183B     		subs	r3, r3, #24
 365 0310 5868     		ldr	r0, [r3, #4]
 366 0312 07F5CA52 		add	r2, r7, #6464
ARM GAS  C:\Users\Logan\AppData\Local\Temp\ccKKo5Vz.s 			page 9


 367 0316 103A     		subs	r2, r2, #16
 368 0318 0B46     		mov	r3, r1
 369 031a DB00     		lsls	r3, r3, #3
 370 031c 0B44     		add	r3, r3, r1
 371 031e 5B00     		lsls	r3, r3, #1
 372 0320 0B44     		add	r3, r3, r1
 373 0322 0344     		add	r3, r3, r0
 374 0324 5B01     		lsls	r3, r3, #5
 375 0326 1344     		add	r3, r3, r2
 376 0328 1833     		adds	r3, r3, #24
 377 032a 0022     		movs	r2, #0
 378 032c 1A80     		strh	r2, [r3]	@ movhi
  87:.\pathfinder.c ****    Nodes[current[Y]][current[X]].prevNode = &Nodes[current[Y]][current[X]];
 379              		.loc 1 87 0
 380 032e 07F5CA53 		add	r3, r7, #6464
 381 0332 183B     		subs	r3, r3, #24
 382 0334 1968     		ldr	r1, [r3]
 383 0336 07F5CA53 		add	r3, r7, #6464
 384 033a 183B     		subs	r3, r3, #24
 385 033c 5C68     		ldr	r4, [r3, #4]
 386 033e 07F5CA53 		add	r3, r7, #6464
 387 0342 183B     		subs	r3, r3, #24
 388 0344 1868     		ldr	r0, [r3]
 389 0346 07F5CA53 		add	r3, r7, #6464
 390 034a 183B     		subs	r3, r3, #24
 391 034c 5D68     		ldr	r5, [r3, #4]
 392 034e 07F5CA52 		add	r2, r7, #6464
 393 0352 103A     		subs	r2, r2, #16
 394 0354 0346     		mov	r3, r0
 395 0356 DB00     		lsls	r3, r3, #3
 396 0358 0344     		add	r3, r3, r0
 397 035a 5B00     		lsls	r3, r3, #1
 398 035c 0344     		add	r3, r3, r0
 399 035e 2B44     		add	r3, r3, r5
 400 0360 5B01     		lsls	r3, r3, #5
 401 0362 D018     		adds	r0, r2, r3
 402 0364 07F5CA52 		add	r2, r7, #6464
 403 0368 103A     		subs	r2, r2, #16
 404 036a 0B46     		mov	r3, r1
 405 036c DB00     		lsls	r3, r3, #3
 406 036e 0B44     		add	r3, r3, r1
 407 0370 5B00     		lsls	r3, r3, #1
 408 0372 0B44     		add	r3, r3, r1
 409 0374 2344     		add	r3, r3, r4
 410 0376 5B01     		lsls	r3, r3, #5
 411 0378 1344     		add	r3, r3, r2
 412 037a 1033     		adds	r3, r3, #16
 413 037c 5860     		str	r0, [r3, #4]
  88:.\pathfinder.c ****    Nodes[current[Y]][current[X]].direction = robot_direction;
 414              		.loc 1 88 0
 415 037e 07F5CA53 		add	r3, r7, #6464
 416 0382 183B     		subs	r3, r3, #24
 417 0384 1968     		ldr	r1, [r3]
 418 0386 07F5CA53 		add	r3, r7, #6464
 419 038a 183B     		subs	r3, r3, #24
 420 038c 5C68     		ldr	r4, [r3, #4]
 421 038e 3E4B     		ldr	r3, .L26
ARM GAS  C:\Users\Logan\AppData\Local\Temp\ccKKo5Vz.s 			page 10


 422 0390 1868     		ldr	r0, [r3]
 423 0392 07F5CA52 		add	r2, r7, #6464
 424 0396 103A     		subs	r2, r2, #16
 425 0398 0B46     		mov	r3, r1
 426 039a DB00     		lsls	r3, r3, #3
 427 039c 0B44     		add	r3, r3, r1
 428 039e 5B00     		lsls	r3, r3, #1
 429 03a0 0B44     		add	r3, r3, r1
 430 03a2 2344     		add	r3, r3, r4
 431 03a4 5B01     		lsls	r3, r3, #5
 432 03a6 1344     		add	r3, r3, r2
 433 03a8 1833     		adds	r3, r3, #24
 434 03aa 5860     		str	r0, [r3, #4]
  89:.\pathfinder.c **** 
  90:.\pathfinder.c ****    //early exit, run until x and y are equal
  91:.\pathfinder.c ****    while(!((current[Y] == destination[Y]) && (current[X] == destination[X])) && hasNext == 1){
 435              		.loc 1 91 0
 436 03ac A8E2     		b	.L6
 437              	.L20:
 438              	.LBB3:
  92:.\pathfinder.c ****       counter = 1;
 439              		.loc 1 92 0
 440 03ae 0123     		movs	r3, #1
 441 03b0 07F57352 		add	r2, r7, #15552
 442 03b4 02F12C02 		add	r2, r2, #44
 443 03b8 1360     		str	r3, [r2]
  93:.\pathfinder.c ****       Nodes[current[Y]][current[1]].visited = VISITED; // set visitetd to true
 444              		.loc 1 93 0
 445 03ba 07F5CA53 		add	r3, r7, #6464
 446 03be 183B     		subs	r3, r3, #24
 447 03c0 1968     		ldr	r1, [r3]
 448 03c2 07F5CA53 		add	r3, r7, #6464
 449 03c6 183B     		subs	r3, r3, #24
 450 03c8 5868     		ldr	r0, [r3, #4]
 451 03ca 07F5CA52 		add	r2, r7, #6464
 452 03ce 103A     		subs	r2, r2, #16
 453 03d0 0B46     		mov	r3, r1
 454 03d2 DB00     		lsls	r3, r3, #3
 455 03d4 0B44     		add	r3, r3, r1
 456 03d6 5B00     		lsls	r3, r3, #1
 457 03d8 0B44     		add	r3, r3, r1
 458 03da 0344     		add	r3, r3, r0
 459 03dc 5B01     		lsls	r3, r3, #5
 460 03de 1344     		add	r3, r3, r2
 461 03e0 0122     		movs	r2, #1
 462 03e2 5A60     		str	r2, [r3, #4]
  94:.\pathfinder.c ****       //printf("main loop %d | X: %d | Y: %d\n", Nodes[current[0]][current[1]].visited, Nodes[curre
  95:.\pathfinder.c ****       while(counter <= 4){
 463              		.loc 1 95 0
 464 03e4 82E1     		b	.L7
 465              	.L14:
  96:.\pathfinder.c ****          corner_penalty = 0;
 466              		.loc 1 96 0
 467 03e6 0023     		movs	r3, #0
 468 03e8 07F57352 		add	r2, r7, #15552
 469 03ec 02F13002 		add	r2, r2, #48
 470 03f0 1360     		str	r3, [r2]
ARM GAS  C:\Users\Logan\AppData\Local\Temp\ccKKo5Vz.s 			page 11


  97:.\pathfinder.c ****          if(counter == 1){
 471              		.loc 1 97 0
 472 03f2 07F57353 		add	r3, r7, #15552
 473 03f6 03F12C03 		add	r3, r3, #44
 474 03fa 1B68     		ldr	r3, [r3]
 475 03fc 012B     		cmp	r3, #1
 476 03fe 11D1     		bne	.L8
  98:.\pathfinder.c ****             tentativeNode[Y] = current[Y] - 1;
 477              		.loc 1 98 0
 478 0400 07F5CA53 		add	r3, r7, #6464
 479 0404 183B     		subs	r3, r3, #24
 480 0406 1B68     		ldr	r3, [r3]
 481 0408 5A1E     		subs	r2, r3, #1
 482 040a 07F14003 		add	r3, r7, #64
 483 040e 203B     		subs	r3, r3, #32
 484 0410 1A60     		str	r2, [r3]
  99:.\pathfinder.c ****             tentativeNode[X] = current[X];
 485              		.loc 1 99 0
 486 0412 07F5CA53 		add	r3, r7, #6464
 487 0416 183B     		subs	r3, r3, #24
 488 0418 5A68     		ldr	r2, [r3, #4]
 489 041a 07F14003 		add	r3, r7, #64
 490 041e 203B     		subs	r3, r3, #32
 491 0420 5A60     		str	r2, [r3, #4]
 492 0422 4BE0     		b	.L9
 493              	.L8:
 100:.\pathfinder.c ****          }else if(counter == 2){
 494              		.loc 1 100 0
 495 0424 07F57353 		add	r3, r7, #15552
 496 0428 03F12C03 		add	r3, r3, #44
 497 042c 1B68     		ldr	r3, [r3]
 498 042e 022B     		cmp	r3, #2
 499 0430 11D1     		bne	.L10
 101:.\pathfinder.c ****             tentativeNode[Y] = current[Y];
 500              		.loc 1 101 0
 501 0432 07F5CA53 		add	r3, r7, #6464
 502 0436 183B     		subs	r3, r3, #24
 503 0438 1A68     		ldr	r2, [r3]
 504 043a 07F14003 		add	r3, r7, #64
 505 043e 203B     		subs	r3, r3, #32
 506 0440 1A60     		str	r2, [r3]
 102:.\pathfinder.c ****             tentativeNode[X] = current[X] + 1;
 507              		.loc 1 102 0
 508 0442 07F5CA53 		add	r3, r7, #6464
 509 0446 183B     		subs	r3, r3, #24
 510 0448 5B68     		ldr	r3, [r3, #4]
 511 044a 5A1C     		adds	r2, r3, #1
 512 044c 07F14003 		add	r3, r7, #64
 513 0450 203B     		subs	r3, r3, #32
 514 0452 5A60     		str	r2, [r3, #4]
 515 0454 32E0     		b	.L9
 516              	.L10:
 103:.\pathfinder.c ****          }else if(counter == 3){
 517              		.loc 1 103 0
 518 0456 07F57353 		add	r3, r7, #15552
 519 045a 03F12C03 		add	r3, r3, #44
 520 045e 1B68     		ldr	r3, [r3]
ARM GAS  C:\Users\Logan\AppData\Local\Temp\ccKKo5Vz.s 			page 12


 521 0460 032B     		cmp	r3, #3
 522 0462 13D1     		bne	.L11
 104:.\pathfinder.c ****             tentativeNode[Y] = current[Y] + 1;
 523              		.loc 1 104 0
 524 0464 07F5CA53 		add	r3, r7, #6464
 525 0468 183B     		subs	r3, r3, #24
 526 046a 1B68     		ldr	r3, [r3]
 527 046c 5A1C     		adds	r2, r3, #1
 528 046e 07F14003 		add	r3, r7, #64
 529 0472 203B     		subs	r3, r3, #32
 530 0474 1A60     		str	r2, [r3]
 105:.\pathfinder.c ****             tentativeNode[X] = current[X];
 531              		.loc 1 105 0
 532 0476 07F5CA53 		add	r3, r7, #6464
 533 047a 183B     		subs	r3, r3, #24
 534 047c 5A68     		ldr	r2, [r3, #4]
 535 047e 07F14003 		add	r3, r7, #64
 536 0482 203B     		subs	r3, r3, #32
 537 0484 5A60     		str	r2, [r3, #4]
 538 0486 19E0     		b	.L9
 539              	.L27:
 540              		.align	2
 541              	.L26:
 542 0488 00000000 		.word	robot_direction
 543              	.L11:
 106:.\pathfinder.c ****          }else if(counter == 4){
 544              		.loc 1 106 0
 545 048c 07F57353 		add	r3, r7, #15552
 546 0490 03F12C03 		add	r3, r3, #44
 547 0494 1B68     		ldr	r3, [r3]
 548 0496 042B     		cmp	r3, #4
 549 0498 10D1     		bne	.L9
 107:.\pathfinder.c ****             tentativeNode[Y] = current[Y];
 550              		.loc 1 107 0
 551 049a 07F5CA53 		add	r3, r7, #6464
 552 049e 183B     		subs	r3, r3, #24
 553 04a0 1A68     		ldr	r2, [r3]
 554 04a2 07F14003 		add	r3, r7, #64
 555 04a6 203B     		subs	r3, r3, #32
 556 04a8 1A60     		str	r2, [r3]
 108:.\pathfinder.c ****             tentativeNode[X] = current[X] - 1;
 557              		.loc 1 108 0
 558 04aa 07F5CA53 		add	r3, r7, #6464
 559 04ae 183B     		subs	r3, r3, #24
 560 04b0 5B68     		ldr	r3, [r3, #4]
 561 04b2 5A1E     		subs	r2, r3, #1
 562 04b4 07F14003 		add	r3, r7, #64
 563 04b8 203B     		subs	r3, r3, #32
 564 04ba 5A60     		str	r2, [r3, #4]
 565              	.L9:
 109:.\pathfinder.c ****          }
 110:.\pathfinder.c ****          if(counter != robot_direction){
 566              		.loc 1 110 0
 567 04bc 994B     		ldr	r3, .L28
 568 04be 1B68     		ldr	r3, [r3]
 569 04c0 07F57352 		add	r2, r7, #15552
 570 04c4 02F12C02 		add	r2, r2, #44
ARM GAS  C:\Users\Logan\AppData\Local\Temp\ccKKo5Vz.s 			page 13


 571 04c8 1268     		ldr	r2, [r2]
 572 04ca 9A42     		cmp	r2, r3
 573 04cc 05D0     		beq	.L12
 111:.\pathfinder.c ****             corner_penalty = CORNER_PENALTY;
 574              		.loc 1 111 0
 575 04ce 0023     		movs	r3, #0
 576 04d0 07F57352 		add	r2, r7, #15552
 577 04d4 02F13002 		add	r2, r2, #48
 578 04d8 1360     		str	r3, [r2]
 579              	.L12:
 112:.\pathfinder.c ****          }
 113:.\pathfinder.c **** 
 114:.\pathfinder.c ****          if(tentativeNode[Y] >= 0 && tentativeNode[X] >= 0 && tentativeNode[Y] <= Y_SIZE && tentati
 580              		.loc 1 114 0
 581 04da 07F14003 		add	r3, r7, #64
 582 04de 203B     		subs	r3, r3, #32
 583 04e0 1B68     		ldr	r3, [r3]
 584 04e2 0F2B     		cmp	r3, #15
 585 04e4 00F2F780 		bhi	.L13
 586              		.loc 1 114 0 is_stmt 0 discriminator 1
 587 04e8 07F14003 		add	r3, r7, #64
 588 04ec 203B     		subs	r3, r3, #32
 589 04ee 5B68     		ldr	r3, [r3, #4]
 590 04f0 132B     		cmp	r3, #19
 591 04f2 00F2F080 		bhi	.L13
 115:.\pathfinder.c ****             if(Nodes[tentativeNode[Y]][tentativeNode[X]].path == PATH){//check the node is a path
 592              		.loc 1 115 0 is_stmt 1
 593 04f6 07F14003 		add	r3, r7, #64
 594 04fa 203B     		subs	r3, r3, #32
 595 04fc 1968     		ldr	r1, [r3]
 596 04fe 07F14003 		add	r3, r7, #64
 597 0502 203B     		subs	r3, r3, #32
 598 0504 5868     		ldr	r0, [r3, #4]
 599 0506 07F5CA52 		add	r2, r7, #6464
 600 050a 103A     		subs	r2, r2, #16
 601 050c 0B46     		mov	r3, r1
 602 050e DB00     		lsls	r3, r3, #3
 603 0510 0B44     		add	r3, r3, r1
 604 0512 5B00     		lsls	r3, r3, #1
 605 0514 0B44     		add	r3, r3, r1
 606 0516 0344     		add	r3, r3, r0
 607 0518 5B01     		lsls	r3, r3, #5
 608 051a 1344     		add	r3, r3, r2
 609 051c 1B68     		ldr	r3, [r3]
 610 051e 002B     		cmp	r3, #0
 611 0520 40F0D980 		bne	.L13
 116:.\pathfinder.c ****                //printf("3\n", hasNext);
 117:.\pathfinder.c ****                tmpCost = Nodes[current[Y]][current[X]].tentative_cost + Nodes[tentativeNode[Y]][ten
 612              		.loc 1 117 0
 613 0524 07F5CA53 		add	r3, r7, #6464
 614 0528 183B     		subs	r3, r3, #24
 615 052a 1968     		ldr	r1, [r3]
 616 052c 07F5CA53 		add	r3, r7, #6464
 617 0530 183B     		subs	r3, r3, #24
 618 0532 5868     		ldr	r0, [r3, #4]
 619 0534 07F5CA52 		add	r2, r7, #6464
 620 0538 103A     		subs	r2, r2, #16
ARM GAS  C:\Users\Logan\AppData\Local\Temp\ccKKo5Vz.s 			page 14


 621 053a 0B46     		mov	r3, r1
 622 053c DB00     		lsls	r3, r3, #3
 623 053e 0B44     		add	r3, r3, r1
 624 0540 5B00     		lsls	r3, r3, #1
 625 0542 0B44     		add	r3, r3, r1
 626 0544 0344     		add	r3, r3, r0
 627 0546 5B01     		lsls	r3, r3, #5
 628 0548 1344     		add	r3, r3, r2
 629 054a 1833     		adds	r3, r3, #24
 630 054c 1888     		ldrh	r0, [r3]
 631 054e 07F14003 		add	r3, r7, #64
 632 0552 203B     		subs	r3, r3, #32
 633 0554 1968     		ldr	r1, [r3]
 634 0556 07F14003 		add	r3, r7, #64
 635 055a 203B     		subs	r3, r3, #32
 636 055c 5C68     		ldr	r4, [r3, #4]
 637 055e 07F5CA52 		add	r2, r7, #6464
 638 0562 103A     		subs	r2, r2, #16
 639 0564 0B46     		mov	r3, r1
 640 0566 DB00     		lsls	r3, r3, #3
 641 0568 0B44     		add	r3, r3, r1
 642 056a 5B00     		lsls	r3, r3, #1
 643 056c 0B44     		add	r3, r3, r1
 644 056e 2344     		add	r3, r3, r4
 645 0570 5B01     		lsls	r3, r3, #5
 646 0572 1344     		add	r3, r3, r2
 647 0574 0833     		adds	r3, r3, #8
 648 0576 1B88     		ldrh	r3, [r3]
 649 0578 0344     		add	r3, r3, r0
 650 057a 9AB2     		uxth	r2, r3
 651 057c 07F57353 		add	r3, r7, #15552
 652 0580 03F13003 		add	r3, r3, #48
 653 0584 1B68     		ldr	r3, [r3]
 654 0586 9BB2     		uxth	r3, r3
 655 0588 1344     		add	r3, r3, r2
 656 058a 07F57352 		add	r2, r7, #15552
 657 058e 02F11202 		add	r2, r2, #18
 658 0592 1380     		strh	r3, [r2]	@ movhi
 118:.\pathfinder.c ****                if(tmpCost < Nodes[tentativeNode[Y]][tentativeNode[X]].tentative_cost){
 659              		.loc 1 118 0
 660 0594 07F14003 		add	r3, r7, #64
 661 0598 203B     		subs	r3, r3, #32
 662 059a 1968     		ldr	r1, [r3]
 663 059c 07F14003 		add	r3, r7, #64
 664 05a0 203B     		subs	r3, r3, #32
 665 05a2 5868     		ldr	r0, [r3, #4]
 666 05a4 07F5CA52 		add	r2, r7, #6464
 667 05a8 103A     		subs	r2, r2, #16
 668 05aa 0B46     		mov	r3, r1
 669 05ac DB00     		lsls	r3, r3, #3
 670 05ae 0B44     		add	r3, r3, r1
 671 05b0 5B00     		lsls	r3, r3, #1
 672 05b2 0B44     		add	r3, r3, r1
 673 05b4 0344     		add	r3, r3, r0
 674 05b6 5B01     		lsls	r3, r3, #5
 675 05b8 1344     		add	r3, r3, r2
 676 05ba 1833     		adds	r3, r3, #24
ARM GAS  C:\Users\Logan\AppData\Local\Temp\ccKKo5Vz.s 			page 15


 677 05bc 1B88     		ldrh	r3, [r3]
 678 05be 07F57352 		add	r2, r7, #15552
 679 05c2 02F11202 		add	r2, r2, #18
 680 05c6 1288     		ldrh	r2, [r2]
 681 05c8 9A42     		cmp	r2, r3
 682 05ca 80F08480 		bcs	.L13
 119:.\pathfinder.c ****                   //printf("5 %d\n", tmpCost);
 120:.\pathfinder.c ****                   Nodes[tentativeNode[Y]][tentativeNode[X]].tentative_cost = tmpCost;
 683              		.loc 1 120 0
 684 05ce 07F14003 		add	r3, r7, #64
 685 05d2 203B     		subs	r3, r3, #32
 686 05d4 1968     		ldr	r1, [r3]
 687 05d6 07F14003 		add	r3, r7, #64
 688 05da 203B     		subs	r3, r3, #32
 689 05dc 5868     		ldr	r0, [r3, #4]
 690 05de 07F5CA52 		add	r2, r7, #6464
 691 05e2 103A     		subs	r2, r2, #16
 692 05e4 0B46     		mov	r3, r1
 693 05e6 DB00     		lsls	r3, r3, #3
 694 05e8 0B44     		add	r3, r3, r1
 695 05ea 5B00     		lsls	r3, r3, #1
 696 05ec 0B44     		add	r3, r3, r1
 697 05ee 0344     		add	r3, r3, r0
 698 05f0 5B01     		lsls	r3, r3, #5
 699 05f2 1344     		add	r3, r3, r2
 700 05f4 1833     		adds	r3, r3, #24
 701 05f6 07F57352 		add	r2, r7, #15552
 702 05fa 02F11202 		add	r2, r2, #18
 703 05fe 1288     		ldrh	r2, [r2]	@ movhi
 704 0600 1A80     		strh	r2, [r3]	@ movhi
 121:.\pathfinder.c ****                   //printf("6 currentX : %d, currentY : %d\n", current[0], current[1]);
 122:.\pathfinder.c **** 
 123:.\pathfinder.c ****                   //printf("Discovered node at X : %d, Y : %d\n", tentativeNode[0], tentativeNode[1
 124:.\pathfinder.c ****                   Nodes[tentativeNode[Y]][tentativeNode[X]].prevNode = &Nodes[current[Y]][current[1
 705              		.loc 1 124 0
 706 0602 07F14003 		add	r3, r7, #64
 707 0606 203B     		subs	r3, r3, #32
 708 0608 1968     		ldr	r1, [r3]
 709 060a 07F14003 		add	r3, r7, #64
 710 060e 203B     		subs	r3, r3, #32
 711 0610 5C68     		ldr	r4, [r3, #4]
 712 0612 07F5CA53 		add	r3, r7, #6464
 713 0616 183B     		subs	r3, r3, #24
 714 0618 1868     		ldr	r0, [r3]
 715 061a 07F5CA53 		add	r3, r7, #6464
 716 061e 183B     		subs	r3, r3, #24
 717 0620 5D68     		ldr	r5, [r3, #4]
 718 0622 07F5CA52 		add	r2, r7, #6464
 719 0626 103A     		subs	r2, r2, #16
 720 0628 0346     		mov	r3, r0
 721 062a DB00     		lsls	r3, r3, #3
 722 062c 0344     		add	r3, r3, r0
 723 062e 5B00     		lsls	r3, r3, #1
 724 0630 0344     		add	r3, r3, r0
 725 0632 2B44     		add	r3, r3, r5
 726 0634 5B01     		lsls	r3, r3, #5
 727 0636 D018     		adds	r0, r2, r3
ARM GAS  C:\Users\Logan\AppData\Local\Temp\ccKKo5Vz.s 			page 16


 728 0638 07F5CA52 		add	r2, r7, #6464
 729 063c 103A     		subs	r2, r2, #16
 730 063e 0B46     		mov	r3, r1
 731 0640 DB00     		lsls	r3, r3, #3
 732 0642 0B44     		add	r3, r3, r1
 733 0644 5B00     		lsls	r3, r3, #1
 734 0646 0B44     		add	r3, r3, r1
 735 0648 2344     		add	r3, r3, r4
 736 064a 5B01     		lsls	r3, r3, #5
 737 064c 1344     		add	r3, r3, r2
 738 064e 1033     		adds	r3, r3, #16
 739 0650 5860     		str	r0, [r3, #4]
 125:.\pathfinder.c ****                   nextNodes[totalIterationCounter][Y] = tentativeNode[Y];
 740              		.loc 1 125 0
 741 0652 07F14003 		add	r3, r7, #64
 742 0656 203B     		subs	r3, r3, #32
 743 0658 1968     		ldr	r1, [r3]
 744 065a 07F14003 		add	r3, r7, #64
 745 065e 183B     		subs	r3, r3, #24
 746 0660 07F57352 		add	r2, r7, #15552
 747 0664 02F13402 		add	r2, r2, #52
 748 0668 1268     		ldr	r2, [r2]
 749 066a 43F83210 		str	r1, [r3, r2, lsl #3]
 126:.\pathfinder.c ****                   nextNodes[totalIterationCounter][X] = tentativeNode[X];
 750              		.loc 1 126 0
 751 066e 07F14003 		add	r3, r7, #64
 752 0672 203B     		subs	r3, r3, #32
 753 0674 5968     		ldr	r1, [r3, #4]
 754 0676 07F14002 		add	r2, r7, #64
 755 067a 183A     		subs	r2, r2, #24
 756 067c 07F57353 		add	r3, r7, #15552
 757 0680 03F13403 		add	r3, r3, #52
 758 0684 1B68     		ldr	r3, [r3]
 759 0686 DB00     		lsls	r3, r3, #3
 760 0688 1344     		add	r3, r3, r2
 761 068a 5960     		str	r1, [r3, #4]
 127:.\pathfinder.c ****                   Nodes[tentativeNode[Y]][tentativeNode[X]].direction = counter;
 762              		.loc 1 127 0
 763 068c 07F14003 		add	r3, r7, #64
 764 0690 203B     		subs	r3, r3, #32
 765 0692 1968     		ldr	r1, [r3]
 766 0694 07F14003 		add	r3, r7, #64
 767 0698 203B     		subs	r3, r3, #32
 768 069a 5868     		ldr	r0, [r3, #4]
 769 069c 07F5CA52 		add	r2, r7, #6464
 770 06a0 103A     		subs	r2, r2, #16
 771 06a2 0B46     		mov	r3, r1
 772 06a4 DB00     		lsls	r3, r3, #3
 773 06a6 0B44     		add	r3, r3, r1
 774 06a8 5B00     		lsls	r3, r3, #1
 775 06aa 0B44     		add	r3, r3, r1
 776 06ac 0344     		add	r3, r3, r0
 777 06ae 5B01     		lsls	r3, r3, #5
 778 06b0 1344     		add	r3, r3, r2
 779 06b2 1833     		adds	r3, r3, #24
 780 06b4 07F57352 		add	r2, r7, #15552
 781 06b8 02F12C02 		add	r2, r2, #44
ARM GAS  C:\Users\Logan\AppData\Local\Temp\ccKKo5Vz.s 			page 17


 782 06bc 1268     		ldr	r2, [r2]
 783 06be 5A60     		str	r2, [r3, #4]
 128:.\pathfinder.c ****                   //nextNodesDirection[totalIterationCounter] = counter;
 129:.\pathfinder.c ****                   totalIterationCounter = 1 + totalIterationCounter;
 784              		.loc 1 129 0
 785 06c0 07F57353 		add	r3, r7, #15552
 786 06c4 03F13403 		add	r3, r3, #52
 787 06c8 1B68     		ldr	r3, [r3]
 788 06ca 0133     		adds	r3, r3, #1
 789 06cc 07F57352 		add	r2, r7, #15552
 790 06d0 02F13402 		add	r2, r2, #52
 791 06d4 1360     		str	r3, [r2]
 792              	.L13:
 130:.\pathfinder.c ****                }
 131:.\pathfinder.c ****             }
 132:.\pathfinder.c ****          }
 133:.\pathfinder.c ****          counter++;
 793              		.loc 1 133 0
 794 06d6 07F57353 		add	r3, r7, #15552
 795 06da 03F12C03 		add	r3, r3, #44
 796 06de 1B68     		ldr	r3, [r3]
 797 06e0 0133     		adds	r3, r3, #1
 798 06e2 07F57352 		add	r2, r7, #15552
 799 06e6 02F12C02 		add	r2, r2, #44
 800 06ea 1360     		str	r3, [r2]
 801              	.L7:
  95:.\pathfinder.c ****          corner_penalty = 0;
 802              		.loc 1 95 0
 803 06ec 07F57353 		add	r3, r7, #15552
 804 06f0 03F12C03 		add	r3, r3, #44
 805 06f4 1B68     		ldr	r3, [r3]
 806 06f6 042B     		cmp	r3, #4
 807 06f8 7FF675AE 		bls	.L14
 134:.\pathfinder.c ****       }
 135:.\pathfinder.c ****       //set the default cost value so that the for loop will find the lowest unvisited node
 136:.\pathfinder.c ****       nextNodeCost = INF_16;
 808              		.loc 1 136 0
 809 06fc 4FF6FF73 		movw	r3, #65535
 810 0700 07F57352 		add	r2, r7, #15552
 811 0704 02F12602 		add	r2, r2, #38
 812 0708 1380     		strh	r3, [r2]	@ movhi
 137:.\pathfinder.c ****       //find the lowest unvisited node
 138:.\pathfinder.c ****       hasNext = 0;
 813              		.loc 1 138 0
 814 070a 0023     		movs	r3, #0
 815 070c 07F57352 		add	r2, r7, #15552
 816 0710 02F12002 		add	r2, r2, #32
 817 0714 1360     		str	r3, [r2]
 139:.\pathfinder.c **** 
 140:.\pathfinder.c ****       //find the next node to visit
 141:.\pathfinder.c ****       //printf("totalIterationCounter : %d\n", totalIterationCounter);
 142:.\pathfinder.c ****         int i;
 143:.\pathfinder.c ****       for(i = 0; i < totalIterationCounter; i++){
 818              		.loc 1 143 0
 819 0716 0023     		movs	r3, #0
 820 0718 07F57352 		add	r2, r7, #15552
 821 071c 02F11C02 		add	r2, r2, #28
ARM GAS  C:\Users\Logan\AppData\Local\Temp\ccKKo5Vz.s 			page 18


 822 0720 1360     		str	r3, [r2]
 823 0722 ACE0     		b	.L15
 824              	.L29:
 825              		.align	2
 826              	.L28:
 827 0724 00000000 		.word	robot_direction
 828              	.L17:
 144:.\pathfinder.c ****          //printf("i : %d\n", i);
 145:.\pathfinder.c ****          tmpNextNode[Y] = nextNodes[i][Y];
 829              		.loc 1 145 0
 830 0728 07F14003 		add	r3, r7, #64
 831 072c 183B     		subs	r3, r3, #24
 832 072e 07F57352 		add	r2, r7, #15552
 833 0732 02F11C02 		add	r2, r2, #28
 834 0736 1268     		ldr	r2, [r2]
 835 0738 53F83220 		ldr	r2, [r3, r2, lsl #3]
 836 073c 07F14003 		add	r3, r7, #64
 837 0740 303B     		subs	r3, r3, #48
 838 0742 1A60     		str	r2, [r3]
 146:.\pathfinder.c ****          tmpNextNode[X] = nextNodes[i][X];
 839              		.loc 1 146 0
 840 0744 07F14002 		add	r2, r7, #64
 841 0748 183A     		subs	r2, r2, #24
 842 074a 07F57353 		add	r3, r7, #15552
 843 074e 03F11C03 		add	r3, r3, #28
 844 0752 1B68     		ldr	r3, [r3]
 845 0754 DB00     		lsls	r3, r3, #3
 846 0756 1344     		add	r3, r3, r2
 847 0758 5A68     		ldr	r2, [r3, #4]
 848 075a 07F14003 		add	r3, r7, #64
 849 075e 303B     		subs	r3, r3, #48
 850 0760 5A60     		str	r2, [r3, #4]
 147:.\pathfinder.c ****          //printf("tentative_cost : %d\n", Nodes[nextNodes[i][0]][nextNodes[i][1]].tentative_cost);
 148:.\pathfinder.c ****          if(Nodes[nextNodes[i][Y]][nextNodes[i][X]].tentative_cost < nextNodeCost){
 851              		.loc 1 148 0
 852 0762 07F14003 		add	r3, r7, #64
 853 0766 183B     		subs	r3, r3, #24
 854 0768 07F57352 		add	r2, r7, #15552
 855 076c 02F11C02 		add	r2, r2, #28
 856 0770 1268     		ldr	r2, [r2]
 857 0772 53F83210 		ldr	r1, [r3, r2, lsl #3]
 858 0776 07F14002 		add	r2, r7, #64
 859 077a 183A     		subs	r2, r2, #24
 860 077c 07F57353 		add	r3, r7, #15552
 861 0780 03F11C03 		add	r3, r3, #28
 862 0784 1B68     		ldr	r3, [r3]
 863 0786 DB00     		lsls	r3, r3, #3
 864 0788 1344     		add	r3, r3, r2
 865 078a 5868     		ldr	r0, [r3, #4]
 866 078c 07F5CA52 		add	r2, r7, #6464
 867 0790 103A     		subs	r2, r2, #16
 868 0792 0B46     		mov	r3, r1
 869 0794 DB00     		lsls	r3, r3, #3
 870 0796 0B44     		add	r3, r3, r1
 871 0798 5B00     		lsls	r3, r3, #1
 872 079a 0B44     		add	r3, r3, r1
 873 079c 0344     		add	r3, r3, r0
ARM GAS  C:\Users\Logan\AppData\Local\Temp\ccKKo5Vz.s 			page 19


 874 079e 5B01     		lsls	r3, r3, #5
 875 07a0 1344     		add	r3, r3, r2
 876 07a2 1833     		adds	r3, r3, #24
 877 07a4 1B88     		ldrh	r3, [r3]
 878 07a6 07F57352 		add	r2, r7, #15552
 879 07aa 02F12602 		add	r2, r2, #38
 880 07ae 1288     		ldrh	r2, [r2]
 881 07b0 9A42     		cmp	r2, r3
 882 07b2 59D9     		bls	.L16
 149:.\pathfinder.c ****             //printf("1 : %d\n", Nodes[nextNodes[i][0]][nextNodes[i][1]].tentative_cost);
 150:.\pathfinder.c ****             if(Nodes[nextNodes[i][Y]][nextNodes[i][X]].visited == UNVISITED){
 883              		.loc 1 150 0
 884 07b4 07F14003 		add	r3, r7, #64
 885 07b8 183B     		subs	r3, r3, #24
 886 07ba 07F57352 		add	r2, r7, #15552
 887 07be 02F11C02 		add	r2, r2, #28
 888 07c2 1268     		ldr	r2, [r2]
 889 07c4 53F83210 		ldr	r1, [r3, r2, lsl #3]
 890 07c8 07F14002 		add	r2, r7, #64
 891 07cc 183A     		subs	r2, r2, #24
 892 07ce 07F57353 		add	r3, r7, #15552
 893 07d2 03F11C03 		add	r3, r3, #28
 894 07d6 1B68     		ldr	r3, [r3]
 895 07d8 DB00     		lsls	r3, r3, #3
 896 07da 1344     		add	r3, r3, r2
 897 07dc 5868     		ldr	r0, [r3, #4]
 898 07de 07F5CA52 		add	r2, r7, #6464
 899 07e2 103A     		subs	r2, r2, #16
 900 07e4 0B46     		mov	r3, r1
 901 07e6 DB00     		lsls	r3, r3, #3
 902 07e8 0B44     		add	r3, r3, r1
 903 07ea 5B00     		lsls	r3, r3, #1
 904 07ec 0B44     		add	r3, r3, r1
 905 07ee 0344     		add	r3, r3, r0
 906 07f0 5B01     		lsls	r3, r3, #5
 907 07f2 1344     		add	r3, r3, r2
 908 07f4 5B68     		ldr	r3, [r3, #4]
 909 07f6 002B     		cmp	r3, #0
 910 07f8 36D1     		bne	.L16
 151:.\pathfinder.c **** 
 152:.\pathfinder.c ****                //printf("2 : %d\n", Nodes[nextNodes[i][0]][nextNodes[i][1]].visited);
 153:.\pathfinder.c ****                nextNodeCost = Nodes[nextNodes[i][Y]][nextNodes[i][X]].tentative_cost;
 911              		.loc 1 153 0
 912 07fa 07F14003 		add	r3, r7, #64
 913 07fe 183B     		subs	r3, r3, #24
 914 0800 07F57352 		add	r2, r7, #15552
 915 0804 02F11C02 		add	r2, r2, #28
 916 0808 1268     		ldr	r2, [r2]
 917 080a 53F83210 		ldr	r1, [r3, r2, lsl #3]
 918 080e 07F14002 		add	r2, r7, #64
 919 0812 183A     		subs	r2, r2, #24
 920 0814 07F57353 		add	r3, r7, #15552
 921 0818 03F11C03 		add	r3, r3, #28
 922 081c 1B68     		ldr	r3, [r3]
 923 081e DB00     		lsls	r3, r3, #3
 924 0820 1344     		add	r3, r3, r2
 925 0822 5868     		ldr	r0, [r3, #4]
ARM GAS  C:\Users\Logan\AppData\Local\Temp\ccKKo5Vz.s 			page 20


 926 0824 07F5CA52 		add	r2, r7, #6464
 927 0828 103A     		subs	r2, r2, #16
 928 082a 0B46     		mov	r3, r1
 929 082c DB00     		lsls	r3, r3, #3
 930 082e 0B44     		add	r3, r3, r1
 931 0830 5B00     		lsls	r3, r3, #1
 932 0832 0B44     		add	r3, r3, r1
 933 0834 0344     		add	r3, r3, r0
 934 0836 5B01     		lsls	r3, r3, #5
 935 0838 1344     		add	r3, r3, r2
 936 083a 1833     		adds	r3, r3, #24
 937 083c 1B88     		ldrh	r3, [r3]	@ movhi
 938 083e 07F57352 		add	r2, r7, #15552
 939 0842 02F12602 		add	r2, r2, #38
 940 0846 1380     		strh	r3, [r2]	@ movhi
 154:.\pathfinder.c **** 
 155:.\pathfinder.c ****                nextNodeIndex = i;
 941              		.loc 1 155 0
 942 0848 07F57353 		add	r3, r7, #15552
 943 084c 03F11C03 		add	r3, r3, #28
 944 0850 1B68     		ldr	r3, [r3]
 945 0852 07F57352 		add	r2, r7, #15552
 946 0856 02F12802 		add	r2, r2, #40
 947 085a 1360     		str	r3, [r2]
 156:.\pathfinder.c ****                hasNext = 1;
 948              		.loc 1 156 0
 949 085c 0123     		movs	r3, #1
 950 085e 07F57352 		add	r2, r7, #15552
 951 0862 02F12002 		add	r2, r2, #32
 952 0866 1360     		str	r3, [r2]
 953              	.L16:
 143:.\pathfinder.c ****          //printf("i : %d\n", i);
 954              		.loc 1 143 0 discriminator 2
 955 0868 07F57353 		add	r3, r7, #15552
 956 086c 03F11C03 		add	r3, r3, #28
 957 0870 1B68     		ldr	r3, [r3]
 958 0872 0133     		adds	r3, r3, #1
 959 0874 07F57352 		add	r2, r7, #15552
 960 0878 02F11C02 		add	r2, r2, #28
 961 087c 1360     		str	r3, [r2]
 962              	.L15:
 143:.\pathfinder.c ****          //printf("i : %d\n", i);
 963              		.loc 1 143 0 is_stmt 0 discriminator 1
 964 087e 07F57353 		add	r3, r7, #15552
 965 0882 03F11C03 		add	r3, r3, #28
 966 0886 1A68     		ldr	r2, [r3]
 967 0888 07F57353 		add	r3, r7, #15552
 968 088c 03F13403 		add	r3, r3, #52
 969 0890 1B68     		ldr	r3, [r3]
 970 0892 9A42     		cmp	r2, r3
 971 0894 FFF448AF 		bcc	.L17
 157:.\pathfinder.c ****             }
 158:.\pathfinder.c ****          }
 159:.\pathfinder.c ****       }
 160:.\pathfinder.c ****       //printf("has next %d\n", hasNext);
 161:.\pathfinder.c ****       current[Y] = nextNodes[nextNodeIndex][Y];
 972              		.loc 1 161 0 is_stmt 1
ARM GAS  C:\Users\Logan\AppData\Local\Temp\ccKKo5Vz.s 			page 21


 973 0898 07F14003 		add	r3, r7, #64
 974 089c 183B     		subs	r3, r3, #24
 975 089e 07F57352 		add	r2, r7, #15552
 976 08a2 02F12802 		add	r2, r2, #40
 977 08a6 1268     		ldr	r2, [r2]
 978 08a8 53F83220 		ldr	r2, [r3, r2, lsl #3]
 979 08ac 07F5CA53 		add	r3, r7, #6464
 980 08b0 183B     		subs	r3, r3, #24
 981 08b2 1A60     		str	r2, [r3]
 162:.\pathfinder.c ****       current[X] = nextNodes[nextNodeIndex][X];
 982              		.loc 1 162 0
 983 08b4 07F14002 		add	r2, r7, #64
 984 08b8 183A     		subs	r2, r2, #24
 985 08ba 07F57353 		add	r3, r7, #15552
 986 08be 03F12803 		add	r3, r3, #40
 987 08c2 1B68     		ldr	r3, [r3]
 988 08c4 DB00     		lsls	r3, r3, #3
 989 08c6 1344     		add	r3, r3, r2
 990 08c8 5A68     		ldr	r2, [r3, #4]
 991 08ca 07F5CA53 		add	r3, r7, #6464
 992 08ce 183B     		subs	r3, r3, #24
 993 08d0 5A60     		str	r2, [r3, #4]
 163:.\pathfinder.c ****       robot_direction = Nodes[current[Y]][current[X]].direction;
 994              		.loc 1 163 0
 995 08d2 07F5CA53 		add	r3, r7, #6464
 996 08d6 183B     		subs	r3, r3, #24
 997 08d8 1968     		ldr	r1, [r3]
 998 08da 07F5CA53 		add	r3, r7, #6464
 999 08de 183B     		subs	r3, r3, #24
 1000 08e0 5868     		ldr	r0, [r3, #4]
 1001 08e2 07F5CA52 		add	r2, r7, #6464
 1002 08e6 103A     		subs	r2, r2, #16
 1003 08e8 0B46     		mov	r3, r1
 1004 08ea DB00     		lsls	r3, r3, #3
 1005 08ec 0B44     		add	r3, r3, r1
 1006 08ee 5B00     		lsls	r3, r3, #1
 1007 08f0 0B44     		add	r3, r3, r1
 1008 08f2 0344     		add	r3, r3, r0
 1009 08f4 5B01     		lsls	r3, r3, #5
 1010 08f6 1344     		add	r3, r3, r2
 1011 08f8 1833     		adds	r3, r3, #24
 1012 08fa 5B68     		ldr	r3, [r3, #4]
 1013 08fc A04A     		ldr	r2, .L30
 1014 08fe 1360     		str	r3, [r2]
 1015              	.L6:
 1016              	.LBE3:
  91:.\pathfinder.c ****       counter = 1;
 1017              		.loc 1 91 0
 1018 0900 07F5CA53 		add	r3, r7, #6464
 1019 0904 183B     		subs	r3, r3, #24
 1020 0906 1A68     		ldr	r2, [r3]
 1021 0908 07F57453 		add	r3, r7, #15616
 1022 090c 03F11003 		add	r3, r3, #16
 1023 0910 1B68     		ldr	r3, [r3]
 1024 0912 1B68     		ldr	r3, [r3]
 1025 0914 9A42     		cmp	r2, r3
 1026 0916 0CD1     		bne	.L18
ARM GAS  C:\Users\Logan\AppData\Local\Temp\ccKKo5Vz.s 			page 22


  91:.\pathfinder.c ****       counter = 1;
 1027              		.loc 1 91 0 is_stmt 0 discriminator 2
 1028 0918 07F5CA53 		add	r3, r7, #6464
 1029 091c 183B     		subs	r3, r3, #24
 1030 091e 5A68     		ldr	r2, [r3, #4]
 1031 0920 07F57453 		add	r3, r7, #15616
 1032 0924 03F11003 		add	r3, r3, #16
 1033 0928 1B68     		ldr	r3, [r3]
 1034 092a 0433     		adds	r3, r3, #4
 1035 092c 1B68     		ldr	r3, [r3]
 1036 092e 9A42     		cmp	r2, r3
 1037 0930 07D0     		beq	.L19
 1038              	.L18:
  91:.\pathfinder.c ****       counter = 1;
 1039              		.loc 1 91 0 discriminator 3
 1040 0932 07F57353 		add	r3, r7, #15552
 1041 0936 03F12003 		add	r3, r3, #32
 1042 093a 1B68     		ldr	r3, [r3]
 1043 093c 012B     		cmp	r3, #1
 1044 093e 3FF436AD 		beq	.L20
 1045              	.L19:
 164:.\pathfinder.c **** 
 165:.\pathfinder.c ****    }
 166:.\pathfinder.c **** 
 167:.\pathfinder.c ****    counter = 0;
 1046              		.loc 1 167 0 is_stmt 1
 1047 0942 0023     		movs	r3, #0
 1048 0944 07F57352 		add	r2, r7, #15552
 1049 0948 02F12C02 		add	r2, r2, #44
 1050 094c 1360     		str	r3, [r2]
 168:.\pathfinder.c ****    //printf("Node %d | X: %d | Y: %d\n", counter, current[0], current[1]);
 169:.\pathfinder.c ****    if((current[Y] == destination[Y]) && (current[X] == destination[X])){
 1051              		.loc 1 169 0
 1052 094e 07F5CA53 		add	r3, r7, #6464
 1053 0952 183B     		subs	r3, r3, #24
 1054 0954 1A68     		ldr	r2, [r3]
 1055 0956 07F57453 		add	r3, r7, #15616
 1056 095a 03F11003 		add	r3, r3, #16
 1057 095e 1B68     		ldr	r3, [r3]
 1058 0960 1B68     		ldr	r3, [r3]
 1059 0962 9A42     		cmp	r2, r3
 1060 0964 40F00581 		bne	.L21
 1061              		.loc 1 169 0 is_stmt 0 discriminator 1
 1062 0968 07F5CA53 		add	r3, r7, #6464
 1063 096c 183B     		subs	r3, r3, #24
 1064 096e 5A68     		ldr	r2, [r3, #4]
 1065 0970 07F57453 		add	r3, r7, #15616
 1066 0974 03F11003 		add	r3, r3, #16
 1067 0978 1B68     		ldr	r3, [r3]
 1068 097a 0433     		adds	r3, r3, #4
 1069 097c 1B68     		ldr	r3, [r3]
 1070 097e 9A42     		cmp	r2, r3
 1071 0980 40F0F780 		bne	.L21
 1072              	.LBB4:
 170:.\pathfinder.c ****       //printf("1 : startX: %d, startY: %d\n", start[0], start[1]);
 171:.\pathfinder.c ****       node* currentNode = &(Nodes[current[Y]][current[X]]);
 1073              		.loc 1 171 0 is_stmt 1
ARM GAS  C:\Users\Logan\AppData\Local\Temp\ccKKo5Vz.s 			page 23


 1074 0984 07F5CA53 		add	r3, r7, #6464
 1075 0988 183B     		subs	r3, r3, #24
 1076 098a 1968     		ldr	r1, [r3]
 1077 098c 07F5CA53 		add	r3, r7, #6464
 1078 0990 183B     		subs	r3, r3, #24
 1079 0992 5868     		ldr	r0, [r3, #4]
 1080 0994 07F5CA52 		add	r2, r7, #6464
 1081 0998 103A     		subs	r2, r2, #16
 1082 099a 0B46     		mov	r3, r1
 1083 099c DB00     		lsls	r3, r3, #3
 1084 099e 0B44     		add	r3, r3, r1
 1085 09a0 5B00     		lsls	r3, r3, #1
 1086 09a2 0B44     		add	r3, r3, r1
 1087 09a4 0344     		add	r3, r3, r0
 1088 09a6 5B01     		lsls	r3, r3, #5
 1089 09a8 1344     		add	r3, r3, r2
 1090 09aa 07F57352 		add	r2, r7, #15552
 1091 09ae 02F11802 		add	r2, r2, #24
 1092 09b2 1360     		str	r3, [r2]
 172:.\pathfinder.c ****       while(!((currentNode->y == start[Y]) && (currentNode->x == start[X]))){
 1093              		.loc 1 172 0
 1094 09b4 6AE0     		b	.L22
 1095              	.L23:
 173:.\pathfinder.c ****          //printf("1 : %d\n", Nodes[nextNodes[i][0]][nextNodes[i][1]].tentative_cost);
 174:.\pathfinder.c ****          path[counter][Y] = currentNode->y;
 1096              		.loc 1 174 0
 1097 09b6 07F57353 		add	r3, r7, #15552
 1098 09ba 03F12C03 		add	r3, r3, #44
 1099 09be 1A68     		ldr	r2, [r3]
 1100 09c0 1346     		mov	r3, r2
 1101 09c2 5B00     		lsls	r3, r3, #1
 1102 09c4 1344     		add	r3, r3, r2
 1103 09c6 9B00     		lsls	r3, r3, #2
 1104 09c8 1A46     		mov	r2, r3
 1105 09ca 07F14003 		add	r3, r7, #64
 1106 09ce 3C3B     		subs	r3, r3, #60
 1107 09d0 1B68     		ldr	r3, [r3]
 1108 09d2 1344     		add	r3, r3, r2
 1109 09d4 07F57352 		add	r2, r7, #15552
 1110 09d8 02F11802 		add	r2, r2, #24
 1111 09dc 1268     		ldr	r2, [r2]
 1112 09de 1269     		ldr	r2, [r2, #16]
 1113 09e0 1A60     		str	r2, [r3]
 175:.\pathfinder.c ****          path[counter][X] = currentNode->x;
 1114              		.loc 1 175 0
 1115 09e2 07F57353 		add	r3, r7, #15552
 1116 09e6 03F12C03 		add	r3, r3, #44
 1117 09ea 1A68     		ldr	r2, [r3]
 1118 09ec 1346     		mov	r3, r2
 1119 09ee 5B00     		lsls	r3, r3, #1
 1120 09f0 1344     		add	r3, r3, r2
 1121 09f2 9B00     		lsls	r3, r3, #2
 1122 09f4 1A46     		mov	r2, r3
 1123 09f6 07F14003 		add	r3, r7, #64
 1124 09fa 3C3B     		subs	r3, r3, #60
 1125 09fc 1B68     		ldr	r3, [r3]
 1126 09fe 1344     		add	r3, r3, r2
ARM GAS  C:\Users\Logan\AppData\Local\Temp\ccKKo5Vz.s 			page 24


 1127 0a00 07F57352 		add	r2, r7, #15552
 1128 0a04 02F11802 		add	r2, r2, #24
 1129 0a08 1268     		ldr	r2, [r2]
 1130 0a0a D268     		ldr	r2, [r2, #12]
 1131 0a0c 5A60     		str	r2, [r3, #4]
 176:.\pathfinder.c ****          path[counter][DIR] = Nodes[currentNode->y][currentNode->x].direction;
 1132              		.loc 1 176 0
 1133 0a0e 07F57353 		add	r3, r7, #15552
 1134 0a12 03F12C03 		add	r3, r3, #44
 1135 0a16 1A68     		ldr	r2, [r3]
 1136 0a18 1346     		mov	r3, r2
 1137 0a1a 5B00     		lsls	r3, r3, #1
 1138 0a1c 1344     		add	r3, r3, r2
 1139 0a1e 9B00     		lsls	r3, r3, #2
 1140 0a20 1A46     		mov	r2, r3
 1141 0a22 07F14003 		add	r3, r7, #64
 1142 0a26 3C3B     		subs	r3, r3, #60
 1143 0a28 1B68     		ldr	r3, [r3]
 1144 0a2a 9818     		adds	r0, r3, r2
 1145 0a2c 07F57353 		add	r3, r7, #15552
 1146 0a30 03F11803 		add	r3, r3, #24
 1147 0a34 1B68     		ldr	r3, [r3]
 1148 0a36 1969     		ldr	r1, [r3, #16]
 1149 0a38 07F57353 		add	r3, r7, #15552
 1150 0a3c 03F11803 		add	r3, r3, #24
 1151 0a40 1B68     		ldr	r3, [r3]
 1152 0a42 DC68     		ldr	r4, [r3, #12]
 1153 0a44 07F5CA52 		add	r2, r7, #6464
 1154 0a48 103A     		subs	r2, r2, #16
 1155 0a4a 0B46     		mov	r3, r1
 1156 0a4c DB00     		lsls	r3, r3, #3
 1157 0a4e 0B44     		add	r3, r3, r1
 1158 0a50 5B00     		lsls	r3, r3, #1
 1159 0a52 0B44     		add	r3, r3, r1
 1160 0a54 2344     		add	r3, r3, r4
 1161 0a56 5B01     		lsls	r3, r3, #5
 1162 0a58 1344     		add	r3, r3, r2
 1163 0a5a 1833     		adds	r3, r3, #24
 1164 0a5c 5B68     		ldr	r3, [r3, #4]
 1165 0a5e 8360     		str	r3, [r0, #8]
 177:.\pathfinder.c ****          //printf("direction2 %d\n", path[0][DIR]);
 178:.\pathfinder.c ****          currentNode = currentNode->prevNode;
 1166              		.loc 1 178 0
 1167 0a60 07F57353 		add	r3, r7, #15552
 1168 0a64 03F11803 		add	r3, r3, #24
 1169 0a68 1B68     		ldr	r3, [r3]
 1170 0a6a 5B69     		ldr	r3, [r3, #20]
 1171 0a6c 07F57352 		add	r2, r7, #15552
 1172 0a70 02F11802 		add	r2, r2, #24
 1173 0a74 1360     		str	r3, [r2]
 179:.\pathfinder.c **** 
 180:.\pathfinder.c ****          counter++;
 1174              		.loc 1 180 0
 1175 0a76 07F57353 		add	r3, r7, #15552
 1176 0a7a 03F12C03 		add	r3, r3, #44
 1177 0a7e 1B68     		ldr	r3, [r3]
 1178 0a80 0133     		adds	r3, r3, #1
ARM GAS  C:\Users\Logan\AppData\Local\Temp\ccKKo5Vz.s 			page 25


 1179 0a82 07F57352 		add	r2, r7, #15552
 1180 0a86 02F12C02 		add	r2, r2, #44
 1181 0a8a 1360     		str	r3, [r2]
 1182              	.L22:
 172:.\pathfinder.c ****          //printf("1 : %d\n", Nodes[nextNodes[i][0]][nextNodes[i][1]].tentative_cost);
 1183              		.loc 1 172 0
 1184 0a8c 07F57353 		add	r3, r7, #15552
 1185 0a90 03F11803 		add	r3, r3, #24
 1186 0a94 1B68     		ldr	r3, [r3]
 1187 0a96 1A69     		ldr	r2, [r3, #16]
 1188 0a98 3B46     		mov	r3, r7
 1189 0a9a 1B68     		ldr	r3, [r3]
 1190 0a9c 1B68     		ldr	r3, [r3]
 1191 0a9e 9A42     		cmp	r2, r3
 1192 0aa0 89D1     		bne	.L23
 172:.\pathfinder.c ****          //printf("1 : %d\n", Nodes[nextNodes[i][0]][nextNodes[i][1]].tentative_cost);
 1193              		.loc 1 172 0 is_stmt 0 discriminator 1
 1194 0aa2 07F57353 		add	r3, r7, #15552
 1195 0aa6 03F11803 		add	r3, r3, #24
 1196 0aaa 1B68     		ldr	r3, [r3]
 1197 0aac DA68     		ldr	r2, [r3, #12]
 1198 0aae 3B46     		mov	r3, r7
 1199 0ab0 1B68     		ldr	r3, [r3]
 1200 0ab2 0433     		adds	r3, r3, #4
 1201 0ab4 1B68     		ldr	r3, [r3]
 1202 0ab6 9A42     		cmp	r2, r3
 1203 0ab8 7FF47DAF 		bne	.L23
 181:.\pathfinder.c ****       }
 182:.\pathfinder.c ****       path[counter][Y] = currentNode->y;
 1204              		.loc 1 182 0 is_stmt 1
 1205 0abc 07F57353 		add	r3, r7, #15552
 1206 0ac0 03F12C03 		add	r3, r3, #44
 1207 0ac4 1A68     		ldr	r2, [r3]
 1208 0ac6 1346     		mov	r3, r2
 1209 0ac8 5B00     		lsls	r3, r3, #1
 1210 0aca 1344     		add	r3, r3, r2
 1211 0acc 9B00     		lsls	r3, r3, #2
 1212 0ace 1A46     		mov	r2, r3
 1213 0ad0 07F14003 		add	r3, r7, #64
 1214 0ad4 3C3B     		subs	r3, r3, #60
 1215 0ad6 1B68     		ldr	r3, [r3]
 1216 0ad8 1344     		add	r3, r3, r2
 1217 0ada 07F57352 		add	r2, r7, #15552
 1218 0ade 02F11802 		add	r2, r2, #24
 1219 0ae2 1268     		ldr	r2, [r2]
 1220 0ae4 1269     		ldr	r2, [r2, #16]
 1221 0ae6 1A60     		str	r2, [r3]
 183:.\pathfinder.c ****       path[counter][X] = currentNode->x;
 1222              		.loc 1 183 0
 1223 0ae8 07F57353 		add	r3, r7, #15552
 1224 0aec 03F12C03 		add	r3, r3, #44
 1225 0af0 1A68     		ldr	r2, [r3]
 1226 0af2 1346     		mov	r3, r2
 1227 0af4 5B00     		lsls	r3, r3, #1
 1228 0af6 1344     		add	r3, r3, r2
 1229 0af8 9B00     		lsls	r3, r3, #2
 1230 0afa 1A46     		mov	r2, r3
ARM GAS  C:\Users\Logan\AppData\Local\Temp\ccKKo5Vz.s 			page 26


 1231 0afc 07F14003 		add	r3, r7, #64
 1232 0b00 3C3B     		subs	r3, r3, #60
 1233 0b02 1B68     		ldr	r3, [r3]
 1234 0b04 1344     		add	r3, r3, r2
 1235 0b06 07F57352 		add	r2, r7, #15552
 1236 0b0a 02F11802 		add	r2, r2, #24
 1237 0b0e 1268     		ldr	r2, [r2]
 1238 0b10 D268     		ldr	r2, [r2, #12]
 1239 0b12 5A60     		str	r2, [r3, #4]
 184:.\pathfinder.c ****       path[counter][DIR] = Nodes[currentNode->y][currentNode->x].direction;
 1240              		.loc 1 184 0
 1241 0b14 07F57353 		add	r3, r7, #15552
 1242 0b18 03F12C03 		add	r3, r3, #44
 1243 0b1c 1A68     		ldr	r2, [r3]
 1244 0b1e 1346     		mov	r3, r2
 1245 0b20 5B00     		lsls	r3, r3, #1
 1246 0b22 1344     		add	r3, r3, r2
 1247 0b24 9B00     		lsls	r3, r3, #2
 1248 0b26 1A46     		mov	r2, r3
 1249 0b28 07F14003 		add	r3, r7, #64
 1250 0b2c 3C3B     		subs	r3, r3, #60
 1251 0b2e 1B68     		ldr	r3, [r3]
 1252 0b30 9818     		adds	r0, r3, r2
 1253 0b32 07F57353 		add	r3, r7, #15552
 1254 0b36 03F11803 		add	r3, r3, #24
 1255 0b3a 1B68     		ldr	r3, [r3]
 1256 0b3c 1969     		ldr	r1, [r3, #16]
 1257 0b3e 07F57353 		add	r3, r7, #15552
 1258 0b42 03F11803 		add	r3, r3, #24
 1259 0b46 1B68     		ldr	r3, [r3]
 1260 0b48 DC68     		ldr	r4, [r3, #12]
 1261 0b4a 07F5CA52 		add	r2, r7, #6464
 1262 0b4e 103A     		subs	r2, r2, #16
 1263 0b50 0B46     		mov	r3, r1
 1264 0b52 DB00     		lsls	r3, r3, #3
 1265 0b54 0B44     		add	r3, r3, r1
 1266 0b56 5B00     		lsls	r3, r3, #1
 1267 0b58 0B44     		add	r3, r3, r1
 1268 0b5a 2344     		add	r3, r3, r4
 1269 0b5c 5B01     		lsls	r3, r3, #5
 1270 0b5e 1344     		add	r3, r3, r2
 1271 0b60 1833     		adds	r3, r3, #24
 1272 0b62 5B68     		ldr	r3, [r3, #4]
 1273 0b64 8360     		str	r3, [r0, #8]
 185:.\pathfinder.c ****       return counter;
 1274              		.loc 1 185 0
 1275 0b66 07F57353 		add	r3, r7, #15552
 1276 0b6a 03F12C03 		add	r3, r3, #44
 1277 0b6e 1B68     		ldr	r3, [r3]
 1278 0b70 00E0     		b	.L25
 1279              	.L21:
 1280              	.LBE4:
 186:.\pathfinder.c ****    }else{
 187:.\pathfinder.c ****       return 0;
 1281              		.loc 1 187 0
 1282 0b72 0023     		movs	r3, #0
 1283              	.L25:
ARM GAS  C:\Users\Logan\AppData\Local\Temp\ccKKo5Vz.s 			page 27


 188:.\pathfinder.c ****    }
 189:.\pathfinder.c **** 
 190:.\pathfinder.c ****    //return 0;
 191:.\pathfinder.c **** }
 1284              		.loc 1 191 0 discriminator 1
 1285 0b74 1846     		mov	r0, r3
 1286 0b76 07F57457 		add	r7, r7, #15616
 1287              		.cfi_def_cfa_offset 16
 1288 0b7a BD46     		mov	sp, r7
 1289              		.cfi_def_cfa_register 13
 1290              		@ sp needed
 1291 0b7c B0BD     		pop	{r4, r5, r7, pc}
 1292              	.L31:
 1293 0b7e 00BF     		.align	2
 1294              	.L30:
 1295 0b80 00000000 		.word	robot_direction
 1296              		.cfi_endproc
 1297              	.LFE63:
 1298              		.size	djikstras, .-djikstras
 1299              		.section	.text.DepthFirst,"ax",%progbits
 1300              		.align	2
 1301              		.global	DepthFirst
 1302              		.thumb
 1303              		.thumb_func
 1304              		.type	DepthFirst, %function
 1305              	DepthFirst:
 1306              	.LFB64:
 192:.\pathfinder.c **** 
 193:.\pathfinder.c **** 
 194:.\pathfinder.c **** uint32_t DepthFirst(uint32_t map[Y_SIZE][X_SIZE], uint32_t food_list[6][2], uint32_t path[DEFAULT_A
 1307              		.loc 1 194 0
 1308              		.cfi_startproc
 1309              		@ args = 8, pretend = 0, frame = 15616
 1310              		@ frame_needed = 1, uses_anonymous_args = 0
 1311 0000 B0B5     		push	{r4, r5, r7, lr}
 1312              		.cfi_def_cfa_offset 16
 1313              		.cfi_offset 4, -16
 1314              		.cfi_offset 5, -12
 1315              		.cfi_offset 7, -8
 1316              		.cfi_offset 14, -4
 1317 0002 ADF5745D 		sub	sp, sp, #15616
 1318              		.cfi_def_cfa_offset 15632
 1319 0006 00AF     		add	r7, sp, #0
 1320              		.cfi_def_cfa_register 7
 1321 0008 07F14004 		add	r4, r7, #64
 1322 000c 343C     		subs	r4, r4, #52
 1323 000e 2060     		str	r0, [r4]
 1324 0010 07F14000 		add	r0, r7, #64
 1325 0014 3838     		subs	r0, r0, #56
 1326 0016 0160     		str	r1, [r0]
 1327 0018 07F14001 		add	r1, r7, #64
 1328 001c 3C39     		subs	r1, r1, #60
 1329 001e 0A60     		str	r2, [r1]
 1330 0020 3A46     		mov	r2, r7
 1331 0022 1360     		str	r3, [r2]
 195:.\pathfinder.c ****    //printf("Finding path\n");
 196:.\pathfinder.c ****    node Nodes[Y_SIZE][X_SIZE];
ARM GAS  C:\Users\Logan\AppData\Local\Temp\ccKKo5Vz.s 			page 28


 197:.\pathfinder.c ****    //fill up the default information for each node
 198:.\pathfinder.c ****    uint32_t i, j;
 199:.\pathfinder.c ****    for(i = 0; i < Y_SIZE; i++){
 1332              		.loc 1 199 0
 1333 0024 0023     		movs	r3, #0
 1334 0026 07F57352 		add	r2, r7, #15552
 1335 002a 02F13C02 		add	r2, r2, #60
 1336 002e 1360     		str	r3, [r2]
 1337 0030 FDE0     		b	.L33
 1338              	.L36:
 200:.\pathfinder.c ****       for(j = 0; j < X_SIZE; j++){
 1339              		.loc 1 200 0
 1340 0032 0023     		movs	r3, #0
 1341 0034 07F57352 		add	r2, r7, #15552
 1342 0038 02F13802 		add	r2, r2, #56
 1343 003c 1360     		str	r3, [r2]
 1344 003e E3E0     		b	.L34
 1345              	.L35:
 201:.\pathfinder.c ****             Nodes[i][j].path = map[i][j];//map information
 1346              		.loc 1 201 0 discriminator 3
 1347 0040 07F57353 		add	r3, r7, #15552
 1348 0044 03F13C03 		add	r3, r3, #60
 1349 0048 1B68     		ldr	r3, [r3]
 1350 004a 4C22     		movs	r2, #76
 1351 004c 02FB03F2 		mul	r2, r2, r3
 1352 0050 07F14003 		add	r3, r7, #64
 1353 0054 343B     		subs	r3, r3, #52
 1354 0056 1B68     		ldr	r3, [r3]
 1355 0058 1344     		add	r3, r3, r2
 1356 005a 07F57352 		add	r2, r7, #15552
 1357 005e 02F13802 		add	r2, r2, #56
 1358 0062 1268     		ldr	r2, [r2]
 1359 0064 53F82200 		ldr	r0, [r3, r2, lsl #2]
 1360 0068 07F5CA52 		add	r2, r7, #6464
 1361 006c 103A     		subs	r2, r2, #16
 1362 006e 07F57353 		add	r3, r7, #15552
 1363 0072 03F13C03 		add	r3, r3, #60
 1364 0076 1968     		ldr	r1, [r3]
 1365 0078 0B46     		mov	r3, r1
 1366 007a DB00     		lsls	r3, r3, #3
 1367 007c 0B44     		add	r3, r3, r1
 1368 007e 5B00     		lsls	r3, r3, #1
 1369 0080 0B44     		add	r3, r3, r1
 1370 0082 07F57351 		add	r1, r7, #15552
 1371 0086 01F13801 		add	r1, r1, #56
 1372 008a 0968     		ldr	r1, [r1]
 1373 008c 0B44     		add	r3, r3, r1
 1374 008e 5B01     		lsls	r3, r3, #5
 1375 0090 1344     		add	r3, r3, r2
 1376 0092 1860     		str	r0, [r3]
 202:.\pathfinder.c ****             //printf("%d\n", map[i][j]);
 203:.\pathfinder.c ****             Nodes[i][j].visited = UNVISITED; //set all unvisited
 1377              		.loc 1 203 0 discriminator 3
 1378 0094 07F5CA52 		add	r2, r7, #6464
 1379 0098 103A     		subs	r2, r2, #16
 1380 009a 07F57353 		add	r3, r7, #15552
 1381 009e 03F13C03 		add	r3, r3, #60
ARM GAS  C:\Users\Logan\AppData\Local\Temp\ccKKo5Vz.s 			page 29


 1382 00a2 1968     		ldr	r1, [r3]
 1383 00a4 0B46     		mov	r3, r1
 1384 00a6 DB00     		lsls	r3, r3, #3
 1385 00a8 0B44     		add	r3, r3, r1
 1386 00aa 5B00     		lsls	r3, r3, #1
 1387 00ac 0B44     		add	r3, r3, r1
 1388 00ae 07F57351 		add	r1, r7, #15552
 1389 00b2 01F13801 		add	r1, r1, #56
 1390 00b6 0968     		ldr	r1, [r1]
 1391 00b8 0B44     		add	r3, r3, r1
 1392 00ba 5B01     		lsls	r3, r3, #5
 1393 00bc 1344     		add	r3, r3, r2
 1394 00be 0022     		movs	r2, #0
 1395 00c0 5A60     		str	r2, [r3, #4]
 204:.\pathfinder.c ****             Nodes[i][j].cost = DEFAULT_NODE_COST; // seet the cost of going to this node to the def
 1396              		.loc 1 204 0 discriminator 3
 1397 00c2 07F5CA52 		add	r2, r7, #6464
 1398 00c6 103A     		subs	r2, r2, #16
 1399 00c8 07F57353 		add	r3, r7, #15552
 1400 00cc 03F13C03 		add	r3, r3, #60
 1401 00d0 1968     		ldr	r1, [r3]
 1402 00d2 0B46     		mov	r3, r1
 1403 00d4 DB00     		lsls	r3, r3, #3
 1404 00d6 0B44     		add	r3, r3, r1
 1405 00d8 5B00     		lsls	r3, r3, #1
 1406 00da 0B44     		add	r3, r3, r1
 1407 00dc 07F57351 		add	r1, r7, #15552
 1408 00e0 01F13801 		add	r1, r1, #56
 1409 00e4 0968     		ldr	r1, [r1]
 1410 00e6 0B44     		add	r3, r3, r1
 1411 00e8 5B01     		lsls	r3, r3, #5
 1412 00ea 1344     		add	r3, r3, r2
 1413 00ec 0833     		adds	r3, r3, #8
 1414 00ee 0A22     		movs	r2, #10
 1415 00f0 1A80     		strh	r2, [r3]	@ movhi
 205:.\pathfinder.c ****             Nodes[i][j].y = i;
 1416              		.loc 1 205 0 discriminator 3
 1417 00f2 07F5CA52 		add	r2, r7, #6464
 1418 00f6 103A     		subs	r2, r2, #16
 1419 00f8 07F57353 		add	r3, r7, #15552
 1420 00fc 03F13C03 		add	r3, r3, #60
 1421 0100 1968     		ldr	r1, [r3]
 1422 0102 0B46     		mov	r3, r1
 1423 0104 DB00     		lsls	r3, r3, #3
 1424 0106 0B44     		add	r3, r3, r1
 1425 0108 5B00     		lsls	r3, r3, #1
 1426 010a 0B44     		add	r3, r3, r1
 1427 010c 07F57351 		add	r1, r7, #15552
 1428 0110 01F13801 		add	r1, r1, #56
 1429 0114 0968     		ldr	r1, [r1]
 1430 0116 0B44     		add	r3, r3, r1
 1431 0118 5B01     		lsls	r3, r3, #5
 1432 011a 1344     		add	r3, r3, r2
 1433 011c 1033     		adds	r3, r3, #16
 1434 011e 07F57352 		add	r2, r7, #15552
 1435 0122 02F13C02 		add	r2, r2, #60
 1436 0126 1268     		ldr	r2, [r2]
ARM GAS  C:\Users\Logan\AppData\Local\Temp\ccKKo5Vz.s 			page 30


 1437 0128 1A60     		str	r2, [r3]
 206:.\pathfinder.c ****             Nodes[i][j].x = j;
 1438              		.loc 1 206 0 discriminator 3
 1439 012a 07F5CA52 		add	r2, r7, #6464
 1440 012e 103A     		subs	r2, r2, #16
 1441 0130 07F57353 		add	r3, r7, #15552
 1442 0134 03F13C03 		add	r3, r3, #60
 1443 0138 1968     		ldr	r1, [r3]
 1444 013a 0B46     		mov	r3, r1
 1445 013c DB00     		lsls	r3, r3, #3
 1446 013e 0B44     		add	r3, r3, r1
 1447 0140 5B00     		lsls	r3, r3, #1
 1448 0142 0B44     		add	r3, r3, r1
 1449 0144 07F57351 		add	r1, r7, #15552
 1450 0148 01F13801 		add	r1, r1, #56
 1451 014c 0968     		ldr	r1, [r1]
 1452 014e 0B44     		add	r3, r3, r1
 1453 0150 5B01     		lsls	r3, r3, #5
 1454 0152 1344     		add	r3, r3, r2
 1455 0154 0833     		adds	r3, r3, #8
 1456 0156 07F57352 		add	r2, r7, #15552
 1457 015a 02F13802 		add	r2, r2, #56
 1458 015e 1268     		ldr	r2, [r2]
 1459 0160 5A60     		str	r2, [r3, #4]
 207:.\pathfinder.c ****             Nodes[i][j].prevNode = 0;
 1460              		.loc 1 207 0 discriminator 3
 1461 0162 07F5CA52 		add	r2, r7, #6464
 1462 0166 103A     		subs	r2, r2, #16
 1463 0168 07F57353 		add	r3, r7, #15552
 1464 016c 03F13C03 		add	r3, r3, #60
 1465 0170 1968     		ldr	r1, [r3]
 1466 0172 0B46     		mov	r3, r1
 1467 0174 DB00     		lsls	r3, r3, #3
 1468 0176 0B44     		add	r3, r3, r1
 1469 0178 5B00     		lsls	r3, r3, #1
 1470 017a 0B44     		add	r3, r3, r1
 1471 017c 07F57351 		add	r1, r7, #15552
 1472 0180 01F13801 		add	r1, r1, #56
 1473 0184 0968     		ldr	r1, [r1]
 1474 0186 0B44     		add	r3, r3, r1
 1475 0188 5B01     		lsls	r3, r3, #5
 1476 018a 1344     		add	r3, r3, r2
 1477 018c 1033     		adds	r3, r3, #16
 1478 018e 0022     		movs	r2, #0
 1479 0190 5A60     		str	r2, [r3, #4]
 208:.\pathfinder.c ****             Nodes[i][j].tentative_cost = 0;// set the current cost to infinity
 1480              		.loc 1 208 0 discriminator 3
 1481 0192 07F5CA52 		add	r2, r7, #6464
 1482 0196 103A     		subs	r2, r2, #16
 1483 0198 07F57353 		add	r3, r7, #15552
 1484 019c 03F13C03 		add	r3, r3, #60
 1485 01a0 1968     		ldr	r1, [r3]
 1486 01a2 0B46     		mov	r3, r1
 1487 01a4 DB00     		lsls	r3, r3, #3
 1488 01a6 0B44     		add	r3, r3, r1
 1489 01a8 5B00     		lsls	r3, r3, #1
 1490 01aa 0B44     		add	r3, r3, r1
ARM GAS  C:\Users\Logan\AppData\Local\Temp\ccKKo5Vz.s 			page 31


 1491 01ac 07F57351 		add	r1, r7, #15552
 1492 01b0 01F13801 		add	r1, r1, #56
 1493 01b4 0968     		ldr	r1, [r1]
 1494 01b6 0B44     		add	r3, r3, r1
 1495 01b8 5B01     		lsls	r3, r3, #5
 1496 01ba 1344     		add	r3, r3, r2
 1497 01bc 1833     		adds	r3, r3, #24
 1498 01be 0022     		movs	r2, #0
 1499 01c0 1A80     		strh	r2, [r3]	@ movhi
 209:.\pathfinder.c ****             Nodes[i][j].direction = 0;
 1500              		.loc 1 209 0 discriminator 3
 1501 01c2 07F5CA52 		add	r2, r7, #6464
 1502 01c6 103A     		subs	r2, r2, #16
 1503 01c8 07F57353 		add	r3, r7, #15552
 1504 01cc 03F13C03 		add	r3, r3, #60
 1505 01d0 1968     		ldr	r1, [r3]
 1506 01d2 0B46     		mov	r3, r1
 1507 01d4 DB00     		lsls	r3, r3, #3
 1508 01d6 0B44     		add	r3, r3, r1
 1509 01d8 5B00     		lsls	r3, r3, #1
 1510 01da 0B44     		add	r3, r3, r1
 1511 01dc 07F57351 		add	r1, r7, #15552
 1512 01e0 01F13801 		add	r1, r1, #56
 1513 01e4 0968     		ldr	r1, [r1]
 1514 01e6 0B44     		add	r3, r3, r1
 1515 01e8 5B01     		lsls	r3, r3, #5
 1516 01ea 1344     		add	r3, r3, r2
 1517 01ec 1833     		adds	r3, r3, #24
 1518 01ee 0022     		movs	r2, #0
 1519 01f0 5A60     		str	r2, [r3, #4]
 200:.\pathfinder.c ****             Nodes[i][j].path = map[i][j];//map information
 1520              		.loc 1 200 0 discriminator 3
 1521 01f2 07F57353 		add	r3, r7, #15552
 1522 01f6 03F13803 		add	r3, r3, #56
 1523 01fa 1B68     		ldr	r3, [r3]
 1524 01fc 0133     		adds	r3, r3, #1
 1525 01fe 07F57352 		add	r2, r7, #15552
 1526 0202 02F13802 		add	r2, r2, #56
 1527 0206 1360     		str	r3, [r2]
 1528              	.L34:
 200:.\pathfinder.c ****             Nodes[i][j].path = map[i][j];//map information
 1529              		.loc 1 200 0 is_stmt 0 discriminator 1
 1530 0208 07F57353 		add	r3, r7, #15552
 1531 020c 03F13803 		add	r3, r3, #56
 1532 0210 1B68     		ldr	r3, [r3]
 1533 0212 122B     		cmp	r3, #18
 1534 0214 7FF614AF 		bls	.L35
 199:.\pathfinder.c ****       for(j = 0; j < X_SIZE; j++){
 1535              		.loc 1 199 0 is_stmt 1 discriminator 2
 1536 0218 07F57353 		add	r3, r7, #15552
 1537 021c 03F13C03 		add	r3, r3, #60
 1538 0220 1B68     		ldr	r3, [r3]
 1539 0222 0133     		adds	r3, r3, #1
 1540 0224 07F57352 		add	r2, r7, #15552
 1541 0228 02F13C02 		add	r2, r2, #60
 1542 022c 1360     		str	r3, [r2]
 1543              	.L33:
ARM GAS  C:\Users\Logan\AppData\Local\Temp\ccKKo5Vz.s 			page 32


 199:.\pathfinder.c ****       for(j = 0; j < X_SIZE; j++){
 1544              		.loc 1 199 0 is_stmt 0 discriminator 1
 1545 022e 07F57353 		add	r3, r7, #15552
 1546 0232 03F13C03 		add	r3, r3, #60
 1547 0236 1B68     		ldr	r3, [r3]
 1548 0238 0E2B     		cmp	r3, #14
 1549 023a 7FF6FAAE 		bls	.L36
 210:.\pathfinder.c ****       }
 211:.\pathfinder.c ****    }
 212:.\pathfinder.c **** 
 213:.\pathfinder.c **** 
 214:.\pathfinder.c ****    uint32_t current[2];
 215:.\pathfinder.c ****    //memcpy(current, start, sizeof(current));//because nothing works in c the way you want it to
 216:.\pathfinder.c ****    current[Y] = start[Y];
 1550              		.loc 1 216 0 is_stmt 1
 1551 023e 3B46     		mov	r3, r7
 1552 0240 1B68     		ldr	r3, [r3]
 1553 0242 1A68     		ldr	r2, [r3]
 1554 0244 07F5CA53 		add	r3, r7, #6464
 1555 0248 183B     		subs	r3, r3, #24
 1556 024a 1A60     		str	r2, [r3]
 217:.\pathfinder.c ****    current[X] = start[X];
 1557              		.loc 1 217 0
 1558 024c 3B46     		mov	r3, r7
 1559 024e 1B68     		ldr	r3, [r3]
 1560 0250 5A68     		ldr	r2, [r3, #4]
 1561 0252 07F5CA53 		add	r3, r7, #6464
 1562 0256 183B     		subs	r3, r3, #24
 1563 0258 5A60     		str	r2, [r3, #4]
 218:.\pathfinder.c ****    uint32_t totalIterationCounter = 0;
 1564              		.loc 1 218 0
 1565 025a 0023     		movs	r3, #0
 1566 025c 07F57352 		add	r2, r7, #15552
 1567 0260 02F13402 		add	r2, r2, #52
 1568 0264 1360     		str	r3, [r2]
 219:.\pathfinder.c ****    uint32_t nextNodes[DEFAULT_ARRAY_SIZE][2] = {0};
 1569              		.loc 1 219 0
 1570 0266 07F14003 		add	r3, r7, #64
 1571 026a 183B     		subs	r3, r3, #24
 1572 026c 1A46     		mov	r2, r3
 1573 026e 4FF4C853 		mov	r3, #6400
 1574 0272 1046     		mov	r0, r2
 1575 0274 0021     		movs	r1, #0
 1576 0276 1A46     		mov	r2, r3
 1577 0278 FFF7FEFF 		bl	memset
 220:.\pathfinder.c ****    //uint32_t nextNodesDirection[DEFAULT_ARRAY_SIZE] = {0};
 221:.\pathfinder.c ****    uint32_t tentativeNode[2] = {0};//x and y coordinate of the next node
 1578              		.loc 1 221 0
 1579 027c 07F14003 		add	r3, r7, #64
 1580 0280 203B     		subs	r3, r3, #32
 1581 0282 0022     		movs	r2, #0
 1582 0284 1A60     		str	r2, [r3]
 1583 0286 0022     		movs	r2, #0
 1584 0288 5A60     		str	r2, [r3, #4]
 222:.\pathfinder.c ****    uint32_t unreachable = 0;
 1585              		.loc 1 222 0
 1586 028a 0023     		movs	r3, #0
ARM GAS  C:\Users\Logan\AppData\Local\Temp\ccKKo5Vz.s 			page 33


 1587 028c 07F57352 		add	r2, r7, #15552
 1588 0290 02F11402 		add	r2, r2, #20
 1589 0294 1360     		str	r3, [r2]
 223:.\pathfinder.c ****    uint32_t corner_penalty = 0;
 1590              		.loc 1 223 0
 1591 0296 0023     		movs	r3, #0
 1592 0298 07F57352 		add	r2, r7, #15552
 1593 029c 02F13002 		add	r2, r2, #48
 1594 02a0 1360     		str	r3, [r2]
 224:.\pathfinder.c ****    uint32_t counter = 0;
 1595              		.loc 1 224 0
 1596 02a2 0023     		movs	r3, #0
 1597 02a4 07F57352 		add	r2, r7, #15552
 1598 02a8 02F12C02 		add	r2, r2, #44
 1599 02ac 1360     		str	r3, [r2]
 225:.\pathfinder.c ****    uint16 tmpCost = 0;
 1600              		.loc 1 225 0
 1601 02ae 0023     		movs	r3, #0
 1602 02b0 07F57352 		add	r2, r7, #15552
 1603 02b4 02F11202 		add	r2, r2, #18
 1604 02b8 1380     		strh	r3, [r2]	@ movhi
 226:.\pathfinder.c ****    uint32_t nextNode[2] = {0, 0};
 1605              		.loc 1 226 0
 1606 02ba 07F14003 		add	r3, r7, #64
 1607 02be 283B     		subs	r3, r3, #40
 1608 02c0 0022     		movs	r2, #0
 1609 02c2 1A60     		str	r2, [r3]
 1610 02c4 07F14003 		add	r3, r7, #64
 1611 02c8 283B     		subs	r3, r3, #40
 1612 02ca 0022     		movs	r2, #0
 1613 02cc 5A60     		str	r2, [r3, #4]
 227:.\pathfinder.c ****    uint32_t nextNodeIndex = 0;
 1614              		.loc 1 227 0
 1615 02ce 0023     		movs	r3, #0
 1616 02d0 07F57352 		add	r2, r7, #15552
 1617 02d4 02F12802 		add	r2, r2, #40
 1618 02d8 1360     		str	r3, [r2]
 228:.\pathfinder.c ****    uint32_t tmpNextNode[2] = {0};
 1619              		.loc 1 228 0
 1620 02da 07F14003 		add	r3, r7, #64
 1621 02de 303B     		subs	r3, r3, #48
 1622 02e0 0022     		movs	r2, #0
 1623 02e2 1A60     		str	r2, [r3]
 1624 02e4 0022     		movs	r2, #0
 1625 02e6 5A60     		str	r2, [r3, #4]
 229:.\pathfinder.c ****    uint32_t nextNodeCost = 0;
 1626              		.loc 1 229 0
 1627 02e8 0023     		movs	r3, #0
 1628 02ea 07F57352 		add	r2, r7, #15552
 1629 02ee 02F12402 		add	r2, r2, #36
 1630 02f2 1360     		str	r3, [r2]
 230:.\pathfinder.c ****    uint32_t hasNext = 1;
 1631              		.loc 1 230 0
 1632 02f4 0123     		movs	r3, #1
 1633 02f6 07F57352 		add	r2, r7, #15552
 1634 02fa 02F12002 		add	r2, r2, #32
 1635 02fe 1360     		str	r3, [r2]
ARM GAS  C:\Users\Logan\AppData\Local\Temp\ccKKo5Vz.s 			page 34


 231:.\pathfinder.c **** 
 232:.\pathfinder.c ****    //set the initial variables
 233:.\pathfinder.c ****    Nodes[current[Y]][current[X]].tentative_cost = 0;
 1636              		.loc 1 233 0
 1637 0300 07F5CA53 		add	r3, r7, #6464
 1638 0304 183B     		subs	r3, r3, #24
 1639 0306 1968     		ldr	r1, [r3]
 1640 0308 07F5CA53 		add	r3, r7, #6464
 1641 030c 183B     		subs	r3, r3, #24
 1642 030e 5868     		ldr	r0, [r3, #4]
 1643 0310 07F5CA52 		add	r2, r7, #6464
 1644 0314 103A     		subs	r2, r2, #16
 1645 0316 0B46     		mov	r3, r1
 1646 0318 DB00     		lsls	r3, r3, #3
 1647 031a 0B44     		add	r3, r3, r1
 1648 031c 5B00     		lsls	r3, r3, #1
 1649 031e 0B44     		add	r3, r3, r1
 1650 0320 0344     		add	r3, r3, r0
 1651 0322 5B01     		lsls	r3, r3, #5
 1652 0324 1344     		add	r3, r3, r2
 1653 0326 1833     		adds	r3, r3, #24
 1654 0328 0022     		movs	r2, #0
 1655 032a 1A80     		strh	r2, [r3]	@ movhi
 234:.\pathfinder.c ****    Nodes[current[Y]][current[X]].prevNode = &Nodes[current[Y]][current[X]];
 1656              		.loc 1 234 0
 1657 032c 07F5CA53 		add	r3, r7, #6464
 1658 0330 183B     		subs	r3, r3, #24
 1659 0332 1968     		ldr	r1, [r3]
 1660 0334 07F5CA53 		add	r3, r7, #6464
 1661 0338 183B     		subs	r3, r3, #24
 1662 033a 5C68     		ldr	r4, [r3, #4]
 1663 033c 07F5CA53 		add	r3, r7, #6464
 1664 0340 183B     		subs	r3, r3, #24
 1665 0342 1868     		ldr	r0, [r3]
 1666 0344 07F5CA53 		add	r3, r7, #6464
 1667 0348 183B     		subs	r3, r3, #24
 1668 034a 5D68     		ldr	r5, [r3, #4]
 1669 034c 07F5CA52 		add	r2, r7, #6464
 1670 0350 103A     		subs	r2, r2, #16
 1671 0352 0346     		mov	r3, r0
 1672 0354 DB00     		lsls	r3, r3, #3
 1673 0356 0344     		add	r3, r3, r0
 1674 0358 5B00     		lsls	r3, r3, #1
 1675 035a 0344     		add	r3, r3, r0
 1676 035c 2B44     		add	r3, r3, r5
 1677 035e 5B01     		lsls	r3, r3, #5
 1678 0360 D018     		adds	r0, r2, r3
 1679 0362 07F5CA52 		add	r2, r7, #6464
 1680 0366 103A     		subs	r2, r2, #16
 1681 0368 0B46     		mov	r3, r1
 1682 036a DB00     		lsls	r3, r3, #3
 1683 036c 0B44     		add	r3, r3, r1
 1684 036e 5B00     		lsls	r3, r3, #1
 1685 0370 0B44     		add	r3, r3, r1
 1686 0372 2344     		add	r3, r3, r4
 1687 0374 5B01     		lsls	r3, r3, #5
 1688 0376 1344     		add	r3, r3, r2
ARM GAS  C:\Users\Logan\AppData\Local\Temp\ccKKo5Vz.s 			page 35


 1689 0378 1033     		adds	r3, r3, #16
 1690 037a 5860     		str	r0, [r3, #4]
 235:.\pathfinder.c ****    Nodes[current[Y]][current[X]].direction = direction;//TODO: changed
 1691              		.loc 1 235 0
 1692 037c 07F5CA53 		add	r3, r7, #6464
 1693 0380 183B     		subs	r3, r3, #24
 1694 0382 1968     		ldr	r1, [r3]
 1695 0384 07F5CA53 		add	r3, r7, #6464
 1696 0388 183B     		subs	r3, r3, #24
 1697 038a 5868     		ldr	r0, [r3, #4]
 1698 038c 07F5CA52 		add	r2, r7, #6464
 1699 0390 103A     		subs	r2, r2, #16
 1700 0392 0B46     		mov	r3, r1
 1701 0394 DB00     		lsls	r3, r3, #3
 1702 0396 0B44     		add	r3, r3, r1
 1703 0398 5B00     		lsls	r3, r3, #1
 1704 039a 0B44     		add	r3, r3, r1
 1705 039c 0344     		add	r3, r3, r0
 1706 039e 5B01     		lsls	r3, r3, #5
 1707 03a0 1344     		add	r3, r3, r2
 1708 03a2 1833     		adds	r3, r3, #24
 1709 03a4 07F57452 		add	r2, r7, #15616
 1710 03a8 02F11402 		add	r2, r2, #20
 1711 03ac 1268     		ldr	r2, [r2]
 1712 03ae 5A60     		str	r2, [r3, #4]
 236:.\pathfinder.c ****    int path_couter = 0;
 1713              		.loc 1 236 0
 1714 03b0 0023     		movs	r3, #0
 1715 03b2 07F57352 		add	r2, r7, #15552
 1716 03b6 02F11C02 		add	r2, r2, #28
 1717 03ba 1360     		str	r3, [r2]
 237:.\pathfinder.c **** 
 238:.\pathfinder.c ****    //early exit, run until x and y are equal
 239:.\pathfinder.c ****    while(hasNext == 1){
 1718              		.loc 1 239 0
 1719 03bc 02E3     		b	.L37
 1720              	.L49:
 1721              	.LBB5:
 240:.\pathfinder.c ****       counter = 1;
 1722              		.loc 1 240 0
 1723 03be 0123     		movs	r3, #1
 1724 03c0 07F57352 		add	r2, r7, #15552
 1725 03c4 02F12C02 		add	r2, r2, #44
 1726 03c8 1360     		str	r3, [r2]
 241:.\pathfinder.c ****       Nodes[current[Y]][current[1]].visited = VISITED; // set visited to true
 1727              		.loc 1 241 0
 1728 03ca 07F5CA53 		add	r3, r7, #6464
 1729 03ce 183B     		subs	r3, r3, #24
 1730 03d0 1968     		ldr	r1, [r3]
 1731 03d2 07F5CA53 		add	r3, r7, #6464
 1732 03d6 183B     		subs	r3, r3, #24
 1733 03d8 5868     		ldr	r0, [r3, #4]
 1734 03da 07F5CA52 		add	r2, r7, #6464
 1735 03de 103A     		subs	r2, r2, #16
 1736 03e0 0B46     		mov	r3, r1
 1737 03e2 DB00     		lsls	r3, r3, #3
 1738 03e4 0B44     		add	r3, r3, r1
ARM GAS  C:\Users\Logan\AppData\Local\Temp\ccKKo5Vz.s 			page 36


 1739 03e6 5B00     		lsls	r3, r3, #1
 1740 03e8 0B44     		add	r3, r3, r1
 1741 03ea 0344     		add	r3, r3, r0
 1742 03ec 5B01     		lsls	r3, r3, #5
 1743 03ee 1344     		add	r3, r3, r2
 1744 03f0 0122     		movs	r2, #1
 1745 03f2 5A60     		str	r2, [r3, #4]
 242:.\pathfinder.c ****       //printf("main loop %d | X: %d | Y: %d\n", Nodes[current[0]][current[1]].visited, Nodes[curre
 243:.\pathfinder.c ****       while(counter <= 4){
 1746              		.loc 1 243 0
 1747 03f4 83E1     		b	.L38
 1748              	.L45:
 244:.\pathfinder.c ****          corner_penalty = 0;
 1749              		.loc 1 244 0
 1750 03f6 0023     		movs	r3, #0
 1751 03f8 07F57352 		add	r2, r7, #15552
 1752 03fc 02F13002 		add	r2, r2, #48
 1753 0400 1360     		str	r3, [r2]
 245:.\pathfinder.c ****          if(counter == 1){
 1754              		.loc 1 245 0
 1755 0402 07F57353 		add	r3, r7, #15552
 1756 0406 03F12C03 		add	r3, r3, #44
 1757 040a 1B68     		ldr	r3, [r3]
 1758 040c 012B     		cmp	r3, #1
 1759 040e 11D1     		bne	.L39
 246:.\pathfinder.c ****             tentativeNode[Y] = current[Y] - 1;
 1760              		.loc 1 246 0
 1761 0410 07F5CA53 		add	r3, r7, #6464
 1762 0414 183B     		subs	r3, r3, #24
 1763 0416 1B68     		ldr	r3, [r3]
 1764 0418 5A1E     		subs	r2, r3, #1
 1765 041a 07F14003 		add	r3, r7, #64
 1766 041e 203B     		subs	r3, r3, #32
 1767 0420 1A60     		str	r2, [r3]
 247:.\pathfinder.c ****             tentativeNode[X] = current[X];
 1768              		.loc 1 247 0
 1769 0422 07F5CA53 		add	r3, r7, #6464
 1770 0426 183B     		subs	r3, r3, #24
 1771 0428 5A68     		ldr	r2, [r3, #4]
 1772 042a 07F14003 		add	r3, r7, #64
 1773 042e 203B     		subs	r3, r3, #32
 1774 0430 5A60     		str	r2, [r3, #4]
 1775 0432 49E0     		b	.L40
 1776              	.L39:
 248:.\pathfinder.c ****          }else if(counter == 2){
 1777              		.loc 1 248 0
 1778 0434 07F57353 		add	r3, r7, #15552
 1779 0438 03F12C03 		add	r3, r3, #44
 1780 043c 1B68     		ldr	r3, [r3]
 1781 043e 022B     		cmp	r3, #2
 1782 0440 11D1     		bne	.L41
 249:.\pathfinder.c ****             tentativeNode[Y] = current[Y];
 1783              		.loc 1 249 0
 1784 0442 07F5CA53 		add	r3, r7, #6464
 1785 0446 183B     		subs	r3, r3, #24
 1786 0448 1A68     		ldr	r2, [r3]
 1787 044a 07F14003 		add	r3, r7, #64
ARM GAS  C:\Users\Logan\AppData\Local\Temp\ccKKo5Vz.s 			page 37


 1788 044e 203B     		subs	r3, r3, #32
 1789 0450 1A60     		str	r2, [r3]
 250:.\pathfinder.c ****             tentativeNode[X] = current[X] + 1;
 1790              		.loc 1 250 0
 1791 0452 07F5CA53 		add	r3, r7, #6464
 1792 0456 183B     		subs	r3, r3, #24
 1793 0458 5B68     		ldr	r3, [r3, #4]
 1794 045a 5A1C     		adds	r2, r3, #1
 1795 045c 07F14003 		add	r3, r7, #64
 1796 0460 203B     		subs	r3, r3, #32
 1797 0462 5A60     		str	r2, [r3, #4]
 1798 0464 30E0     		b	.L40
 1799              	.L41:
 251:.\pathfinder.c ****          }else if(counter == 3){
 1800              		.loc 1 251 0
 1801 0466 07F57353 		add	r3, r7, #15552
 1802 046a 03F12C03 		add	r3, r3, #44
 1803 046e 1B68     		ldr	r3, [r3]
 1804 0470 032B     		cmp	r3, #3
 1805 0472 11D1     		bne	.L42
 252:.\pathfinder.c ****             tentativeNode[Y] = current[Y] + 1;
 1806              		.loc 1 252 0
 1807 0474 07F5CA53 		add	r3, r7, #6464
 1808 0478 183B     		subs	r3, r3, #24
 1809 047a 1B68     		ldr	r3, [r3]
 1810 047c 5A1C     		adds	r2, r3, #1
 1811 047e 07F14003 		add	r3, r7, #64
 1812 0482 203B     		subs	r3, r3, #32
 1813 0484 1A60     		str	r2, [r3]
 253:.\pathfinder.c ****             tentativeNode[X] = current[X];
 1814              		.loc 1 253 0
 1815 0486 07F5CA53 		add	r3, r7, #6464
 1816 048a 183B     		subs	r3, r3, #24
 1817 048c 5A68     		ldr	r2, [r3, #4]
 1818 048e 07F14003 		add	r3, r7, #64
 1819 0492 203B     		subs	r3, r3, #32
 1820 0494 5A60     		str	r2, [r3, #4]
 1821 0496 17E0     		b	.L40
 1822              	.L42:
 254:.\pathfinder.c ****          }else if(counter == 4){
 1823              		.loc 1 254 0
 1824 0498 07F57353 		add	r3, r7, #15552
 1825 049c 03F12C03 		add	r3, r3, #44
 1826 04a0 1B68     		ldr	r3, [r3]
 1827 04a2 042B     		cmp	r3, #4
 1828 04a4 10D1     		bne	.L40
 255:.\pathfinder.c ****             tentativeNode[Y] = current[Y];
 1829              		.loc 1 255 0
 1830 04a6 07F5CA53 		add	r3, r7, #6464
 1831 04aa 183B     		subs	r3, r3, #24
 1832 04ac 1A68     		ldr	r2, [r3]
 1833 04ae 07F14003 		add	r3, r7, #64
 1834 04b2 203B     		subs	r3, r3, #32
 1835 04b4 1A60     		str	r2, [r3]
 256:.\pathfinder.c ****             tentativeNode[X] = current[X] - 1;
 1836              		.loc 1 256 0
 1837 04b6 07F5CA53 		add	r3, r7, #6464
ARM GAS  C:\Users\Logan\AppData\Local\Temp\ccKKo5Vz.s 			page 38


 1838 04ba 183B     		subs	r3, r3, #24
 1839 04bc 5B68     		ldr	r3, [r3, #4]
 1840 04be 5A1E     		subs	r2, r3, #1
 1841 04c0 07F14003 		add	r3, r7, #64
 1842 04c4 203B     		subs	r3, r3, #32
 1843 04c6 5A60     		str	r2, [r3, #4]
 1844              	.L40:
 257:.\pathfinder.c ****          }
 258:.\pathfinder.c ****          if(counter != direction){
 1845              		.loc 1 258 0
 1846 04c8 07F57353 		add	r3, r7, #15552
 1847 04cc 03F12C03 		add	r3, r3, #44
 1848 04d0 1A68     		ldr	r2, [r3]
 1849 04d2 07F57453 		add	r3, r7, #15616
 1850 04d6 03F11403 		add	r3, r3, #20
 1851 04da 1B68     		ldr	r3, [r3]
 1852 04dc 9A42     		cmp	r2, r3
 1853 04de 05D0     		beq	.L43
 259:.\pathfinder.c ****             corner_penalty = CORNER_PENALTY;
 1854              		.loc 1 259 0
 1855 04e0 0023     		movs	r3, #0
 1856 04e2 07F57352 		add	r2, r7, #15552
 1857 04e6 02F13002 		add	r2, r2, #48
 1858 04ea 1360     		str	r3, [r2]
 1859              	.L43:
 260:.\pathfinder.c ****          }
 261:.\pathfinder.c **** 
 262:.\pathfinder.c ****          if(tentativeNode[Y] >= 0 && tentativeNode[X] >= 0 && tentativeNode[Y] <= Y_SIZE && tentati
 1860              		.loc 1 262 0
 1861 04ec 07F14003 		add	r3, r7, #64
 1862 04f0 203B     		subs	r3, r3, #32
 1863 04f2 1B68     		ldr	r3, [r3]
 1864 04f4 0F2B     		cmp	r3, #15
 1865 04f6 00F2F780 		bhi	.L44
 1866              		.loc 1 262 0 is_stmt 0 discriminator 1
 1867 04fa 07F14003 		add	r3, r7, #64
 1868 04fe 203B     		subs	r3, r3, #32
 1869 0500 5B68     		ldr	r3, [r3, #4]
 1870 0502 132B     		cmp	r3, #19
 1871 0504 00F2F080 		bhi	.L44
 263:.\pathfinder.c ****             if(Nodes[tentativeNode[Y]][tentativeNode[X]].path == PATH){//check the node is a path
 1872              		.loc 1 263 0 is_stmt 1
 1873 0508 07F14003 		add	r3, r7, #64
 1874 050c 203B     		subs	r3, r3, #32
 1875 050e 1968     		ldr	r1, [r3]
 1876 0510 07F14003 		add	r3, r7, #64
 1877 0514 203B     		subs	r3, r3, #32
 1878 0516 5868     		ldr	r0, [r3, #4]
 1879 0518 07F5CA52 		add	r2, r7, #6464
 1880 051c 103A     		subs	r2, r2, #16
 1881 051e 0B46     		mov	r3, r1
 1882 0520 DB00     		lsls	r3, r3, #3
 1883 0522 0B44     		add	r3, r3, r1
 1884 0524 5B00     		lsls	r3, r3, #1
 1885 0526 0B44     		add	r3, r3, r1
 1886 0528 0344     		add	r3, r3, r0
 1887 052a 5B01     		lsls	r3, r3, #5
ARM GAS  C:\Users\Logan\AppData\Local\Temp\ccKKo5Vz.s 			page 39


 1888 052c 1344     		add	r3, r3, r2
 1889 052e 1B68     		ldr	r3, [r3]
 1890 0530 002B     		cmp	r3, #0
 1891 0532 40F0D980 		bne	.L44
 264:.\pathfinder.c ****                //printf("3\n", hasNext);
 265:.\pathfinder.c ****                tmpCost = Nodes[current[Y]][current[X]].tentative_cost + Nodes[tentativeNode[Y]][ten
 1892              		.loc 1 265 0
 1893 0536 07F5CA53 		add	r3, r7, #6464
 1894 053a 183B     		subs	r3, r3, #24
 1895 053c 1968     		ldr	r1, [r3]
 1896 053e 07F5CA53 		add	r3, r7, #6464
 1897 0542 183B     		subs	r3, r3, #24
 1898 0544 5868     		ldr	r0, [r3, #4]
 1899 0546 07F5CA52 		add	r2, r7, #6464
 1900 054a 103A     		subs	r2, r2, #16
 1901 054c 0B46     		mov	r3, r1
 1902 054e DB00     		lsls	r3, r3, #3
 1903 0550 0B44     		add	r3, r3, r1
 1904 0552 5B00     		lsls	r3, r3, #1
 1905 0554 0B44     		add	r3, r3, r1
 1906 0556 0344     		add	r3, r3, r0
 1907 0558 5B01     		lsls	r3, r3, #5
 1908 055a 1344     		add	r3, r3, r2
 1909 055c 1833     		adds	r3, r3, #24
 1910 055e 1888     		ldrh	r0, [r3]
 1911 0560 07F14003 		add	r3, r7, #64
 1912 0564 203B     		subs	r3, r3, #32
 1913 0566 1968     		ldr	r1, [r3]
 1914 0568 07F14003 		add	r3, r7, #64
 1915 056c 203B     		subs	r3, r3, #32
 1916 056e 5C68     		ldr	r4, [r3, #4]
 1917 0570 07F5CA52 		add	r2, r7, #6464
 1918 0574 103A     		subs	r2, r2, #16
 1919 0576 0B46     		mov	r3, r1
 1920 0578 DB00     		lsls	r3, r3, #3
 1921 057a 0B44     		add	r3, r3, r1
 1922 057c 5B00     		lsls	r3, r3, #1
 1923 057e 0B44     		add	r3, r3, r1
 1924 0580 2344     		add	r3, r3, r4
 1925 0582 5B01     		lsls	r3, r3, #5
 1926 0584 1344     		add	r3, r3, r2
 1927 0586 0833     		adds	r3, r3, #8
 1928 0588 1B88     		ldrh	r3, [r3]
 1929 058a 0344     		add	r3, r3, r0
 1930 058c 9AB2     		uxth	r2, r3
 1931 058e 07F57353 		add	r3, r7, #15552
 1932 0592 03F13003 		add	r3, r3, #48
 1933 0596 1B68     		ldr	r3, [r3]
 1934 0598 9BB2     		uxth	r3, r3
 1935 059a 1344     		add	r3, r3, r2
 1936 059c 07F57352 		add	r2, r7, #15552
 1937 05a0 02F11202 		add	r2, r2, #18
 1938 05a4 1380     		strh	r3, [r2]	@ movhi
 266:.\pathfinder.c ****                if(tmpCost > Nodes[tentativeNode[Y]][tentativeNode[X]].tentative_cost){
 1939              		.loc 1 266 0
 1940 05a6 07F14003 		add	r3, r7, #64
 1941 05aa 203B     		subs	r3, r3, #32
ARM GAS  C:\Users\Logan\AppData\Local\Temp\ccKKo5Vz.s 			page 40


 1942 05ac 1968     		ldr	r1, [r3]
 1943 05ae 07F14003 		add	r3, r7, #64
 1944 05b2 203B     		subs	r3, r3, #32
 1945 05b4 5868     		ldr	r0, [r3, #4]
 1946 05b6 07F5CA52 		add	r2, r7, #6464
 1947 05ba 103A     		subs	r2, r2, #16
 1948 05bc 0B46     		mov	r3, r1
 1949 05be DB00     		lsls	r3, r3, #3
 1950 05c0 0B44     		add	r3, r3, r1
 1951 05c2 5B00     		lsls	r3, r3, #1
 1952 05c4 0B44     		add	r3, r3, r1
 1953 05c6 0344     		add	r3, r3, r0
 1954 05c8 5B01     		lsls	r3, r3, #5
 1955 05ca 1344     		add	r3, r3, r2
 1956 05cc 1833     		adds	r3, r3, #24
 1957 05ce 1B88     		ldrh	r3, [r3]
 1958 05d0 07F57352 		add	r2, r7, #15552
 1959 05d4 02F11202 		add	r2, r2, #18
 1960 05d8 1288     		ldrh	r2, [r2]
 1961 05da 9A42     		cmp	r2, r3
 1962 05dc 40F28480 		bls	.L44
 267:.\pathfinder.c ****                   //printf("5 %d\n", tmpCost);
 268:.\pathfinder.c ****                   Nodes[tentativeNode[Y]][tentativeNode[X]].tentative_cost = tmpCost;
 1963              		.loc 1 268 0
 1964 05e0 07F14003 		add	r3, r7, #64
 1965 05e4 203B     		subs	r3, r3, #32
 1966 05e6 1968     		ldr	r1, [r3]
 1967 05e8 07F14003 		add	r3, r7, #64
 1968 05ec 203B     		subs	r3, r3, #32
 1969 05ee 5868     		ldr	r0, [r3, #4]
 1970 05f0 07F5CA52 		add	r2, r7, #6464
 1971 05f4 103A     		subs	r2, r2, #16
 1972 05f6 0B46     		mov	r3, r1
 1973 05f8 DB00     		lsls	r3, r3, #3
 1974 05fa 0B44     		add	r3, r3, r1
 1975 05fc 5B00     		lsls	r3, r3, #1
 1976 05fe 0B44     		add	r3, r3, r1
 1977 0600 0344     		add	r3, r3, r0
 1978 0602 5B01     		lsls	r3, r3, #5
 1979 0604 1344     		add	r3, r3, r2
 1980 0606 1833     		adds	r3, r3, #24
 1981 0608 07F57352 		add	r2, r7, #15552
 1982 060c 02F11202 		add	r2, r2, #18
 1983 0610 1288     		ldrh	r2, [r2]	@ movhi
 1984 0612 1A80     		strh	r2, [r3]	@ movhi
 269:.\pathfinder.c ****                   //printf("6 currentX : %d, currentY : %d\n", current[0], current[1]);
 270:.\pathfinder.c **** 
 271:.\pathfinder.c ****                   //printf("Discovered node at X : %d, Y : %d\n", tentativeNode[0], tentativeNode[1
 272:.\pathfinder.c ****                   Nodes[tentativeNode[Y]][tentativeNode[X]].prevNode = &Nodes[current[Y]][current[1
 1985              		.loc 1 272 0
 1986 0614 07F14003 		add	r3, r7, #64
 1987 0618 203B     		subs	r3, r3, #32
 1988 061a 1968     		ldr	r1, [r3]
 1989 061c 07F14003 		add	r3, r7, #64
 1990 0620 203B     		subs	r3, r3, #32
 1991 0622 5C68     		ldr	r4, [r3, #4]
 1992 0624 07F5CA53 		add	r3, r7, #6464
ARM GAS  C:\Users\Logan\AppData\Local\Temp\ccKKo5Vz.s 			page 41


 1993 0628 183B     		subs	r3, r3, #24
 1994 062a 1868     		ldr	r0, [r3]
 1995 062c 07F5CA53 		add	r3, r7, #6464
 1996 0630 183B     		subs	r3, r3, #24
 1997 0632 5D68     		ldr	r5, [r3, #4]
 1998 0634 07F5CA52 		add	r2, r7, #6464
 1999 0638 103A     		subs	r2, r2, #16
 2000 063a 0346     		mov	r3, r0
 2001 063c DB00     		lsls	r3, r3, #3
 2002 063e 0344     		add	r3, r3, r0
 2003 0640 5B00     		lsls	r3, r3, #1
 2004 0642 0344     		add	r3, r3, r0
 2005 0644 2B44     		add	r3, r3, r5
 2006 0646 5B01     		lsls	r3, r3, #5
 2007 0648 D018     		adds	r0, r2, r3
 2008 064a 07F5CA52 		add	r2, r7, #6464
 2009 064e 103A     		subs	r2, r2, #16
 2010 0650 0B46     		mov	r3, r1
 2011 0652 DB00     		lsls	r3, r3, #3
 2012 0654 0B44     		add	r3, r3, r1
 2013 0656 5B00     		lsls	r3, r3, #1
 2014 0658 0B44     		add	r3, r3, r1
 2015 065a 2344     		add	r3, r3, r4
 2016 065c 5B01     		lsls	r3, r3, #5
 2017 065e 1344     		add	r3, r3, r2
 2018 0660 1033     		adds	r3, r3, #16
 2019 0662 5860     		str	r0, [r3, #4]
 273:.\pathfinder.c ****                   nextNodes[totalIterationCounter][Y] = tentativeNode[Y];
 2020              		.loc 1 273 0
 2021 0664 07F14003 		add	r3, r7, #64
 2022 0668 203B     		subs	r3, r3, #32
 2023 066a 1968     		ldr	r1, [r3]
 2024 066c 07F14003 		add	r3, r7, #64
 2025 0670 183B     		subs	r3, r3, #24
 2026 0672 07F57352 		add	r2, r7, #15552
 2027 0676 02F13402 		add	r2, r2, #52
 2028 067a 1268     		ldr	r2, [r2]
 2029 067c 43F83210 		str	r1, [r3, r2, lsl #3]
 274:.\pathfinder.c ****                   nextNodes[totalIterationCounter][X] = tentativeNode[X];
 2030              		.loc 1 274 0
 2031 0680 07F14003 		add	r3, r7, #64
 2032 0684 203B     		subs	r3, r3, #32
 2033 0686 5968     		ldr	r1, [r3, #4]
 2034 0688 07F14002 		add	r2, r7, #64
 2035 068c 183A     		subs	r2, r2, #24
 2036 068e 07F57353 		add	r3, r7, #15552
 2037 0692 03F13403 		add	r3, r3, #52
 2038 0696 1B68     		ldr	r3, [r3]
 2039 0698 DB00     		lsls	r3, r3, #3
 2040 069a 1344     		add	r3, r3, r2
 2041 069c 5960     		str	r1, [r3, #4]
 275:.\pathfinder.c ****                   Nodes[tentativeNode[Y]][tentativeNode[X]].direction = counter;
 2042              		.loc 1 275 0
 2043 069e 07F14003 		add	r3, r7, #64
 2044 06a2 203B     		subs	r3, r3, #32
 2045 06a4 1968     		ldr	r1, [r3]
 2046 06a6 07F14003 		add	r3, r7, #64
ARM GAS  C:\Users\Logan\AppData\Local\Temp\ccKKo5Vz.s 			page 42


 2047 06aa 203B     		subs	r3, r3, #32
 2048 06ac 5868     		ldr	r0, [r3, #4]
 2049 06ae 07F5CA52 		add	r2, r7, #6464
 2050 06b2 103A     		subs	r2, r2, #16
 2051 06b4 0B46     		mov	r3, r1
 2052 06b6 DB00     		lsls	r3, r3, #3
 2053 06b8 0B44     		add	r3, r3, r1
 2054 06ba 5B00     		lsls	r3, r3, #1
 2055 06bc 0B44     		add	r3, r3, r1
 2056 06be 0344     		add	r3, r3, r0
 2057 06c0 5B01     		lsls	r3, r3, #5
 2058 06c2 1344     		add	r3, r3, r2
 2059 06c4 1833     		adds	r3, r3, #24
 2060 06c6 07F57352 		add	r2, r7, #15552
 2061 06ca 02F12C02 		add	r2, r2, #44
 2062 06ce 1268     		ldr	r2, [r2]
 2063 06d0 5A60     		str	r2, [r3, #4]
 276:.\pathfinder.c ****                   //nextNodesDirection[totalIterationCounter] = counter;
 277:.\pathfinder.c ****                   totalIterationCounter = 1 + totalIterationCounter;
 2064              		.loc 1 277 0
 2065 06d2 07F57353 		add	r3, r7, #15552
 2066 06d6 03F13403 		add	r3, r3, #52
 2067 06da 1B68     		ldr	r3, [r3]
 2068 06dc 0133     		adds	r3, r3, #1
 2069 06de 07F57352 		add	r2, r7, #15552
 2070 06e2 02F13402 		add	r2, r2, #52
 2071 06e6 1360     		str	r3, [r2]
 2072              	.L44:
 278:.\pathfinder.c ****                }
 279:.\pathfinder.c ****             }
 280:.\pathfinder.c ****          }
 281:.\pathfinder.c ****          counter++;
 2073              		.loc 1 281 0
 2074 06e8 07F57353 		add	r3, r7, #15552
 2075 06ec 03F12C03 		add	r3, r3, #44
 2076 06f0 1B68     		ldr	r3, [r3]
 2077 06f2 0133     		adds	r3, r3, #1
 2078 06f4 07F57352 		add	r2, r7, #15552
 2079 06f8 02F12C02 		add	r2, r2, #44
 2080 06fc 1360     		str	r3, [r2]
 2081              	.L38:
 243:.\pathfinder.c ****          corner_penalty = 0;
 2082              		.loc 1 243 0
 2083 06fe 07F57353 		add	r3, r7, #15552
 2084 0702 03F12C03 		add	r3, r3, #44
 2085 0706 1B68     		ldr	r3, [r3]
 2086 0708 042B     		cmp	r3, #4
 2087 070a 7FF674AE 		bls	.L45
 282:.\pathfinder.c ****       }
 283:.\pathfinder.c ****       //set the default cost value so that the for loop will find the lowest unvisited node
 284:.\pathfinder.c ****       nextNodeCost = 0;
 2088              		.loc 1 284 0
 2089 070e 0023     		movs	r3, #0
 2090 0710 07F57352 		add	r2, r7, #15552
 2091 0714 02F12402 		add	r2, r2, #36
 2092 0718 1360     		str	r3, [r2]
 285:.\pathfinder.c ****       //find the lowest unvisited node
ARM GAS  C:\Users\Logan\AppData\Local\Temp\ccKKo5Vz.s 			page 43


 286:.\pathfinder.c ****       hasNext = 0;
 2093              		.loc 1 286 0
 2094 071a 0023     		movs	r3, #0
 2095 071c 07F57352 		add	r2, r7, #15552
 2096 0720 02F12002 		add	r2, r2, #32
 2097 0724 1360     		str	r3, [r2]
 287:.\pathfinder.c **** 
 288:.\pathfinder.c ****       //find the next node to visit
 289:.\pathfinder.c ****       //printf("totalIterationCounter : %d\n", totalIterationCounter);
 290:.\pathfinder.c ****         int i;
 291:.\pathfinder.c ****       for(i = 0; i < totalIterationCounter; i++){
 2098              		.loc 1 291 0
 2099 0726 0023     		movs	r3, #0
 2100 0728 07F57352 		add	r2, r7, #15552
 2101 072c 02F11802 		add	r2, r2, #24
 2102 0730 1360     		str	r3, [r2]
 2103 0732 ABE0     		b	.L46
 2104              	.L48:
 292:.\pathfinder.c ****          //printf("i : %d\n", i);
 293:.\pathfinder.c ****          tmpNextNode[Y] = nextNodes[i][Y];
 2105              		.loc 1 293 0
 2106 0734 07F14003 		add	r3, r7, #64
 2107 0738 183B     		subs	r3, r3, #24
 2108 073a 07F57352 		add	r2, r7, #15552
 2109 073e 02F11802 		add	r2, r2, #24
 2110 0742 1268     		ldr	r2, [r2]
 2111 0744 53F83220 		ldr	r2, [r3, r2, lsl #3]
 2112 0748 07F14003 		add	r3, r7, #64
 2113 074c 303B     		subs	r3, r3, #48
 2114 074e 1A60     		str	r2, [r3]
 294:.\pathfinder.c ****          tmpNextNode[X] = nextNodes[i][X];
 2115              		.loc 1 294 0
 2116 0750 07F14002 		add	r2, r7, #64
 2117 0754 183A     		subs	r2, r2, #24
 2118 0756 07F57353 		add	r3, r7, #15552
 2119 075a 03F11803 		add	r3, r3, #24
 2120 075e 1B68     		ldr	r3, [r3]
 2121 0760 DB00     		lsls	r3, r3, #3
 2122 0762 1344     		add	r3, r3, r2
 2123 0764 5A68     		ldr	r2, [r3, #4]
 2124 0766 07F14003 		add	r3, r7, #64
 2125 076a 303B     		subs	r3, r3, #48
 2126 076c 5A60     		str	r2, [r3, #4]
 295:.\pathfinder.c ****          //printf("tentative_cost : %d\n", Nodes[nextNodes[i][0]][nextNodes[i][1]].tentative_cost);
 296:.\pathfinder.c ****          if(Nodes[nextNodes[i][Y]][nextNodes[i][X]].tentative_cost > nextNodeCost){
 2127              		.loc 1 296 0
 2128 076e 07F14003 		add	r3, r7, #64
 2129 0772 183B     		subs	r3, r3, #24
 2130 0774 07F57352 		add	r2, r7, #15552
 2131 0778 02F11802 		add	r2, r2, #24
 2132 077c 1268     		ldr	r2, [r2]
 2133 077e 53F83210 		ldr	r1, [r3, r2, lsl #3]
 2134 0782 07F14002 		add	r2, r7, #64
 2135 0786 183A     		subs	r2, r2, #24
 2136 0788 07F57353 		add	r3, r7, #15552
 2137 078c 03F11803 		add	r3, r3, #24
 2138 0790 1B68     		ldr	r3, [r3]
ARM GAS  C:\Users\Logan\AppData\Local\Temp\ccKKo5Vz.s 			page 44


 2139 0792 DB00     		lsls	r3, r3, #3
 2140 0794 1344     		add	r3, r3, r2
 2141 0796 5868     		ldr	r0, [r3, #4]
 2142 0798 07F5CA52 		add	r2, r7, #6464
 2143 079c 103A     		subs	r2, r2, #16
 2144 079e 0B46     		mov	r3, r1
 2145 07a0 DB00     		lsls	r3, r3, #3
 2146 07a2 0B44     		add	r3, r3, r1
 2147 07a4 5B00     		lsls	r3, r3, #1
 2148 07a6 0B44     		add	r3, r3, r1
 2149 07a8 0344     		add	r3, r3, r0
 2150 07aa 5B01     		lsls	r3, r3, #5
 2151 07ac 1344     		add	r3, r3, r2
 2152 07ae 1833     		adds	r3, r3, #24
 2153 07b0 1B88     		ldrh	r3, [r3]
 2154 07b2 1A46     		mov	r2, r3
 2155 07b4 07F57353 		add	r3, r7, #15552
 2156 07b8 03F12403 		add	r3, r3, #36
 2157 07bc 1B68     		ldr	r3, [r3]
 2158 07be 9A42     		cmp	r2, r3
 2159 07c0 59D9     		bls	.L47
 297:.\pathfinder.c ****             //printf("1 : %d\n", Nodes[nextNodes[i][0]][nextNodes[i][1]].tentative_cost);
 298:.\pathfinder.c ****             if(Nodes[nextNodes[i][Y]][nextNodes[i][X]].visited == UNVISITED){
 2160              		.loc 1 298 0
 2161 07c2 07F14003 		add	r3, r7, #64
 2162 07c6 183B     		subs	r3, r3, #24
 2163 07c8 07F57352 		add	r2, r7, #15552
 2164 07cc 02F11802 		add	r2, r2, #24
 2165 07d0 1268     		ldr	r2, [r2]
 2166 07d2 53F83210 		ldr	r1, [r3, r2, lsl #3]
 2167 07d6 07F14002 		add	r2, r7, #64
 2168 07da 183A     		subs	r2, r2, #24
 2169 07dc 07F57353 		add	r3, r7, #15552
 2170 07e0 03F11803 		add	r3, r3, #24
 2171 07e4 1B68     		ldr	r3, [r3]
 2172 07e6 DB00     		lsls	r3, r3, #3
 2173 07e8 1344     		add	r3, r3, r2
 2174 07ea 5868     		ldr	r0, [r3, #4]
 2175 07ec 07F5CA52 		add	r2, r7, #6464
 2176 07f0 103A     		subs	r2, r2, #16
 2177 07f2 0B46     		mov	r3, r1
 2178 07f4 DB00     		lsls	r3, r3, #3
 2179 07f6 0B44     		add	r3, r3, r1
 2180 07f8 5B00     		lsls	r3, r3, #1
 2181 07fa 0B44     		add	r3, r3, r1
 2182 07fc 0344     		add	r3, r3, r0
 2183 07fe 5B01     		lsls	r3, r3, #5
 2184 0800 1344     		add	r3, r3, r2
 2185 0802 5B68     		ldr	r3, [r3, #4]
 2186 0804 002B     		cmp	r3, #0
 2187 0806 36D1     		bne	.L47
 299:.\pathfinder.c **** 
 300:.\pathfinder.c **** 
 301:.\pathfinder.c ****                //printf("2 : %d\n", Nodes[nextNodes[i][0]][nextNodes[i][1]].visited);
 302:.\pathfinder.c ****                nextNodeCost = Nodes[nextNodes[i][Y]][nextNodes[i][X]].tentative_cost;
 2188              		.loc 1 302 0
 2189 0808 07F14003 		add	r3, r7, #64
ARM GAS  C:\Users\Logan\AppData\Local\Temp\ccKKo5Vz.s 			page 45


 2190 080c 183B     		subs	r3, r3, #24
 2191 080e 07F57352 		add	r2, r7, #15552
 2192 0812 02F11802 		add	r2, r2, #24
 2193 0816 1268     		ldr	r2, [r2]
 2194 0818 53F83210 		ldr	r1, [r3, r2, lsl #3]
 2195 081c 07F14002 		add	r2, r7, #64
 2196 0820 183A     		subs	r2, r2, #24
 2197 0822 07F57353 		add	r3, r7, #15552
 2198 0826 03F11803 		add	r3, r3, #24
 2199 082a 1B68     		ldr	r3, [r3]
 2200 082c DB00     		lsls	r3, r3, #3
 2201 082e 1344     		add	r3, r3, r2
 2202 0830 5868     		ldr	r0, [r3, #4]
 2203 0832 07F5CA52 		add	r2, r7, #6464
 2204 0836 103A     		subs	r2, r2, #16
 2205 0838 0B46     		mov	r3, r1
 2206 083a DB00     		lsls	r3, r3, #3
 2207 083c 0B44     		add	r3, r3, r1
 2208 083e 5B00     		lsls	r3, r3, #1
 2209 0840 0B44     		add	r3, r3, r1
 2210 0842 0344     		add	r3, r3, r0
 2211 0844 5B01     		lsls	r3, r3, #5
 2212 0846 1344     		add	r3, r3, r2
 2213 0848 1833     		adds	r3, r3, #24
 2214 084a 1B88     		ldrh	r3, [r3]
 2215 084c 07F57352 		add	r2, r7, #15552
 2216 0850 02F12402 		add	r2, r2, #36
 2217 0854 1360     		str	r3, [r2]
 303:.\pathfinder.c **** 
 304:.\pathfinder.c ****                nextNodeIndex = i;
 2218              		.loc 1 304 0
 2219 0856 07F57353 		add	r3, r7, #15552
 2220 085a 03F11803 		add	r3, r3, #24
 2221 085e 1B68     		ldr	r3, [r3]
 2222 0860 07F57352 		add	r2, r7, #15552
 2223 0864 02F12802 		add	r2, r2, #40
 2224 0868 1360     		str	r3, [r2]
 305:.\pathfinder.c ****                hasNext = 1;
 2225              		.loc 1 305 0
 2226 086a 0123     		movs	r3, #1
 2227 086c 07F57352 		add	r2, r7, #15552
 2228 0870 02F12002 		add	r2, r2, #32
 2229 0874 1360     		str	r3, [r2]
 2230              	.L47:
 291:.\pathfinder.c ****          //printf("i : %d\n", i);
 2231              		.loc 1 291 0 discriminator 2
 2232 0876 07F57353 		add	r3, r7, #15552
 2233 087a 03F11803 		add	r3, r3, #24
 2234 087e 1B68     		ldr	r3, [r3]
 2235 0880 0133     		adds	r3, r3, #1
 2236 0882 07F57352 		add	r2, r7, #15552
 2237 0886 02F11802 		add	r2, r2, #24
 2238 088a 1360     		str	r3, [r2]
 2239              	.L46:
 291:.\pathfinder.c ****          //printf("i : %d\n", i);
 2240              		.loc 1 291 0 is_stmt 0 discriminator 1
 2241 088c 07F57353 		add	r3, r7, #15552
ARM GAS  C:\Users\Logan\AppData\Local\Temp\ccKKo5Vz.s 			page 46


 2242 0890 03F11803 		add	r3, r3, #24
 2243 0894 1A68     		ldr	r2, [r3]
 2244 0896 07F57353 		add	r3, r7, #15552
 2245 089a 03F13403 		add	r3, r3, #52
 2246 089e 1B68     		ldr	r3, [r3]
 2247 08a0 9A42     		cmp	r2, r3
 2248 08a2 FFF447AF 		bcc	.L48
 306:.\pathfinder.c ****             }
 307:.\pathfinder.c ****          }
 308:.\pathfinder.c ****       }
 309:.\pathfinder.c ****       //printf("has next %d\n", hasNext);
 310:.\pathfinder.c ****       current[Y] = nextNodes[nextNodeIndex][Y];
 2249              		.loc 1 310 0 is_stmt 1
 2250 08a6 07F14003 		add	r3, r7, #64
 2251 08aa 183B     		subs	r3, r3, #24
 2252 08ac 07F57352 		add	r2, r7, #15552
 2253 08b0 02F12802 		add	r2, r2, #40
 2254 08b4 1268     		ldr	r2, [r2]
 2255 08b6 53F83220 		ldr	r2, [r3, r2, lsl #3]
 2256 08ba 07F5CA53 		add	r3, r7, #6464
 2257 08be 183B     		subs	r3, r3, #24
 2258 08c0 1A60     		str	r2, [r3]
 311:.\pathfinder.c ****       current[X] = nextNodes[nextNodeIndex][X];
 2259              		.loc 1 311 0
 2260 08c2 07F14002 		add	r2, r7, #64
 2261 08c6 183A     		subs	r2, r2, #24
 2262 08c8 07F57353 		add	r3, r7, #15552
 2263 08cc 03F12803 		add	r3, r3, #40
 2264 08d0 1B68     		ldr	r3, [r3]
 2265 08d2 DB00     		lsls	r3, r3, #3
 2266 08d4 1344     		add	r3, r3, r2
 2267 08d6 5A68     		ldr	r2, [r3, #4]
 2268 08d8 07F5CA53 		add	r3, r7, #6464
 2269 08dc 183B     		subs	r3, r3, #24
 2270 08de 5A60     		str	r2, [r3, #4]
 312:.\pathfinder.c ****       direction = Nodes[current[Y]][current[X]].direction;
 2271              		.loc 1 312 0
 2272 08e0 07F5CA53 		add	r3, r7, #6464
 2273 08e4 183B     		subs	r3, r3, #24
 2274 08e6 1968     		ldr	r1, [r3]
 2275 08e8 07F5CA53 		add	r3, r7, #6464
 2276 08ec 183B     		subs	r3, r3, #24
 2277 08ee 5868     		ldr	r0, [r3, #4]
 2278 08f0 07F5CA52 		add	r2, r7, #6464
 2279 08f4 103A     		subs	r2, r2, #16
 2280 08f6 0B46     		mov	r3, r1
 2281 08f8 DB00     		lsls	r3, r3, #3
 2282 08fa 0B44     		add	r3, r3, r1
 2283 08fc 5B00     		lsls	r3, r3, #1
 2284 08fe 0B44     		add	r3, r3, r1
 2285 0900 0344     		add	r3, r3, r0
 2286 0902 5B01     		lsls	r3, r3, #5
 2287 0904 1344     		add	r3, r3, r2
 2288 0906 1833     		adds	r3, r3, #24
 2289 0908 5B68     		ldr	r3, [r3, #4]
 2290 090a 07F57452 		add	r2, r7, #15616
 2291 090e 02F11402 		add	r2, r2, #20
ARM GAS  C:\Users\Logan\AppData\Local\Temp\ccKKo5Vz.s 			page 47


 2292 0912 1360     		str	r3, [r2]
 313:.\pathfinder.c **** 
 314:.\pathfinder.c ****       //printf("%d %d;", current[Y] + 1, current[X] + 1);
 315:.\pathfinder.c **** 
 316:.\pathfinder.c ****       //generate the path
 317:.\pathfinder.c ****       path[path_couter][Y] = current[Y];
 2293              		.loc 1 317 0
 2294 0914 07F57353 		add	r3, r7, #15552
 2295 0918 03F11C03 		add	r3, r3, #28
 2296 091c 1A68     		ldr	r2, [r3]
 2297 091e 1346     		mov	r3, r2
 2298 0920 5B00     		lsls	r3, r3, #1
 2299 0922 1344     		add	r3, r3, r2
 2300 0924 9B00     		lsls	r3, r3, #2
 2301 0926 1A46     		mov	r2, r3
 2302 0928 07F14003 		add	r3, r7, #64
 2303 092c 3C3B     		subs	r3, r3, #60
 2304 092e 1B68     		ldr	r3, [r3]
 2305 0930 1A44     		add	r2, r2, r3
 2306 0932 07F5CA53 		add	r3, r7, #6464
 2307 0936 183B     		subs	r3, r3, #24
 2308 0938 1B68     		ldr	r3, [r3]
 2309 093a 1360     		str	r3, [r2]
 318:.\pathfinder.c ****       path[path_couter][X] = current[X];
 2310              		.loc 1 318 0
 2311 093c 07F57353 		add	r3, r7, #15552
 2312 0940 03F11C03 		add	r3, r3, #28
 2313 0944 1A68     		ldr	r2, [r3]
 2314 0946 1346     		mov	r3, r2
 2315 0948 5B00     		lsls	r3, r3, #1
 2316 094a 1344     		add	r3, r3, r2
 2317 094c 9B00     		lsls	r3, r3, #2
 2318 094e 1A46     		mov	r2, r3
 2319 0950 07F14003 		add	r3, r7, #64
 2320 0954 3C3B     		subs	r3, r3, #60
 2321 0956 1B68     		ldr	r3, [r3]
 2322 0958 1A44     		add	r2, r2, r3
 2323 095a 07F5CA53 		add	r3, r7, #6464
 2324 095e 183B     		subs	r3, r3, #24
 2325 0960 5B68     		ldr	r3, [r3, #4]
 2326 0962 5360     		str	r3, [r2, #4]
 319:.\pathfinder.c ****       path[path_couter][DIR] = Nodes[current[Y]][current[X]].direction;
 2327              		.loc 1 319 0
 2328 0964 07F57353 		add	r3, r7, #15552
 2329 0968 03F11C03 		add	r3, r3, #28
 2330 096c 1A68     		ldr	r2, [r3]
 2331 096e 1346     		mov	r3, r2
 2332 0970 5B00     		lsls	r3, r3, #1
 2333 0972 1344     		add	r3, r3, r2
 2334 0974 9B00     		lsls	r3, r3, #2
 2335 0976 1A46     		mov	r2, r3
 2336 0978 07F14003 		add	r3, r7, #64
 2337 097c 3C3B     		subs	r3, r3, #60
 2338 097e 1B68     		ldr	r3, [r3]
 2339 0980 9818     		adds	r0, r3, r2
 2340 0982 07F5CA53 		add	r3, r7, #6464
 2341 0986 183B     		subs	r3, r3, #24
ARM GAS  C:\Users\Logan\AppData\Local\Temp\ccKKo5Vz.s 			page 48


 2342 0988 1968     		ldr	r1, [r3]
 2343 098a 07F5CA53 		add	r3, r7, #6464
 2344 098e 183B     		subs	r3, r3, #24
 2345 0990 5C68     		ldr	r4, [r3, #4]
 2346 0992 07F5CA52 		add	r2, r7, #6464
 2347 0996 103A     		subs	r2, r2, #16
 2348 0998 0B46     		mov	r3, r1
 2349 099a DB00     		lsls	r3, r3, #3
 2350 099c 0B44     		add	r3, r3, r1
 2351 099e 5B00     		lsls	r3, r3, #1
 2352 09a0 0B44     		add	r3, r3, r1
 2353 09a2 2344     		add	r3, r3, r4
 2354 09a4 5B01     		lsls	r3, r3, #5
 2355 09a6 1344     		add	r3, r3, r2
 2356 09a8 1833     		adds	r3, r3, #24
 2357 09aa 5B68     		ldr	r3, [r3, #4]
 2358 09ac 8360     		str	r3, [r0, #8]
 320:.\pathfinder.c ****       path_couter++;
 2359              		.loc 1 320 0
 2360 09ae 07F57353 		add	r3, r7, #15552
 2361 09b2 03F11C03 		add	r3, r3, #28
 2362 09b6 1B68     		ldr	r3, [r3]
 2363 09b8 0133     		adds	r3, r3, #1
 2364 09ba 07F57352 		add	r2, r7, #15552
 2365 09be 02F11C02 		add	r2, r2, #28
 2366 09c2 1360     		str	r3, [r2]
 2367              	.L37:
 2368              	.LBE5:
 239:.\pathfinder.c ****       counter = 1;
 2369              		.loc 1 239 0
 2370 09c4 07F57353 		add	r3, r7, #15552
 2371 09c8 03F12003 		add	r3, r3, #32
 2372 09cc 1B68     		ldr	r3, [r3]
 2373 09ce 012B     		cmp	r3, #1
 2374 09d0 3FF4F5AC 		beq	.L49
 321:.\pathfinder.c ****       //printf("tent_cost : %d || NODE(%d, %d) || visited: %d\n", Nodes[current[Y]][current[X]].ten
 322:.\pathfinder.c **** 
 323:.\pathfinder.c ****    }
 324:.\pathfinder.c **** 
 325:.\pathfinder.c ****    return path_couter;
 2375              		.loc 1 325 0
 2376 09d4 07F57353 		add	r3, r7, #15552
 2377 09d8 03F11C03 		add	r3, r3, #28
 2378 09dc 1B68     		ldr	r3, [r3]
 326:.\pathfinder.c **** }
 2379              		.loc 1 326 0
 2380 09de 1846     		mov	r0, r3
 2381 09e0 07F57457 		add	r7, r7, #15616
 2382              		.cfi_def_cfa_offset 16
 2383 09e4 BD46     		mov	sp, r7
 2384              		.cfi_def_cfa_register 13
 2385              		@ sp needed
 2386 09e6 B0BD     		pop	{r4, r5, r7, pc}
 2387              		.cfi_endproc
 2388              	.LFE64:
 2389              		.size	DepthFirst, .-DepthFirst
 2390              		.section	.text.generateEntireMapDirections,"ax",%progbits
ARM GAS  C:\Users\Logan\AppData\Local\Temp\ccKKo5Vz.s 			page 49


 2391              		.align	2
 2392              		.global	generateEntireMapDirections
 2393              		.thumb
 2394              		.thumb_func
 2395              		.type	generateEntireMapDirections, %function
 2396              	generateEntireMapDirections:
 2397              	.LFB65:
 327:.\pathfinder.c **** 
 328:.\pathfinder.c **** uint32_t generateEntireMapDirections(){
 2398              		.loc 1 328 0
 2399              		.cfi_startproc
 2400              		@ args = 0, pretend = 0, frame = 9648
 2401              		@ frame_needed = 1, uses_anonymous_args = 0
 2402 0000 90B5     		push	{r4, r7, lr}
 2403              		.cfi_def_cfa_offset 12
 2404              		.cfi_offset 4, -12
 2405              		.cfi_offset 7, -8
 2406              		.cfi_offset 14, -4
 2407 0002 ADF5165D 		sub	sp, sp, #9600
 2408              		.cfi_def_cfa_offset 9612
 2409 0006 8FB0     		sub	sp, sp, #60
 2410              		.cfi_def_cfa_offset 9672
 2411 0008 02AF     		add	r7, sp, #8
 2412              		.cfi_def_cfa 7, 9664
 329:.\pathfinder.c ****     int end = DepthFirst(map, food_list, path, start, destination, robot_direction);
 2413              		.loc 1 329 0
 2414 000a 184B     		ldr	r3, .L154
 2415 000c 1B68     		ldr	r3, [r3]
 2416 000e 184A     		ldr	r2, .L154+4
 2417 0010 0092     		str	r2, [sp]
 2418 0012 0193     		str	r3, [sp, #4]
 2419 0014 1748     		ldr	r0, .L154+8
 2420 0016 1849     		ldr	r1, .L154+12
 2421 0018 184A     		ldr	r2, .L154+16
 2422 001a 194B     		ldr	r3, .L154+20
 2423 001c FFF7FEFF 		bl	DepthFirst
 2424 0020 0346     		mov	r3, r0
 2425 0022 07F51652 		add	r2, r7, #9600
 2426 0026 02F11402 		add	r2, r2, #20
 2427 002a 1360     		str	r3, [r2]
 330:.\pathfinder.c **** 
 331:.\pathfinder.c ****    /*
 332:.\pathfinder.c ****    printf("hello\n");
 333:.\pathfinder.c ****    printf("end value : %d\n", end);
 334:.\pathfinder.c ****    printf("[");
 335:.\pathfinder.c ****    for(int i = 0; i <end; i++){
 336:.\pathfinder.c ****       printf("%d  %d;", path[i][Y] + 1, path[i][X] + 1);
 337:.\pathfinder.c ****    }
 338:.\pathfinder.c ****    printf("]\n");
 339:.\pathfinder.c ****    */
 340:.\pathfinder.c **** 
 341:.\pathfinder.c ****     int prev_intersection = 0;
 2428              		.loc 1 341 0
 2429 002c 0023     		movs	r3, #0
 2430 002e 07F51652 		add	r2, r7, #9600
 2431 0032 02F12C02 		add	r2, r2, #44
 2432 0036 1360     		str	r3, [r2]
ARM GAS  C:\Users\Logan\AppData\Local\Temp\ccKKo5Vz.s 			page 50


 342:.\pathfinder.c ****     uint16 counter = 0;
 2433              		.loc 1 342 0
 2434 0038 0023     		movs	r3, #0
 2435 003a 07F51652 		add	r2, r7, #9600
 2436 003e 02F12A02 		add	r2, r2, #42
 2437 0042 1380     		strh	r3, [r2]	@ movhi
 343:.\pathfinder.c ****     int tmpCounter = 0;
 2438              		.loc 1 343 0
 2439 0044 0023     		movs	r3, #0
 2440 0046 07F51652 		add	r2, r7, #9600
 2441 004a 02F12402 		add	r2, r2, #36
 2442 004e 1360     		str	r3, [r2]
 344:.\pathfinder.c ****     int inter_prev_intersection = 0;
 2443              		.loc 1 344 0
 2444 0050 0023     		movs	r3, #0
 2445 0052 07F51652 		add	r2, r7, #9600
 2446 0056 02F12002 		add	r2, r2, #32
 2447 005a 1360     		str	r3, [r2]
 345:.\pathfinder.c ****    //printf("here\n");
 346:.\pathfinder.c ****    //start from the end since that's the way the path has been stored in the the array
 347:.\pathfinder.c ****    //U/D stands for up down intersection L/R stands for left right internsection
 348:.\pathfinder.c ****     int i;
 349:.\pathfinder.c ****    for(i = 0; i < end; i++){
 2448              		.loc 1 349 0
 2449 005c 0023     		movs	r3, #0
 2450 005e 07F51652 		add	r2, r7, #9600
 2451 0062 02F11C02 		add	r2, r2, #28
 2452 0066 1360     		str	r3, [r2]
 2453 0068 01F057BF 		b	.L52
 2454              	.L155:
 2455              		.align	2
 2456              	.L154:
 2457 006c 00000000 		.word	robot_direction
 2458 0070 00000000 		.word	destination
 2459 0074 00000000 		.word	map
 2460 0078 00000000 		.word	food_list
 2461 007c 00000000 		.word	path
 2462 0080 00000000 		.word	start
 2463              	.L152:
 350:.\pathfinder.c ****       //printf("%d %d;", path[i][Y] + 1, path[i][X] + 1);
 351:.\pathfinder.c ****       //if next direction is not possible from current direction then find the inter path (down, up
 352:.\pathfinder.c ****       if(!((path[i + 1][Y] == path[i][Y] + 1 && path[i + 1][X] == path[i][X]) || (path[i + 1][Y] ==
 2464              		.loc 1 352 0
 2465 0084 07F51653 		add	r3, r7, #9600
 2466 0088 03F11C03 		add	r3, r3, #28
 2467 008c 1B68     		ldr	r3, [r3]
 2468 008e 5A1C     		adds	r2, r3, #1
 2469 0090 C949     		ldr	r1, .L156
 2470 0092 1346     		mov	r3, r2
 2471 0094 5B00     		lsls	r3, r3, #1
 2472 0096 1344     		add	r3, r3, r2
 2473 0098 9B00     		lsls	r3, r3, #2
 2474 009a 0B44     		add	r3, r3, r1
 2475 009c 1968     		ldr	r1, [r3]
 2476 009e C648     		ldr	r0, .L156
 2477 00a0 07F51653 		add	r3, r7, #9600
 2478 00a4 03F11C03 		add	r3, r3, #28
ARM GAS  C:\Users\Logan\AppData\Local\Temp\ccKKo5Vz.s 			page 51


 2479 00a8 1A68     		ldr	r2, [r3]
 2480 00aa 1346     		mov	r3, r2
 2481 00ac 5B00     		lsls	r3, r3, #1
 2482 00ae 1344     		add	r3, r3, r2
 2483 00b0 9B00     		lsls	r3, r3, #2
 2484 00b2 0344     		add	r3, r3, r0
 2485 00b4 1B68     		ldr	r3, [r3]
 2486 00b6 0133     		adds	r3, r3, #1
 2487 00b8 9942     		cmp	r1, r3
 2488 00ba 1DD1     		bne	.L53
 2489              		.loc 1 352 0 is_stmt 0 discriminator 2
 2490 00bc 07F51653 		add	r3, r7, #9600
 2491 00c0 03F11C03 		add	r3, r3, #28
 2492 00c4 1B68     		ldr	r3, [r3]
 2493 00c6 5A1C     		adds	r2, r3, #1
 2494 00c8 BB49     		ldr	r1, .L156
 2495 00ca 1346     		mov	r3, r2
 2496 00cc 5B00     		lsls	r3, r3, #1
 2497 00ce 1344     		add	r3, r3, r2
 2498 00d0 9B00     		lsls	r3, r3, #2
 2499 00d2 0B44     		add	r3, r3, r1
 2500 00d4 0433     		adds	r3, r3, #4
 2501 00d6 1968     		ldr	r1, [r3]
 2502 00d8 B748     		ldr	r0, .L156
 2503 00da 07F51653 		add	r3, r7, #9600
 2504 00de 03F11C03 		add	r3, r3, #28
 2505 00e2 1A68     		ldr	r2, [r3]
 2506 00e4 1346     		mov	r3, r2
 2507 00e6 5B00     		lsls	r3, r3, #1
 2508 00e8 1344     		add	r3, r3, r2
 2509 00ea 9B00     		lsls	r3, r3, #2
 2510 00ec 0344     		add	r3, r3, r0
 2511 00ee 0433     		adds	r3, r3, #4
 2512 00f0 1B68     		ldr	r3, [r3]
 2513 00f2 9942     		cmp	r1, r3
 2514 00f4 01F0FA81 		beq	.L54
 2515              	.L53:
 2516              		.loc 1 352 0 discriminator 3
 2517 00f8 07F51653 		add	r3, r7, #9600
 2518 00fc 03F11C03 		add	r3, r3, #28
 2519 0100 1B68     		ldr	r3, [r3]
 2520 0102 5A1C     		adds	r2, r3, #1
 2521 0104 AC49     		ldr	r1, .L156
 2522 0106 1346     		mov	r3, r2
 2523 0108 5B00     		lsls	r3, r3, #1
 2524 010a 1344     		add	r3, r3, r2
 2525 010c 9B00     		lsls	r3, r3, #2
 2526 010e 0B44     		add	r3, r3, r1
 2527 0110 1968     		ldr	r1, [r3]
 2528 0112 A948     		ldr	r0, .L156
 2529 0114 07F51653 		add	r3, r7, #9600
 2530 0118 03F11C03 		add	r3, r3, #28
 2531 011c 1A68     		ldr	r2, [r3]
 2532 011e 1346     		mov	r3, r2
 2533 0120 5B00     		lsls	r3, r3, #1
 2534 0122 1344     		add	r3, r3, r2
 2535 0124 9B00     		lsls	r3, r3, #2
ARM GAS  C:\Users\Logan\AppData\Local\Temp\ccKKo5Vz.s 			page 52


 2536 0126 0344     		add	r3, r3, r0
 2537 0128 1B68     		ldr	r3, [r3]
 2538 012a 013B     		subs	r3, r3, #1
 2539 012c 9942     		cmp	r1, r3
 2540 012e 1DD1     		bne	.L55
 2541              		.loc 1 352 0 discriminator 5
 2542 0130 07F51653 		add	r3, r7, #9600
 2543 0134 03F11C03 		add	r3, r3, #28
 2544 0138 1B68     		ldr	r3, [r3]
 2545 013a 5A1C     		adds	r2, r3, #1
 2546 013c 9E49     		ldr	r1, .L156
 2547 013e 1346     		mov	r3, r2
 2548 0140 5B00     		lsls	r3, r3, #1
 2549 0142 1344     		add	r3, r3, r2
 2550 0144 9B00     		lsls	r3, r3, #2
 2551 0146 0B44     		add	r3, r3, r1
 2552 0148 0433     		adds	r3, r3, #4
 2553 014a 1968     		ldr	r1, [r3]
 2554 014c 9A48     		ldr	r0, .L156
 2555 014e 07F51653 		add	r3, r7, #9600
 2556 0152 03F11C03 		add	r3, r3, #28
 2557 0156 1A68     		ldr	r2, [r3]
 2558 0158 1346     		mov	r3, r2
 2559 015a 5B00     		lsls	r3, r3, #1
 2560 015c 1344     		add	r3, r3, r2
 2561 015e 9B00     		lsls	r3, r3, #2
 2562 0160 0344     		add	r3, r3, r0
 2563 0162 0433     		adds	r3, r3, #4
 2564 0164 1B68     		ldr	r3, [r3]
 2565 0166 9942     		cmp	r1, r3
 2566 0168 01F0C081 		beq	.L54
 2567              	.L55:
 2568              		.loc 1 352 0 discriminator 6
 2569 016c 07F51653 		add	r3, r7, #9600
 2570 0170 03F11C03 		add	r3, r3, #28
 2571 0174 1B68     		ldr	r3, [r3]
 2572 0176 5A1C     		adds	r2, r3, #1
 2573 0178 8F49     		ldr	r1, .L156
 2574 017a 1346     		mov	r3, r2
 2575 017c 5B00     		lsls	r3, r3, #1
 2576 017e 1344     		add	r3, r3, r2
 2577 0180 9B00     		lsls	r3, r3, #2
 2578 0182 0B44     		add	r3, r3, r1
 2579 0184 0433     		adds	r3, r3, #4
 2580 0186 1968     		ldr	r1, [r3]
 2581 0188 8B48     		ldr	r0, .L156
 2582 018a 07F51653 		add	r3, r7, #9600
 2583 018e 03F11C03 		add	r3, r3, #28
 2584 0192 1A68     		ldr	r2, [r3]
 2585 0194 1346     		mov	r3, r2
 2586 0196 5B00     		lsls	r3, r3, #1
 2587 0198 1344     		add	r3, r3, r2
 2588 019a 9B00     		lsls	r3, r3, #2
 2589 019c 0344     		add	r3, r3, r0
 2590 019e 0433     		adds	r3, r3, #4
 2591 01a0 1B68     		ldr	r3, [r3]
 2592 01a2 013B     		subs	r3, r3, #1
ARM GAS  C:\Users\Logan\AppData\Local\Temp\ccKKo5Vz.s 			page 53


 2593 01a4 9942     		cmp	r1, r3
 2594 01a6 1BD1     		bne	.L56
 2595              		.loc 1 352 0 discriminator 8
 2596 01a8 07F51653 		add	r3, r7, #9600
 2597 01ac 03F11C03 		add	r3, r3, #28
 2598 01b0 1B68     		ldr	r3, [r3]
 2599 01b2 5A1C     		adds	r2, r3, #1
 2600 01b4 8049     		ldr	r1, .L156
 2601 01b6 1346     		mov	r3, r2
 2602 01b8 5B00     		lsls	r3, r3, #1
 2603 01ba 1344     		add	r3, r3, r2
 2604 01bc 9B00     		lsls	r3, r3, #2
 2605 01be 0B44     		add	r3, r3, r1
 2606 01c0 1968     		ldr	r1, [r3]
 2607 01c2 7D48     		ldr	r0, .L156
 2608 01c4 07F51653 		add	r3, r7, #9600
 2609 01c8 03F11C03 		add	r3, r3, #28
 2610 01cc 1A68     		ldr	r2, [r3]
 2611 01ce 1346     		mov	r3, r2
 2612 01d0 5B00     		lsls	r3, r3, #1
 2613 01d2 1344     		add	r3, r3, r2
 2614 01d4 9B00     		lsls	r3, r3, #2
 2615 01d6 0344     		add	r3, r3, r0
 2616 01d8 1B68     		ldr	r3, [r3]
 2617 01da 9942     		cmp	r1, r3
 2618 01dc 01F08681 		beq	.L54
 2619              	.L56:
 2620              		.loc 1 352 0 discriminator 9
 2621 01e0 07F51653 		add	r3, r7, #9600
 2622 01e4 03F11C03 		add	r3, r3, #28
 2623 01e8 1B68     		ldr	r3, [r3]
 2624 01ea 5A1C     		adds	r2, r3, #1
 2625 01ec 7249     		ldr	r1, .L156
 2626 01ee 1346     		mov	r3, r2
 2627 01f0 5B00     		lsls	r3, r3, #1
 2628 01f2 1344     		add	r3, r3, r2
 2629 01f4 9B00     		lsls	r3, r3, #2
 2630 01f6 0B44     		add	r3, r3, r1
 2631 01f8 0433     		adds	r3, r3, #4
 2632 01fa 1968     		ldr	r1, [r3]
 2633 01fc 6E48     		ldr	r0, .L156
 2634 01fe 07F51653 		add	r3, r7, #9600
 2635 0202 03F11C03 		add	r3, r3, #28
 2636 0206 1A68     		ldr	r2, [r3]
 2637 0208 1346     		mov	r3, r2
 2638 020a 5B00     		lsls	r3, r3, #1
 2639 020c 1344     		add	r3, r3, r2
 2640 020e 9B00     		lsls	r3, r3, #2
 2641 0210 0344     		add	r3, r3, r0
 2642 0212 0433     		adds	r3, r3, #4
 2643 0214 1B68     		ldr	r3, [r3]
 2644 0216 0133     		adds	r3, r3, #1
 2645 0218 9942     		cmp	r1, r3
 2646 021a 1BD1     		bne	.L57
 2647              		.loc 1 352 0 discriminator 10
 2648 021c 07F51653 		add	r3, r7, #9600
 2649 0220 03F11C03 		add	r3, r3, #28
ARM GAS  C:\Users\Logan\AppData\Local\Temp\ccKKo5Vz.s 			page 54


 2650 0224 1B68     		ldr	r3, [r3]
 2651 0226 5A1C     		adds	r2, r3, #1
 2652 0228 6349     		ldr	r1, .L156
 2653 022a 1346     		mov	r3, r2
 2654 022c 5B00     		lsls	r3, r3, #1
 2655 022e 1344     		add	r3, r3, r2
 2656 0230 9B00     		lsls	r3, r3, #2
 2657 0232 0B44     		add	r3, r3, r1
 2658 0234 1968     		ldr	r1, [r3]
 2659 0236 6048     		ldr	r0, .L156
 2660 0238 07F51653 		add	r3, r7, #9600
 2661 023c 03F11C03 		add	r3, r3, #28
 2662 0240 1A68     		ldr	r2, [r3]
 2663 0242 1346     		mov	r3, r2
 2664 0244 5B00     		lsls	r3, r3, #1
 2665 0246 1344     		add	r3, r3, r2
 2666 0248 9B00     		lsls	r3, r3, #2
 2667 024a 0344     		add	r3, r3, r0
 2668 024c 1B68     		ldr	r3, [r3]
 2669 024e 9942     		cmp	r1, r3
 2670 0250 01F04C81 		beq	.L54
 2671              	.L57:
 2672              	.LBB6:
 353:.\pathfinder.c ****         instructions[counter] = DRIVE;
 2673              		.loc 1 353 0 is_stmt 1
 2674 0254 07F51653 		add	r3, r7, #9600
 2675 0258 03F12A03 		add	r3, r3, #42
 2676 025c 1B88     		ldrh	r3, [r3]
 2677 025e 574A     		ldr	r2, .L156+4
 2678 0260 4421     		movs	r1, #68
 2679 0262 D154     		strb	r1, [r2, r3]
 354:.\pathfinder.c ****         instructions[counter + 1] = i - prev_intersection;
 2680              		.loc 1 354 0
 2681 0264 07F51653 		add	r3, r7, #9600
 2682 0268 03F12A03 		add	r3, r3, #42
 2683 026c 1B88     		ldrh	r3, [r3]
 2684 026e 0133     		adds	r3, r3, #1
 2685 0270 07F51652 		add	r2, r7, #9600
 2686 0274 02F11C02 		add	r2, r2, #28
 2687 0278 1268     		ldr	r2, [r2]
 2688 027a D1B2     		uxtb	r1, r2
 2689 027c 07F51652 		add	r2, r7, #9600
 2690 0280 02F12C02 		add	r2, r2, #44
 2691 0284 1268     		ldr	r2, [r2]
 2692 0286 D2B2     		uxtb	r2, r2
 2693 0288 8A1A     		subs	r2, r1, r2
 2694 028a D1B2     		uxtb	r1, r2
 2695 028c 4B4A     		ldr	r2, .L156+4
 2696 028e D154     		strb	r1, [r2, r3]
 355:.\pathfinder.c ****         counter += 2;
 2697              		.loc 1 355 0
 2698 0290 07F51653 		add	r3, r7, #9600
 2699 0294 03F12A03 		add	r3, r3, #42
 2700 0298 1B88     		ldrh	r3, [r3]	@ movhi
 2701 029a 0233     		adds	r3, r3, #2
 2702 029c 07F51652 		add	r2, r7, #9600
 2703 02a0 02F12A02 		add	r2, r2, #42
ARM GAS  C:\Users\Logan\AppData\Local\Temp\ccKKo5Vz.s 			page 55


 2704 02a4 1380     		strh	r3, [r2]	@ movhi
 356:.\pathfinder.c ****         
 357:.\pathfinder.c ****         inter_prev_intersection = 0; 
 2705              		.loc 1 357 0
 2706 02a6 0023     		movs	r3, #0
 2707 02a8 07F51652 		add	r2, r7, #9600
 2708 02ac 02F12002 		add	r2, r2, #32
 2709 02b0 1360     		str	r3, [r2]
 358:.\pathfinder.c ****         uint32_t inter_path[DEFAULT_ARRAY_SIZE][3] = {0};
 2710              		.loc 1 358 0
 2711 02b2 07F13003 		add	r3, r7, #48
 2712 02b6 303B     		subs	r3, r3, #48
 2713 02b8 1A46     		mov	r2, r3
 2714 02ba 4FF41653 		mov	r3, #9600
 2715 02be 1046     		mov	r0, r2
 2716 02c0 0021     		movs	r1, #0
 2717 02c2 1A46     		mov	r2, r3
 2718 02c4 FFF7FEFF 		bl	memset
 359:.\pathfinder.c ****          uint32_t inter_start[2] = {path[i][Y], path[i][X]};//(y, x) array starts at 0
 2719              		.loc 1 359 0
 2720 02c8 3B49     		ldr	r1, .L156
 2721 02ca 07F51653 		add	r3, r7, #9600
 2722 02ce 03F11C03 		add	r3, r3, #28
 2723 02d2 1A68     		ldr	r2, [r3]
 2724 02d4 1346     		mov	r3, r2
 2725 02d6 5B00     		lsls	r3, r3, #1
 2726 02d8 1344     		add	r3, r3, r2
 2727 02da 9B00     		lsls	r3, r3, #2
 2728 02dc 0B44     		add	r3, r3, r1
 2729 02de 1B68     		ldr	r3, [r3]
 2730 02e0 07F51652 		add	r2, r7, #9600
 2731 02e4 02F10802 		add	r2, r2, #8
 2732 02e8 1360     		str	r3, [r2]
 2733 02ea 3349     		ldr	r1, .L156
 2734 02ec 07F51653 		add	r3, r7, #9600
 2735 02f0 03F11C03 		add	r3, r3, #28
 2736 02f4 1A68     		ldr	r2, [r3]
 2737 02f6 1346     		mov	r3, r2
 2738 02f8 5B00     		lsls	r3, r3, #1
 2739 02fa 1344     		add	r3, r3, r2
 2740 02fc 9B00     		lsls	r3, r3, #2
 2741 02fe 0B44     		add	r3, r3, r1
 2742 0300 0433     		adds	r3, r3, #4
 2743 0302 1B68     		ldr	r3, [r3]
 2744 0304 07F51652 		add	r2, r7, #9600
 2745 0308 02F10C02 		add	r2, r2, #12
 2746 030c 1360     		str	r3, [r2]
 360:.\pathfinder.c ****          uint32_t inter_destination[2] = {path[i + 1][Y], path[i + 1][X]};//(y, x)
 2747              		.loc 1 360 0
 2748 030e 07F51653 		add	r3, r7, #9600
 2749 0312 03F11C03 		add	r3, r3, #28
 2750 0316 1B68     		ldr	r3, [r3]
 2751 0318 5A1C     		adds	r2, r3, #1
 2752 031a 2749     		ldr	r1, .L156
 2753 031c 1346     		mov	r3, r2
 2754 031e 5B00     		lsls	r3, r3, #1
 2755 0320 1344     		add	r3, r3, r2
ARM GAS  C:\Users\Logan\AppData\Local\Temp\ccKKo5Vz.s 			page 56


 2756 0322 9B00     		lsls	r3, r3, #2
 2757 0324 0B44     		add	r3, r3, r1
 2758 0326 1B68     		ldr	r3, [r3]
 2759 0328 07F51652 		add	r2, r7, #9600
 2760 032c 1360     		str	r3, [r2]
 2761 032e 07F51653 		add	r3, r7, #9600
 2762 0332 03F11C03 		add	r3, r3, #28
 2763 0336 1B68     		ldr	r3, [r3]
 2764 0338 5A1C     		adds	r2, r3, #1
 2765 033a 1F49     		ldr	r1, .L156
 2766 033c 1346     		mov	r3, r2
 2767 033e 5B00     		lsls	r3, r3, #1
 2768 0340 1344     		add	r3, r3, r2
 2769 0342 9B00     		lsls	r3, r3, #2
 2770 0344 0B44     		add	r3, r3, r1
 2771 0346 0433     		adds	r3, r3, #4
 2772 0348 1B68     		ldr	r3, [r3]
 2773 034a 07F51652 		add	r2, r7, #9600
 2774 034e 02F10402 		add	r2, r2, #4
 2775 0352 1360     		str	r3, [r2]
 361:.\pathfinder.c ****             
 362:.\pathfinder.c ****         //change the global direction
 363:.\pathfinder.c ****         robot_direction = path[i][DIR];
 2776              		.loc 1 363 0
 2777 0354 1849     		ldr	r1, .L156
 2778 0356 07F51653 		add	r3, r7, #9600
 2779 035a 03F11C03 		add	r3, r3, #28
 2780 035e 1A68     		ldr	r2, [r3]
 2781 0360 1346     		mov	r3, r2
 2782 0362 5B00     		lsls	r3, r3, #1
 2783 0364 1344     		add	r3, r3, r2
 2784 0366 9B00     		lsls	r3, r3, #2
 2785 0368 0B44     		add	r3, r3, r1
 2786 036a 0833     		adds	r3, r3, #8
 2787 036c 1B68     		ldr	r3, [r3]
 2788 036e 144A     		ldr	r2, .L156+8
 2789 0370 1360     		str	r3, [r2]
 364:.\pathfinder.c ****          int inter_end = djikstras(map, food_list, inter_path, inter_start, inter_destination);
 2790              		.loc 1 364 0
 2791 0372 07F13003 		add	r3, r7, #48
 2792 0376 303B     		subs	r3, r3, #48
 2793 0378 07F51654 		add	r4, r7, #9600
 2794 037c 04F10804 		add	r4, r4, #8
 2795 0380 07F51652 		add	r2, r7, #9600
 2796 0384 0092     		str	r2, [sp]
 2797 0386 0F48     		ldr	r0, .L156+12
 2798 0388 0F49     		ldr	r1, .L156+16
 2799 038a 1A46     		mov	r2, r3
 2800 038c 2346     		mov	r3, r4
 2801 038e FFF7FEFF 		bl	djikstras
 2802 0392 0346     		mov	r3, r0
 2803 0394 07F51652 		add	r2, r7, #9600
 2804 0398 02F11002 		add	r2, r2, #16
 2805 039c 1360     		str	r3, [r2]
 365:.\pathfinder.c **** 
 366:.\pathfinder.c ****          /*
 367:.\pathfinder.c ****          printf("\nDiscontinuity found path:\n");
ARM GAS  C:\Users\Logan\AppData\Local\Temp\ccKKo5Vz.s 			page 57


 368:.\pathfinder.c ****          printf("end value : %d\n", inter_end);
 369:.\pathfinder.c ****          printf("[");
 370:.\pathfinder.c ****          for(int tmpI = inter_end; tmpI >=0; tmpI--){//TODO: do you include the final value j>=1 or
 371:.\pathfinder.c ****             printf("%d  %d;", inter_path[tmpI][Y] + 1, inter_path[tmpI][X] + 1);
 372:.\pathfinder.c ****          }
 373:.\pathfinder.c ****          printf("]\n");
 374:.\pathfinder.c ****          */
 375:.\pathfinder.c **** 
 376:.\pathfinder.c ****          //stuff
 377:.\pathfinder.c ****          int j;
 378:.\pathfinder.c ****          for(j = inter_end; j >= 1; j--){//TODO: do you include the final value j>=1 or j>=0
 2806              		.loc 1 378 0
 2807 039e 07F51653 		add	r3, r7, #9600
 2808 03a2 03F11003 		add	r3, r3, #16
 2809 03a6 1B68     		ldr	r3, [r3]
 2810 03a8 07F51652 		add	r2, r7, #9600
 2811 03ac 02F11802 		add	r2, r2, #24
 2812 03b0 1360     		str	r3, [r2]
 2813 03b2 01F07EB8 		b	.L58
 2814              	.L157:
 2815 03b6 00BF     		.align	2
 2816              	.L156:
 2817 03b8 00000000 		.word	path
 2818 03bc 00000000 		.word	instructions
 2819 03c0 00000000 		.word	robot_direction
 2820 03c4 00000000 		.word	map
 2821 03c8 00000000 		.word	food_list
 2822              	.L117:
 379:.\pathfinder.c ****             //printf("%d %d;", inter_path[j][Y] + 1, inter_path[j][X] + 1);
 380:.\pathfinder.c ****             if(inter_path[j][DIR] == 1 || inter_path[j][DIR] == 3){
 2823              		.loc 1 380 0
 2824 03cc 07F13002 		add	r2, r7, #48
 2825 03d0 303A     		subs	r2, r2, #48
 2826 03d2 07F51653 		add	r3, r7, #9600
 2827 03d6 03F11803 		add	r3, r3, #24
 2828 03da 1968     		ldr	r1, [r3]
 2829 03dc 0B46     		mov	r3, r1
 2830 03de 5B00     		lsls	r3, r3, #1
 2831 03e0 0B44     		add	r3, r3, r1
 2832 03e2 9B00     		lsls	r3, r3, #2
 2833 03e4 1344     		add	r3, r3, r2
 2834 03e6 0833     		adds	r3, r3, #8
 2835 03e8 1B68     		ldr	r3, [r3]
 2836 03ea 012B     		cmp	r3, #1
 2837 03ec 11D0     		beq	.L59
 2838              		.loc 1 380 0 is_stmt 0 discriminator 1
 2839 03ee 07F13002 		add	r2, r7, #48
 2840 03f2 303A     		subs	r2, r2, #48
 2841 03f4 07F51653 		add	r3, r7, #9600
 2842 03f8 03F11803 		add	r3, r3, #24
 2843 03fc 1968     		ldr	r1, [r3]
 2844 03fe 0B46     		mov	r3, r1
 2845 0400 5B00     		lsls	r3, r3, #1
 2846 0402 0B44     		add	r3, r3, r1
 2847 0404 9B00     		lsls	r3, r3, #2
 2848 0406 1344     		add	r3, r3, r2
 2849 0408 0833     		adds	r3, r3, #8
ARM GAS  C:\Users\Logan\AppData\Local\Temp\ccKKo5Vz.s 			page 58


 2850 040a 1B68     		ldr	r3, [r3]
 2851 040c 032B     		cmp	r3, #3
 2852 040e 40F02184 		bne	.L60
 2853              	.L59:
 381:.\pathfinder.c ****                        //There should be a check that it is within the map
 382:.\pathfinder.c ****                        if(map[inter_path[j][Y]][inter_path[j][X] - 1] == PATH || map[inter_path[j][
 2854              		.loc 1 382 0 is_stmt 1
 2855 0412 07F13002 		add	r2, r7, #48
 2856 0416 303A     		subs	r2, r2, #48
 2857 0418 07F51653 		add	r3, r7, #9600
 2858 041c 03F11803 		add	r3, r3, #24
 2859 0420 1968     		ldr	r1, [r3]
 2860 0422 0B46     		mov	r3, r1
 2861 0424 5B00     		lsls	r3, r3, #1
 2862 0426 0B44     		add	r3, r3, r1
 2863 0428 9B00     		lsls	r3, r3, #2
 2864 042a 1344     		add	r3, r3, r2
 2865 042c 1968     		ldr	r1, [r3]
 2866 042e 07F13002 		add	r2, r7, #48
 2867 0432 303A     		subs	r2, r2, #48
 2868 0434 07F51653 		add	r3, r7, #9600
 2869 0438 03F11803 		add	r3, r3, #24
 2870 043c 1868     		ldr	r0, [r3]
 2871 043e 0346     		mov	r3, r0
 2872 0440 5B00     		lsls	r3, r3, #1
 2873 0442 0344     		add	r3, r3, r0
 2874 0444 9B00     		lsls	r3, r3, #2
 2875 0446 1344     		add	r3, r3, r2
 2876 0448 0433     		adds	r3, r3, #4
 2877 044a 1B68     		ldr	r3, [r3]
 2878 044c 5A1E     		subs	r2, r3, #1
 2879 044e 9548     		ldr	r0, .L158
 2880 0450 0B46     		mov	r3, r1
 2881 0452 DB00     		lsls	r3, r3, #3
 2882 0454 0B44     		add	r3, r3, r1
 2883 0456 5B00     		lsls	r3, r3, #1
 2884 0458 0B44     		add	r3, r3, r1
 2885 045a 1344     		add	r3, r3, r2
 2886 045c 50F82330 		ldr	r3, [r0, r3, lsl #2]
 2887 0460 002B     		cmp	r3, #0
 2888 0462 29D0     		beq	.L61
 2889              		.loc 1 382 0 is_stmt 0 discriminator 1
 2890 0464 07F13002 		add	r2, r7, #48
 2891 0468 303A     		subs	r2, r2, #48
 2892 046a 07F51653 		add	r3, r7, #9600
 2893 046e 03F11803 		add	r3, r3, #24
 2894 0472 1968     		ldr	r1, [r3]
 2895 0474 0B46     		mov	r3, r1
 2896 0476 5B00     		lsls	r3, r3, #1
 2897 0478 0B44     		add	r3, r3, r1
 2898 047a 9B00     		lsls	r3, r3, #2
 2899 047c 1344     		add	r3, r3, r2
 2900 047e 1968     		ldr	r1, [r3]
 2901 0480 07F13002 		add	r2, r7, #48
 2902 0484 303A     		subs	r2, r2, #48
 2903 0486 07F51653 		add	r3, r7, #9600
 2904 048a 03F11803 		add	r3, r3, #24
ARM GAS  C:\Users\Logan\AppData\Local\Temp\ccKKo5Vz.s 			page 59


 2905 048e 1868     		ldr	r0, [r3]
 2906 0490 0346     		mov	r3, r0
 2907 0492 5B00     		lsls	r3, r3, #1
 2908 0494 0344     		add	r3, r3, r0
 2909 0496 9B00     		lsls	r3, r3, #2
 2910 0498 1344     		add	r3, r3, r2
 2911 049a 0433     		adds	r3, r3, #4
 2912 049c 1B68     		ldr	r3, [r3]
 2913 049e 5A1C     		adds	r2, r3, #1
 2914 04a0 8048     		ldr	r0, .L158
 2915 04a2 0B46     		mov	r3, r1
 2916 04a4 DB00     		lsls	r3, r3, #3
 2917 04a6 0B44     		add	r3, r3, r1
 2918 04a8 5B00     		lsls	r3, r3, #1
 2919 04aa 0B44     		add	r3, r3, r1
 2920 04ac 1344     		add	r3, r3, r2
 2921 04ae 50F82330 		ldr	r3, [r0, r3, lsl #2]
 2922 04b2 002B     		cmp	r3, #0
 2923 04b4 40F0F282 		bne	.L62
 2924              	.L61:
 383:.\pathfinder.c ****                           if(inter_path[j][DIR] != inter_path[j - 1][DIR]){
 2925              		.loc 1 383 0 is_stmt 1
 2926 04b8 07F13002 		add	r2, r7, #48
 2927 04bc 303A     		subs	r2, r2, #48
 2928 04be 07F51653 		add	r3, r7, #9600
 2929 04c2 03F11803 		add	r3, r3, #24
 2930 04c6 1968     		ldr	r1, [r3]
 2931 04c8 0B46     		mov	r3, r1
 2932 04ca 5B00     		lsls	r3, r3, #1
 2933 04cc 0B44     		add	r3, r3, r1
 2934 04ce 9B00     		lsls	r3, r3, #2
 2935 04d0 1344     		add	r3, r3, r2
 2936 04d2 0833     		adds	r3, r3, #8
 2937 04d4 1868     		ldr	r0, [r3]
 2938 04d6 07F51653 		add	r3, r7, #9600
 2939 04da 03F11803 		add	r3, r3, #24
 2940 04de 1B68     		ldr	r3, [r3]
 2941 04e0 591E     		subs	r1, r3, #1
 2942 04e2 07F13002 		add	r2, r7, #48
 2943 04e6 303A     		subs	r2, r2, #48
 2944 04e8 0B46     		mov	r3, r1
 2945 04ea 5B00     		lsls	r3, r3, #1
 2946 04ec 0B44     		add	r3, r3, r1
 2947 04ee 9B00     		lsls	r3, r3, #2
 2948 04f0 1344     		add	r3, r3, r2
 2949 04f2 0833     		adds	r3, r3, #8
 2950 04f4 1B68     		ldr	r3, [r3]
 2951 04f6 9842     		cmp	r0, r3
 2952 04f8 00F08682 		beq	.L63
 384:.\pathfinder.c ****                              //current direction , the next direction
 385:.\pathfinder.c ****                              if((inter_path[j][DIR] == 1 && inter_path[j - 1][DIR] == 4) || (inter_
 2953              		.loc 1 385 0
 2954 04fc 07F13002 		add	r2, r7, #48
 2955 0500 303A     		subs	r2, r2, #48
 2956 0502 07F51653 		add	r3, r7, #9600
 2957 0506 03F11803 		add	r3, r3, #24
 2958 050a 1968     		ldr	r1, [r3]
ARM GAS  C:\Users\Logan\AppData\Local\Temp\ccKKo5Vz.s 			page 60


 2959 050c 0B46     		mov	r3, r1
 2960 050e 5B00     		lsls	r3, r3, #1
 2961 0510 0B44     		add	r3, r3, r1
 2962 0512 9B00     		lsls	r3, r3, #2
 2963 0514 1344     		add	r3, r3, r2
 2964 0516 0833     		adds	r3, r3, #8
 2965 0518 1B68     		ldr	r3, [r3]
 2966 051a 012B     		cmp	r3, #1
 2967 051c 11D1     		bne	.L64
 2968              		.loc 1 385 0 is_stmt 0 discriminator 1
 2969 051e 07F51653 		add	r3, r7, #9600
 2970 0522 03F11803 		add	r3, r3, #24
 2971 0526 1B68     		ldr	r3, [r3]
 2972 0528 591E     		subs	r1, r3, #1
 2973 052a 07F13002 		add	r2, r7, #48
 2974 052e 303A     		subs	r2, r2, #48
 2975 0530 0B46     		mov	r3, r1
 2976 0532 5B00     		lsls	r3, r3, #1
 2977 0534 0B44     		add	r3, r3, r1
 2978 0536 9B00     		lsls	r3, r3, #2
 2979 0538 1344     		add	r3, r3, r2
 2980 053a 0833     		adds	r3, r3, #8
 2981 053c 1B68     		ldr	r3, [r3]
 2982 053e 042B     		cmp	r3, #4
 2983 0540 6BD0     		beq	.L65
 2984              	.L64:
 2985              		.loc 1 385 0 discriminator 3
 2986 0542 07F13002 		add	r2, r7, #48
 2987 0546 303A     		subs	r2, r2, #48
 2988 0548 07F51653 		add	r3, r7, #9600
 2989 054c 03F11803 		add	r3, r3, #24
 2990 0550 1968     		ldr	r1, [r3]
 2991 0552 0B46     		mov	r3, r1
 2992 0554 5B00     		lsls	r3, r3, #1
 2993 0556 0B44     		add	r3, r3, r1
 2994 0558 9B00     		lsls	r3, r3, #2
 2995 055a 1344     		add	r3, r3, r2
 2996 055c 0833     		adds	r3, r3, #8
 2997 055e 1B68     		ldr	r3, [r3]
 2998 0560 032B     		cmp	r3, #3
 2999 0562 11D1     		bne	.L66
 3000              		.loc 1 385 0 discriminator 4
 3001 0564 07F51653 		add	r3, r7, #9600
 3002 0568 03F11803 		add	r3, r3, #24
 3003 056c 1B68     		ldr	r3, [r3]
 3004 056e 591E     		subs	r1, r3, #1
 3005 0570 07F13002 		add	r2, r7, #48
 3006 0574 303A     		subs	r2, r2, #48
 3007 0576 0B46     		mov	r3, r1
 3008 0578 5B00     		lsls	r3, r3, #1
 3009 057a 0B44     		add	r3, r3, r1
 3010 057c 9B00     		lsls	r3, r3, #2
 3011 057e 1344     		add	r3, r3, r2
 3012 0580 0833     		adds	r3, r3, #8
 3013 0582 1B68     		ldr	r3, [r3]
 3014 0584 022B     		cmp	r3, #2
 3015 0586 48D0     		beq	.L65
ARM GAS  C:\Users\Logan\AppData\Local\Temp\ccKKo5Vz.s 			page 61


 3016              	.L66:
 3017              		.loc 1 385 0 discriminator 6
 3018 0588 07F13002 		add	r2, r7, #48
 3019 058c 303A     		subs	r2, r2, #48
 3020 058e 07F51653 		add	r3, r7, #9600
 3021 0592 03F11803 		add	r3, r3, #24
 3022 0596 1968     		ldr	r1, [r3]
 3023 0598 0B46     		mov	r3, r1
 3024 059a 5B00     		lsls	r3, r3, #1
 3025 059c 0B44     		add	r3, r3, r1
 3026 059e 9B00     		lsls	r3, r3, #2
 3027 05a0 1344     		add	r3, r3, r2
 3028 05a2 0833     		adds	r3, r3, #8
 3029 05a4 1B68     		ldr	r3, [r3]
 3030 05a6 012B     		cmp	r3, #1
 3031 05a8 0FD1     		bne	.L67
 3032              		.loc 1 385 0 discriminator 7
 3033 05aa 07F51653 		add	r3, r7, #9600
 3034 05ae 03F11C03 		add	r3, r3, #28
 3035 05b2 1B68     		ldr	r3, [r3]
 3036 05b4 5A1C     		adds	r2, r3, #1
 3037 05b6 3C49     		ldr	r1, .L158+4
 3038 05b8 1346     		mov	r3, r2
 3039 05ba 5B00     		lsls	r3, r3, #1
 3040 05bc 1344     		add	r3, r3, r2
 3041 05be 9B00     		lsls	r3, r3, #2
 3042 05c0 0B44     		add	r3, r3, r1
 3043 05c2 0833     		adds	r3, r3, #8
 3044 05c4 1B68     		ldr	r3, [r3]
 3045 05c6 042B     		cmp	r3, #4
 3046 05c8 20D0     		beq	.L68
 3047              	.L67:
 3048              		.loc 1 385 0 discriminator 10
 3049 05ca 07F13002 		add	r2, r7, #48
 3050 05ce 303A     		subs	r2, r2, #48
 3051 05d0 07F51653 		add	r3, r7, #9600
 3052 05d4 03F11803 		add	r3, r3, #24
 3053 05d8 1968     		ldr	r1, [r3]
 3054 05da 0B46     		mov	r3, r1
 3055 05dc 5B00     		lsls	r3, r3, #1
 3056 05de 0B44     		add	r3, r3, r1
 3057 05e0 9B00     		lsls	r3, r3, #2
 3058 05e2 1344     		add	r3, r3, r2
 3059 05e4 0833     		adds	r3, r3, #8
 3060 05e6 1B68     		ldr	r3, [r3]
 3061 05e8 032B     		cmp	r3, #3
 3062 05ea 61D1     		bne	.L69
 3063              		.loc 1 385 0 discriminator 11
 3064 05ec 07F51653 		add	r3, r7, #9600
 3065 05f0 03F11C03 		add	r3, r3, #28
 3066 05f4 1B68     		ldr	r3, [r3]
 3067 05f6 5A1C     		adds	r2, r3, #1
 3068 05f8 2B49     		ldr	r1, .L158+4
 3069 05fa 1346     		mov	r3, r2
 3070 05fc 5B00     		lsls	r3, r3, #1
 3071 05fe 1344     		add	r3, r3, r2
 3072 0600 9B00     		lsls	r3, r3, #2
ARM GAS  C:\Users\Logan\AppData\Local\Temp\ccKKo5Vz.s 			page 62


 3073 0602 0B44     		add	r3, r3, r1
 3074 0604 0833     		adds	r3, r3, #8
 3075 0606 1B68     		ldr	r3, [r3]
 3076 0608 022B     		cmp	r3, #2
 3077 060a 51D1     		bne	.L69
 3078              	.L68:
 3079              		.loc 1 385 0 discriminator 12
 3080 060c 07F51653 		add	r3, r7, #9600
 3081 0610 03F11803 		add	r3, r3, #24
 3082 0614 1B68     		ldr	r3, [r3]
 3083 0616 012B     		cmp	r3, #1
 3084 0618 4AD1     		bne	.L69
 3085              	.L65:
 386:.\pathfinder.c ****                                // printf("L/R intersection found (%d) [direction = %d] -- TURN LEFT
 387:.\pathfinder.c ****                                 instructions[counter] = LEFT;
 3086              		.loc 1 387 0 is_stmt 1
 3087 061a 07F51653 		add	r3, r7, #9600
 3088 061e 03F12A03 		add	r3, r3, #42
 3089 0622 1B88     		ldrh	r3, [r3]
 3090 0624 214A     		ldr	r2, .L158+8
 3091 0626 4C21     		movs	r1, #76
 3092 0628 D154     		strb	r1, [r2, r3]
 388:.\pathfinder.c ****                                 instructions[counter + 1] = (inter_end - j + 1 )- inter_prev_inters
 3093              		.loc 1 388 0
 3094 062a 07F51653 		add	r3, r7, #9600
 3095 062e 03F12A03 		add	r3, r3, #42
 3096 0632 1B88     		ldrh	r3, [r3]
 3097 0634 0133     		adds	r3, r3, #1
 3098 0636 07F51652 		add	r2, r7, #9600
 3099 063a 02F11002 		add	r2, r2, #16
 3100 063e 1268     		ldr	r2, [r2]
 3101 0640 D1B2     		uxtb	r1, r2
 3102 0642 07F51652 		add	r2, r7, #9600
 3103 0646 02F11802 		add	r2, r2, #24
 3104 064a 1268     		ldr	r2, [r2]
 3105 064c D2B2     		uxtb	r2, r2
 3106 064e 8A1A     		subs	r2, r1, r2
 3107 0650 D1B2     		uxtb	r1, r2
 3108 0652 07F51652 		add	r2, r7, #9600
 3109 0656 02F12002 		add	r2, r2, #32
 3110 065a 1268     		ldr	r2, [r2]
 3111 065c D2B2     		uxtb	r2, r2
 3112 065e 8A1A     		subs	r2, r1, r2
 3113 0660 D2B2     		uxtb	r2, r2
 3114 0662 0132     		adds	r2, r2, #1
 3115 0664 D1B2     		uxtb	r1, r2
 3116 0666 114A     		ldr	r2, .L158+8
 3117 0668 D154     		strb	r1, [r2, r3]
 389:.\pathfinder.c ****                                 counter+=2;
 3118              		.loc 1 389 0
 3119 066a 07F51653 		add	r3, r7, #9600
 3120 066e 03F12A03 		add	r3, r3, #42
 3121 0672 1B88     		ldrh	r3, [r3]	@ movhi
 3122 0674 0233     		adds	r3, r3, #2
 3123 0676 07F51652 		add	r2, r7, #9600
 3124 067a 02F12A02 		add	r2, r2, #42
 3125 067e 1380     		strh	r3, [r2]	@ movhi
ARM GAS  C:\Users\Logan\AppData\Local\Temp\ccKKo5Vz.s 			page 63


 390:.\pathfinder.c ****                                 inter_prev_intersection = inter_end - j + 1;
 3126              		.loc 1 390 0
 3127 0680 07F51653 		add	r3, r7, #9600
 3128 0684 03F11003 		add	r3, r3, #16
 3129 0688 1A68     		ldr	r2, [r3]
 3130 068a 07F51653 		add	r3, r7, #9600
 3131 068e 03F11803 		add	r3, r3, #24
 3132 0692 1B68     		ldr	r3, [r3]
 3133 0694 D31A     		subs	r3, r2, r3
 3134 0696 0133     		adds	r3, r3, #1
 3135 0698 07F51652 		add	r2, r7, #9600
 3136 069c 02F12002 		add	r2, r2, #32
 3137 06a0 1360     		str	r3, [r2]
 3138 06a2 B0E1     		b	.L70
 3139              	.L159:
 3140              		.align	2
 3141              	.L158:
 3142 06a4 00000000 		.word	map
 3143 06a8 00000000 		.word	path
 3144 06ac 00000000 		.word	instructions
 3145              	.L69:
 391:.\pathfinder.c ****                              }else if((inter_path[j][DIR] == 1 && inter_path[j - 1][DIR] == 2) || (
 3146              		.loc 1 391 0
 3147 06b0 07F13002 		add	r2, r7, #48
 3148 06b4 303A     		subs	r2, r2, #48
 3149 06b6 07F51653 		add	r3, r7, #9600
 3150 06ba 03F11803 		add	r3, r3, #24
 3151 06be 1968     		ldr	r1, [r3]
 3152 06c0 0B46     		mov	r3, r1
 3153 06c2 5B00     		lsls	r3, r3, #1
 3154 06c4 0B44     		add	r3, r3, r1
 3155 06c6 9B00     		lsls	r3, r3, #2
 3156 06c8 1344     		add	r3, r3, r2
 3157 06ca 0833     		adds	r3, r3, #8
 3158 06cc 1B68     		ldr	r3, [r3]
 3159 06ce 012B     		cmp	r3, #1
 3160 06d0 11D1     		bne	.L71
 3161              		.loc 1 391 0 is_stmt 0 discriminator 1
 3162 06d2 07F51653 		add	r3, r7, #9600
 3163 06d6 03F11803 		add	r3, r3, #24
 3164 06da 1B68     		ldr	r3, [r3]
 3165 06dc 591E     		subs	r1, r3, #1
 3166 06de 07F13002 		add	r2, r7, #48
 3167 06e2 303A     		subs	r2, r2, #48
 3168 06e4 0B46     		mov	r3, r1
 3169 06e6 5B00     		lsls	r3, r3, #1
 3170 06e8 0B44     		add	r3, r3, r1
 3171 06ea 9B00     		lsls	r3, r3, #2
 3172 06ec 1344     		add	r3, r3, r2
 3173 06ee 0833     		adds	r3, r3, #8
 3174 06f0 1B68     		ldr	r3, [r3]
 3175 06f2 022B     		cmp	r3, #2
 3176 06f4 6BD0     		beq	.L72
 3177              	.L71:
 3178              		.loc 1 391 0 discriminator 3
 3179 06f6 07F13002 		add	r2, r7, #48
 3180 06fa 303A     		subs	r2, r2, #48
ARM GAS  C:\Users\Logan\AppData\Local\Temp\ccKKo5Vz.s 			page 64


 3181 06fc 07F51653 		add	r3, r7, #9600
 3182 0700 03F11803 		add	r3, r3, #24
 3183 0704 1968     		ldr	r1, [r3]
 3184 0706 0B46     		mov	r3, r1
 3185 0708 5B00     		lsls	r3, r3, #1
 3186 070a 0B44     		add	r3, r3, r1
 3187 070c 9B00     		lsls	r3, r3, #2
 3188 070e 1344     		add	r3, r3, r2
 3189 0710 0833     		adds	r3, r3, #8
 3190 0712 1B68     		ldr	r3, [r3]
 3191 0714 032B     		cmp	r3, #3
 3192 0716 11D1     		bne	.L73
 3193              		.loc 1 391 0 discriminator 4
 3194 0718 07F51653 		add	r3, r7, #9600
 3195 071c 03F11803 		add	r3, r3, #24
 3196 0720 1B68     		ldr	r3, [r3]
 3197 0722 591E     		subs	r1, r3, #1
 3198 0724 07F13002 		add	r2, r7, #48
 3199 0728 303A     		subs	r2, r2, #48
 3200 072a 0B46     		mov	r3, r1
 3201 072c 5B00     		lsls	r3, r3, #1
 3202 072e 0B44     		add	r3, r3, r1
 3203 0730 9B00     		lsls	r3, r3, #2
 3204 0732 1344     		add	r3, r3, r2
 3205 0734 0833     		adds	r3, r3, #8
 3206 0736 1B68     		ldr	r3, [r3]
 3207 0738 042B     		cmp	r3, #4
 3208 073a 48D0     		beq	.L72
 3209              	.L73:
 3210              		.loc 1 391 0 discriminator 6
 3211 073c 07F13002 		add	r2, r7, #48
 3212 0740 303A     		subs	r2, r2, #48
 3213 0742 07F51653 		add	r3, r7, #9600
 3214 0746 03F11803 		add	r3, r3, #24
 3215 074a 1968     		ldr	r1, [r3]
 3216 074c 0B46     		mov	r3, r1
 3217 074e 5B00     		lsls	r3, r3, #1
 3218 0750 0B44     		add	r3, r3, r1
 3219 0752 9B00     		lsls	r3, r3, #2
 3220 0754 1344     		add	r3, r3, r2
 3221 0756 0833     		adds	r3, r3, #8
 3222 0758 1B68     		ldr	r3, [r3]
 3223 075a 012B     		cmp	r3, #1
 3224 075c 0FD1     		bne	.L74
 3225              		.loc 1 391 0 discriminator 7
 3226 075e 07F51653 		add	r3, r7, #9600
 3227 0762 03F11C03 		add	r3, r3, #28
 3228 0766 1B68     		ldr	r3, [r3]
 3229 0768 5A1C     		adds	r2, r3, #1
 3230 076a CA49     		ldr	r1, .L160
 3231 076c 1346     		mov	r3, r2
 3232 076e 5B00     		lsls	r3, r3, #1
 3233 0770 1344     		add	r3, r3, r2
 3234 0772 9B00     		lsls	r3, r3, #2
 3235 0774 0B44     		add	r3, r3, r1
 3236 0776 0833     		adds	r3, r3, #8
 3237 0778 1B68     		ldr	r3, [r3]
ARM GAS  C:\Users\Logan\AppData\Local\Temp\ccKKo5Vz.s 			page 65


 3238 077a 022B     		cmp	r3, #2
 3239 077c 20D0     		beq	.L75
 3240              	.L74:
 3241              		.loc 1 391 0 discriminator 10
 3242 077e 07F13002 		add	r2, r7, #48
 3243 0782 303A     		subs	r2, r2, #48
 3244 0784 07F51653 		add	r3, r7, #9600
 3245 0788 03F11803 		add	r3, r3, #24
 3246 078c 1968     		ldr	r1, [r3]
 3247 078e 0B46     		mov	r3, r1
 3248 0790 5B00     		lsls	r3, r3, #1
 3249 0792 0B44     		add	r3, r3, r1
 3250 0794 9B00     		lsls	r3, r3, #2
 3251 0796 1344     		add	r3, r3, r2
 3252 0798 0833     		adds	r3, r3, #8
 3253 079a 1B68     		ldr	r3, [r3]
 3254 079c 032B     		cmp	r3, #3
 3255 079e 5BD1     		bne	.L76
 3256              		.loc 1 391 0 discriminator 11
 3257 07a0 07F51653 		add	r3, r7, #9600
 3258 07a4 03F11C03 		add	r3, r3, #28
 3259 07a8 1B68     		ldr	r3, [r3]
 3260 07aa 5A1C     		adds	r2, r3, #1
 3261 07ac B949     		ldr	r1, .L160
 3262 07ae 1346     		mov	r3, r2
 3263 07b0 5B00     		lsls	r3, r3, #1
 3264 07b2 1344     		add	r3, r3, r2
 3265 07b4 9B00     		lsls	r3, r3, #2
 3266 07b6 0B44     		add	r3, r3, r1
 3267 07b8 0833     		adds	r3, r3, #8
 3268 07ba 1B68     		ldr	r3, [r3]
 3269 07bc 012B     		cmp	r3, #1
 3270 07be 4BD1     		bne	.L76
 3271              	.L75:
 3272              		.loc 1 391 0 discriminator 12
 3273 07c0 07F51653 		add	r3, r7, #9600
 3274 07c4 03F11803 		add	r3, r3, #24
 3275 07c8 1B68     		ldr	r3, [r3]
 3276 07ca 042B     		cmp	r3, #4
 3277 07cc 44D1     		bne	.L76
 3278              	.L72:
 392:.\pathfinder.c ****                                // printf("L/R intersection found (%d) [direction = %d] -- TURN RIGH
 393:.\pathfinder.c ****                                 instructions[counter] = RIGHT;
 3279              		.loc 1 393 0 is_stmt 1
 3280 07ce 07F51653 		add	r3, r7, #9600
 3281 07d2 03F12A03 		add	r3, r3, #42
 3282 07d6 1B88     		ldrh	r3, [r3]
 3283 07d8 AF4A     		ldr	r2, .L160+4
 3284 07da 5221     		movs	r1, #82
 3285 07dc D154     		strb	r1, [r2, r3]
 394:.\pathfinder.c ****                                 instructions[counter + 1] = (inter_end - j + 1 )- inter_prev_inters
 3286              		.loc 1 394 0
 3287 07de 07F51653 		add	r3, r7, #9600
 3288 07e2 03F12A03 		add	r3, r3, #42
 3289 07e6 1B88     		ldrh	r3, [r3]
 3290 07e8 0133     		adds	r3, r3, #1
 3291 07ea 07F51652 		add	r2, r7, #9600
ARM GAS  C:\Users\Logan\AppData\Local\Temp\ccKKo5Vz.s 			page 66


 3292 07ee 02F11002 		add	r2, r2, #16
 3293 07f2 1268     		ldr	r2, [r2]
 3294 07f4 D1B2     		uxtb	r1, r2
 3295 07f6 07F51652 		add	r2, r7, #9600
 3296 07fa 02F11802 		add	r2, r2, #24
 3297 07fe 1268     		ldr	r2, [r2]
 3298 0800 D2B2     		uxtb	r2, r2
 3299 0802 8A1A     		subs	r2, r1, r2
 3300 0804 D1B2     		uxtb	r1, r2
 3301 0806 07F51652 		add	r2, r7, #9600
 3302 080a 02F12002 		add	r2, r2, #32
 3303 080e 1268     		ldr	r2, [r2]
 3304 0810 D2B2     		uxtb	r2, r2
 3305 0812 8A1A     		subs	r2, r1, r2
 3306 0814 D2B2     		uxtb	r2, r2
 3307 0816 0132     		adds	r2, r2, #1
 3308 0818 D1B2     		uxtb	r1, r2
 3309 081a 9F4A     		ldr	r2, .L160+4
 3310 081c D154     		strb	r1, [r2, r3]
 395:.\pathfinder.c ****                                 counter+=2;
 3311              		.loc 1 395 0
 3312 081e 07F51653 		add	r3, r7, #9600
 3313 0822 03F12A03 		add	r3, r3, #42
 3314 0826 1B88     		ldrh	r3, [r3]	@ movhi
 3315 0828 0233     		adds	r3, r3, #2
 3316 082a 07F51652 		add	r2, r7, #9600
 3317 082e 02F12A02 		add	r2, r2, #42
 3318 0832 1380     		strh	r3, [r2]	@ movhi
 396:.\pathfinder.c ****                                 inter_prev_intersection = inter_end - j + 1;
 3319              		.loc 1 396 0
 3320 0834 07F51653 		add	r3, r7, #9600
 3321 0838 03F11003 		add	r3, r3, #16
 3322 083c 1A68     		ldr	r2, [r3]
 3323 083e 07F51653 		add	r3, r7, #9600
 3324 0842 03F11803 		add	r3, r3, #24
 3325 0846 1B68     		ldr	r3, [r3]
 3326 0848 D31A     		subs	r3, r2, r3
 3327 084a 0133     		adds	r3, r3, #1
 3328 084c 07F51652 		add	r2, r7, #9600
 3329 0850 02F12002 		add	r2, r2, #32
 3330 0854 1360     		str	r3, [r2]
 3331 0856 D6E0     		b	.L70
 3332              	.L76:
 397:.\pathfinder.c ****                              }else if ((inter_path[j][DIR] == 1 && inter_path[j - 1][DIR] == 3) || 
 3333              		.loc 1 397 0
 3334 0858 07F13002 		add	r2, r7, #48
 3335 085c 303A     		subs	r2, r2, #48
 3336 085e 07F51653 		add	r3, r7, #9600
 3337 0862 03F11803 		add	r3, r3, #24
 3338 0866 1968     		ldr	r1, [r3]
 3339 0868 0B46     		mov	r3, r1
 3340 086a 5B00     		lsls	r3, r3, #1
 3341 086c 0B44     		add	r3, r3, r1
 3342 086e 9B00     		lsls	r3, r3, #2
 3343 0870 1344     		add	r3, r3, r2
 3344 0872 0833     		adds	r3, r3, #8
 3345 0874 1B68     		ldr	r3, [r3]
ARM GAS  C:\Users\Logan\AppData\Local\Temp\ccKKo5Vz.s 			page 67


 3346 0876 012B     		cmp	r3, #1
 3347 0878 11D1     		bne	.L77
 3348              		.loc 1 397 0 is_stmt 0 discriminator 1
 3349 087a 07F51653 		add	r3, r7, #9600
 3350 087e 03F11803 		add	r3, r3, #24
 3351 0882 1B68     		ldr	r3, [r3]
 3352 0884 591E     		subs	r1, r3, #1
 3353 0886 07F13002 		add	r2, r7, #48
 3354 088a 303A     		subs	r2, r2, #48
 3355 088c 0B46     		mov	r3, r1
 3356 088e 5B00     		lsls	r3, r3, #1
 3357 0890 0B44     		add	r3, r3, r1
 3358 0892 9B00     		lsls	r3, r3, #2
 3359 0894 1344     		add	r3, r3, r2
 3360 0896 0833     		adds	r3, r3, #8
 3361 0898 1B68     		ldr	r3, [r3]
 3362 089a 032B     		cmp	r3, #3
 3363 089c 6ED0     		beq	.L78
 3364              	.L77:
 3365              		.loc 1 397 0 discriminator 3
 3366 089e 07F13002 		add	r2, r7, #48
 3367 08a2 303A     		subs	r2, r2, #48
 3368 08a4 07F51653 		add	r3, r7, #9600
 3369 08a8 03F11803 		add	r3, r3, #24
 3370 08ac 1968     		ldr	r1, [r3]
 3371 08ae 0B46     		mov	r3, r1
 3372 08b0 5B00     		lsls	r3, r3, #1
 3373 08b2 0B44     		add	r3, r3, r1
 3374 08b4 9B00     		lsls	r3, r3, #2
 3375 08b6 1344     		add	r3, r3, r2
 3376 08b8 0833     		adds	r3, r3, #8
 3377 08ba 1B68     		ldr	r3, [r3]
 3378 08bc 032B     		cmp	r3, #3
 3379 08be 11D1     		bne	.L79
 3380              		.loc 1 397 0 discriminator 4
 3381 08c0 07F51653 		add	r3, r7, #9600
 3382 08c4 03F11803 		add	r3, r3, #24
 3383 08c8 1B68     		ldr	r3, [r3]
 3384 08ca 591E     		subs	r1, r3, #1
 3385 08cc 07F13002 		add	r2, r7, #48
 3386 08d0 303A     		subs	r2, r2, #48
 3387 08d2 0B46     		mov	r3, r1
 3388 08d4 5B00     		lsls	r3, r3, #1
 3389 08d6 0B44     		add	r3, r3, r1
 3390 08d8 9B00     		lsls	r3, r3, #2
 3391 08da 1344     		add	r3, r3, r2
 3392 08dc 0833     		adds	r3, r3, #8
 3393 08de 1B68     		ldr	r3, [r3]
 3394 08e0 012B     		cmp	r3, #1
 3395 08e2 4BD0     		beq	.L78
 3396              	.L79:
 3397              		.loc 1 397 0 discriminator 6
 3398 08e4 07F13002 		add	r2, r7, #48
 3399 08e8 303A     		subs	r2, r2, #48
 3400 08ea 07F51653 		add	r3, r7, #9600
 3401 08ee 03F11803 		add	r3, r3, #24
 3402 08f2 1968     		ldr	r1, [r3]
ARM GAS  C:\Users\Logan\AppData\Local\Temp\ccKKo5Vz.s 			page 68


 3403 08f4 0B46     		mov	r3, r1
 3404 08f6 5B00     		lsls	r3, r3, #1
 3405 08f8 0B44     		add	r3, r3, r1
 3406 08fa 9B00     		lsls	r3, r3, #2
 3407 08fc 1344     		add	r3, r3, r2
 3408 08fe 0833     		adds	r3, r3, #8
 3409 0900 1B68     		ldr	r3, [r3]
 3410 0902 012B     		cmp	r3, #1
 3411 0904 0FD1     		bne	.L80
 3412              		.loc 1 397 0 discriminator 7
 3413 0906 07F51653 		add	r3, r7, #9600
 3414 090a 03F11C03 		add	r3, r3, #28
 3415 090e 1B68     		ldr	r3, [r3]
 3416 0910 5A1C     		adds	r2, r3, #1
 3417 0912 6049     		ldr	r1, .L160
 3418 0914 1346     		mov	r3, r2
 3419 0916 5B00     		lsls	r3, r3, #1
 3420 0918 1344     		add	r3, r3, r2
 3421 091a 9B00     		lsls	r3, r3, #2
 3422 091c 0B44     		add	r3, r3, r1
 3423 091e 0833     		adds	r3, r3, #8
 3424 0920 1B68     		ldr	r3, [r3]
 3425 0922 032B     		cmp	r3, #3
 3426 0924 22D0     		beq	.L81
 3427              	.L80:
 3428              		.loc 1 397 0 discriminator 10
 3429 0926 07F13002 		add	r2, r7, #48
 3430 092a 303A     		subs	r2, r2, #48
 3431 092c 07F51653 		add	r3, r7, #9600
 3432 0930 03F11803 		add	r3, r3, #24
 3433 0934 1968     		ldr	r1, [r3]
 3434 0936 0B46     		mov	r3, r1
 3435 0938 5B00     		lsls	r3, r3, #1
 3436 093a 0B44     		add	r3, r3, r1
 3437 093c 9B00     		lsls	r3, r3, #2
 3438 093e 1344     		add	r3, r3, r2
 3439 0940 0833     		adds	r3, r3, #8
 3440 0942 1B68     		ldr	r3, [r3]
 3441 0944 032B     		cmp	r3, #3
 3442 0946 40F0A480 		bne	.L82
 3443              		.loc 1 397 0 discriminator 11
 3444 094a 07F51653 		add	r3, r7, #9600
 3445 094e 03F11C03 		add	r3, r3, #28
 3446 0952 1B68     		ldr	r3, [r3]
 3447 0954 5A1C     		adds	r2, r3, #1
 3448 0956 4F49     		ldr	r1, .L160
 3449 0958 1346     		mov	r3, r2
 3450 095a 5B00     		lsls	r3, r3, #1
 3451 095c 1344     		add	r3, r3, r2
 3452 095e 9B00     		lsls	r3, r3, #2
 3453 0960 0B44     		add	r3, r3, r1
 3454 0962 0833     		adds	r3, r3, #8
 3455 0964 1B68     		ldr	r3, [r3]
 3456 0966 012B     		cmp	r3, #1
 3457 0968 40F09380 		bne	.L82
 3458              	.L81:
 3459              		.loc 1 397 0 discriminator 12
ARM GAS  C:\Users\Logan\AppData\Local\Temp\ccKKo5Vz.s 			page 69


 3460 096c 07F51653 		add	r3, r7, #9600
 3461 0970 03F11803 		add	r3, r3, #24
 3462 0974 1B68     		ldr	r3, [r3]
 3463 0976 012B     		cmp	r3, #1
 3464 0978 40F08B80 		bne	.L82
 3465              	.L78:
 398:.\pathfinder.c ****                                // printf("L/R intersection found (%d) [direction = %d] -- TURN U-TU
 399:.\pathfinder.c ****                                 instructions[counter] = UTURN;
 3466              		.loc 1 399 0 is_stmt 1
 3467 097c 07F51653 		add	r3, r7, #9600
 3468 0980 03F12A03 		add	r3, r3, #42
 3469 0984 1B88     		ldrh	r3, [r3]
 3470 0986 444A     		ldr	r2, .L160+4
 3471 0988 5521     		movs	r1, #85
 3472 098a D154     		strb	r1, [r2, r3]
 400:.\pathfinder.c ****                                 instructions[counter + 1] = (inter_end - j + 1 )- inter_prev_inters
 3473              		.loc 1 400 0
 3474 098c 07F51653 		add	r3, r7, #9600
 3475 0990 03F12A03 		add	r3, r3, #42
 3476 0994 1B88     		ldrh	r3, [r3]
 3477 0996 0133     		adds	r3, r3, #1
 3478 0998 07F51652 		add	r2, r7, #9600
 3479 099c 02F11002 		add	r2, r2, #16
 3480 09a0 1268     		ldr	r2, [r2]
 3481 09a2 D1B2     		uxtb	r1, r2
 3482 09a4 07F51652 		add	r2, r7, #9600
 3483 09a8 02F11802 		add	r2, r2, #24
 3484 09ac 1268     		ldr	r2, [r2]
 3485 09ae D2B2     		uxtb	r2, r2
 3486 09b0 8A1A     		subs	r2, r1, r2
 3487 09b2 D1B2     		uxtb	r1, r2
 3488 09b4 07F51652 		add	r2, r7, #9600
 3489 09b8 02F12002 		add	r2, r2, #32
 3490 09bc 1268     		ldr	r2, [r2]
 3491 09be D2B2     		uxtb	r2, r2
 3492 09c0 8A1A     		subs	r2, r1, r2
 3493 09c2 D2B2     		uxtb	r2, r2
 3494 09c4 0132     		adds	r2, r2, #1
 3495 09c6 D1B2     		uxtb	r1, r2
 3496 09c8 334A     		ldr	r2, .L160+4
 3497 09ca D154     		strb	r1, [r2, r3]
 401:.\pathfinder.c ****                                 counter+=2;
 3498              		.loc 1 401 0
 3499 09cc 07F51653 		add	r3, r7, #9600
 3500 09d0 03F12A03 		add	r3, r3, #42
 3501 09d4 1B88     		ldrh	r3, [r3]	@ movhi
 3502 09d6 0233     		adds	r3, r3, #2
 3503 09d8 07F51652 		add	r2, r7, #9600
 3504 09dc 02F12A02 		add	r2, r2, #42
 3505 09e0 1380     		strh	r3, [r2]	@ movhi
 402:.\pathfinder.c ****                                 inter_prev_intersection = inter_end - j + 1;
 3506              		.loc 1 402 0
 3507 09e2 07F51653 		add	r3, r7, #9600
 3508 09e6 03F11003 		add	r3, r3, #16
 3509 09ea 1A68     		ldr	r2, [r3]
 3510 09ec 07F51653 		add	r3, r7, #9600
 3511 09f0 03F11803 		add	r3, r3, #24
ARM GAS  C:\Users\Logan\AppData\Local\Temp\ccKKo5Vz.s 			page 70


 3512 09f4 1B68     		ldr	r3, [r3]
 3513 09f6 D31A     		subs	r3, r2, r3
 3514 09f8 0133     		adds	r3, r3, #1
 3515 09fa 07F51652 		add	r2, r7, #9600
 3516 09fe 02F12002 		add	r2, r2, #32
 3517 0a02 1360     		str	r3, [r2]
 3518 0a04 45E0     		b	.L82
 3519              	.L70:
 3520 0a06 44E0     		b	.L82
 3521              	.L63:
 403:.\pathfinder.c ****                              }else{
 404:.\pathfinder.c ****                                // printf("Prev %d, current %d (%d, %d)\n",inter_path[j - 1][DIR], i
 405:.\pathfinder.c ****                              }
 406:.\pathfinder.c ****                           }else{
 407:.\pathfinder.c ****                              //printf("L/R intersection found (%d) [direction = %d] (%d, %d)\n", tm
 408:.\pathfinder.c ****                              instructions[counter] = STRAIGHT;
 3522              		.loc 1 408 0
 3523 0a08 07F51653 		add	r3, r7, #9600
 3524 0a0c 03F12A03 		add	r3, r3, #42
 3525 0a10 1B88     		ldrh	r3, [r3]
 3526 0a12 214A     		ldr	r2, .L160+4
 3527 0a14 5321     		movs	r1, #83
 3528 0a16 D154     		strb	r1, [r2, r3]
 409:.\pathfinder.c ****                              instructions[counter + 1] = (inter_end - j + 1 )- inter_prev_intersect
 3529              		.loc 1 409 0
 3530 0a18 07F51653 		add	r3, r7, #9600
 3531 0a1c 03F12A03 		add	r3, r3, #42
 3532 0a20 1B88     		ldrh	r3, [r3]
 3533 0a22 0133     		adds	r3, r3, #1
 3534 0a24 07F51652 		add	r2, r7, #9600
 3535 0a28 02F11002 		add	r2, r2, #16
 3536 0a2c 1268     		ldr	r2, [r2]
 3537 0a2e D1B2     		uxtb	r1, r2
 3538 0a30 07F51652 		add	r2, r7, #9600
 3539 0a34 02F11802 		add	r2, r2, #24
 3540 0a38 1268     		ldr	r2, [r2]
 3541 0a3a D2B2     		uxtb	r2, r2
 3542 0a3c 8A1A     		subs	r2, r1, r2
 3543 0a3e D1B2     		uxtb	r1, r2
 3544 0a40 07F51652 		add	r2, r7, #9600
 3545 0a44 02F12002 		add	r2, r2, #32
 3546 0a48 1268     		ldr	r2, [r2]
 3547 0a4a D2B2     		uxtb	r2, r2
 3548 0a4c 8A1A     		subs	r2, r1, r2
 3549 0a4e D2B2     		uxtb	r2, r2
 3550 0a50 0132     		adds	r2, r2, #1
 3551 0a52 D1B2     		uxtb	r1, r2
 3552 0a54 104A     		ldr	r2, .L160+4
 3553 0a56 D154     		strb	r1, [r2, r3]
 410:.\pathfinder.c ****                              counter+=2;
 3554              		.loc 1 410 0
 3555 0a58 07F51653 		add	r3, r7, #9600
 3556 0a5c 03F12A03 		add	r3, r3, #42
 3557 0a60 1B88     		ldrh	r3, [r3]	@ movhi
 3558 0a62 0233     		adds	r3, r3, #2
 3559 0a64 07F51652 		add	r2, r7, #9600
 3560 0a68 02F12A02 		add	r2, r2, #42
ARM GAS  C:\Users\Logan\AppData\Local\Temp\ccKKo5Vz.s 			page 71


 3561 0a6c 1380     		strh	r3, [r2]	@ movhi
 411:.\pathfinder.c ****                              inter_prev_intersection = inter_end - j + 1;
 3562              		.loc 1 411 0
 3563 0a6e 07F51653 		add	r3, r7, #9600
 3564 0a72 03F11003 		add	r3, r3, #16
 3565 0a76 1A68     		ldr	r2, [r3]
 3566 0a78 07F51653 		add	r3, r7, #9600
 3567 0a7c 03F11803 		add	r3, r3, #24
 3568 0a80 1B68     		ldr	r3, [r3]
 3569 0a82 D31A     		subs	r3, r2, r3
 3570 0a84 0133     		adds	r3, r3, #1
 3571 0a86 07F51652 		add	r2, r7, #9600
 3572 0a8a 02F12002 		add	r2, r2, #32
 3573 0a8e 1360     		str	r3, [r2]
 383:.\pathfinder.c ****                              //current direction , the next direction
 3574              		.loc 1 383 0
 3575 0a90 D9E0     		b	.L83
 3576              	.L82:
 383:.\pathfinder.c ****                              //current direction , the next direction
 3577              		.loc 1 383 0 is_stmt 0 discriminator 1
 3578 0a92 D8E0     		b	.L83
 3579              	.L161:
 3580              		.align	2
 3581              	.L160:
 3582 0a94 00000000 		.word	path
 3583 0a98 00000000 		.word	instructions
 3584              	.L62:
 412:.\pathfinder.c ****                           }
 413:.\pathfinder.c ****                        }else{//not an intersection
 414:.\pathfinder.c ****                           if ((inter_path[j][DIR] == 1 && inter_path[j - 1][DIR] == 3) || (inter_pa
 3585              		.loc 1 414 0 is_stmt 1
 3586 0a9c 07F13002 		add	r2, r7, #48
 3587 0aa0 303A     		subs	r2, r2, #48
 3588 0aa2 07F51653 		add	r3, r7, #9600
 3589 0aa6 03F11803 		add	r3, r3, #24
 3590 0aaa 1968     		ldr	r1, [r3]
 3591 0aac 0B46     		mov	r3, r1
 3592 0aae 5B00     		lsls	r3, r3, #1
 3593 0ab0 0B44     		add	r3, r3, r1
 3594 0ab2 9B00     		lsls	r3, r3, #2
 3595 0ab4 1344     		add	r3, r3, r2
 3596 0ab6 0833     		adds	r3, r3, #8
 3597 0ab8 1B68     		ldr	r3, [r3]
 3598 0aba 012B     		cmp	r3, #1
 3599 0abc 11D1     		bne	.L84
 3600              		.loc 1 414 0 is_stmt 0 discriminator 1
 3601 0abe 07F51653 		add	r3, r7, #9600
 3602 0ac2 03F11803 		add	r3, r3, #24
 3603 0ac6 1B68     		ldr	r3, [r3]
 3604 0ac8 591E     		subs	r1, r3, #1
 3605 0aca 07F13002 		add	r2, r7, #48
 3606 0ace 303A     		subs	r2, r2, #48
 3607 0ad0 0B46     		mov	r3, r1
 3608 0ad2 5B00     		lsls	r3, r3, #1
 3609 0ad4 0B44     		add	r3, r3, r1
 3610 0ad6 9B00     		lsls	r3, r3, #2
 3611 0ad8 1344     		add	r3, r3, r2
ARM GAS  C:\Users\Logan\AppData\Local\Temp\ccKKo5Vz.s 			page 72


 3612 0ada 0833     		adds	r3, r3, #8
 3613 0adc 1B68     		ldr	r3, [r3]
 3614 0ade 032B     		cmp	r3, #3
 3615 0ae0 6BD0     		beq	.L85
 3616              	.L84:
 3617              		.loc 1 414 0 discriminator 3
 3618 0ae2 07F13002 		add	r2, r7, #48
 3619 0ae6 303A     		subs	r2, r2, #48
 3620 0ae8 07F51653 		add	r3, r7, #9600
 3621 0aec 03F11803 		add	r3, r3, #24
 3622 0af0 1968     		ldr	r1, [r3]
 3623 0af2 0B46     		mov	r3, r1
 3624 0af4 5B00     		lsls	r3, r3, #1
 3625 0af6 0B44     		add	r3, r3, r1
 3626 0af8 9B00     		lsls	r3, r3, #2
 3627 0afa 1344     		add	r3, r3, r2
 3628 0afc 0833     		adds	r3, r3, #8
 3629 0afe 1B68     		ldr	r3, [r3]
 3630 0b00 032B     		cmp	r3, #3
 3631 0b02 11D1     		bne	.L86
 3632              		.loc 1 414 0 discriminator 4
 3633 0b04 07F51653 		add	r3, r7, #9600
 3634 0b08 03F11803 		add	r3, r3, #24
 3635 0b0c 1B68     		ldr	r3, [r3]
 3636 0b0e 591E     		subs	r1, r3, #1
 3637 0b10 07F13002 		add	r2, r7, #48
 3638 0b14 303A     		subs	r2, r2, #48
 3639 0b16 0B46     		mov	r3, r1
 3640 0b18 5B00     		lsls	r3, r3, #1
 3641 0b1a 0B44     		add	r3, r3, r1
 3642 0b1c 9B00     		lsls	r3, r3, #2
 3643 0b1e 1344     		add	r3, r3, r2
 3644 0b20 0833     		adds	r3, r3, #8
 3645 0b22 1B68     		ldr	r3, [r3]
 3646 0b24 012B     		cmp	r3, #1
 3647 0b26 48D0     		beq	.L85
 3648              	.L86:
 3649              		.loc 1 414 0 discriminator 6
 3650 0b28 07F13002 		add	r2, r7, #48
 3651 0b2c 303A     		subs	r2, r2, #48
 3652 0b2e 07F51653 		add	r3, r7, #9600
 3653 0b32 03F11803 		add	r3, r3, #24
 3654 0b36 1968     		ldr	r1, [r3]
 3655 0b38 0B46     		mov	r3, r1
 3656 0b3a 5B00     		lsls	r3, r3, #1
 3657 0b3c 0B44     		add	r3, r3, r1
 3658 0b3e 9B00     		lsls	r3, r3, #2
 3659 0b40 1344     		add	r3, r3, r2
 3660 0b42 0833     		adds	r3, r3, #8
 3661 0b44 1B68     		ldr	r3, [r3]
 3662 0b46 012B     		cmp	r3, #1
 3663 0b48 0FD1     		bne	.L87
 3664              		.loc 1 414 0 discriminator 7
 3665 0b4a 07F51653 		add	r3, r7, #9600
 3666 0b4e 03F11C03 		add	r3, r3, #28
 3667 0b52 1B68     		ldr	r3, [r3]
 3668 0b54 5A1C     		adds	r2, r3, #1
ARM GAS  C:\Users\Logan\AppData\Local\Temp\ccKKo5Vz.s 			page 73


 3669 0b56 3D49     		ldr	r1, .L162
 3670 0b58 1346     		mov	r3, r2
 3671 0b5a 5B00     		lsls	r3, r3, #1
 3672 0b5c 1344     		add	r3, r3, r2
 3673 0b5e 9B00     		lsls	r3, r3, #2
 3674 0b60 0B44     		add	r3, r3, r1
 3675 0b62 0833     		adds	r3, r3, #8
 3676 0b64 1B68     		ldr	r3, [r3]
 3677 0b66 032B     		cmp	r3, #3
 3678 0b68 20D0     		beq	.L88
 3679              	.L87:
 3680              		.loc 1 414 0 discriminator 10
 3681 0b6a 07F13002 		add	r2, r7, #48
 3682 0b6e 303A     		subs	r2, r2, #48
 3683 0b70 07F51653 		add	r3, r7, #9600
 3684 0b74 03F11803 		add	r3, r3, #24
 3685 0b78 1968     		ldr	r1, [r3]
 3686 0b7a 0B46     		mov	r3, r1
 3687 0b7c 5B00     		lsls	r3, r3, #1
 3688 0b7e 0B44     		add	r3, r3, r1
 3689 0b80 9B00     		lsls	r3, r3, #2
 3690 0b82 1344     		add	r3, r3, r2
 3691 0b84 0833     		adds	r3, r3, #8
 3692 0b86 1B68     		ldr	r3, [r3]
 3693 0b88 032B     		cmp	r3, #3
 3694 0b8a 5CD1     		bne	.L83
 3695              		.loc 1 414 0 discriminator 11
 3696 0b8c 07F51653 		add	r3, r7, #9600
 3697 0b90 03F11C03 		add	r3, r3, #28
 3698 0b94 1B68     		ldr	r3, [r3]
 3699 0b96 5A1C     		adds	r2, r3, #1
 3700 0b98 2C49     		ldr	r1, .L162
 3701 0b9a 1346     		mov	r3, r2
 3702 0b9c 5B00     		lsls	r3, r3, #1
 3703 0b9e 1344     		add	r3, r3, r2
 3704 0ba0 9B00     		lsls	r3, r3, #2
 3705 0ba2 0B44     		add	r3, r3, r1
 3706 0ba4 0833     		adds	r3, r3, #8
 3707 0ba6 1B68     		ldr	r3, [r3]
 3708 0ba8 012B     		cmp	r3, #1
 3709 0baa 4CD1     		bne	.L83
 3710              	.L88:
 3711              		.loc 1 414 0 discriminator 12
 3712 0bac 07F51653 		add	r3, r7, #9600
 3713 0bb0 03F11803 		add	r3, r3, #24
 3714 0bb4 1B68     		ldr	r3, [r3]
 3715 0bb6 012B     		cmp	r3, #1
 3716 0bb8 45D1     		bne	.L83
 3717              	.L85:
 415:.\pathfinder.c ****                             // printf("L/R intersection found (%d) [direction = %d] -- TURN U-TURN 
 416:.\pathfinder.c ****                              instructions[counter] = UTURN;
 3718              		.loc 1 416 0 is_stmt 1
 3719 0bba 07F51653 		add	r3, r7, #9600
 3720 0bbe 03F12A03 		add	r3, r3, #42
 3721 0bc2 1B88     		ldrh	r3, [r3]
 3722 0bc4 224A     		ldr	r2, .L162+4
 3723 0bc6 5521     		movs	r1, #85
ARM GAS  C:\Users\Logan\AppData\Local\Temp\ccKKo5Vz.s 			page 74


 3724 0bc8 D154     		strb	r1, [r2, r3]
 417:.\pathfinder.c ****                              instructions[counter + 1] = (inter_end - j + 1 )- inter_prev_intersect
 3725              		.loc 1 417 0
 3726 0bca 07F51653 		add	r3, r7, #9600
 3727 0bce 03F12A03 		add	r3, r3, #42
 3728 0bd2 1B88     		ldrh	r3, [r3]
 3729 0bd4 0133     		adds	r3, r3, #1
 3730 0bd6 07F51652 		add	r2, r7, #9600
 3731 0bda 02F11002 		add	r2, r2, #16
 3732 0bde 1268     		ldr	r2, [r2]
 3733 0be0 D1B2     		uxtb	r1, r2
 3734 0be2 07F51652 		add	r2, r7, #9600
 3735 0be6 02F11802 		add	r2, r2, #24
 3736 0bea 1268     		ldr	r2, [r2]
 3737 0bec D2B2     		uxtb	r2, r2
 3738 0bee 8A1A     		subs	r2, r1, r2
 3739 0bf0 D1B2     		uxtb	r1, r2
 3740 0bf2 07F51652 		add	r2, r7, #9600
 3741 0bf6 02F12002 		add	r2, r2, #32
 3742 0bfa 1268     		ldr	r2, [r2]
 3743 0bfc D2B2     		uxtb	r2, r2
 3744 0bfe 8A1A     		subs	r2, r1, r2
 3745 0c00 D2B2     		uxtb	r2, r2
 3746 0c02 0132     		adds	r2, r2, #1
 3747 0c04 D1B2     		uxtb	r1, r2
 3748 0c06 124A     		ldr	r2, .L162+4
 3749 0c08 D154     		strb	r1, [r2, r3]
 418:.\pathfinder.c ****                              counter+=2;
 3750              		.loc 1 418 0
 3751 0c0a 07F51653 		add	r3, r7, #9600
 3752 0c0e 03F12A03 		add	r3, r3, #42
 3753 0c12 1B88     		ldrh	r3, [r3]	@ movhi
 3754 0c14 0233     		adds	r3, r3, #2
 3755 0c16 07F51652 		add	r2, r7, #9600
 3756 0c1a 02F12A02 		add	r2, r2, #42
 3757 0c1e 1380     		strh	r3, [r2]	@ movhi
 419:.\pathfinder.c ****                              inter_prev_intersection = inter_end - j + 1;
 3758              		.loc 1 419 0
 3759 0c20 07F51653 		add	r3, r7, #9600
 3760 0c24 03F11003 		add	r3, r3, #16
 3761 0c28 1A68     		ldr	r2, [r3]
 3762 0c2a 07F51653 		add	r3, r7, #9600
 3763 0c2e 03F11803 		add	r3, r3, #24
 3764 0c32 1B68     		ldr	r3, [r3]
 3765 0c34 D31A     		subs	r3, r2, r3
 3766 0c36 0133     		adds	r3, r3, #1
 3767 0c38 07F51652 		add	r2, r7, #9600
 3768 0c3c 02F12002 		add	r2, r2, #32
 3769 0c40 1360     		str	r3, [r2]
 382:.\pathfinder.c ****                           if(inter_path[j][DIR] != inter_path[j - 1][DIR]){
 3770              		.loc 1 382 0
 3771 0c42 00F020BC 		b	.L89
 3772              	.L83:
 382:.\pathfinder.c ****                           if(inter_path[j][DIR] != inter_path[j - 1][DIR]){
 3773              		.loc 1 382 0 is_stmt 0 discriminator 2
 3774 0c46 00F01EBC 		b	.L89
 3775              	.L163:
ARM GAS  C:\Users\Logan\AppData\Local\Temp\ccKKo5Vz.s 			page 75


 3776 0c4a 00BF     		.align	2
 3777              	.L162:
 3778 0c4c 00000000 		.word	path
 3779 0c50 00000000 		.word	instructions
 3780              	.L60:
 420:.\pathfinder.c ****                           }else{
 421:.\pathfinder.c ****                           //printf("4 [(%d), direction = %d]\n", inter_end - j + 1, inter_path[j][D
 422:.\pathfinder.c ****                        }
 423:.\pathfinder.c ****                        }
 424:.\pathfinder.c ****                     }else{
 425:.\pathfinder.c ****                        if(map[inter_path[j][Y] - 1][inter_path[j][X]] == PATH || map[inter_path[j][
 3781              		.loc 1 425 0 is_stmt 1
 3782 0c54 07F13002 		add	r2, r7, #48
 3783 0c58 303A     		subs	r2, r2, #48
 3784 0c5a 07F51653 		add	r3, r7, #9600
 3785 0c5e 03F11803 		add	r3, r3, #24
 3786 0c62 1968     		ldr	r1, [r3]
 3787 0c64 0B46     		mov	r3, r1
 3788 0c66 5B00     		lsls	r3, r3, #1
 3789 0c68 0B44     		add	r3, r3, r1
 3790 0c6a 9B00     		lsls	r3, r3, #2
 3791 0c6c 1344     		add	r3, r3, r2
 3792 0c6e 1B68     		ldr	r3, [r3]
 3793 0c70 591E     		subs	r1, r3, #1
 3794 0c72 07F13002 		add	r2, r7, #48
 3795 0c76 303A     		subs	r2, r2, #48
 3796 0c78 07F51653 		add	r3, r7, #9600
 3797 0c7c 03F11803 		add	r3, r3, #24
 3798 0c80 1868     		ldr	r0, [r3]
 3799 0c82 0346     		mov	r3, r0
 3800 0c84 5B00     		lsls	r3, r3, #1
 3801 0c86 0344     		add	r3, r3, r0
 3802 0c88 9B00     		lsls	r3, r3, #2
 3803 0c8a 1344     		add	r3, r3, r2
 3804 0c8c 0433     		adds	r3, r3, #4
 3805 0c8e 1A68     		ldr	r2, [r3]
 3806 0c90 9548     		ldr	r0, .L164
 3807 0c92 0B46     		mov	r3, r1
 3808 0c94 DB00     		lsls	r3, r3, #3
 3809 0c96 0B44     		add	r3, r3, r1
 3810 0c98 5B00     		lsls	r3, r3, #1
 3811 0c9a 0B44     		add	r3, r3, r1
 3812 0c9c 1344     		add	r3, r3, r2
 3813 0c9e 50F82330 		ldr	r3, [r0, r3, lsl #2]
 3814 0ca2 002B     		cmp	r3, #0
 3815 0ca4 29D0     		beq	.L90
 3816              		.loc 1 425 0 is_stmt 0 discriminator 1
 3817 0ca6 07F13002 		add	r2, r7, #48
 3818 0caa 303A     		subs	r2, r2, #48
 3819 0cac 07F51653 		add	r3, r7, #9600
 3820 0cb0 03F11803 		add	r3, r3, #24
 3821 0cb4 1968     		ldr	r1, [r3]
 3822 0cb6 0B46     		mov	r3, r1
 3823 0cb8 5B00     		lsls	r3, r3, #1
 3824 0cba 0B44     		add	r3, r3, r1
 3825 0cbc 9B00     		lsls	r3, r3, #2
 3826 0cbe 1344     		add	r3, r3, r2
ARM GAS  C:\Users\Logan\AppData\Local\Temp\ccKKo5Vz.s 			page 76


 3827 0cc0 1B68     		ldr	r3, [r3]
 3828 0cc2 591C     		adds	r1, r3, #1
 3829 0cc4 07F13002 		add	r2, r7, #48
 3830 0cc8 303A     		subs	r2, r2, #48
 3831 0cca 07F51653 		add	r3, r7, #9600
 3832 0cce 03F11803 		add	r3, r3, #24
 3833 0cd2 1868     		ldr	r0, [r3]
 3834 0cd4 0346     		mov	r3, r0
 3835 0cd6 5B00     		lsls	r3, r3, #1
 3836 0cd8 0344     		add	r3, r3, r0
 3837 0cda 9B00     		lsls	r3, r3, #2
 3838 0cdc 1344     		add	r3, r3, r2
 3839 0cde 0433     		adds	r3, r3, #4
 3840 0ce0 1A68     		ldr	r2, [r3]
 3841 0ce2 8148     		ldr	r0, .L164
 3842 0ce4 0B46     		mov	r3, r1
 3843 0ce6 DB00     		lsls	r3, r3, #3
 3844 0ce8 0B44     		add	r3, r3, r1
 3845 0cea 5B00     		lsls	r3, r3, #1
 3846 0cec 0B44     		add	r3, r3, r1
 3847 0cee 1344     		add	r3, r3, r2
 3848 0cf0 50F82330 		ldr	r3, [r0, r3, lsl #2]
 3849 0cf4 002B     		cmp	r3, #0
 3850 0cf6 40F0F382 		bne	.L91
 3851              	.L90:
 426:.\pathfinder.c ****                           if(inter_path[j][DIR] != inter_path[j - 1][DIR]){
 3852              		.loc 1 426 0 is_stmt 1
 3853 0cfa 07F13002 		add	r2, r7, #48
 3854 0cfe 303A     		subs	r2, r2, #48
 3855 0d00 07F51653 		add	r3, r7, #9600
 3856 0d04 03F11803 		add	r3, r3, #24
 3857 0d08 1968     		ldr	r1, [r3]
 3858 0d0a 0B46     		mov	r3, r1
 3859 0d0c 5B00     		lsls	r3, r3, #1
 3860 0d0e 0B44     		add	r3, r3, r1
 3861 0d10 9B00     		lsls	r3, r3, #2
 3862 0d12 1344     		add	r3, r3, r2
 3863 0d14 0833     		adds	r3, r3, #8
 3864 0d16 1868     		ldr	r0, [r3]
 3865 0d18 07F51653 		add	r3, r7, #9600
 3866 0d1c 03F11803 		add	r3, r3, #24
 3867 0d20 1B68     		ldr	r3, [r3]
 3868 0d22 591E     		subs	r1, r3, #1
 3869 0d24 07F13002 		add	r2, r7, #48
 3870 0d28 303A     		subs	r2, r2, #48
 3871 0d2a 0B46     		mov	r3, r1
 3872 0d2c 5B00     		lsls	r3, r3, #1
 3873 0d2e 0B44     		add	r3, r3, r1
 3874 0d30 9B00     		lsls	r3, r3, #2
 3875 0d32 1344     		add	r3, r3, r2
 3876 0d34 0833     		adds	r3, r3, #8
 3877 0d36 1B68     		ldr	r3, [r3]
 3878 0d38 9842     		cmp	r0, r3
 3879 0d3a 00F08782 		beq	.L92
 427:.\pathfinder.c ****                              if((inter_path[j][DIR] == 4 && inter_path[j - 1][DIR] == 3) || (inter_
 3880              		.loc 1 427 0
 3881 0d3e 07F13002 		add	r2, r7, #48
ARM GAS  C:\Users\Logan\AppData\Local\Temp\ccKKo5Vz.s 			page 77


 3882 0d42 303A     		subs	r2, r2, #48
 3883 0d44 07F51653 		add	r3, r7, #9600
 3884 0d48 03F11803 		add	r3, r3, #24
 3885 0d4c 1968     		ldr	r1, [r3]
 3886 0d4e 0B46     		mov	r3, r1
 3887 0d50 5B00     		lsls	r3, r3, #1
 3888 0d52 0B44     		add	r3, r3, r1
 3889 0d54 9B00     		lsls	r3, r3, #2
 3890 0d56 1344     		add	r3, r3, r2
 3891 0d58 0833     		adds	r3, r3, #8
 3892 0d5a 1B68     		ldr	r3, [r3]
 3893 0d5c 042B     		cmp	r3, #4
 3894 0d5e 11D1     		bne	.L93
 3895              		.loc 1 427 0 is_stmt 0 discriminator 1
 3896 0d60 07F51653 		add	r3, r7, #9600
 3897 0d64 03F11803 		add	r3, r3, #24
 3898 0d68 1B68     		ldr	r3, [r3]
 3899 0d6a 591E     		subs	r1, r3, #1
 3900 0d6c 07F13002 		add	r2, r7, #48
 3901 0d70 303A     		subs	r2, r2, #48
 3902 0d72 0B46     		mov	r3, r1
 3903 0d74 5B00     		lsls	r3, r3, #1
 3904 0d76 0B44     		add	r3, r3, r1
 3905 0d78 9B00     		lsls	r3, r3, #2
 3906 0d7a 1344     		add	r3, r3, r2
 3907 0d7c 0833     		adds	r3, r3, #8
 3908 0d7e 1B68     		ldr	r3, [r3]
 3909 0d80 032B     		cmp	r3, #3
 3910 0d82 6BD0     		beq	.L94
 3911              	.L93:
 3912              		.loc 1 427 0 discriminator 3
 3913 0d84 07F13002 		add	r2, r7, #48
 3914 0d88 303A     		subs	r2, r2, #48
 3915 0d8a 07F51653 		add	r3, r7, #9600
 3916 0d8e 03F11803 		add	r3, r3, #24
 3917 0d92 1968     		ldr	r1, [r3]
 3918 0d94 0B46     		mov	r3, r1
 3919 0d96 5B00     		lsls	r3, r3, #1
 3920 0d98 0B44     		add	r3, r3, r1
 3921 0d9a 9B00     		lsls	r3, r3, #2
 3922 0d9c 1344     		add	r3, r3, r2
 3923 0d9e 0833     		adds	r3, r3, #8
 3924 0da0 1B68     		ldr	r3, [r3]
 3925 0da2 022B     		cmp	r3, #2
 3926 0da4 11D1     		bne	.L95
 3927              		.loc 1 427 0 discriminator 4
 3928 0da6 07F51653 		add	r3, r7, #9600
 3929 0daa 03F11803 		add	r3, r3, #24
 3930 0dae 1B68     		ldr	r3, [r3]
 3931 0db0 591E     		subs	r1, r3, #1
 3932 0db2 07F13002 		add	r2, r7, #48
 3933 0db6 303A     		subs	r2, r2, #48
 3934 0db8 0B46     		mov	r3, r1
 3935 0dba 5B00     		lsls	r3, r3, #1
 3936 0dbc 0B44     		add	r3, r3, r1
 3937 0dbe 9B00     		lsls	r3, r3, #2
 3938 0dc0 1344     		add	r3, r3, r2
ARM GAS  C:\Users\Logan\AppData\Local\Temp\ccKKo5Vz.s 			page 78


 3939 0dc2 0833     		adds	r3, r3, #8
 3940 0dc4 1B68     		ldr	r3, [r3]
 3941 0dc6 012B     		cmp	r3, #1
 3942 0dc8 48D0     		beq	.L94
 3943              	.L95:
 3944              		.loc 1 427 0 discriminator 6
 3945 0dca 07F13002 		add	r2, r7, #48
 3946 0dce 303A     		subs	r2, r2, #48
 3947 0dd0 07F51653 		add	r3, r7, #9600
 3948 0dd4 03F11803 		add	r3, r3, #24
 3949 0dd8 1968     		ldr	r1, [r3]
 3950 0dda 0B46     		mov	r3, r1
 3951 0ddc 5B00     		lsls	r3, r3, #1
 3952 0dde 0B44     		add	r3, r3, r1
 3953 0de0 9B00     		lsls	r3, r3, #2
 3954 0de2 1344     		add	r3, r3, r2
 3955 0de4 0833     		adds	r3, r3, #8
 3956 0de6 1B68     		ldr	r3, [r3]
 3957 0de8 042B     		cmp	r3, #4
 3958 0dea 0FD1     		bne	.L96
 3959              		.loc 1 427 0 discriminator 7
 3960 0dec 07F51653 		add	r3, r7, #9600
 3961 0df0 03F11C03 		add	r3, r3, #28
 3962 0df4 1B68     		ldr	r3, [r3]
 3963 0df6 5A1C     		adds	r2, r3, #1
 3964 0df8 3C49     		ldr	r1, .L164+4
 3965 0dfa 1346     		mov	r3, r2
 3966 0dfc 5B00     		lsls	r3, r3, #1
 3967 0dfe 1344     		add	r3, r3, r2
 3968 0e00 9B00     		lsls	r3, r3, #2
 3969 0e02 0B44     		add	r3, r3, r1
 3970 0e04 0833     		adds	r3, r3, #8
 3971 0e06 1B68     		ldr	r3, [r3]
 3972 0e08 032B     		cmp	r3, #3
 3973 0e0a 20D0     		beq	.L97
 3974              	.L96:
 3975              		.loc 1 427 0 discriminator 10
 3976 0e0c 07F13002 		add	r2, r7, #48
 3977 0e10 303A     		subs	r2, r2, #48
 3978 0e12 07F51653 		add	r3, r7, #9600
 3979 0e16 03F11803 		add	r3, r3, #24
 3980 0e1a 1968     		ldr	r1, [r3]
 3981 0e1c 0B46     		mov	r3, r1
 3982 0e1e 5B00     		lsls	r3, r3, #1
 3983 0e20 0B44     		add	r3, r3, r1
 3984 0e22 9B00     		lsls	r3, r3, #2
 3985 0e24 1344     		add	r3, r3, r2
 3986 0e26 0833     		adds	r3, r3, #8
 3987 0e28 1B68     		ldr	r3, [r3]
 3988 0e2a 022B     		cmp	r3, #2
 3989 0e2c 62D1     		bne	.L98
 3990              		.loc 1 427 0 discriminator 11
 3991 0e2e 07F51653 		add	r3, r7, #9600
 3992 0e32 03F11C03 		add	r3, r3, #28
 3993 0e36 1B68     		ldr	r3, [r3]
 3994 0e38 5A1C     		adds	r2, r3, #1
 3995 0e3a 2C49     		ldr	r1, .L164+4
ARM GAS  C:\Users\Logan\AppData\Local\Temp\ccKKo5Vz.s 			page 79


 3996 0e3c 1346     		mov	r3, r2
 3997 0e3e 5B00     		lsls	r3, r3, #1
 3998 0e40 1344     		add	r3, r3, r2
 3999 0e42 9B00     		lsls	r3, r3, #2
 4000 0e44 0B44     		add	r3, r3, r1
 4001 0e46 0833     		adds	r3, r3, #8
 4002 0e48 1B68     		ldr	r3, [r3]
 4003 0e4a 012B     		cmp	r3, #1
 4004 0e4c 52D1     		bne	.L98
 4005              	.L97:
 4006              		.loc 1 427 0 discriminator 12
 4007 0e4e 07F51653 		add	r3, r7, #9600
 4008 0e52 03F11803 		add	r3, r3, #24
 4009 0e56 1B68     		ldr	r3, [r3]
 4010 0e58 012B     		cmp	r3, #1
 4011 0e5a 4BD1     		bne	.L98
 4012              	.L94:
 428:.\pathfinder.c ****                                 //printf("U/D intersection found (%d) [direction = %d] -- TURN LEFT
 429:.\pathfinder.c ****                                 instructions[counter] = LEFT;
 4013              		.loc 1 429 0 is_stmt 1
 4014 0e5c 07F51653 		add	r3, r7, #9600
 4015 0e60 03F12A03 		add	r3, r3, #42
 4016 0e64 1B88     		ldrh	r3, [r3]
 4017 0e66 224A     		ldr	r2, .L164+8
 4018 0e68 4C21     		movs	r1, #76
 4019 0e6a D154     		strb	r1, [r2, r3]
 430:.\pathfinder.c ****                                 instructions[counter + 1] = (inter_end - j + 1 )- inter_prev_inters
 4020              		.loc 1 430 0
 4021 0e6c 07F51653 		add	r3, r7, #9600
 4022 0e70 03F12A03 		add	r3, r3, #42
 4023 0e74 1B88     		ldrh	r3, [r3]
 4024 0e76 0133     		adds	r3, r3, #1
 4025 0e78 07F51652 		add	r2, r7, #9600
 4026 0e7c 02F11002 		add	r2, r2, #16
 4027 0e80 1268     		ldr	r2, [r2]
 4028 0e82 D1B2     		uxtb	r1, r2
 4029 0e84 07F51652 		add	r2, r7, #9600
 4030 0e88 02F11802 		add	r2, r2, #24
 4031 0e8c 1268     		ldr	r2, [r2]
 4032 0e8e D2B2     		uxtb	r2, r2
 4033 0e90 8A1A     		subs	r2, r1, r2
 4034 0e92 D1B2     		uxtb	r1, r2
 4035 0e94 07F51652 		add	r2, r7, #9600
 4036 0e98 02F12002 		add	r2, r2, #32
 4037 0e9c 1268     		ldr	r2, [r2]
 4038 0e9e D2B2     		uxtb	r2, r2
 4039 0ea0 8A1A     		subs	r2, r1, r2
 4040 0ea2 D2B2     		uxtb	r2, r2
 4041 0ea4 0132     		adds	r2, r2, #1
 4042 0ea6 D1B2     		uxtb	r1, r2
 4043 0ea8 114A     		ldr	r2, .L164+8
 4044 0eaa D154     		strb	r1, [r2, r3]
 431:.\pathfinder.c ****                                 counter+=2;
 4045              		.loc 1 431 0
 4046 0eac 07F51653 		add	r3, r7, #9600
 4047 0eb0 03F12A03 		add	r3, r3, #42
 4048 0eb4 1B88     		ldrh	r3, [r3]	@ movhi
ARM GAS  C:\Users\Logan\AppData\Local\Temp\ccKKo5Vz.s 			page 80


 4049 0eb6 0233     		adds	r3, r3, #2
 4050 0eb8 07F51652 		add	r2, r7, #9600
 4051 0ebc 02F12A02 		add	r2, r2, #42
 4052 0ec0 1380     		strh	r3, [r2]	@ movhi
 432:.\pathfinder.c ****                                 inter_prev_intersection = inter_end - j + 1;
 4053              		.loc 1 432 0
 4054 0ec2 07F51653 		add	r3, r7, #9600
 4055 0ec6 03F11003 		add	r3, r3, #16
 4056 0eca 1A68     		ldr	r2, [r3]
 4057 0ecc 07F51653 		add	r3, r7, #9600
 4058 0ed0 03F11803 		add	r3, r3, #24
 4059 0ed4 1B68     		ldr	r3, [r3]
 4060 0ed6 D31A     		subs	r3, r2, r3
 4061 0ed8 0133     		adds	r3, r3, #1
 4062 0eda 07F51652 		add	r2, r7, #9600
 4063 0ede 02F12002 		add	r2, r2, #32
 4064 0ee2 1360     		str	r3, [r2]
 4065 0ee4 B1E1     		b	.L99
 4066              	.L165:
 4067 0ee6 00BF     		.align	2
 4068              	.L164:
 4069 0ee8 00000000 		.word	map
 4070 0eec 00000000 		.word	path
 4071 0ef0 00000000 		.word	instructions
 4072              	.L98:
 433:.\pathfinder.c ****                              }else if((inter_path[j][DIR] == 4 && inter_path[j - 1][DIR] == 1) || (
 4073              		.loc 1 433 0
 4074 0ef4 07F13002 		add	r2, r7, #48
 4075 0ef8 303A     		subs	r2, r2, #48
 4076 0efa 07F51653 		add	r3, r7, #9600
 4077 0efe 03F11803 		add	r3, r3, #24
 4078 0f02 1968     		ldr	r1, [r3]
 4079 0f04 0B46     		mov	r3, r1
 4080 0f06 5B00     		lsls	r3, r3, #1
 4081 0f08 0B44     		add	r3, r3, r1
 4082 0f0a 9B00     		lsls	r3, r3, #2
 4083 0f0c 1344     		add	r3, r3, r2
 4084 0f0e 0833     		adds	r3, r3, #8
 4085 0f10 1B68     		ldr	r3, [r3]
 4086 0f12 042B     		cmp	r3, #4
 4087 0f14 11D1     		bne	.L100
 4088              		.loc 1 433 0 is_stmt 0 discriminator 1
 4089 0f16 07F51653 		add	r3, r7, #9600
 4090 0f1a 03F11803 		add	r3, r3, #24
 4091 0f1e 1B68     		ldr	r3, [r3]
 4092 0f20 591E     		subs	r1, r3, #1
 4093 0f22 07F13002 		add	r2, r7, #48
 4094 0f26 303A     		subs	r2, r2, #48
 4095 0f28 0B46     		mov	r3, r1
 4096 0f2a 5B00     		lsls	r3, r3, #1
 4097 0f2c 0B44     		add	r3, r3, r1
 4098 0f2e 9B00     		lsls	r3, r3, #2
 4099 0f30 1344     		add	r3, r3, r2
 4100 0f32 0833     		adds	r3, r3, #8
 4101 0f34 1B68     		ldr	r3, [r3]
 4102 0f36 012B     		cmp	r3, #1
 4103 0f38 6BD0     		beq	.L101
ARM GAS  C:\Users\Logan\AppData\Local\Temp\ccKKo5Vz.s 			page 81


 4104              	.L100:
 4105              		.loc 1 433 0 discriminator 3
 4106 0f3a 07F13002 		add	r2, r7, #48
 4107 0f3e 303A     		subs	r2, r2, #48
 4108 0f40 07F51653 		add	r3, r7, #9600
 4109 0f44 03F11803 		add	r3, r3, #24
 4110 0f48 1968     		ldr	r1, [r3]
 4111 0f4a 0B46     		mov	r3, r1
 4112 0f4c 5B00     		lsls	r3, r3, #1
 4113 0f4e 0B44     		add	r3, r3, r1
 4114 0f50 9B00     		lsls	r3, r3, #2
 4115 0f52 1344     		add	r3, r3, r2
 4116 0f54 0833     		adds	r3, r3, #8
 4117 0f56 1B68     		ldr	r3, [r3]
 4118 0f58 022B     		cmp	r3, #2
 4119 0f5a 11D1     		bne	.L102
 4120              		.loc 1 433 0 discriminator 4
 4121 0f5c 07F51653 		add	r3, r7, #9600
 4122 0f60 03F11803 		add	r3, r3, #24
 4123 0f64 1B68     		ldr	r3, [r3]
 4124 0f66 591E     		subs	r1, r3, #1
 4125 0f68 07F13002 		add	r2, r7, #48
 4126 0f6c 303A     		subs	r2, r2, #48
 4127 0f6e 0B46     		mov	r3, r1
 4128 0f70 5B00     		lsls	r3, r3, #1
 4129 0f72 0B44     		add	r3, r3, r1
 4130 0f74 9B00     		lsls	r3, r3, #2
 4131 0f76 1344     		add	r3, r3, r2
 4132 0f78 0833     		adds	r3, r3, #8
 4133 0f7a 1B68     		ldr	r3, [r3]
 4134 0f7c 032B     		cmp	r3, #3
 4135 0f7e 48D0     		beq	.L101
 4136              	.L102:
 4137              		.loc 1 433 0 discriminator 6
 4138 0f80 07F13002 		add	r2, r7, #48
 4139 0f84 303A     		subs	r2, r2, #48
 4140 0f86 07F51653 		add	r3, r7, #9600
 4141 0f8a 03F11803 		add	r3, r3, #24
 4142 0f8e 1968     		ldr	r1, [r3]
 4143 0f90 0B46     		mov	r3, r1
 4144 0f92 5B00     		lsls	r3, r3, #1
 4145 0f94 0B44     		add	r3, r3, r1
 4146 0f96 9B00     		lsls	r3, r3, #2
 4147 0f98 1344     		add	r3, r3, r2
 4148 0f9a 0833     		adds	r3, r3, #8
 4149 0f9c 1B68     		ldr	r3, [r3]
 4150 0f9e 042B     		cmp	r3, #4
 4151 0fa0 0FD1     		bne	.L103
 4152              		.loc 1 433 0 discriminator 7
 4153 0fa2 07F51653 		add	r3, r7, #9600
 4154 0fa6 03F11C03 		add	r3, r3, #28
 4155 0faa 1B68     		ldr	r3, [r3]
 4156 0fac 5A1C     		adds	r2, r3, #1
 4157 0fae CA49     		ldr	r1, .L166
 4158 0fb0 1346     		mov	r3, r2
 4159 0fb2 5B00     		lsls	r3, r3, #1
 4160 0fb4 1344     		add	r3, r3, r2
ARM GAS  C:\Users\Logan\AppData\Local\Temp\ccKKo5Vz.s 			page 82


 4161 0fb6 9B00     		lsls	r3, r3, #2
 4162 0fb8 0B44     		add	r3, r3, r1
 4163 0fba 0833     		adds	r3, r3, #8
 4164 0fbc 1B68     		ldr	r3, [r3]
 4165 0fbe 012B     		cmp	r3, #1
 4166 0fc0 20D0     		beq	.L104
 4167              	.L103:
 4168              		.loc 1 433 0 discriminator 10
 4169 0fc2 07F13002 		add	r2, r7, #48
 4170 0fc6 303A     		subs	r2, r2, #48
 4171 0fc8 07F51653 		add	r3, r7, #9600
 4172 0fcc 03F11803 		add	r3, r3, #24
 4173 0fd0 1968     		ldr	r1, [r3]
 4174 0fd2 0B46     		mov	r3, r1
 4175 0fd4 5B00     		lsls	r3, r3, #1
 4176 0fd6 0B44     		add	r3, r3, r1
 4177 0fd8 9B00     		lsls	r3, r3, #2
 4178 0fda 1344     		add	r3, r3, r2
 4179 0fdc 0833     		adds	r3, r3, #8
 4180 0fde 1B68     		ldr	r3, [r3]
 4181 0fe0 022B     		cmp	r3, #2
 4182 0fe2 5BD1     		bne	.L105
 4183              		.loc 1 433 0 discriminator 11
 4184 0fe4 07F51653 		add	r3, r7, #9600
 4185 0fe8 03F11C03 		add	r3, r3, #28
 4186 0fec 1B68     		ldr	r3, [r3]
 4187 0fee 5A1C     		adds	r2, r3, #1
 4188 0ff0 B949     		ldr	r1, .L166
 4189 0ff2 1346     		mov	r3, r2
 4190 0ff4 5B00     		lsls	r3, r3, #1
 4191 0ff6 1344     		add	r3, r3, r2
 4192 0ff8 9B00     		lsls	r3, r3, #2
 4193 0ffa 0B44     		add	r3, r3, r1
 4194 0ffc 0833     		adds	r3, r3, #8
 4195 0ffe 1B68     		ldr	r3, [r3]
 4196 1000 032B     		cmp	r3, #3
 4197 1002 4BD1     		bne	.L105
 4198              	.L104:
 4199              		.loc 1 433 0 discriminator 12
 4200 1004 07F51653 		add	r3, r7, #9600
 4201 1008 03F11803 		add	r3, r3, #24
 4202 100c 1B68     		ldr	r3, [r3]
 4203 100e 012B     		cmp	r3, #1
 4204 1010 44D1     		bne	.L105
 4205              	.L101:
 434:.\pathfinder.c ****                                 //printf("U/D intersection found (%d) [direction = %d] -- TURN RIGH
 435:.\pathfinder.c ****                                 instructions[counter] = RIGHT;
 4206              		.loc 1 435 0 is_stmt 1
 4207 1012 07F51653 		add	r3, r7, #9600
 4208 1016 03F12A03 		add	r3, r3, #42
 4209 101a 1B88     		ldrh	r3, [r3]
 4210 101c AF4A     		ldr	r2, .L166+4
 4211 101e 5221     		movs	r1, #82
 4212 1020 D154     		strb	r1, [r2, r3]
 436:.\pathfinder.c ****                                 instructions[counter + 1] = (inter_end - j + 1 )- inter_prev_inters
 4213              		.loc 1 436 0
 4214 1022 07F51653 		add	r3, r7, #9600
ARM GAS  C:\Users\Logan\AppData\Local\Temp\ccKKo5Vz.s 			page 83


 4215 1026 03F12A03 		add	r3, r3, #42
 4216 102a 1B88     		ldrh	r3, [r3]
 4217 102c 0133     		adds	r3, r3, #1
 4218 102e 07F51652 		add	r2, r7, #9600
 4219 1032 02F11002 		add	r2, r2, #16
 4220 1036 1268     		ldr	r2, [r2]
 4221 1038 D1B2     		uxtb	r1, r2
 4222 103a 07F51652 		add	r2, r7, #9600
 4223 103e 02F11802 		add	r2, r2, #24
 4224 1042 1268     		ldr	r2, [r2]
 4225 1044 D2B2     		uxtb	r2, r2
 4226 1046 8A1A     		subs	r2, r1, r2
 4227 1048 D1B2     		uxtb	r1, r2
 4228 104a 07F51652 		add	r2, r7, #9600
 4229 104e 02F12002 		add	r2, r2, #32
 4230 1052 1268     		ldr	r2, [r2]
 4231 1054 D2B2     		uxtb	r2, r2
 4232 1056 8A1A     		subs	r2, r1, r2
 4233 1058 D2B2     		uxtb	r2, r2
 4234 105a 0132     		adds	r2, r2, #1
 4235 105c D1B2     		uxtb	r1, r2
 4236 105e 9F4A     		ldr	r2, .L166+4
 4237 1060 D154     		strb	r1, [r2, r3]
 437:.\pathfinder.c ****                                 counter+=2;
 4238              		.loc 1 437 0
 4239 1062 07F51653 		add	r3, r7, #9600
 4240 1066 03F12A03 		add	r3, r3, #42
 4241 106a 1B88     		ldrh	r3, [r3]	@ movhi
 4242 106c 0233     		adds	r3, r3, #2
 4243 106e 07F51652 		add	r2, r7, #9600
 4244 1072 02F12A02 		add	r2, r2, #42
 4245 1076 1380     		strh	r3, [r2]	@ movhi
 438:.\pathfinder.c ****                                 inter_prev_intersection = inter_end - j + 1;
 4246              		.loc 1 438 0
 4247 1078 07F51653 		add	r3, r7, #9600
 4248 107c 03F11003 		add	r3, r3, #16
 4249 1080 1A68     		ldr	r2, [r3]
 4250 1082 07F51653 		add	r3, r7, #9600
 4251 1086 03F11803 		add	r3, r3, #24
 4252 108a 1B68     		ldr	r3, [r3]
 4253 108c D31A     		subs	r3, r2, r3
 4254 108e 0133     		adds	r3, r3, #1
 4255 1090 07F51652 		add	r2, r7, #9600
 4256 1094 02F12002 		add	r2, r2, #32
 4257 1098 1360     		str	r3, [r2]
 4258 109a D6E0     		b	.L99
 4259              	.L105:
 439:.\pathfinder.c ****                              }else if ((inter_path[j][DIR] == 4 && inter_path[j - 1][DIR] == 2) || 
 4260              		.loc 1 439 0
 4261 109c 07F13002 		add	r2, r7, #48
 4262 10a0 303A     		subs	r2, r2, #48
 4263 10a2 07F51653 		add	r3, r7, #9600
 4264 10a6 03F11803 		add	r3, r3, #24
 4265 10aa 1968     		ldr	r1, [r3]
 4266 10ac 0B46     		mov	r3, r1
 4267 10ae 5B00     		lsls	r3, r3, #1
 4268 10b0 0B44     		add	r3, r3, r1
ARM GAS  C:\Users\Logan\AppData\Local\Temp\ccKKo5Vz.s 			page 84


 4269 10b2 9B00     		lsls	r3, r3, #2
 4270 10b4 1344     		add	r3, r3, r2
 4271 10b6 0833     		adds	r3, r3, #8
 4272 10b8 1B68     		ldr	r3, [r3]
 4273 10ba 042B     		cmp	r3, #4
 4274 10bc 11D1     		bne	.L106
 4275              		.loc 1 439 0 is_stmt 0 discriminator 1
 4276 10be 07F51653 		add	r3, r7, #9600
 4277 10c2 03F11803 		add	r3, r3, #24
 4278 10c6 1B68     		ldr	r3, [r3]
 4279 10c8 591E     		subs	r1, r3, #1
 4280 10ca 07F13002 		add	r2, r7, #48
 4281 10ce 303A     		subs	r2, r2, #48
 4282 10d0 0B46     		mov	r3, r1
 4283 10d2 5B00     		lsls	r3, r3, #1
 4284 10d4 0B44     		add	r3, r3, r1
 4285 10d6 9B00     		lsls	r3, r3, #2
 4286 10d8 1344     		add	r3, r3, r2
 4287 10da 0833     		adds	r3, r3, #8
 4288 10dc 1B68     		ldr	r3, [r3]
 4289 10de 022B     		cmp	r3, #2
 4290 10e0 6ED0     		beq	.L107
 4291              	.L106:
 4292              		.loc 1 439 0 discriminator 3
 4293 10e2 07F13002 		add	r2, r7, #48
 4294 10e6 303A     		subs	r2, r2, #48
 4295 10e8 07F51653 		add	r3, r7, #9600
 4296 10ec 03F11803 		add	r3, r3, #24
 4297 10f0 1968     		ldr	r1, [r3]
 4298 10f2 0B46     		mov	r3, r1
 4299 10f4 5B00     		lsls	r3, r3, #1
 4300 10f6 0B44     		add	r3, r3, r1
 4301 10f8 9B00     		lsls	r3, r3, #2
 4302 10fa 1344     		add	r3, r3, r2
 4303 10fc 0833     		adds	r3, r3, #8
 4304 10fe 1B68     		ldr	r3, [r3]
 4305 1100 022B     		cmp	r3, #2
 4306 1102 11D1     		bne	.L108
 4307              		.loc 1 439 0 discriminator 4
 4308 1104 07F51653 		add	r3, r7, #9600
 4309 1108 03F11803 		add	r3, r3, #24
 4310 110c 1B68     		ldr	r3, [r3]
 4311 110e 591E     		subs	r1, r3, #1
 4312 1110 07F13002 		add	r2, r7, #48
 4313 1114 303A     		subs	r2, r2, #48
 4314 1116 0B46     		mov	r3, r1
 4315 1118 5B00     		lsls	r3, r3, #1
 4316 111a 0B44     		add	r3, r3, r1
 4317 111c 9B00     		lsls	r3, r3, #2
 4318 111e 1344     		add	r3, r3, r2
 4319 1120 0833     		adds	r3, r3, #8
 4320 1122 1B68     		ldr	r3, [r3]
 4321 1124 042B     		cmp	r3, #4
 4322 1126 4BD0     		beq	.L107
 4323              	.L108:
 4324              		.loc 1 439 0 discriminator 6
 4325 1128 07F13002 		add	r2, r7, #48
ARM GAS  C:\Users\Logan\AppData\Local\Temp\ccKKo5Vz.s 			page 85


 4326 112c 303A     		subs	r2, r2, #48
 4327 112e 07F51653 		add	r3, r7, #9600
 4328 1132 03F11803 		add	r3, r3, #24
 4329 1136 1968     		ldr	r1, [r3]
 4330 1138 0B46     		mov	r3, r1
 4331 113a 5B00     		lsls	r3, r3, #1
 4332 113c 0B44     		add	r3, r3, r1
 4333 113e 9B00     		lsls	r3, r3, #2
 4334 1140 1344     		add	r3, r3, r2
 4335 1142 0833     		adds	r3, r3, #8
 4336 1144 1B68     		ldr	r3, [r3]
 4337 1146 042B     		cmp	r3, #4
 4338 1148 0FD1     		bne	.L109
 4339              		.loc 1 439 0 discriminator 7
 4340 114a 07F51653 		add	r3, r7, #9600
 4341 114e 03F11C03 		add	r3, r3, #28
 4342 1152 1B68     		ldr	r3, [r3]
 4343 1154 5A1C     		adds	r2, r3, #1
 4344 1156 6049     		ldr	r1, .L166
 4345 1158 1346     		mov	r3, r2
 4346 115a 5B00     		lsls	r3, r3, #1
 4347 115c 1344     		add	r3, r3, r2
 4348 115e 9B00     		lsls	r3, r3, #2
 4349 1160 0B44     		add	r3, r3, r1
 4350 1162 0833     		adds	r3, r3, #8
 4351 1164 1B68     		ldr	r3, [r3]
 4352 1166 022B     		cmp	r3, #2
 4353 1168 22D0     		beq	.L110
 4354              	.L109:
 4355              		.loc 1 439 0 discriminator 10
 4356 116a 07F13002 		add	r2, r7, #48
 4357 116e 303A     		subs	r2, r2, #48
 4358 1170 07F51653 		add	r3, r7, #9600
 4359 1174 03F11803 		add	r3, r3, #24
 4360 1178 1968     		ldr	r1, [r3]
 4361 117a 0B46     		mov	r3, r1
 4362 117c 5B00     		lsls	r3, r3, #1
 4363 117e 0B44     		add	r3, r3, r1
 4364 1180 9B00     		lsls	r3, r3, #2
 4365 1182 1344     		add	r3, r3, r2
 4366 1184 0833     		adds	r3, r3, #8
 4367 1186 1B68     		ldr	r3, [r3]
 4368 1188 022B     		cmp	r3, #2
 4369 118a 40F0A480 		bne	.L111
 4370              		.loc 1 439 0 discriminator 11
 4371 118e 07F51653 		add	r3, r7, #9600
 4372 1192 03F11C03 		add	r3, r3, #28
 4373 1196 1B68     		ldr	r3, [r3]
 4374 1198 5A1C     		adds	r2, r3, #1
 4375 119a 4F49     		ldr	r1, .L166
 4376 119c 1346     		mov	r3, r2
 4377 119e 5B00     		lsls	r3, r3, #1
 4378 11a0 1344     		add	r3, r3, r2
 4379 11a2 9B00     		lsls	r3, r3, #2
 4380 11a4 0B44     		add	r3, r3, r1
 4381 11a6 0833     		adds	r3, r3, #8
 4382 11a8 1B68     		ldr	r3, [r3]
ARM GAS  C:\Users\Logan\AppData\Local\Temp\ccKKo5Vz.s 			page 86


 4383 11aa 042B     		cmp	r3, #4
 4384 11ac 40F09380 		bne	.L111
 4385              	.L110:
 4386              		.loc 1 439 0 discriminator 12
 4387 11b0 07F51653 		add	r3, r7, #9600
 4388 11b4 03F11803 		add	r3, r3, #24
 4389 11b8 1B68     		ldr	r3, [r3]
 4390 11ba 012B     		cmp	r3, #1
 4391 11bc 40F08B80 		bne	.L111
 4392              	.L107:
 440:.\pathfinder.c ****                                 //printf("1 U/D intersection found (%d) [direction = %d] -- TURN U-
 441:.\pathfinder.c ****                                 instructions[counter] = UTURN;
 4393              		.loc 1 441 0 is_stmt 1
 4394 11c0 07F51653 		add	r3, r7, #9600
 4395 11c4 03F12A03 		add	r3, r3, #42
 4396 11c8 1B88     		ldrh	r3, [r3]
 4397 11ca 444A     		ldr	r2, .L166+4
 4398 11cc 5521     		movs	r1, #85
 4399 11ce D154     		strb	r1, [r2, r3]
 442:.\pathfinder.c ****                                 instructions[counter + 1] = (inter_end - j + 1 )- inter_prev_inters
 4400              		.loc 1 442 0
 4401 11d0 07F51653 		add	r3, r7, #9600
 4402 11d4 03F12A03 		add	r3, r3, #42
 4403 11d8 1B88     		ldrh	r3, [r3]
 4404 11da 0133     		adds	r3, r3, #1
 4405 11dc 07F51652 		add	r2, r7, #9600
 4406 11e0 02F11002 		add	r2, r2, #16
 4407 11e4 1268     		ldr	r2, [r2]
 4408 11e6 D1B2     		uxtb	r1, r2
 4409 11e8 07F51652 		add	r2, r7, #9600
 4410 11ec 02F11802 		add	r2, r2, #24
 4411 11f0 1268     		ldr	r2, [r2]
 4412 11f2 D2B2     		uxtb	r2, r2
 4413 11f4 8A1A     		subs	r2, r1, r2
 4414 11f6 D1B2     		uxtb	r1, r2
 4415 11f8 07F51652 		add	r2, r7, #9600
 4416 11fc 02F12002 		add	r2, r2, #32
 4417 1200 1268     		ldr	r2, [r2]
 4418 1202 D2B2     		uxtb	r2, r2
 4419 1204 8A1A     		subs	r2, r1, r2
 4420 1206 D2B2     		uxtb	r2, r2
 4421 1208 0132     		adds	r2, r2, #1
 4422 120a D1B2     		uxtb	r1, r2
 4423 120c 334A     		ldr	r2, .L166+4
 4424 120e D154     		strb	r1, [r2, r3]
 443:.\pathfinder.c ****                                 counter+=2;
 4425              		.loc 1 443 0
 4426 1210 07F51653 		add	r3, r7, #9600
 4427 1214 03F12A03 		add	r3, r3, #42
 4428 1218 1B88     		ldrh	r3, [r3]	@ movhi
 4429 121a 0233     		adds	r3, r3, #2
 4430 121c 07F51652 		add	r2, r7, #9600
 4431 1220 02F12A02 		add	r2, r2, #42
 4432 1224 1380     		strh	r3, [r2]	@ movhi
 444:.\pathfinder.c ****                                 inter_prev_intersection = inter_end - j + 1;
 4433              		.loc 1 444 0
 4434 1226 07F51653 		add	r3, r7, #9600
ARM GAS  C:\Users\Logan\AppData\Local\Temp\ccKKo5Vz.s 			page 87


 4435 122a 03F11003 		add	r3, r3, #16
 4436 122e 1A68     		ldr	r2, [r3]
 4437 1230 07F51653 		add	r3, r7, #9600
 4438 1234 03F11803 		add	r3, r3, #24
 4439 1238 1B68     		ldr	r3, [r3]
 4440 123a D31A     		subs	r3, r2, r3
 4441 123c 0133     		adds	r3, r3, #1
 4442 123e 07F51652 		add	r2, r7, #9600
 4443 1242 02F12002 		add	r2, r2, #32
 4444 1246 1360     		str	r3, [r2]
 4445 1248 45E0     		b	.L111
 4446              	.L99:
 4447 124a 44E0     		b	.L111
 4448              	.L92:
 445:.\pathfinder.c ****                              }else{
 446:.\pathfinder.c ****                                // printf("Prev %d, current %d\n", inter_path[j - 1][DIR], inter_pat
 447:.\pathfinder.c ****                              }
 448:.\pathfinder.c ****                           }else{
 449:.\pathfinder.c ****                              //printf("U/D intersection found (%d) [direction = %d] (%d, %d)\n", tm
 450:.\pathfinder.c ****                              instructions[counter] = STRAIGHT;
 4449              		.loc 1 450 0
 4450 124c 07F51653 		add	r3, r7, #9600
 4451 1250 03F12A03 		add	r3, r3, #42
 4452 1254 1B88     		ldrh	r3, [r3]
 4453 1256 214A     		ldr	r2, .L166+4
 4454 1258 5321     		movs	r1, #83
 4455 125a D154     		strb	r1, [r2, r3]
 451:.\pathfinder.c ****                              instructions[counter + 1] = (inter_end - j + 1 )- inter_prev_intersect
 4456              		.loc 1 451 0
 4457 125c 07F51653 		add	r3, r7, #9600
 4458 1260 03F12A03 		add	r3, r3, #42
 4459 1264 1B88     		ldrh	r3, [r3]
 4460 1266 0133     		adds	r3, r3, #1
 4461 1268 07F51652 		add	r2, r7, #9600
 4462 126c 02F11002 		add	r2, r2, #16
 4463 1270 1268     		ldr	r2, [r2]
 4464 1272 D1B2     		uxtb	r1, r2
 4465 1274 07F51652 		add	r2, r7, #9600
 4466 1278 02F11802 		add	r2, r2, #24
 4467 127c 1268     		ldr	r2, [r2]
 4468 127e D2B2     		uxtb	r2, r2
 4469 1280 8A1A     		subs	r2, r1, r2
 4470 1282 D1B2     		uxtb	r1, r2
 4471 1284 07F51652 		add	r2, r7, #9600
 4472 1288 02F12002 		add	r2, r2, #32
 4473 128c 1268     		ldr	r2, [r2]
 4474 128e D2B2     		uxtb	r2, r2
 4475 1290 8A1A     		subs	r2, r1, r2
 4476 1292 D2B2     		uxtb	r2, r2
 4477 1294 0132     		adds	r2, r2, #1
 4478 1296 D1B2     		uxtb	r1, r2
 4479 1298 104A     		ldr	r2, .L166+4
 4480 129a D154     		strb	r1, [r2, r3]
 452:.\pathfinder.c ****                              counter+=2;
 4481              		.loc 1 452 0
 4482 129c 07F51653 		add	r3, r7, #9600
 4483 12a0 03F12A03 		add	r3, r3, #42
ARM GAS  C:\Users\Logan\AppData\Local\Temp\ccKKo5Vz.s 			page 88


 4484 12a4 1B88     		ldrh	r3, [r3]	@ movhi
 4485 12a6 0233     		adds	r3, r3, #2
 4486 12a8 07F51652 		add	r2, r7, #9600
 4487 12ac 02F12A02 		add	r2, r2, #42
 4488 12b0 1380     		strh	r3, [r2]	@ movhi
 453:.\pathfinder.c ****                              inter_prev_intersection = inter_end - j + 1;
 4489              		.loc 1 453 0
 4490 12b2 07F51653 		add	r3, r7, #9600
 4491 12b6 03F11003 		add	r3, r3, #16
 4492 12ba 1A68     		ldr	r2, [r3]
 4493 12bc 07F51653 		add	r3, r7, #9600
 4494 12c0 03F11803 		add	r3, r3, #24
 4495 12c4 1B68     		ldr	r3, [r3]
 4496 12c6 D31A     		subs	r3, r2, r3
 4497 12c8 0133     		adds	r3, r3, #1
 4498 12ca 07F51652 		add	r2, r7, #9600
 4499 12ce 02F12002 		add	r2, r2, #32
 4500 12d2 1360     		str	r3, [r2]
 426:.\pathfinder.c ****                              if((inter_path[j][DIR] == 4 && inter_path[j - 1][DIR] == 3) || (inter_
 4501              		.loc 1 426 0
 4502 12d4 D7E0     		b	.L89
 4503              	.L111:
 426:.\pathfinder.c ****                              if((inter_path[j][DIR] == 4 && inter_path[j - 1][DIR] == 3) || (inter_
 4504              		.loc 1 426 0 is_stmt 0 discriminator 3
 4505 12d6 D6E0     		b	.L89
 4506              	.L167:
 4507              		.align	2
 4508              	.L166:
 4509 12d8 00000000 		.word	path
 4510 12dc 00000000 		.word	instructions
 4511              	.L91:
 454:.\pathfinder.c ****                           }
 455:.\pathfinder.c **** 
 456:.\pathfinder.c ****                        }else{
 457:.\pathfinder.c ****                           if ((inter_path[j][DIR] == 4 && inter_path[j - 1][DIR] == 2) || (inter_pa
 4512              		.loc 1 457 0 is_stmt 1
 4513 12e0 07F13002 		add	r2, r7, #48
 4514 12e4 303A     		subs	r2, r2, #48
 4515 12e6 07F51653 		add	r3, r7, #9600
 4516 12ea 03F11803 		add	r3, r3, #24
 4517 12ee 1968     		ldr	r1, [r3]
 4518 12f0 0B46     		mov	r3, r1
 4519 12f2 5B00     		lsls	r3, r3, #1
 4520 12f4 0B44     		add	r3, r3, r1
 4521 12f6 9B00     		lsls	r3, r3, #2
 4522 12f8 1344     		add	r3, r3, r2
 4523 12fa 0833     		adds	r3, r3, #8
 4524 12fc 1B68     		ldr	r3, [r3]
 4525 12fe 042B     		cmp	r3, #4
 4526 1300 11D1     		bne	.L112
 4527              		.loc 1 457 0 is_stmt 0 discriminator 1
 4528 1302 07F51653 		add	r3, r7, #9600
 4529 1306 03F11803 		add	r3, r3, #24
 4530 130a 1B68     		ldr	r3, [r3]
 4531 130c 591E     		subs	r1, r3, #1
 4532 130e 07F13002 		add	r2, r7, #48
 4533 1312 303A     		subs	r2, r2, #48
ARM GAS  C:\Users\Logan\AppData\Local\Temp\ccKKo5Vz.s 			page 89


 4534 1314 0B46     		mov	r3, r1
 4535 1316 5B00     		lsls	r3, r3, #1
 4536 1318 0B44     		add	r3, r3, r1
 4537 131a 9B00     		lsls	r3, r3, #2
 4538 131c 1344     		add	r3, r3, r2
 4539 131e 0833     		adds	r3, r3, #8
 4540 1320 1B68     		ldr	r3, [r3]
 4541 1322 022B     		cmp	r3, #2
 4542 1324 6BD0     		beq	.L113
 4543              	.L112:
 4544              		.loc 1 457 0 discriminator 3
 4545 1326 07F13002 		add	r2, r7, #48
 4546 132a 303A     		subs	r2, r2, #48
 4547 132c 07F51653 		add	r3, r7, #9600
 4548 1330 03F11803 		add	r3, r3, #24
 4549 1334 1968     		ldr	r1, [r3]
 4550 1336 0B46     		mov	r3, r1
 4551 1338 5B00     		lsls	r3, r3, #1
 4552 133a 0B44     		add	r3, r3, r1
 4553 133c 9B00     		lsls	r3, r3, #2
 4554 133e 1344     		add	r3, r3, r2
 4555 1340 0833     		adds	r3, r3, #8
 4556 1342 1B68     		ldr	r3, [r3]
 4557 1344 022B     		cmp	r3, #2
 4558 1346 11D1     		bne	.L114
 4559              		.loc 1 457 0 discriminator 4
 4560 1348 07F51653 		add	r3, r7, #9600
 4561 134c 03F11803 		add	r3, r3, #24
 4562 1350 1B68     		ldr	r3, [r3]
 4563 1352 591E     		subs	r1, r3, #1
 4564 1354 07F13002 		add	r2, r7, #48
 4565 1358 303A     		subs	r2, r2, #48
 4566 135a 0B46     		mov	r3, r1
 4567 135c 5B00     		lsls	r3, r3, #1
 4568 135e 0B44     		add	r3, r3, r1
 4569 1360 9B00     		lsls	r3, r3, #2
 4570 1362 1344     		add	r3, r3, r2
 4571 1364 0833     		adds	r3, r3, #8
 4572 1366 1B68     		ldr	r3, [r3]
 4573 1368 042B     		cmp	r3, #4
 4574 136a 48D0     		beq	.L113
 4575              	.L114:
 4576              		.loc 1 457 0 discriminator 6
 4577 136c 07F13002 		add	r2, r7, #48
 4578 1370 303A     		subs	r2, r2, #48
 4579 1372 07F51653 		add	r3, r7, #9600
 4580 1376 03F11803 		add	r3, r3, #24
 4581 137a 1968     		ldr	r1, [r3]
 4582 137c 0B46     		mov	r3, r1
 4583 137e 5B00     		lsls	r3, r3, #1
 4584 1380 0B44     		add	r3, r3, r1
 4585 1382 9B00     		lsls	r3, r3, #2
 4586 1384 1344     		add	r3, r3, r2
 4587 1386 0833     		adds	r3, r3, #8
 4588 1388 1B68     		ldr	r3, [r3]
 4589 138a 042B     		cmp	r3, #4
 4590 138c 0FD1     		bne	.L115
ARM GAS  C:\Users\Logan\AppData\Local\Temp\ccKKo5Vz.s 			page 90


 4591              		.loc 1 457 0 discriminator 7
 4592 138e 07F51653 		add	r3, r7, #9600
 4593 1392 03F11C03 		add	r3, r3, #28
 4594 1396 1B68     		ldr	r3, [r3]
 4595 1398 5A1C     		adds	r2, r3, #1
 4596 139a CF49     		ldr	r1, .L168
 4597 139c 1346     		mov	r3, r2
 4598 139e 5B00     		lsls	r3, r3, #1
 4599 13a0 1344     		add	r3, r3, r2
 4600 13a2 9B00     		lsls	r3, r3, #2
 4601 13a4 0B44     		add	r3, r3, r1
 4602 13a6 0833     		adds	r3, r3, #8
 4603 13a8 1B68     		ldr	r3, [r3]
 4604 13aa 022B     		cmp	r3, #2
 4605 13ac 20D0     		beq	.L116
 4606              	.L115:
 4607              		.loc 1 457 0 discriminator 10
 4608 13ae 07F13002 		add	r2, r7, #48
 4609 13b2 303A     		subs	r2, r2, #48
 4610 13b4 07F51653 		add	r3, r7, #9600
 4611 13b8 03F11803 		add	r3, r3, #24
 4612 13bc 1968     		ldr	r1, [r3]
 4613 13be 0B46     		mov	r3, r1
 4614 13c0 5B00     		lsls	r3, r3, #1
 4615 13c2 0B44     		add	r3, r3, r1
 4616 13c4 9B00     		lsls	r3, r3, #2
 4617 13c6 1344     		add	r3, r3, r2
 4618 13c8 0833     		adds	r3, r3, #8
 4619 13ca 1B68     		ldr	r3, [r3]
 4620 13cc 022B     		cmp	r3, #2
 4621 13ce 5AD1     		bne	.L89
 4622              		.loc 1 457 0 discriminator 11
 4623 13d0 07F51653 		add	r3, r7, #9600
 4624 13d4 03F11C03 		add	r3, r3, #28
 4625 13d8 1B68     		ldr	r3, [r3]
 4626 13da 5A1C     		adds	r2, r3, #1
 4627 13dc BE49     		ldr	r1, .L168
 4628 13de 1346     		mov	r3, r2
 4629 13e0 5B00     		lsls	r3, r3, #1
 4630 13e2 1344     		add	r3, r3, r2
 4631 13e4 9B00     		lsls	r3, r3, #2
 4632 13e6 0B44     		add	r3, r3, r1
 4633 13e8 0833     		adds	r3, r3, #8
 4634 13ea 1B68     		ldr	r3, [r3]
 4635 13ec 042B     		cmp	r3, #4
 4636 13ee 4AD1     		bne	.L89
 4637              	.L116:
 4638              		.loc 1 457 0 discriminator 12
 4639 13f0 07F51653 		add	r3, r7, #9600
 4640 13f4 03F11803 		add	r3, r3, #24
 4641 13f8 1B68     		ldr	r3, [r3]
 4642 13fa 012B     		cmp	r3, #1
 4643 13fc 43D1     		bne	.L89
 4644              	.L113:
 458:.\pathfinder.c ****                            //  printf("2 U/D intersection found (%d) [direction = %d] -- TURN U-TUR
 459:.\pathfinder.c ****                              instructions[counter] = UTURN;
 4645              		.loc 1 459 0 is_stmt 1
ARM GAS  C:\Users\Logan\AppData\Local\Temp\ccKKo5Vz.s 			page 91


 4646 13fe 07F51653 		add	r3, r7, #9600
 4647 1402 03F12A03 		add	r3, r3, #42
 4648 1406 1B88     		ldrh	r3, [r3]
 4649 1408 B44A     		ldr	r2, .L168+4
 4650 140a 5521     		movs	r1, #85
 4651 140c D154     		strb	r1, [r2, r3]
 460:.\pathfinder.c ****                              instructions[counter + 1] = (inter_end - j + 1 )- inter_prev_intersect
 4652              		.loc 1 460 0
 4653 140e 07F51653 		add	r3, r7, #9600
 4654 1412 03F12A03 		add	r3, r3, #42
 4655 1416 1B88     		ldrh	r3, [r3]
 4656 1418 0133     		adds	r3, r3, #1
 4657 141a 07F51652 		add	r2, r7, #9600
 4658 141e 02F11002 		add	r2, r2, #16
 4659 1422 1268     		ldr	r2, [r2]
 4660 1424 D1B2     		uxtb	r1, r2
 4661 1426 07F51652 		add	r2, r7, #9600
 4662 142a 02F11802 		add	r2, r2, #24
 4663 142e 1268     		ldr	r2, [r2]
 4664 1430 D2B2     		uxtb	r2, r2
 4665 1432 8A1A     		subs	r2, r1, r2
 4666 1434 D1B2     		uxtb	r1, r2
 4667 1436 07F51652 		add	r2, r7, #9600
 4668 143a 02F12002 		add	r2, r2, #32
 4669 143e 1268     		ldr	r2, [r2]
 4670 1440 D2B2     		uxtb	r2, r2
 4671 1442 8A1A     		subs	r2, r1, r2
 4672 1444 D2B2     		uxtb	r2, r2
 4673 1446 0132     		adds	r2, r2, #1
 4674 1448 D1B2     		uxtb	r1, r2
 4675 144a A44A     		ldr	r2, .L168+4
 4676 144c D154     		strb	r1, [r2, r3]
 461:.\pathfinder.c ****                              counter+=2;
 4677              		.loc 1 461 0
 4678 144e 07F51653 		add	r3, r7, #9600
 4679 1452 03F12A03 		add	r3, r3, #42
 4680 1456 1B88     		ldrh	r3, [r3]	@ movhi
 4681 1458 0233     		adds	r3, r3, #2
 4682 145a 07F51652 		add	r2, r7, #9600
 4683 145e 02F12A02 		add	r2, r2, #42
 4684 1462 1380     		strh	r3, [r2]	@ movhi
 462:.\pathfinder.c ****                              inter_prev_intersection = inter_end - j + 1;
 4685              		.loc 1 462 0
 4686 1464 07F51653 		add	r3, r7, #9600
 4687 1468 03F11003 		add	r3, r3, #16
 4688 146c 1A68     		ldr	r2, [r3]
 4689 146e 07F51653 		add	r3, r7, #9600
 4690 1472 03F11803 		add	r3, r3, #24
 4691 1476 1B68     		ldr	r3, [r3]
 4692 1478 D31A     		subs	r3, r2, r3
 4693 147a 0133     		adds	r3, r3, #1
 4694 147c 07F51652 		add	r2, r7, #9600
 4695 1480 02F12002 		add	r2, r2, #32
 4696 1484 1360     		str	r3, [r2]
 4697              	.L89:
 463:.\pathfinder.c ****                           }else{
 464:.\pathfinder.c ****                          //printf("1 [(%d), direction = %d]\n", tmpCounter, inter_path[j][DIR]);
ARM GAS  C:\Users\Logan\AppData\Local\Temp\ccKKo5Vz.s 			page 92


 465:.\pathfinder.c ****                        }
 466:.\pathfinder.c ****                        }
 467:.\pathfinder.c ****                     }
 468:.\pathfinder.c ****                     tmpCounter++;
 4698              		.loc 1 468 0 discriminator 2
 4699 1486 07F51653 		add	r3, r7, #9600
 4700 148a 03F12403 		add	r3, r3, #36
 4701 148e 1B68     		ldr	r3, [r3]
 4702 1490 0133     		adds	r3, r3, #1
 4703 1492 07F51652 		add	r2, r7, #9600
 4704 1496 02F12402 		add	r2, r2, #36
 4705 149a 1360     		str	r3, [r2]
 378:.\pathfinder.c ****             //printf("%d %d;", inter_path[j][Y] + 1, inter_path[j][X] + 1);
 4706              		.loc 1 378 0 discriminator 2
 4707 149c 07F51653 		add	r3, r7, #9600
 4708 14a0 03F11803 		add	r3, r3, #24
 4709 14a4 1B68     		ldr	r3, [r3]
 4710 14a6 013B     		subs	r3, r3, #1
 4711 14a8 07F51652 		add	r2, r7, #9600
 4712 14ac 02F11802 		add	r2, r2, #24
 4713 14b0 1360     		str	r3, [r2]
 4714              	.L58:
 378:.\pathfinder.c ****             //printf("%d %d;", inter_path[j][Y] + 1, inter_path[j][X] + 1);
 4715              		.loc 1 378 0 is_stmt 0 discriminator 1
 4716 14b2 07F51653 		add	r3, r7, #9600
 4717 14b6 03F11803 		add	r3, r3, #24
 4718 14ba 1B68     		ldr	r3, [r3]
 4719 14bc 002B     		cmp	r3, #0
 4720 14be 3EF785AF 		bgt	.L117
 469:.\pathfinder.c ****          }
 470:.\pathfinder.c **** 
 471:.\pathfinder.c ****          //stuff
 472:.\pathfinder.c ****          //printf("Discontinuity found at %d \n", i + 1);
 473:.\pathfinder.c ****         prev_intersection = i;
 4721              		.loc 1 473 0 is_stmt 1
 4722 14c2 07F51653 		add	r3, r7, #9600
 4723 14c6 03F11C03 		add	r3, r3, #28
 4724 14ca 1B68     		ldr	r3, [r3]
 4725 14cc 07F51652 		add	r2, r7, #9600
 4726 14d0 02F12C02 		add	r2, r2, #44
 4727 14d4 1360     		str	r3, [r2]
 474:.\pathfinder.c ****         i++;
 4728              		.loc 1 474 0
 4729 14d6 07F51653 		add	r3, r7, #9600
 4730 14da 03F11C03 		add	r3, r3, #28
 4731 14de 1B68     		ldr	r3, [r3]
 4732 14e0 0133     		adds	r3, r3, #1
 4733 14e2 07F51652 		add	r2, r7, #9600
 4734 14e6 02F11C02 		add	r2, r2, #28
 4735 14ea 1360     		str	r3, [r2]
 4736              	.L54:
 4737              	.LBE6:
 475:.\pathfinder.c ****       }
 476:.\pathfinder.c **** 
 477:.\pathfinder.c ****       //printf("i: %d counter: %d\n", i, counter);
 478:.\pathfinder.c **** if(path[i][DIR] == 1 || path[i][DIR] == 3){
 4738              		.loc 1 478 0
ARM GAS  C:\Users\Logan\AppData\Local\Temp\ccKKo5Vz.s 			page 93


 4739 14ec 7A49     		ldr	r1, .L168
 4740 14ee 07F51653 		add	r3, r7, #9600
 4741 14f2 03F11C03 		add	r3, r3, #28
 4742 14f6 1A68     		ldr	r2, [r3]
 4743 14f8 1346     		mov	r3, r2
 4744 14fa 5B00     		lsls	r3, r3, #1
 4745 14fc 1344     		add	r3, r3, r2
 4746 14fe 9B00     		lsls	r3, r3, #2
 4747 1500 0B44     		add	r3, r3, r1
 4748 1502 0833     		adds	r3, r3, #8
 4749 1504 1B68     		ldr	r3, [r3]
 4750 1506 012B     		cmp	r3, #1
 4751 1508 0FD0     		beq	.L118
 4752              		.loc 1 478 0 is_stmt 0 discriminator 1
 4753 150a 7349     		ldr	r1, .L168
 4754 150c 07F51653 		add	r3, r7, #9600
 4755 1510 03F11C03 		add	r3, r3, #28
 4756 1514 1A68     		ldr	r2, [r3]
 4757 1516 1346     		mov	r3, r2
 4758 1518 5B00     		lsls	r3, r3, #1
 4759 151a 1344     		add	r3, r3, r2
 4760 151c 9B00     		lsls	r3, r3, #2
 4761 151e 0B44     		add	r3, r3, r1
 4762 1520 0833     		adds	r3, r3, #8
 4763 1522 1B68     		ldr	r3, [r3]
 4764 1524 032B     		cmp	r3, #3
 4765 1526 40F07582 		bne	.L119
 4766              	.L118:
 479:.\pathfinder.c ****          //There should be a check that it is within the map
 480:.\pathfinder.c ****          if(map[path[i][Y]][path[i][X] - 1] == PATH || map[path[i][Y]][path[i][X] + 1] == PATH){
 4767              		.loc 1 480 0 is_stmt 1
 4768 152a 6B49     		ldr	r1, .L168
 4769 152c 07F51653 		add	r3, r7, #9600
 4770 1530 03F11C03 		add	r3, r3, #28
 4771 1534 1A68     		ldr	r2, [r3]
 4772 1536 1346     		mov	r3, r2
 4773 1538 5B00     		lsls	r3, r3, #1
 4774 153a 1344     		add	r3, r3, r2
 4775 153c 9B00     		lsls	r3, r3, #2
 4776 153e 0B44     		add	r3, r3, r1
 4777 1540 1A68     		ldr	r2, [r3]
 4778 1542 6548     		ldr	r0, .L168
 4779 1544 07F51653 		add	r3, r7, #9600
 4780 1548 03F11C03 		add	r3, r3, #28
 4781 154c 1968     		ldr	r1, [r3]
 4782 154e 0B46     		mov	r3, r1
 4783 1550 5B00     		lsls	r3, r3, #1
 4784 1552 0B44     		add	r3, r3, r1
 4785 1554 9B00     		lsls	r3, r3, #2
 4786 1556 0344     		add	r3, r3, r0
 4787 1558 0433     		adds	r3, r3, #4
 4788 155a 1B68     		ldr	r3, [r3]
 4789 155c 591E     		subs	r1, r3, #1
 4790 155e 6048     		ldr	r0, .L168+8
 4791 1560 1346     		mov	r3, r2
 4792 1562 DB00     		lsls	r3, r3, #3
 4793 1564 1344     		add	r3, r3, r2
ARM GAS  C:\Users\Logan\AppData\Local\Temp\ccKKo5Vz.s 			page 94


 4794 1566 5B00     		lsls	r3, r3, #1
 4795 1568 1344     		add	r3, r3, r2
 4796 156a 0B44     		add	r3, r3, r1
 4797 156c 50F82330 		ldr	r3, [r0, r3, lsl #2]
 4798 1570 002B     		cmp	r3, #0
 4799 1572 25D0     		beq	.L120
 4800              		.loc 1 480 0 is_stmt 0 discriminator 1
 4801 1574 5849     		ldr	r1, .L168
 4802 1576 07F51653 		add	r3, r7, #9600
 4803 157a 03F11C03 		add	r3, r3, #28
 4804 157e 1A68     		ldr	r2, [r3]
 4805 1580 1346     		mov	r3, r2
 4806 1582 5B00     		lsls	r3, r3, #1
 4807 1584 1344     		add	r3, r3, r2
 4808 1586 9B00     		lsls	r3, r3, #2
 4809 1588 0B44     		add	r3, r3, r1
 4810 158a 1A68     		ldr	r2, [r3]
 4811 158c 5248     		ldr	r0, .L168
 4812 158e 07F51653 		add	r3, r7, #9600
 4813 1592 03F11C03 		add	r3, r3, #28
 4814 1596 1968     		ldr	r1, [r3]
 4815 1598 0B46     		mov	r3, r1
 4816 159a 5B00     		lsls	r3, r3, #1
 4817 159c 0B44     		add	r3, r3, r1
 4818 159e 9B00     		lsls	r3, r3, #2
 4819 15a0 0344     		add	r3, r3, r0
 4820 15a2 0433     		adds	r3, r3, #4
 4821 15a4 1B68     		ldr	r3, [r3]
 4822 15a6 591C     		adds	r1, r3, #1
 4823 15a8 4D48     		ldr	r0, .L168+8
 4824 15aa 1346     		mov	r3, r2
 4825 15ac DB00     		lsls	r3, r3, #3
 4826 15ae 1344     		add	r3, r3, r2
 4827 15b0 5B00     		lsls	r3, r3, #1
 4828 15b2 1344     		add	r3, r3, r2
 4829 15b4 0B44     		add	r3, r3, r1
 4830 15b6 50F82330 		ldr	r3, [r0, r3, lsl #2]
 4831 15ba 002B     		cmp	r3, #0
 4832 15bc 40F0B281 		bne	.L121
 4833              	.L120:
 481:.\pathfinder.c ****             if(path[i][DIR] != path[i + 1][DIR]){
 4834              		.loc 1 481 0 is_stmt 1
 4835 15c0 4549     		ldr	r1, .L168
 4836 15c2 07F51653 		add	r3, r7, #9600
 4837 15c6 03F11C03 		add	r3, r3, #28
 4838 15ca 1A68     		ldr	r2, [r3]
 4839 15cc 1346     		mov	r3, r2
 4840 15ce 5B00     		lsls	r3, r3, #1
 4841 15d0 1344     		add	r3, r3, r2
 4842 15d2 9B00     		lsls	r3, r3, #2
 4843 15d4 0B44     		add	r3, r3, r1
 4844 15d6 0833     		adds	r3, r3, #8
 4845 15d8 1968     		ldr	r1, [r3]
 4846 15da 07F51653 		add	r3, r7, #9600
 4847 15de 03F11C03 		add	r3, r3, #28
 4848 15e2 1B68     		ldr	r3, [r3]
 4849 15e4 5A1C     		adds	r2, r3, #1
ARM GAS  C:\Users\Logan\AppData\Local\Temp\ccKKo5Vz.s 			page 95


 4850 15e6 3C48     		ldr	r0, .L168
 4851 15e8 1346     		mov	r3, r2
 4852 15ea 5B00     		lsls	r3, r3, #1
 4853 15ec 1344     		add	r3, r3, r2
 4854 15ee 9B00     		lsls	r3, r3, #2
 4855 15f0 0344     		add	r3, r3, r0
 4856 15f2 0833     		adds	r3, r3, #8
 4857 15f4 1B68     		ldr	r3, [r3]
 4858 15f6 9942     		cmp	r1, r3
 4859 15f8 00F05F81 		beq	.L122
 482:.\pathfinder.c ****                //current direction , the next direction
 483:.\pathfinder.c ****                if((path[i][DIR] == 1 && path[i + 1][DIR] == 4) || (path[i][DIR] == 3 && path[i + 1]
 4860              		.loc 1 483 0
 4861 15fc 3649     		ldr	r1, .L168
 4862 15fe 07F51653 		add	r3, r7, #9600
 4863 1602 03F11C03 		add	r3, r3, #28
 4864 1606 1A68     		ldr	r2, [r3]
 4865 1608 1346     		mov	r3, r2
 4866 160a 5B00     		lsls	r3, r3, #1
 4867 160c 1344     		add	r3, r3, r2
 4868 160e 9B00     		lsls	r3, r3, #2
 4869 1610 0B44     		add	r3, r3, r1
 4870 1612 0833     		adds	r3, r3, #8
 4871 1614 1B68     		ldr	r3, [r3]
 4872 1616 012B     		cmp	r3, #1
 4873 1618 0FD1     		bne	.L123
 4874              		.loc 1 483 0 is_stmt 0 discriminator 1
 4875 161a 07F51653 		add	r3, r7, #9600
 4876 161e 03F11C03 		add	r3, r3, #28
 4877 1622 1B68     		ldr	r3, [r3]
 4878 1624 5A1C     		adds	r2, r3, #1
 4879 1626 2C49     		ldr	r1, .L168
 4880 1628 1346     		mov	r3, r2
 4881 162a 5B00     		lsls	r3, r3, #1
 4882 162c 1344     		add	r3, r3, r2
 4883 162e 9B00     		lsls	r3, r3, #2
 4884 1630 0B44     		add	r3, r3, r1
 4885 1632 0833     		adds	r3, r3, #8
 4886 1634 1B68     		ldr	r3, [r3]
 4887 1636 042B     		cmp	r3, #4
 4888 1638 1ED0     		beq	.L124
 4889              	.L123:
 4890              		.loc 1 483 0 discriminator 3
 4891 163a 2749     		ldr	r1, .L168
 4892 163c 07F51653 		add	r3, r7, #9600
 4893 1640 03F11C03 		add	r3, r3, #28
 4894 1644 1A68     		ldr	r2, [r3]
 4895 1646 1346     		mov	r3, r2
 4896 1648 5B00     		lsls	r3, r3, #1
 4897 164a 1344     		add	r3, r3, r2
 4898 164c 9B00     		lsls	r3, r3, #2
 4899 164e 0B44     		add	r3, r3, r1
 4900 1650 0833     		adds	r3, r3, #8
 4901 1652 1B68     		ldr	r3, [r3]
 4902 1654 032B     		cmp	r3, #3
 4903 1656 4BD1     		bne	.L125
 4904              		.loc 1 483 0 discriminator 4
ARM GAS  C:\Users\Logan\AppData\Local\Temp\ccKKo5Vz.s 			page 96


 4905 1658 07F51653 		add	r3, r7, #9600
 4906 165c 03F11C03 		add	r3, r3, #28
 4907 1660 1B68     		ldr	r3, [r3]
 4908 1662 5A1C     		adds	r2, r3, #1
 4909 1664 1C49     		ldr	r1, .L168
 4910 1666 1346     		mov	r3, r2
 4911 1668 5B00     		lsls	r3, r3, #1
 4912 166a 1344     		add	r3, r3, r2
 4913 166c 9B00     		lsls	r3, r3, #2
 4914 166e 0B44     		add	r3, r3, r1
 4915 1670 0833     		adds	r3, r3, #8
 4916 1672 1B68     		ldr	r3, [r3]
 4917 1674 022B     		cmp	r3, #2
 4918 1676 3BD1     		bne	.L125
 4919              	.L124:
 484:.\pathfinder.c ****                   //printf("L/R intersection found (%d) [direction = %d] -- TURN LEFT (%d, %d)\n", 
 485:.\pathfinder.c ****                   instructions[counter] = LEFT;
 4920              		.loc 1 485 0 is_stmt 1
 4921 1678 07F51653 		add	r3, r7, #9600
 4922 167c 03F12A03 		add	r3, r3, #42
 4923 1680 1B88     		ldrh	r3, [r3]
 4924 1682 164A     		ldr	r2, .L168+4
 4925 1684 4C21     		movs	r1, #76
 4926 1686 D154     		strb	r1, [r2, r3]
 486:.\pathfinder.c ****                   instructions[counter + 1] = i - prev_intersection;
 4927              		.loc 1 486 0
 4928 1688 07F51653 		add	r3, r7, #9600
 4929 168c 03F12A03 		add	r3, r3, #42
 4930 1690 1B88     		ldrh	r3, [r3]
 4931 1692 0133     		adds	r3, r3, #1
 4932 1694 07F51652 		add	r2, r7, #9600
 4933 1698 02F11C02 		add	r2, r2, #28
 4934 169c 1268     		ldr	r2, [r2]
 4935 169e D1B2     		uxtb	r1, r2
 4936 16a0 07F51652 		add	r2, r7, #9600
 4937 16a4 02F12C02 		add	r2, r2, #44
 4938 16a8 1268     		ldr	r2, [r2]
 4939 16aa D2B2     		uxtb	r2, r2
 4940 16ac 8A1A     		subs	r2, r1, r2
 4941 16ae D1B2     		uxtb	r1, r2
 4942 16b0 0A4A     		ldr	r2, .L168+4
 4943 16b2 D154     		strb	r1, [r2, r3]
 487:.\pathfinder.c ****                   counter+=2;
 4944              		.loc 1 487 0
 4945 16b4 07F51653 		add	r3, r7, #9600
 4946 16b8 03F12A03 		add	r3, r3, #42
 4947 16bc 1B88     		ldrh	r3, [r3]	@ movhi
 4948 16be 0233     		adds	r3, r3, #2
 4949 16c0 07F51652 		add	r2, r7, #9600
 4950 16c4 02F12A02 		add	r2, r2, #42
 4951 16c8 1380     		strh	r3, [r2]	@ movhi
 488:.\pathfinder.c ****                   prev_intersection = i;
 4952              		.loc 1 488 0
 4953 16ca 07F51653 		add	r3, r7, #9600
 4954 16ce 03F11C03 		add	r3, r3, #28
 4955 16d2 1B68     		ldr	r3, [r3]
 4956 16d4 06E0     		b	.L169
ARM GAS  C:\Users\Logan\AppData\Local\Temp\ccKKo5Vz.s 			page 97


 4957              	.L170:
 4958 16d6 00BF     		.align	2
 4959              	.L168:
 4960 16d8 00000000 		.word	path
 4961 16dc 00000000 		.word	instructions
 4962 16e0 00000000 		.word	map
 4963              	.L169:
 4964 16e4 07F51652 		add	r2, r7, #9600
 4965 16e8 02F12C02 		add	r2, r2, #44
 4966 16ec 1360     		str	r3, [r2]
 4967 16ee E3E0     		b	.L126
 4968              	.L125:
 489:.\pathfinder.c ****                }else if((path[i][DIR] == 1 && path[i + 1][DIR] == 2) || (path[i][DIR] == 3 && path[
 4969              		.loc 1 489 0
 4970 16f0 C649     		ldr	r1, .L171
 4971 16f2 07F51653 		add	r3, r7, #9600
 4972 16f6 03F11C03 		add	r3, r3, #28
 4973 16fa 1A68     		ldr	r2, [r3]
 4974 16fc 1346     		mov	r3, r2
 4975 16fe 5B00     		lsls	r3, r3, #1
 4976 1700 1344     		add	r3, r3, r2
 4977 1702 9B00     		lsls	r3, r3, #2
 4978 1704 0B44     		add	r3, r3, r1
 4979 1706 0833     		adds	r3, r3, #8
 4980 1708 1B68     		ldr	r3, [r3]
 4981 170a 012B     		cmp	r3, #1
 4982 170c 0FD1     		bne	.L127
 4983              		.loc 1 489 0 is_stmt 0 discriminator 1
 4984 170e 07F51653 		add	r3, r7, #9600
 4985 1712 03F11C03 		add	r3, r3, #28
 4986 1716 1B68     		ldr	r3, [r3]
 4987 1718 5A1C     		adds	r2, r3, #1
 4988 171a BC49     		ldr	r1, .L171
 4989 171c 1346     		mov	r3, r2
 4990 171e 5B00     		lsls	r3, r3, #1
 4991 1720 1344     		add	r3, r3, r2
 4992 1722 9B00     		lsls	r3, r3, #2
 4993 1724 0B44     		add	r3, r3, r1
 4994 1726 0833     		adds	r3, r3, #8
 4995 1728 1B68     		ldr	r3, [r3]
 4996 172a 022B     		cmp	r3, #2
 4997 172c 1ED0     		beq	.L128
 4998              	.L127:
 4999              		.loc 1 489 0 discriminator 3
 5000 172e B749     		ldr	r1, .L171
 5001 1730 07F51653 		add	r3, r7, #9600
 5002 1734 03F11C03 		add	r3, r3, #28
 5003 1738 1A68     		ldr	r2, [r3]
 5004 173a 1346     		mov	r3, r2
 5005 173c 5B00     		lsls	r3, r3, #1
 5006 173e 1344     		add	r3, r3, r2
 5007 1740 9B00     		lsls	r3, r3, #2
 5008 1742 0B44     		add	r3, r3, r1
 5009 1744 0833     		adds	r3, r3, #8
 5010 1746 1B68     		ldr	r3, [r3]
 5011 1748 032B     		cmp	r3, #3
 5012 174a 43D1     		bne	.L129
ARM GAS  C:\Users\Logan\AppData\Local\Temp\ccKKo5Vz.s 			page 98


 5013              		.loc 1 489 0 discriminator 4
 5014 174c 07F51653 		add	r3, r7, #9600
 5015 1750 03F11C03 		add	r3, r3, #28
 5016 1754 1B68     		ldr	r3, [r3]
 5017 1756 5A1C     		adds	r2, r3, #1
 5018 1758 AC49     		ldr	r1, .L171
 5019 175a 1346     		mov	r3, r2
 5020 175c 5B00     		lsls	r3, r3, #1
 5021 175e 1344     		add	r3, r3, r2
 5022 1760 9B00     		lsls	r3, r3, #2
 5023 1762 0B44     		add	r3, r3, r1
 5024 1764 0833     		adds	r3, r3, #8
 5025 1766 1B68     		ldr	r3, [r3]
 5026 1768 042B     		cmp	r3, #4
 5027 176a 33D1     		bne	.L129
 5028              	.L128:
 490:.\pathfinder.c ****                   //printf("L/R intersection found (%d) [direction = %d] -- TURN RIGHT (%d, %d)\n",
 491:.\pathfinder.c ****                   instructions[counter] = RIGHT;
 5029              		.loc 1 491 0 is_stmt 1
 5030 176c 07F51653 		add	r3, r7, #9600
 5031 1770 03F12A03 		add	r3, r3, #42
 5032 1774 1B88     		ldrh	r3, [r3]
 5033 1776 A64A     		ldr	r2, .L171+4
 5034 1778 5221     		movs	r1, #82
 5035 177a D154     		strb	r1, [r2, r3]
 492:.\pathfinder.c ****                   instructions[counter + 1] = i - prev_intersection;
 5036              		.loc 1 492 0
 5037 177c 07F51653 		add	r3, r7, #9600
 5038 1780 03F12A03 		add	r3, r3, #42
 5039 1784 1B88     		ldrh	r3, [r3]
 5040 1786 0133     		adds	r3, r3, #1
 5041 1788 07F51652 		add	r2, r7, #9600
 5042 178c 02F11C02 		add	r2, r2, #28
 5043 1790 1268     		ldr	r2, [r2]
 5044 1792 D1B2     		uxtb	r1, r2
 5045 1794 07F51652 		add	r2, r7, #9600
 5046 1798 02F12C02 		add	r2, r2, #44
 5047 179c 1268     		ldr	r2, [r2]
 5048 179e D2B2     		uxtb	r2, r2
 5049 17a0 8A1A     		subs	r2, r1, r2
 5050 17a2 D1B2     		uxtb	r1, r2
 5051 17a4 9A4A     		ldr	r2, .L171+4
 5052 17a6 D154     		strb	r1, [r2, r3]
 493:.\pathfinder.c ****                   counter+=2;
 5053              		.loc 1 493 0
 5054 17a8 07F51653 		add	r3, r7, #9600
 5055 17ac 03F12A03 		add	r3, r3, #42
 5056 17b0 1B88     		ldrh	r3, [r3]	@ movhi
 5057 17b2 0233     		adds	r3, r3, #2
 5058 17b4 07F51652 		add	r2, r7, #9600
 5059 17b8 02F12A02 		add	r2, r2, #42
 5060 17bc 1380     		strh	r3, [r2]	@ movhi
 494:.\pathfinder.c ****                   prev_intersection = i;
 5061              		.loc 1 494 0
 5062 17be 07F51653 		add	r3, r7, #9600
 5063 17c2 03F11C03 		add	r3, r3, #28
 5064 17c6 1B68     		ldr	r3, [r3]
ARM GAS  C:\Users\Logan\AppData\Local\Temp\ccKKo5Vz.s 			page 99


 5065 17c8 07F51652 		add	r2, r7, #9600
 5066 17cc 02F12C02 		add	r2, r2, #44
 5067 17d0 1360     		str	r3, [r2]
 5068 17d2 71E0     		b	.L126
 5069              	.L129:
 495:.\pathfinder.c ****                }else if ((path[i][DIR] == 1 && path[i + 1][DIR] == 3) || (path[i][DIR] == 3 && path
 5070              		.loc 1 495 0
 5071 17d4 8D49     		ldr	r1, .L171
 5072 17d6 07F51653 		add	r3, r7, #9600
 5073 17da 03F11C03 		add	r3, r3, #28
 5074 17de 1A68     		ldr	r2, [r3]
 5075 17e0 1346     		mov	r3, r2
 5076 17e2 5B00     		lsls	r3, r3, #1
 5077 17e4 1344     		add	r3, r3, r2
 5078 17e6 9B00     		lsls	r3, r3, #2
 5079 17e8 0B44     		add	r3, r3, r1
 5080 17ea 0833     		adds	r3, r3, #8
 5081 17ec 1B68     		ldr	r3, [r3]
 5082 17ee 012B     		cmp	r3, #1
 5083 17f0 0FD1     		bne	.L130
 5084              		.loc 1 495 0 is_stmt 0 discriminator 1
 5085 17f2 07F51653 		add	r3, r7, #9600
 5086 17f6 03F11C03 		add	r3, r3, #28
 5087 17fa 1B68     		ldr	r3, [r3]
 5088 17fc 5A1C     		adds	r2, r3, #1
 5089 17fe 8349     		ldr	r1, .L171
 5090 1800 1346     		mov	r3, r2
 5091 1802 5B00     		lsls	r3, r3, #1
 5092 1804 1344     		add	r3, r3, r2
 5093 1806 9B00     		lsls	r3, r3, #2
 5094 1808 0B44     		add	r3, r3, r1
 5095 180a 0833     		adds	r3, r3, #8
 5096 180c 1B68     		ldr	r3, [r3]
 5097 180e 032B     		cmp	r3, #3
 5098 1810 1ED0     		beq	.L131
 5099              	.L130:
 5100              		.loc 1 495 0 discriminator 3
 5101 1812 7E49     		ldr	r1, .L171
 5102 1814 07F51653 		add	r3, r7, #9600
 5103 1818 03F11C03 		add	r3, r3, #28
 5104 181c 1A68     		ldr	r2, [r3]
 5105 181e 1346     		mov	r3, r2
 5106 1820 5B00     		lsls	r3, r3, #1
 5107 1822 1344     		add	r3, r3, r2
 5108 1824 9B00     		lsls	r3, r3, #2
 5109 1826 0B44     		add	r3, r3, r1
 5110 1828 0833     		adds	r3, r3, #8
 5111 182a 1B68     		ldr	r3, [r3]
 5112 182c 032B     		cmp	r3, #3
 5113 182e 78D1     		bne	.L132
 5114              		.loc 1 495 0 discriminator 4
 5115 1830 07F51653 		add	r3, r7, #9600
 5116 1834 03F11C03 		add	r3, r3, #28
 5117 1838 1B68     		ldr	r3, [r3]
 5118 183a 5A1C     		adds	r2, r3, #1
 5119 183c 7349     		ldr	r1, .L171
 5120 183e 1346     		mov	r3, r2
ARM GAS  C:\Users\Logan\AppData\Local\Temp\ccKKo5Vz.s 			page 100


 5121 1840 5B00     		lsls	r3, r3, #1
 5122 1842 1344     		add	r3, r3, r2
 5123 1844 9B00     		lsls	r3, r3, #2
 5124 1846 0B44     		add	r3, r3, r1
 5125 1848 0833     		adds	r3, r3, #8
 5126 184a 1B68     		ldr	r3, [r3]
 5127 184c 012B     		cmp	r3, #1
 5128 184e 68D1     		bne	.L132
 5129              	.L131:
 496:.\pathfinder.c ****                   //printf("L/R intersection found (%d) [direction = %d] -- TURN U-TURN (%d, %d)\n"
 497:.\pathfinder.c ****                   instructions[counter] = UTURN;
 5130              		.loc 1 497 0 is_stmt 1
 5131 1850 07F51653 		add	r3, r7, #9600
 5132 1854 03F12A03 		add	r3, r3, #42
 5133 1858 1B88     		ldrh	r3, [r3]
 5134 185a 6D4A     		ldr	r2, .L171+4
 5135 185c 5521     		movs	r1, #85
 5136 185e D154     		strb	r1, [r2, r3]
 498:.\pathfinder.c ****                   instructions[counter + 1] = i - prev_intersection;
 5137              		.loc 1 498 0
 5138 1860 07F51653 		add	r3, r7, #9600
 5139 1864 03F12A03 		add	r3, r3, #42
 5140 1868 1B88     		ldrh	r3, [r3]
 5141 186a 0133     		adds	r3, r3, #1
 5142 186c 07F51652 		add	r2, r7, #9600
 5143 1870 02F11C02 		add	r2, r2, #28
 5144 1874 1268     		ldr	r2, [r2]
 5145 1876 D1B2     		uxtb	r1, r2
 5146 1878 07F51652 		add	r2, r7, #9600
 5147 187c 02F12C02 		add	r2, r2, #44
 5148 1880 1268     		ldr	r2, [r2]
 5149 1882 D2B2     		uxtb	r2, r2
 5150 1884 8A1A     		subs	r2, r1, r2
 5151 1886 D1B2     		uxtb	r1, r2
 5152 1888 614A     		ldr	r2, .L171+4
 5153 188a D154     		strb	r1, [r2, r3]
 499:.\pathfinder.c ****                   counter+=2;
 5154              		.loc 1 499 0
 5155 188c 07F51653 		add	r3, r7, #9600
 5156 1890 03F12A03 		add	r3, r3, #42
 5157 1894 1B88     		ldrh	r3, [r3]	@ movhi
 5158 1896 0233     		adds	r3, r3, #2
 5159 1898 07F51652 		add	r2, r7, #9600
 5160 189c 02F12A02 		add	r2, r2, #42
 5161 18a0 1380     		strh	r3, [r2]	@ movhi
 500:.\pathfinder.c ****                   prev_intersection = i;
 5162              		.loc 1 500 0
 5163 18a2 07F51653 		add	r3, r7, #9600
 5164 18a6 03F11C03 		add	r3, r3, #28
 5165 18aa 1B68     		ldr	r3, [r3]
 5166 18ac 07F51652 		add	r2, r7, #9600
 5167 18b0 02F12C02 		add	r2, r2, #44
 5168 18b4 1360     		str	r3, [r2]
 5169 18b6 34E0     		b	.L132
 5170              	.L126:
 5171 18b8 33E0     		b	.L132
 5172              	.L122:
ARM GAS  C:\Users\Logan\AppData\Local\Temp\ccKKo5Vz.s 			page 101


 501:.\pathfinder.c ****                }else{
 502:.\pathfinder.c ****                   //printf("Prev %d, current %d\n",path[i + 1][DIR], path[i][DIR]);
 503:.\pathfinder.c ****                }
 504:.\pathfinder.c ****             }else{
 505:.\pathfinder.c ****                //printf("L/R intersection found (%d) [direction = %d] (%d, %d)\n", tmpCounter, path
 506:.\pathfinder.c ****                instructions[counter] = STRAIGHT;
 5173              		.loc 1 506 0
 5174 18ba 07F51653 		add	r3, r7, #9600
 5175 18be 03F12A03 		add	r3, r3, #42
 5176 18c2 1B88     		ldrh	r3, [r3]
 5177 18c4 524A     		ldr	r2, .L171+4
 5178 18c6 5321     		movs	r1, #83
 5179 18c8 D154     		strb	r1, [r2, r3]
 507:.\pathfinder.c ****                instructions[counter + 1] = i - prev_intersection;
 5180              		.loc 1 507 0
 5181 18ca 07F51653 		add	r3, r7, #9600
 5182 18ce 03F12A03 		add	r3, r3, #42
 5183 18d2 1B88     		ldrh	r3, [r3]
 5184 18d4 0133     		adds	r3, r3, #1
 5185 18d6 07F51652 		add	r2, r7, #9600
 5186 18da 02F11C02 		add	r2, r2, #28
 5187 18de 1268     		ldr	r2, [r2]
 5188 18e0 D1B2     		uxtb	r1, r2
 5189 18e2 07F51652 		add	r2, r7, #9600
 5190 18e6 02F12C02 		add	r2, r2, #44
 5191 18ea 1268     		ldr	r2, [r2]
 5192 18ec D2B2     		uxtb	r2, r2
 5193 18ee 8A1A     		subs	r2, r1, r2
 5194 18f0 D1B2     		uxtb	r1, r2
 5195 18f2 474A     		ldr	r2, .L171+4
 5196 18f4 D154     		strb	r1, [r2, r3]
 508:.\pathfinder.c ****                counter+=2;
 5197              		.loc 1 508 0
 5198 18f6 07F51653 		add	r3, r7, #9600
 5199 18fa 03F12A03 		add	r3, r3, #42
 5200 18fe 1B88     		ldrh	r3, [r3]	@ movhi
 5201 1900 0233     		adds	r3, r3, #2
 5202 1902 07F51652 		add	r2, r7, #9600
 5203 1906 02F12A02 		add	r2, r2, #42
 5204 190a 1380     		strh	r3, [r2]	@ movhi
 509:.\pathfinder.c ****                prev_intersection = i;
 5205              		.loc 1 509 0
 5206 190c 07F51653 		add	r3, r7, #9600
 5207 1910 03F11C03 		add	r3, r3, #28
 5208 1914 1B68     		ldr	r3, [r3]
 5209 1916 07F51652 		add	r2, r7, #9600
 5210 191a 02F12C02 		add	r2, r2, #44
 5211 191e 1360     		str	r3, [r2]
 481:.\pathfinder.c ****                //current direction , the next direction
 5212              		.loc 1 481 0
 5213 1920 72E0     		b	.L133
 5214              	.L132:
 481:.\pathfinder.c ****                //current direction , the next direction
 5215              		.loc 1 481 0 is_stmt 0 discriminator 4
 5216 1922 71E0     		b	.L133
 5217              	.L121:
 510:.\pathfinder.c ****             }
ARM GAS  C:\Users\Logan\AppData\Local\Temp\ccKKo5Vz.s 			page 102


 511:.\pathfinder.c ****          }else{//not an intersection
 512:.\pathfinder.c ****             if ((path[i][DIR] == 1 && path[i + 1][DIR] == 3) || (path[i][DIR] == 3 && path[i + 1][D
 5218              		.loc 1 512 0 is_stmt 1
 5219 1924 3949     		ldr	r1, .L171
 5220 1926 07F51653 		add	r3, r7, #9600
 5221 192a 03F11C03 		add	r3, r3, #28
 5222 192e 1A68     		ldr	r2, [r3]
 5223 1930 1346     		mov	r3, r2
 5224 1932 5B00     		lsls	r3, r3, #1
 5225 1934 1344     		add	r3, r3, r2
 5226 1936 9B00     		lsls	r3, r3, #2
 5227 1938 0B44     		add	r3, r3, r1
 5228 193a 0833     		adds	r3, r3, #8
 5229 193c 1B68     		ldr	r3, [r3]
 5230 193e 012B     		cmp	r3, #1
 5231 1940 0FD1     		bne	.L134
 5232              		.loc 1 512 0 is_stmt 0 discriminator 1
 5233 1942 07F51653 		add	r3, r7, #9600
 5234 1946 03F11C03 		add	r3, r3, #28
 5235 194a 1B68     		ldr	r3, [r3]
 5236 194c 5A1C     		adds	r2, r3, #1
 5237 194e 2F49     		ldr	r1, .L171
 5238 1950 1346     		mov	r3, r2
 5239 1952 5B00     		lsls	r3, r3, #1
 5240 1954 1344     		add	r3, r3, r2
 5241 1956 9B00     		lsls	r3, r3, #2
 5242 1958 0B44     		add	r3, r3, r1
 5243 195a 0833     		adds	r3, r3, #8
 5244 195c 1B68     		ldr	r3, [r3]
 5245 195e 032B     		cmp	r3, #3
 5246 1960 1ED0     		beq	.L135
 5247              	.L134:
 5248              		.loc 1 512 0 discriminator 3
 5249 1962 2A49     		ldr	r1, .L171
 5250 1964 07F51653 		add	r3, r7, #9600
 5251 1968 03F11C03 		add	r3, r3, #28
 5252 196c 1A68     		ldr	r2, [r3]
 5253 196e 1346     		mov	r3, r2
 5254 1970 5B00     		lsls	r3, r3, #1
 5255 1972 1344     		add	r3, r3, r2
 5256 1974 9B00     		lsls	r3, r3, #2
 5257 1976 0B44     		add	r3, r3, r1
 5258 1978 0833     		adds	r3, r3, #8
 5259 197a 1B68     		ldr	r3, [r3]
 5260 197c 032B     		cmp	r3, #3
 5261 197e 43D1     		bne	.L133
 5262              		.loc 1 512 0 discriminator 4
 5263 1980 07F51653 		add	r3, r7, #9600
 5264 1984 03F11C03 		add	r3, r3, #28
 5265 1988 1B68     		ldr	r3, [r3]
 5266 198a 5A1C     		adds	r2, r3, #1
 5267 198c 1F49     		ldr	r1, .L171
 5268 198e 1346     		mov	r3, r2
 5269 1990 5B00     		lsls	r3, r3, #1
 5270 1992 1344     		add	r3, r3, r2
 5271 1994 9B00     		lsls	r3, r3, #2
 5272 1996 0B44     		add	r3, r3, r1
ARM GAS  C:\Users\Logan\AppData\Local\Temp\ccKKo5Vz.s 			page 103


 5273 1998 0833     		adds	r3, r3, #8
 5274 199a 1B68     		ldr	r3, [r3]
 5275 199c 012B     		cmp	r3, #1
 5276 199e 33D1     		bne	.L133
 5277              	.L135:
 513:.\pathfinder.c ****                //printf("L/R intersection found (%d) [direction = %d] -- TURN U-TURN (%d, %d)\n", t
 514:.\pathfinder.c ****                instructions[counter] = UTURN;
 5278              		.loc 1 514 0 is_stmt 1
 5279 19a0 07F51653 		add	r3, r7, #9600
 5280 19a4 03F12A03 		add	r3, r3, #42
 5281 19a8 1B88     		ldrh	r3, [r3]
 5282 19aa 194A     		ldr	r2, .L171+4
 5283 19ac 5521     		movs	r1, #85
 5284 19ae D154     		strb	r1, [r2, r3]
 515:.\pathfinder.c ****                instructions[counter + 1] = i - prev_intersection;
 5285              		.loc 1 515 0
 5286 19b0 07F51653 		add	r3, r7, #9600
 5287 19b4 03F12A03 		add	r3, r3, #42
 5288 19b8 1B88     		ldrh	r3, [r3]
 5289 19ba 0133     		adds	r3, r3, #1
 5290 19bc 07F51652 		add	r2, r7, #9600
 5291 19c0 02F11C02 		add	r2, r2, #28
 5292 19c4 1268     		ldr	r2, [r2]
 5293 19c6 D1B2     		uxtb	r1, r2
 5294 19c8 07F51652 		add	r2, r7, #9600
 5295 19cc 02F12C02 		add	r2, r2, #44
 5296 19d0 1268     		ldr	r2, [r2]
 5297 19d2 D2B2     		uxtb	r2, r2
 5298 19d4 8A1A     		subs	r2, r1, r2
 5299 19d6 D1B2     		uxtb	r1, r2
 5300 19d8 0D4A     		ldr	r2, .L171+4
 5301 19da D154     		strb	r1, [r2, r3]
 516:.\pathfinder.c ****                counter+=2;
 5302              		.loc 1 516 0
 5303 19dc 07F51653 		add	r3, r7, #9600
 5304 19e0 03F12A03 		add	r3, r3, #42
 5305 19e4 1B88     		ldrh	r3, [r3]	@ movhi
 5306 19e6 0233     		adds	r3, r3, #2
 5307 19e8 07F51652 		add	r2, r7, #9600
 5308 19ec 02F12A02 		add	r2, r2, #42
 5309 19f0 1380     		strh	r3, [r2]	@ movhi
 517:.\pathfinder.c ****                prev_intersection = i;
 5310              		.loc 1 517 0
 5311 19f2 07F51653 		add	r3, r7, #9600
 5312 19f6 03F11C03 		add	r3, r3, #28
 5313 19fa 1B68     		ldr	r3, [r3]
 5314 19fc 07F51652 		add	r2, r7, #9600
 5315 1a00 02F12C02 		add	r2, r2, #44
 5316 1a04 1360     		str	r3, [r2]
 480:.\pathfinder.c ****             if(path[i][DIR] != path[i + 1][DIR]){
 5317              		.loc 1 480 0
 5318 1a06 72E2     		b	.L136
 5319              	.L133:
 480:.\pathfinder.c ****             if(path[i][DIR] != path[i + 1][DIR]){
 5320              		.loc 1 480 0 is_stmt 0 discriminator 5
 5321 1a08 71E2     		b	.L136
 5322              	.L172:
ARM GAS  C:\Users\Logan\AppData\Local\Temp\ccKKo5Vz.s 			page 104


 5323 1a0a 00BF     		.align	2
 5324              	.L171:
 5325 1a0c 00000000 		.word	path
 5326 1a10 00000000 		.word	instructions
 5327              	.L119:
 518:.\pathfinder.c ****             }else{
 519:.\pathfinder.c ****             //printf("3 [(%d), direction = %d] (%d, %d)\n", tmpCounter, path[i][DIR], path[i][Y] + 
 520:.\pathfinder.c ****          }
 521:.\pathfinder.c ****          }
 522:.\pathfinder.c ****       }else{
 523:.\pathfinder.c ****          if(map[path[i][Y] - 1][path[i][X]] == PATH || map[path[i][Y] + 1][path[i][X]] == PATH){
 5328              		.loc 1 523 0 is_stmt 1
 5329 1a14 A649     		ldr	r1, .L173
 5330 1a16 07F51653 		add	r3, r7, #9600
 5331 1a1a 03F11C03 		add	r3, r3, #28
 5332 1a1e 1A68     		ldr	r2, [r3]
 5333 1a20 1346     		mov	r3, r2
 5334 1a22 5B00     		lsls	r3, r3, #1
 5335 1a24 1344     		add	r3, r3, r2
 5336 1a26 9B00     		lsls	r3, r3, #2
 5337 1a28 0B44     		add	r3, r3, r1
 5338 1a2a 1B68     		ldr	r3, [r3]
 5339 1a2c 5A1E     		subs	r2, r3, #1
 5340 1a2e A048     		ldr	r0, .L173
 5341 1a30 07F51653 		add	r3, r7, #9600
 5342 1a34 03F11C03 		add	r3, r3, #28
 5343 1a38 1968     		ldr	r1, [r3]
 5344 1a3a 0B46     		mov	r3, r1
 5345 1a3c 5B00     		lsls	r3, r3, #1
 5346 1a3e 0B44     		add	r3, r3, r1
 5347 1a40 9B00     		lsls	r3, r3, #2
 5348 1a42 0344     		add	r3, r3, r0
 5349 1a44 0433     		adds	r3, r3, #4
 5350 1a46 1968     		ldr	r1, [r3]
 5351 1a48 9A48     		ldr	r0, .L173+4
 5352 1a4a 1346     		mov	r3, r2
 5353 1a4c DB00     		lsls	r3, r3, #3
 5354 1a4e 1344     		add	r3, r3, r2
 5355 1a50 5B00     		lsls	r3, r3, #1
 5356 1a52 1344     		add	r3, r3, r2
 5357 1a54 0B44     		add	r3, r3, r1
 5358 1a56 50F82330 		ldr	r3, [r0, r3, lsl #2]
 5359 1a5a 002B     		cmp	r3, #0
 5360 1a5c 25D0     		beq	.L137
 5361              		.loc 1 523 0 is_stmt 0 discriminator 1
 5362 1a5e 9449     		ldr	r1, .L173
 5363 1a60 07F51653 		add	r3, r7, #9600
 5364 1a64 03F11C03 		add	r3, r3, #28
 5365 1a68 1A68     		ldr	r2, [r3]
 5366 1a6a 1346     		mov	r3, r2
 5367 1a6c 5B00     		lsls	r3, r3, #1
 5368 1a6e 1344     		add	r3, r3, r2
 5369 1a70 9B00     		lsls	r3, r3, #2
 5370 1a72 0B44     		add	r3, r3, r1
 5371 1a74 1B68     		ldr	r3, [r3]
 5372 1a76 5A1C     		adds	r2, r3, #1
 5373 1a78 8D48     		ldr	r0, .L173
ARM GAS  C:\Users\Logan\AppData\Local\Temp\ccKKo5Vz.s 			page 105


 5374 1a7a 07F51653 		add	r3, r7, #9600
 5375 1a7e 03F11C03 		add	r3, r3, #28
 5376 1a82 1968     		ldr	r1, [r3]
 5377 1a84 0B46     		mov	r3, r1
 5378 1a86 5B00     		lsls	r3, r3, #1
 5379 1a88 0B44     		add	r3, r3, r1
 5380 1a8a 9B00     		lsls	r3, r3, #2
 5381 1a8c 0344     		add	r3, r3, r0
 5382 1a8e 0433     		adds	r3, r3, #4
 5383 1a90 1968     		ldr	r1, [r3]
 5384 1a92 8848     		ldr	r0, .L173+4
 5385 1a94 1346     		mov	r3, r2
 5386 1a96 DB00     		lsls	r3, r3, #3
 5387 1a98 1344     		add	r3, r3, r2
 5388 1a9a 5B00     		lsls	r3, r3, #1
 5389 1a9c 1344     		add	r3, r3, r2
 5390 1a9e 0B44     		add	r3, r3, r1
 5391 1aa0 50F82330 		ldr	r3, [r0, r3, lsl #2]
 5392 1aa4 002B     		cmp	r3, #0
 5393 1aa6 40F0B181 		bne	.L138
 5394              	.L137:
 524:.\pathfinder.c ****             if(path[i][DIR] != path[i + 1][DIR]){
 5395              		.loc 1 524 0 is_stmt 1
 5396 1aaa 8149     		ldr	r1, .L173
 5397 1aac 07F51653 		add	r3, r7, #9600
 5398 1ab0 03F11C03 		add	r3, r3, #28
 5399 1ab4 1A68     		ldr	r2, [r3]
 5400 1ab6 1346     		mov	r3, r2
 5401 1ab8 5B00     		lsls	r3, r3, #1
 5402 1aba 1344     		add	r3, r3, r2
 5403 1abc 9B00     		lsls	r3, r3, #2
 5404 1abe 0B44     		add	r3, r3, r1
 5405 1ac0 0833     		adds	r3, r3, #8
 5406 1ac2 1968     		ldr	r1, [r3]
 5407 1ac4 07F51653 		add	r3, r7, #9600
 5408 1ac8 03F11C03 		add	r3, r3, #28
 5409 1acc 1B68     		ldr	r3, [r3]
 5410 1ace 5A1C     		adds	r2, r3, #1
 5411 1ad0 7748     		ldr	r0, .L173
 5412 1ad2 1346     		mov	r3, r2
 5413 1ad4 5B00     		lsls	r3, r3, #1
 5414 1ad6 1344     		add	r3, r3, r2
 5415 1ad8 9B00     		lsls	r3, r3, #2
 5416 1ada 0344     		add	r3, r3, r0
 5417 1adc 0833     		adds	r3, r3, #8
 5418 1ade 1B68     		ldr	r3, [r3]
 5419 1ae0 9942     		cmp	r1, r3
 5420 1ae2 00F05E81 		beq	.L139
 525:.\pathfinder.c ****                if((path[i][DIR] == 4 && path[i + 1][DIR] == 3) || (path[i][DIR] == 2 && path[i + 1]
 5421              		.loc 1 525 0
 5422 1ae6 7249     		ldr	r1, .L173
 5423 1ae8 07F51653 		add	r3, r7, #9600
 5424 1aec 03F11C03 		add	r3, r3, #28
 5425 1af0 1A68     		ldr	r2, [r3]
 5426 1af2 1346     		mov	r3, r2
 5427 1af4 5B00     		lsls	r3, r3, #1
 5428 1af6 1344     		add	r3, r3, r2
ARM GAS  C:\Users\Logan\AppData\Local\Temp\ccKKo5Vz.s 			page 106


 5429 1af8 9B00     		lsls	r3, r3, #2
 5430 1afa 0B44     		add	r3, r3, r1
 5431 1afc 0833     		adds	r3, r3, #8
 5432 1afe 1B68     		ldr	r3, [r3]
 5433 1b00 042B     		cmp	r3, #4
 5434 1b02 0FD1     		bne	.L140
 5435              		.loc 1 525 0 is_stmt 0 discriminator 1
 5436 1b04 07F51653 		add	r3, r7, #9600
 5437 1b08 03F11C03 		add	r3, r3, #28
 5438 1b0c 1B68     		ldr	r3, [r3]
 5439 1b0e 5A1C     		adds	r2, r3, #1
 5440 1b10 6749     		ldr	r1, .L173
 5441 1b12 1346     		mov	r3, r2
 5442 1b14 5B00     		lsls	r3, r3, #1
 5443 1b16 1344     		add	r3, r3, r2
 5444 1b18 9B00     		lsls	r3, r3, #2
 5445 1b1a 0B44     		add	r3, r3, r1
 5446 1b1c 0833     		adds	r3, r3, #8
 5447 1b1e 1B68     		ldr	r3, [r3]
 5448 1b20 032B     		cmp	r3, #3
 5449 1b22 1ED0     		beq	.L141
 5450              	.L140:
 5451              		.loc 1 525 0 discriminator 3
 5452 1b24 6249     		ldr	r1, .L173
 5453 1b26 07F51653 		add	r3, r7, #9600
 5454 1b2a 03F11C03 		add	r3, r3, #28
 5455 1b2e 1A68     		ldr	r2, [r3]
 5456 1b30 1346     		mov	r3, r2
 5457 1b32 5B00     		lsls	r3, r3, #1
 5458 1b34 1344     		add	r3, r3, r2
 5459 1b36 9B00     		lsls	r3, r3, #2
 5460 1b38 0B44     		add	r3, r3, r1
 5461 1b3a 0833     		adds	r3, r3, #8
 5462 1b3c 1B68     		ldr	r3, [r3]
 5463 1b3e 022B     		cmp	r3, #2
 5464 1b40 43D1     		bne	.L142
 5465              		.loc 1 525 0 discriminator 4
 5466 1b42 07F51653 		add	r3, r7, #9600
 5467 1b46 03F11C03 		add	r3, r3, #28
 5468 1b4a 1B68     		ldr	r3, [r3]
 5469 1b4c 5A1C     		adds	r2, r3, #1
 5470 1b4e 5849     		ldr	r1, .L173
 5471 1b50 1346     		mov	r3, r2
 5472 1b52 5B00     		lsls	r3, r3, #1
 5473 1b54 1344     		add	r3, r3, r2
 5474 1b56 9B00     		lsls	r3, r3, #2
 5475 1b58 0B44     		add	r3, r3, r1
 5476 1b5a 0833     		adds	r3, r3, #8
 5477 1b5c 1B68     		ldr	r3, [r3]
 5478 1b5e 012B     		cmp	r3, #1
 5479 1b60 33D1     		bne	.L142
 5480              	.L141:
 526:.\pathfinder.c ****                   //printf("U/D intersection found (%d) [direction = %d] -- TURN LEFT (%d, %d)\n", 
 527:.\pathfinder.c ****                   instructions[counter] = LEFT;
 5481              		.loc 1 527 0 is_stmt 1
 5482 1b62 07F51653 		add	r3, r7, #9600
 5483 1b66 03F12A03 		add	r3, r3, #42
ARM GAS  C:\Users\Logan\AppData\Local\Temp\ccKKo5Vz.s 			page 107


 5484 1b6a 1B88     		ldrh	r3, [r3]
 5485 1b6c 524A     		ldr	r2, .L173+8
 5486 1b6e 4C21     		movs	r1, #76
 5487 1b70 D154     		strb	r1, [r2, r3]
 528:.\pathfinder.c ****                   instructions[counter + 1] = i - prev_intersection;
 5488              		.loc 1 528 0
 5489 1b72 07F51653 		add	r3, r7, #9600
 5490 1b76 03F12A03 		add	r3, r3, #42
 5491 1b7a 1B88     		ldrh	r3, [r3]
 5492 1b7c 0133     		adds	r3, r3, #1
 5493 1b7e 07F51652 		add	r2, r7, #9600
 5494 1b82 02F11C02 		add	r2, r2, #28
 5495 1b86 1268     		ldr	r2, [r2]
 5496 1b88 D1B2     		uxtb	r1, r2
 5497 1b8a 07F51652 		add	r2, r7, #9600
 5498 1b8e 02F12C02 		add	r2, r2, #44
 5499 1b92 1268     		ldr	r2, [r2]
 5500 1b94 D2B2     		uxtb	r2, r2
 5501 1b96 8A1A     		subs	r2, r1, r2
 5502 1b98 D1B2     		uxtb	r1, r2
 5503 1b9a 474A     		ldr	r2, .L173+8
 5504 1b9c D154     		strb	r1, [r2, r3]
 529:.\pathfinder.c ****                   counter+=2;
 5505              		.loc 1 529 0
 5506 1b9e 07F51653 		add	r3, r7, #9600
 5507 1ba2 03F12A03 		add	r3, r3, #42
 5508 1ba6 1B88     		ldrh	r3, [r3]	@ movhi
 5509 1ba8 0233     		adds	r3, r3, #2
 5510 1baa 07F51652 		add	r2, r7, #9600
 5511 1bae 02F12A02 		add	r2, r2, #42
 5512 1bb2 1380     		strh	r3, [r2]	@ movhi
 530:.\pathfinder.c ****                   prev_intersection = i;
 5513              		.loc 1 530 0
 5514 1bb4 07F51653 		add	r3, r7, #9600
 5515 1bb8 03F11C03 		add	r3, r3, #28
 5516 1bbc 1B68     		ldr	r3, [r3]
 5517 1bbe 07F51652 		add	r2, r7, #9600
 5518 1bc2 02F12C02 		add	r2, r2, #44
 5519 1bc6 1360     		str	r3, [r2]
 5520 1bc8 EAE0     		b	.L143
 5521              	.L142:
 531:.\pathfinder.c ****                }else if((path[i][DIR] == 4 && path[i + 1][DIR] == 1) || (path[i][DIR] == 2 && path[
 5522              		.loc 1 531 0
 5523 1bca 3949     		ldr	r1, .L173
 5524 1bcc 07F51653 		add	r3, r7, #9600
 5525 1bd0 03F11C03 		add	r3, r3, #28
 5526 1bd4 1A68     		ldr	r2, [r3]
 5527 1bd6 1346     		mov	r3, r2
 5528 1bd8 5B00     		lsls	r3, r3, #1
 5529 1bda 1344     		add	r3, r3, r2
 5530 1bdc 9B00     		lsls	r3, r3, #2
 5531 1bde 0B44     		add	r3, r3, r1
 5532 1be0 0833     		adds	r3, r3, #8
 5533 1be2 1B68     		ldr	r3, [r3]
 5534 1be4 042B     		cmp	r3, #4
 5535 1be6 0FD1     		bne	.L144
 5536              		.loc 1 531 0 is_stmt 0 discriminator 1
ARM GAS  C:\Users\Logan\AppData\Local\Temp\ccKKo5Vz.s 			page 108


 5537 1be8 07F51653 		add	r3, r7, #9600
 5538 1bec 03F11C03 		add	r3, r3, #28
 5539 1bf0 1B68     		ldr	r3, [r3]
 5540 1bf2 5A1C     		adds	r2, r3, #1
 5541 1bf4 2E49     		ldr	r1, .L173
 5542 1bf6 1346     		mov	r3, r2
 5543 1bf8 5B00     		lsls	r3, r3, #1
 5544 1bfa 1344     		add	r3, r3, r2
 5545 1bfc 9B00     		lsls	r3, r3, #2
 5546 1bfe 0B44     		add	r3, r3, r1
 5547 1c00 0833     		adds	r3, r3, #8
 5548 1c02 1B68     		ldr	r3, [r3]
 5549 1c04 012B     		cmp	r3, #1
 5550 1c06 1ED0     		beq	.L145
 5551              	.L144:
 5552              		.loc 1 531 0 discriminator 3
 5553 1c08 2949     		ldr	r1, .L173
 5554 1c0a 07F51653 		add	r3, r7, #9600
 5555 1c0e 03F11C03 		add	r3, r3, #28
 5556 1c12 1A68     		ldr	r2, [r3]
 5557 1c14 1346     		mov	r3, r2
 5558 1c16 5B00     		lsls	r3, r3, #1
 5559 1c18 1344     		add	r3, r3, r2
 5560 1c1a 9B00     		lsls	r3, r3, #2
 5561 1c1c 0B44     		add	r3, r3, r1
 5562 1c1e 0833     		adds	r3, r3, #8
 5563 1c20 1B68     		ldr	r3, [r3]
 5564 1c22 022B     		cmp	r3, #2
 5565 1c24 4AD1     		bne	.L146
 5566              		.loc 1 531 0 discriminator 4
 5567 1c26 07F51653 		add	r3, r7, #9600
 5568 1c2a 03F11C03 		add	r3, r3, #28
 5569 1c2e 1B68     		ldr	r3, [r3]
 5570 1c30 5A1C     		adds	r2, r3, #1
 5571 1c32 1F49     		ldr	r1, .L173
 5572 1c34 1346     		mov	r3, r2
 5573 1c36 5B00     		lsls	r3, r3, #1
 5574 1c38 1344     		add	r3, r3, r2
 5575 1c3a 9B00     		lsls	r3, r3, #2
 5576 1c3c 0B44     		add	r3, r3, r1
 5577 1c3e 0833     		adds	r3, r3, #8
 5578 1c40 1B68     		ldr	r3, [r3]
 5579 1c42 032B     		cmp	r3, #3
 5580 1c44 3AD1     		bne	.L146
 5581              	.L145:
 532:.\pathfinder.c ****                   //printf("U/D intersection found (%d) [direction = %d] -- TURN RIGHT (%d, %d)\n",
 533:.\pathfinder.c ****                   instructions[counter] = RIGHT;
 5582              		.loc 1 533 0 is_stmt 1
 5583 1c46 07F51653 		add	r3, r7, #9600
 5584 1c4a 03F12A03 		add	r3, r3, #42
 5585 1c4e 1B88     		ldrh	r3, [r3]
 5586 1c50 194A     		ldr	r2, .L173+8
 5587 1c52 5221     		movs	r1, #82
 5588 1c54 D154     		strb	r1, [r2, r3]
 534:.\pathfinder.c ****                   instructions[counter + 1] = i - prev_intersection;
 5589              		.loc 1 534 0
 5590 1c56 07F51653 		add	r3, r7, #9600
ARM GAS  C:\Users\Logan\AppData\Local\Temp\ccKKo5Vz.s 			page 109


 5591 1c5a 03F12A03 		add	r3, r3, #42
 5592 1c5e 1B88     		ldrh	r3, [r3]
 5593 1c60 0133     		adds	r3, r3, #1
 5594 1c62 07F51652 		add	r2, r7, #9600
 5595 1c66 02F11C02 		add	r2, r2, #28
 5596 1c6a 1268     		ldr	r2, [r2]
 5597 1c6c D1B2     		uxtb	r1, r2
 5598 1c6e 07F51652 		add	r2, r7, #9600
 5599 1c72 02F12C02 		add	r2, r2, #44
 5600 1c76 1268     		ldr	r2, [r2]
 5601 1c78 D2B2     		uxtb	r2, r2
 5602 1c7a 8A1A     		subs	r2, r1, r2
 5603 1c7c D1B2     		uxtb	r1, r2
 5604 1c7e 0E4A     		ldr	r2, .L173+8
 5605 1c80 D154     		strb	r1, [r2, r3]
 535:.\pathfinder.c ****                   counter+=2;
 5606              		.loc 1 535 0
 5607 1c82 07F51653 		add	r3, r7, #9600
 5608 1c86 03F12A03 		add	r3, r3, #42
 5609 1c8a 1B88     		ldrh	r3, [r3]	@ movhi
 5610 1c8c 0233     		adds	r3, r3, #2
 5611 1c8e 07F51652 		add	r2, r7, #9600
 5612 1c92 02F12A02 		add	r2, r2, #42
 5613 1c96 1380     		strh	r3, [r2]	@ movhi
 536:.\pathfinder.c ****                   prev_intersection = i;
 5614              		.loc 1 536 0
 5615 1c98 07F51653 		add	r3, r7, #9600
 5616 1c9c 03F11C03 		add	r3, r3, #28
 5617 1ca0 1B68     		ldr	r3, [r3]
 5618 1ca2 07F51652 		add	r2, r7, #9600
 5619 1ca6 02F12C02 		add	r2, r2, #44
 5620 1caa 1360     		str	r3, [r2]
 5621 1cac 78E0     		b	.L143
 5622              	.L174:
 5623 1cae 00BF     		.align	2
 5624              	.L173:
 5625 1cb0 00000000 		.word	path
 5626 1cb4 00000000 		.word	map
 5627 1cb8 00000000 		.word	instructions
 5628              	.L146:
 537:.\pathfinder.c ****                }else if ((path[i][DIR] == 4 && path[i + 1][DIR] == 2) || (path[i][DIR] == 2 && path
 5629              		.loc 1 537 0
 5630 1cbc A749     		ldr	r1, .L175
 5631 1cbe 07F51653 		add	r3, r7, #9600
 5632 1cc2 03F11C03 		add	r3, r3, #28
 5633 1cc6 1A68     		ldr	r2, [r3]
 5634 1cc8 1346     		mov	r3, r2
 5635 1cca 5B00     		lsls	r3, r3, #1
 5636 1ccc 1344     		add	r3, r3, r2
 5637 1cce 9B00     		lsls	r3, r3, #2
 5638 1cd0 0B44     		add	r3, r3, r1
 5639 1cd2 0833     		adds	r3, r3, #8
 5640 1cd4 1B68     		ldr	r3, [r3]
 5641 1cd6 042B     		cmp	r3, #4
 5642 1cd8 0FD1     		bne	.L147
 5643              		.loc 1 537 0 is_stmt 0 discriminator 1
 5644 1cda 07F51653 		add	r3, r7, #9600
ARM GAS  C:\Users\Logan\AppData\Local\Temp\ccKKo5Vz.s 			page 110


 5645 1cde 03F11C03 		add	r3, r3, #28
 5646 1ce2 1B68     		ldr	r3, [r3]
 5647 1ce4 5A1C     		adds	r2, r3, #1
 5648 1ce6 9D49     		ldr	r1, .L175
 5649 1ce8 1346     		mov	r3, r2
 5650 1cea 5B00     		lsls	r3, r3, #1
 5651 1cec 1344     		add	r3, r3, r2
 5652 1cee 9B00     		lsls	r3, r3, #2
 5653 1cf0 0B44     		add	r3, r3, r1
 5654 1cf2 0833     		adds	r3, r3, #8
 5655 1cf4 1B68     		ldr	r3, [r3]
 5656 1cf6 022B     		cmp	r3, #2
 5657 1cf8 1ED0     		beq	.L148
 5658              	.L147:
 5659              		.loc 1 537 0 discriminator 3
 5660 1cfa 9849     		ldr	r1, .L175
 5661 1cfc 07F51653 		add	r3, r7, #9600
 5662 1d00 03F11C03 		add	r3, r3, #28
 5663 1d04 1A68     		ldr	r2, [r3]
 5664 1d06 1346     		mov	r3, r2
 5665 1d08 5B00     		lsls	r3, r3, #1
 5666 1d0a 1344     		add	r3, r3, r2
 5667 1d0c 9B00     		lsls	r3, r3, #2
 5668 1d0e 0B44     		add	r3, r3, r1
 5669 1d10 0833     		adds	r3, r3, #8
 5670 1d12 1B68     		ldr	r3, [r3]
 5671 1d14 022B     		cmp	r3, #2
 5672 1d16 78D1     		bne	.L149
 5673              		.loc 1 537 0 discriminator 4
 5674 1d18 07F51653 		add	r3, r7, #9600
 5675 1d1c 03F11C03 		add	r3, r3, #28
 5676 1d20 1B68     		ldr	r3, [r3]
 5677 1d22 5A1C     		adds	r2, r3, #1
 5678 1d24 8D49     		ldr	r1, .L175
 5679 1d26 1346     		mov	r3, r2
 5680 1d28 5B00     		lsls	r3, r3, #1
 5681 1d2a 1344     		add	r3, r3, r2
 5682 1d2c 9B00     		lsls	r3, r3, #2
 5683 1d2e 0B44     		add	r3, r3, r1
 5684 1d30 0833     		adds	r3, r3, #8
 5685 1d32 1B68     		ldr	r3, [r3]
 5686 1d34 042B     		cmp	r3, #4
 5687 1d36 68D1     		bne	.L149
 5688              	.L148:
 538:.\pathfinder.c ****                   //printf("3 U/D intersection found (%d) [direction = %d] -- TURN U-TURN (%d, %d)\
 539:.\pathfinder.c ****                   instructions[counter] = UTURN;
 5689              		.loc 1 539 0 is_stmt 1
 5690 1d38 07F51653 		add	r3, r7, #9600
 5691 1d3c 03F12A03 		add	r3, r3, #42
 5692 1d40 1B88     		ldrh	r3, [r3]
 5693 1d42 874A     		ldr	r2, .L175+4
 5694 1d44 5521     		movs	r1, #85
 5695 1d46 D154     		strb	r1, [r2, r3]
 540:.\pathfinder.c ****                   instructions[counter + 1] = i - prev_intersection;
 5696              		.loc 1 540 0
 5697 1d48 07F51653 		add	r3, r7, #9600
 5698 1d4c 03F12A03 		add	r3, r3, #42
ARM GAS  C:\Users\Logan\AppData\Local\Temp\ccKKo5Vz.s 			page 111


 5699 1d50 1B88     		ldrh	r3, [r3]
 5700 1d52 0133     		adds	r3, r3, #1
 5701 1d54 07F51652 		add	r2, r7, #9600
 5702 1d58 02F11C02 		add	r2, r2, #28
 5703 1d5c 1268     		ldr	r2, [r2]
 5704 1d5e D1B2     		uxtb	r1, r2
 5705 1d60 07F51652 		add	r2, r7, #9600
 5706 1d64 02F12C02 		add	r2, r2, #44
 5707 1d68 1268     		ldr	r2, [r2]
 5708 1d6a D2B2     		uxtb	r2, r2
 5709 1d6c 8A1A     		subs	r2, r1, r2
 5710 1d6e D1B2     		uxtb	r1, r2
 5711 1d70 7B4A     		ldr	r2, .L175+4
 5712 1d72 D154     		strb	r1, [r2, r3]
 541:.\pathfinder.c ****                   counter+=2;
 5713              		.loc 1 541 0
 5714 1d74 07F51653 		add	r3, r7, #9600
 5715 1d78 03F12A03 		add	r3, r3, #42
 5716 1d7c 1B88     		ldrh	r3, [r3]	@ movhi
 5717 1d7e 0233     		adds	r3, r3, #2
 5718 1d80 07F51652 		add	r2, r7, #9600
 5719 1d84 02F12A02 		add	r2, r2, #42
 5720 1d88 1380     		strh	r3, [r2]	@ movhi
 542:.\pathfinder.c ****                   prev_intersection = i;
 5721              		.loc 1 542 0
 5722 1d8a 07F51653 		add	r3, r7, #9600
 5723 1d8e 03F11C03 		add	r3, r3, #28
 5724 1d92 1B68     		ldr	r3, [r3]
 5725 1d94 07F51652 		add	r2, r7, #9600
 5726 1d98 02F12C02 		add	r2, r2, #44
 5727 1d9c 1360     		str	r3, [r2]
 5728 1d9e 34E0     		b	.L149
 5729              	.L143:
 5730 1da0 33E0     		b	.L149
 5731              	.L139:
 543:.\pathfinder.c ****                }else{
 544:.\pathfinder.c ****                  // printf("ERROR: -Prev %d, current %d || COUNTER: %d (%d, %d)\n", path[i + 1][DIR
 545:.\pathfinder.c ****                }
 546:.\pathfinder.c ****             }else{
 547:.\pathfinder.c ****                //printf("U/D intersection found (%d) [direction = %d] (%d, %d)\n", tmpCounter, path
 548:.\pathfinder.c ****                instructions[counter] = STRAIGHT;
 5732              		.loc 1 548 0
 5733 1da2 07F51653 		add	r3, r7, #9600
 5734 1da6 03F12A03 		add	r3, r3, #42
 5735 1daa 1B88     		ldrh	r3, [r3]
 5736 1dac 6C4A     		ldr	r2, .L175+4
 5737 1dae 5321     		movs	r1, #83
 5738 1db0 D154     		strb	r1, [r2, r3]
 549:.\pathfinder.c ****                instructions[counter + 1] = i - prev_intersection;
 5739              		.loc 1 549 0
 5740 1db2 07F51653 		add	r3, r7, #9600
 5741 1db6 03F12A03 		add	r3, r3, #42
 5742 1dba 1B88     		ldrh	r3, [r3]
 5743 1dbc 0133     		adds	r3, r3, #1
 5744 1dbe 07F51652 		add	r2, r7, #9600
 5745 1dc2 02F11C02 		add	r2, r2, #28
 5746 1dc6 1268     		ldr	r2, [r2]
ARM GAS  C:\Users\Logan\AppData\Local\Temp\ccKKo5Vz.s 			page 112


 5747 1dc8 D1B2     		uxtb	r1, r2
 5748 1dca 07F51652 		add	r2, r7, #9600
 5749 1dce 02F12C02 		add	r2, r2, #44
 5750 1dd2 1268     		ldr	r2, [r2]
 5751 1dd4 D2B2     		uxtb	r2, r2
 5752 1dd6 8A1A     		subs	r2, r1, r2
 5753 1dd8 D1B2     		uxtb	r1, r2
 5754 1dda 614A     		ldr	r2, .L175+4
 5755 1ddc D154     		strb	r1, [r2, r3]
 550:.\pathfinder.c ****                counter+=2;
 5756              		.loc 1 550 0
 5757 1dde 07F51653 		add	r3, r7, #9600
 5758 1de2 03F12A03 		add	r3, r3, #42
 5759 1de6 1B88     		ldrh	r3, [r3]	@ movhi
 5760 1de8 0233     		adds	r3, r3, #2
 5761 1dea 07F51652 		add	r2, r7, #9600
 5762 1dee 02F12A02 		add	r2, r2, #42
 5763 1df2 1380     		strh	r3, [r2]	@ movhi
 551:.\pathfinder.c ****                prev_intersection = i;
 5764              		.loc 1 551 0
 5765 1df4 07F51653 		add	r3, r7, #9600
 5766 1df8 03F11C03 		add	r3, r3, #28
 5767 1dfc 1B68     		ldr	r3, [r3]
 5768 1dfe 07F51652 		add	r2, r7, #9600
 5769 1e02 02F12C02 		add	r2, r2, #44
 5770 1e06 1360     		str	r3, [r2]
 524:.\pathfinder.c ****                if((path[i][DIR] == 4 && path[i + 1][DIR] == 3) || (path[i][DIR] == 2 && path[i + 1]
 5771              		.loc 1 524 0
 5772 1e08 71E0     		b	.L136
 5773              	.L149:
 524:.\pathfinder.c ****                if((path[i][DIR] == 4 && path[i + 1][DIR] == 3) || (path[i][DIR] == 2 && path[i + 1]
 5774              		.loc 1 524 0 is_stmt 0 discriminator 6
 5775 1e0a 70E0     		b	.L136
 5776              	.L138:
 552:.\pathfinder.c ****             }
 553:.\pathfinder.c **** 
 554:.\pathfinder.c ****          }else{
 555:.\pathfinder.c ****             if ((path[i][DIR] == 4 && path[i + 1][DIR] == 2) || (path[i][DIR] == 2 && path[i + 1][D
 5777              		.loc 1 555 0 is_stmt 1
 5778 1e0c 5349     		ldr	r1, .L175
 5779 1e0e 07F51653 		add	r3, r7, #9600
 5780 1e12 03F11C03 		add	r3, r3, #28
 5781 1e16 1A68     		ldr	r2, [r3]
 5782 1e18 1346     		mov	r3, r2
 5783 1e1a 5B00     		lsls	r3, r3, #1
 5784 1e1c 1344     		add	r3, r3, r2
 5785 1e1e 9B00     		lsls	r3, r3, #2
 5786 1e20 0B44     		add	r3, r3, r1
 5787 1e22 0833     		adds	r3, r3, #8
 5788 1e24 1B68     		ldr	r3, [r3]
 5789 1e26 042B     		cmp	r3, #4
 5790 1e28 0FD1     		bne	.L150
 5791              		.loc 1 555 0 is_stmt 0 discriminator 1
 5792 1e2a 07F51653 		add	r3, r7, #9600
 5793 1e2e 03F11C03 		add	r3, r3, #28
 5794 1e32 1B68     		ldr	r3, [r3]
 5795 1e34 5A1C     		adds	r2, r3, #1
ARM GAS  C:\Users\Logan\AppData\Local\Temp\ccKKo5Vz.s 			page 113


 5796 1e36 4949     		ldr	r1, .L175
 5797 1e38 1346     		mov	r3, r2
 5798 1e3a 5B00     		lsls	r3, r3, #1
 5799 1e3c 1344     		add	r3, r3, r2
 5800 1e3e 9B00     		lsls	r3, r3, #2
 5801 1e40 0B44     		add	r3, r3, r1
 5802 1e42 0833     		adds	r3, r3, #8
 5803 1e44 1B68     		ldr	r3, [r3]
 5804 1e46 022B     		cmp	r3, #2
 5805 1e48 1ED0     		beq	.L151
 5806              	.L150:
 5807              		.loc 1 555 0 discriminator 3
 5808 1e4a 4449     		ldr	r1, .L175
 5809 1e4c 07F51653 		add	r3, r7, #9600
 5810 1e50 03F11C03 		add	r3, r3, #28
 5811 1e54 1A68     		ldr	r2, [r3]
 5812 1e56 1346     		mov	r3, r2
 5813 1e58 5B00     		lsls	r3, r3, #1
 5814 1e5a 1344     		add	r3, r3, r2
 5815 1e5c 9B00     		lsls	r3, r3, #2
 5816 1e5e 0B44     		add	r3, r3, r1
 5817 1e60 0833     		adds	r3, r3, #8
 5818 1e62 1B68     		ldr	r3, [r3]
 5819 1e64 022B     		cmp	r3, #2
 5820 1e66 42D1     		bne	.L136
 5821              		.loc 1 555 0 discriminator 4
 5822 1e68 07F51653 		add	r3, r7, #9600
 5823 1e6c 03F11C03 		add	r3, r3, #28
 5824 1e70 1B68     		ldr	r3, [r3]
 5825 1e72 5A1C     		adds	r2, r3, #1
 5826 1e74 3949     		ldr	r1, .L175
 5827 1e76 1346     		mov	r3, r2
 5828 1e78 5B00     		lsls	r3, r3, #1
 5829 1e7a 1344     		add	r3, r3, r2
 5830 1e7c 9B00     		lsls	r3, r3, #2
 5831 1e7e 0B44     		add	r3, r3, r1
 5832 1e80 0833     		adds	r3, r3, #8
 5833 1e82 1B68     		ldr	r3, [r3]
 5834 1e84 042B     		cmp	r3, #4
 5835 1e86 32D1     		bne	.L136
 5836              	.L151:
 556:.\pathfinder.c ****                //printf("5 U/D intersection found (%d) [direction = %d] -- TURN U-TURN  (%d, %d)\n"
 557:.\pathfinder.c ****                instructions[counter] = UTURN;
 5837              		.loc 1 557 0 is_stmt 1
 5838 1e88 07F51653 		add	r3, r7, #9600
 5839 1e8c 03F12A03 		add	r3, r3, #42
 5840 1e90 1B88     		ldrh	r3, [r3]
 5841 1e92 334A     		ldr	r2, .L175+4
 5842 1e94 5521     		movs	r1, #85
 5843 1e96 D154     		strb	r1, [r2, r3]
 558:.\pathfinder.c ****                instructions[counter + 1] = i - prev_intersection;
 5844              		.loc 1 558 0
 5845 1e98 07F51653 		add	r3, r7, #9600
 5846 1e9c 03F12A03 		add	r3, r3, #42
 5847 1ea0 1B88     		ldrh	r3, [r3]
 5848 1ea2 0133     		adds	r3, r3, #1
 5849 1ea4 07F51652 		add	r2, r7, #9600
ARM GAS  C:\Users\Logan\AppData\Local\Temp\ccKKo5Vz.s 			page 114


 5850 1ea8 02F11C02 		add	r2, r2, #28
 5851 1eac 1268     		ldr	r2, [r2]
 5852 1eae D1B2     		uxtb	r1, r2
 5853 1eb0 07F51652 		add	r2, r7, #9600
 5854 1eb4 02F12C02 		add	r2, r2, #44
 5855 1eb8 1268     		ldr	r2, [r2]
 5856 1eba D2B2     		uxtb	r2, r2
 5857 1ebc 8A1A     		subs	r2, r1, r2
 5858 1ebe D1B2     		uxtb	r1, r2
 5859 1ec0 274A     		ldr	r2, .L175+4
 5860 1ec2 D154     		strb	r1, [r2, r3]
 559:.\pathfinder.c ****                counter+=2;
 5861              		.loc 1 559 0
 5862 1ec4 07F51653 		add	r3, r7, #9600
 5863 1ec8 03F12A03 		add	r3, r3, #42
 5864 1ecc 1B88     		ldrh	r3, [r3]	@ movhi
 5865 1ece 0233     		adds	r3, r3, #2
 5866 1ed0 07F51652 		add	r2, r7, #9600
 5867 1ed4 02F12A02 		add	r2, r2, #42
 5868 1ed8 1380     		strh	r3, [r2]	@ movhi
 560:.\pathfinder.c ****                prev_intersection = i;
 5869              		.loc 1 560 0
 5870 1eda 07F51653 		add	r3, r7, #9600
 5871 1ede 03F11C03 		add	r3, r3, #28
 5872 1ee2 1B68     		ldr	r3, [r3]
 5873 1ee4 07F51652 		add	r2, r7, #9600
 5874 1ee8 02F12C02 		add	r2, r2, #44
 5875 1eec 1360     		str	r3, [r2]
 5876              	.L136:
 561:.\pathfinder.c ****             }else{
 562:.\pathfinder.c ****          }
 563:.\pathfinder.c ****          }
 564:.\pathfinder.c ****       }
 565:.\pathfinder.c **** 
 566:.\pathfinder.c **** 
 567:.\pathfinder.c ****       tmpCounter++;
 5877              		.loc 1 567 0 discriminator 2
 5878 1eee 07F51653 		add	r3, r7, #9600
 5879 1ef2 03F12403 		add	r3, r3, #36
 5880 1ef6 1B68     		ldr	r3, [r3]
 5881 1ef8 0133     		adds	r3, r3, #1
 5882 1efa 07F51652 		add	r2, r7, #9600
 5883 1efe 02F12402 		add	r2, r2, #36
 5884 1f02 1360     		str	r3, [r2]
 349:.\pathfinder.c ****       //printf("%d %d;", path[i][Y] + 1, path[i][X] + 1);
 5885              		.loc 1 349 0 discriminator 2
 5886 1f04 07F51653 		add	r3, r7, #9600
 5887 1f08 03F11C03 		add	r3, r3, #28
 5888 1f0c 1B68     		ldr	r3, [r3]
 5889 1f0e 0133     		adds	r3, r3, #1
 5890 1f10 07F51652 		add	r2, r7, #9600
 5891 1f14 02F11C02 		add	r2, r2, #28
 5892 1f18 1360     		str	r3, [r2]
 5893              	.L52:
 349:.\pathfinder.c ****       //printf("%d %d;", path[i][Y] + 1, path[i][X] + 1);
 5894              		.loc 1 349 0 is_stmt 0 discriminator 1
 5895 1f1a 07F51653 		add	r3, r7, #9600
ARM GAS  C:\Users\Logan\AppData\Local\Temp\ccKKo5Vz.s 			page 115


 5896 1f1e 03F11C03 		add	r3, r3, #28
 5897 1f22 1A68     		ldr	r2, [r3]
 5898 1f24 07F51653 		add	r3, r7, #9600
 5899 1f28 03F11403 		add	r3, r3, #20
 5900 1f2c 1B68     		ldr	r3, [r3]
 5901 1f2e 9A42     		cmp	r2, r3
 5902 1f30 FEF6A8A8 		blt	.L152
 568:.\pathfinder.c ****    }
 569:.\pathfinder.c **** 
 570:.\pathfinder.c ****    instructions[counter] = '\0';
 5903              		.loc 1 570 0 is_stmt 1
 5904 1f34 07F51653 		add	r3, r7, #9600
 5905 1f38 03F12A03 		add	r3, r3, #42
 5906 1f3c 1B88     		ldrh	r3, [r3]
 5907 1f3e 084A     		ldr	r2, .L175+4
 5908 1f40 0021     		movs	r1, #0
 5909 1f42 D154     		strb	r1, [r2, r3]
 571:.\pathfinder.c ****    return counter;
 5910              		.loc 1 571 0
 5911 1f44 07F51653 		add	r3, r7, #9600
 5912 1f48 03F12A03 		add	r3, r3, #42
 5913 1f4c 1B88     		ldrh	r3, [r3]
 572:.\pathfinder.c **** }
 5914              		.loc 1 572 0
 5915 1f4e 1846     		mov	r0, r3
 5916 1f50 07F51657 		add	r7, r7, #9600
 5917 1f54 3437     		adds	r7, r7, #52
 5918              		.cfi_def_cfa_offset 12
 5919 1f56 BD46     		mov	sp, r7
 5920              		.cfi_def_cfa_register 13
 5921              		@ sp needed
 5922 1f58 90BD     		pop	{r4, r7, pc}
 5923              	.L176:
 5924 1f5a 00BF     		.align	2
 5925              	.L175:
 5926 1f5c 00000000 		.word	path
 5927 1f60 00000000 		.word	instructions
 5928              		.cfi_endproc
 5929              	.LFE65:
 5930              		.size	generateEntireMapDirections, .-generateEntireMapDirections
 5931              		.section	.rodata
 5932              		.align	2
 5933              	.LC0:
 5934 0000 70617468 		.ascii	"pathing from %d,%d to %d,%d from dir %d\015\012\000"
 5934      696E6720 
 5934      66726F6D 
 5934      2025642C 
 5934      25642074 
 5935 002a 0000     		.section	.text.generateDirections,"ax",%progbits
 5936              		.align	2
 5937              		.global	generateDirections
 5938              		.thumb
 5939              		.thumb_func
 5940              		.type	generateDirections, %function
 5941              	generateDirections:
 5942              	.LFB66:
 573:.\pathfinder.c **** 
ARM GAS  C:\Users\Logan\AppData\Local\Temp\ccKKo5Vz.s 			page 116


 574:.\pathfinder.c **** 
 575:.\pathfinder.c **** uint32_t generateDirections(){
 5943              		.loc 1 575 0
 5944              		.cfi_startproc
 5945              		@ args = 0, pretend = 0, frame = 152
 5946              		@ frame_needed = 1, uses_anonymous_args = 0
 5947 0000 B0B5     		push	{r4, r5, r7, lr}
 5948              		.cfi_def_cfa_offset 16
 5949              		.cfi_offset 4, -16
 5950              		.cfi_offset 5, -12
 5951              		.cfi_offset 7, -8
 5952              		.cfi_offset 14, -4
 5953 0002 AAB0     		sub	sp, sp, #168
 5954              		.cfi_def_cfa_offset 184
 5955 0004 04AF     		add	r7, sp, #16
 5956              		.cfi_def_cfa 7, 168
 576:.\pathfinder.c ****    uint32_t counter = 0;
 5957              		.loc 1 576 0
 5958 0006 0023     		movs	r3, #0
 5959 0008 C7F89430 		str	r3, [r7, #148]
 577:.\pathfinder.c ****    uint32_t prev_intersection = 0;
 5960              		.loc 1 577 0
 5961 000c 0023     		movs	r3, #0
 5962 000e C7F89030 		str	r3, [r7, #144]
 578:.\pathfinder.c ****    int food_count;
 579:.\pathfinder.c ****     
 580:.\pathfinder.c ****    for(food_count = 0; food_count < food_length; food_count++)
 5963              		.loc 1 580 0
 5964 0012 0023     		movs	r3, #0
 5965 0014 C7F88C30 		str	r3, [r7, #140]
 5966 0018 00F06EBC 		b	.L178
 5967              	.L216:
 5968              	.LBB7:
 581:.\pathfinder.c **** {   
 582:.\pathfinder.c ****     prev_intersection = 0;
 5969              		.loc 1 582 0
 5970 001c 0023     		movs	r3, #0
 5971 001e C7F89030 		str	r3, [r7, #144]
 583:.\pathfinder.c ****     if(counter != 0)
 5972              		.loc 1 583 0
 5973 0022 D7F89430 		ldr	r3, [r7, #148]
 5974 0026 002B     		cmp	r3, #0
 5975 0028 07D0     		beq	.L179
 584:.\pathfinder.c ****     {
 585:.\pathfinder.c ****         start[0] = destination[0];
 5976              		.loc 1 585 0
 5977 002a B14B     		ldr	r3, .L218
 5978 002c 1B68     		ldr	r3, [r3]
 5979 002e B14A     		ldr	r2, .L218+4
 5980 0030 1360     		str	r3, [r2]
 586:.\pathfinder.c ****         start[1] = destination[1];
 5981              		.loc 1 586 0
 5982 0032 AF4B     		ldr	r3, .L218
 5983 0034 5B68     		ldr	r3, [r3, #4]
 5984 0036 AF4A     		ldr	r2, .L218+4
 5985 0038 5360     		str	r3, [r2, #4]
 5986              	.L179:
ARM GAS  C:\Users\Logan\AppData\Local\Temp\ccKKo5Vz.s 			page 117


 587:.\pathfinder.c ****         
 588:.\pathfinder.c **** //        if(robot_direction != tracked_direction)
 589:.\pathfinder.c **** //        {
 590:.\pathfinder.c **** //            if((tracked_direction == (robot_direction - 1)) || ((tracked_direction == 3) && (robo
 591:.\pathfinder.c **** //            {
 592:.\pathfinder.c **** //                instructions[counter] = RIGHT;
 593:.\pathfinder.c **** //                counter++;
 594:.\pathfinder.c **** //            }
 595:.\pathfinder.c **** //            else if((tracked_direction == (robot_direction + 1)) || ((tracked_direction == 0) && 
 596:.\pathfinder.c **** //            {
 597:.\pathfinder.c **** //                instructions[counter] = LEFT;
 598:.\pathfinder.c **** //                counter++;
 599:.\pathfinder.c **** //            }
 600:.\pathfinder.c **** //        }
 601:.\pathfinder.c ****     }
 602:.\pathfinder.c ****     
 603:.\pathfinder.c ****     destination[0] = food_list[food_count][0];
 5987              		.loc 1 603 0
 5988 003a AF4A     		ldr	r2, .L218+8
 5989 003c D7F88C30 		ldr	r3, [r7, #140]
 5990 0040 52F83330 		ldr	r3, [r2, r3, lsl #3]
 5991 0044 AA4A     		ldr	r2, .L218
 5992 0046 1360     		str	r3, [r2]
 604:.\pathfinder.c ****     destination[1] = food_list[food_count][1];
 5993              		.loc 1 604 0
 5994 0048 AB4A     		ldr	r2, .L218+8
 5995 004a D7F88C30 		ldr	r3, [r7, #140]
 5996 004e DB00     		lsls	r3, r3, #3
 5997 0050 1344     		add	r3, r3, r2
 5998 0052 5B68     		ldr	r3, [r3, #4]
 5999 0054 A64A     		ldr	r2, .L218
 6000 0056 5360     		str	r3, [r2, #4]
 605:.\pathfinder.c ****     
 606:.\pathfinder.c ****     char message[128];
 607:.\pathfinder.c ****     sprintf(message, "pathing from %d,%d to %d,%d from dir %d\r\n", start[0], start[1], destination
 6001              		.loc 1 607 0
 6002 0058 A64B     		ldr	r3, .L218+4
 6003 005a 1D68     		ldr	r5, [r3]
 6004 005c A54B     		ldr	r3, .L218+4
 6005 005e 5C68     		ldr	r4, [r3, #4]
 6006 0060 A34B     		ldr	r3, .L218
 6007 0062 1968     		ldr	r1, [r3]
 6008 0064 A24B     		ldr	r3, .L218
 6009 0066 5A68     		ldr	r2, [r3, #4]
 6010 0068 A44B     		ldr	r3, .L218+12
 6011 006a 1B68     		ldr	r3, [r3]
 6012 006c 381D     		adds	r0, r7, #4
 6013 006e 0091     		str	r1, [sp]
 6014 0070 0192     		str	r2, [sp, #4]
 6015 0072 0293     		str	r3, [sp, #8]
 6016 0074 A249     		ldr	r1, .L218+16
 6017 0076 2A46     		mov	r2, r5
 6018 0078 2346     		mov	r3, r4
 6019 007a FFF7FEFF 		bl	sprintf
 608:.\pathfinder.c ****     UART_PutString(message);
 6020              		.loc 1 608 0
 6021 007e 3B1D     		adds	r3, r7, #4
ARM GAS  C:\Users\Logan\AppData\Local\Temp\ccKKo5Vz.s 			page 118


 6022 0080 1846     		mov	r0, r3
 6023 0082 FFF7FEFF 		bl	UART_PutString
 609:.\pathfinder.c ****     
 610:.\pathfinder.c ****    int end = djikstras(map, food_list, path, start, destination);
 6024              		.loc 1 610 0
 6025 0086 9A4B     		ldr	r3, .L218
 6026 0088 0093     		str	r3, [sp]
 6027 008a 9E48     		ldr	r0, .L218+20
 6028 008c 9A49     		ldr	r1, .L218+8
 6029 008e 9E4A     		ldr	r2, .L218+24
 6030 0090 984B     		ldr	r3, .L218+4
 6031 0092 FFF7FEFF 		bl	djikstras
 6032 0096 0346     		mov	r3, r0
 6033 0098 C7F88430 		str	r3, [r7, #132]
 611:.\pathfinder.c **** 
 612:.\pathfinder.c ****    int i;
 613:.\pathfinder.c ****    for(i = end; i >= 1; i--){
 6034              		.loc 1 613 0
 6035 009c D7F88430 		ldr	r3, [r7, #132]
 6036 00a0 C7F88830 		str	r3, [r7, #136]
 6037 00a4 00F006BC 		b	.L180
 6038              	.L215:
 614:.\pathfinder.c ****       if(path[i][DIR] == 1 || path[i][DIR] == 3){
 6039              		.loc 1 614 0
 6040 00a8 9749     		ldr	r1, .L218+24
 6041 00aa D7F88820 		ldr	r2, [r7, #136]
 6042 00ae 1346     		mov	r3, r2
 6043 00b0 5B00     		lsls	r3, r3, #1
 6044 00b2 1344     		add	r3, r3, r2
 6045 00b4 9B00     		lsls	r3, r3, #2
 6046 00b6 0B44     		add	r3, r3, r1
 6047 00b8 0833     		adds	r3, r3, #8
 6048 00ba 1B68     		ldr	r3, [r3]
 6049 00bc 012B     		cmp	r3, #1
 6050 00be 0CD0     		beq	.L181
 6051              		.loc 1 614 0 is_stmt 0 discriminator 1
 6052 00c0 9149     		ldr	r1, .L218+24
 6053 00c2 D7F88820 		ldr	r2, [r7, #136]
 6054 00c6 1346     		mov	r3, r2
 6055 00c8 5B00     		lsls	r3, r3, #1
 6056 00ca 1344     		add	r3, r3, r2
 6057 00cc 9B00     		lsls	r3, r3, #2
 6058 00ce 0B44     		add	r3, r3, r1
 6059 00d0 0833     		adds	r3, r3, #8
 6060 00d2 1B68     		ldr	r3, [r3]
 6061 00d4 032B     		cmp	r3, #3
 6062 00d6 40F0FA81 		bne	.L182
 6063              	.L181:
 615:.\pathfinder.c ****          //There should be a check that it is within the map
 616:.\pathfinder.c ****          if(map[path[i][Y]][path[i][X] - 1] == PATH || map[path[i][Y]][path[i][X] + 1] == PATH){
 6064              		.loc 1 616 0 is_stmt 1
 6065 00da 8B49     		ldr	r1, .L218+24
 6066 00dc D7F88820 		ldr	r2, [r7, #136]
 6067 00e0 1346     		mov	r3, r2
 6068 00e2 5B00     		lsls	r3, r3, #1
 6069 00e4 1344     		add	r3, r3, r2
 6070 00e6 9B00     		lsls	r3, r3, #2
ARM GAS  C:\Users\Logan\AppData\Local\Temp\ccKKo5Vz.s 			page 119


 6071 00e8 0B44     		add	r3, r3, r1
 6072 00ea 1A68     		ldr	r2, [r3]
 6073 00ec 8648     		ldr	r0, .L218+24
 6074 00ee D7F88810 		ldr	r1, [r7, #136]
 6075 00f2 0B46     		mov	r3, r1
 6076 00f4 5B00     		lsls	r3, r3, #1
 6077 00f6 0B44     		add	r3, r3, r1
 6078 00f8 9B00     		lsls	r3, r3, #2
 6079 00fa 0344     		add	r3, r3, r0
 6080 00fc 0433     		adds	r3, r3, #4
 6081 00fe 1B68     		ldr	r3, [r3]
 6082 0100 591E     		subs	r1, r3, #1
 6083 0102 8048     		ldr	r0, .L218+20
 6084 0104 1346     		mov	r3, r2
 6085 0106 DB00     		lsls	r3, r3, #3
 6086 0108 1344     		add	r3, r3, r2
 6087 010a 5B00     		lsls	r3, r3, #1
 6088 010c 1344     		add	r3, r3, r2
 6089 010e 0B44     		add	r3, r3, r1
 6090 0110 50F82330 		ldr	r3, [r0, r3, lsl #2]
 6091 0114 002B     		cmp	r3, #0
 6092 0116 1FD0     		beq	.L183
 6093              		.loc 1 616 0 is_stmt 0 discriminator 1
 6094 0118 7B49     		ldr	r1, .L218+24
 6095 011a D7F88820 		ldr	r2, [r7, #136]
 6096 011e 1346     		mov	r3, r2
 6097 0120 5B00     		lsls	r3, r3, #1
 6098 0122 1344     		add	r3, r3, r2
 6099 0124 9B00     		lsls	r3, r3, #2
 6100 0126 0B44     		add	r3, r3, r1
 6101 0128 1A68     		ldr	r2, [r3]
 6102 012a 7748     		ldr	r0, .L218+24
 6103 012c D7F88810 		ldr	r1, [r7, #136]
 6104 0130 0B46     		mov	r3, r1
 6105 0132 5B00     		lsls	r3, r3, #1
 6106 0134 0B44     		add	r3, r3, r1
 6107 0136 9B00     		lsls	r3, r3, #2
 6108 0138 0344     		add	r3, r3, r0
 6109 013a 0433     		adds	r3, r3, #4
 6110 013c 1B68     		ldr	r3, [r3]
 6111 013e 591C     		adds	r1, r3, #1
 6112 0140 7048     		ldr	r0, .L218+20
 6113 0142 1346     		mov	r3, r2
 6114 0144 DB00     		lsls	r3, r3, #3
 6115 0146 1344     		add	r3, r3, r2
 6116 0148 5B00     		lsls	r3, r3, #1
 6117 014a 1344     		add	r3, r3, r2
 6118 014c 0B44     		add	r3, r3, r1
 6119 014e 50F82330 		ldr	r3, [r0, r3, lsl #2]
 6120 0152 002B     		cmp	r3, #0
 6121 0154 40F06081 		bne	.L184
 6122              	.L183:
 617:.\pathfinder.c ****             if(path[i][DIR] != path[i - 1][DIR]){
 6123              		.loc 1 617 0 is_stmt 1
 6124 0158 6B49     		ldr	r1, .L218+24
 6125 015a D7F88820 		ldr	r2, [r7, #136]
 6126 015e 1346     		mov	r3, r2
ARM GAS  C:\Users\Logan\AppData\Local\Temp\ccKKo5Vz.s 			page 120


 6127 0160 5B00     		lsls	r3, r3, #1
 6128 0162 1344     		add	r3, r3, r2
 6129 0164 9B00     		lsls	r3, r3, #2
 6130 0166 0B44     		add	r3, r3, r1
 6131 0168 0833     		adds	r3, r3, #8
 6132 016a 1968     		ldr	r1, [r3]
 6133 016c D7F88830 		ldr	r3, [r7, #136]
 6134 0170 5A1E     		subs	r2, r3, #1
 6135 0172 6548     		ldr	r0, .L218+24
 6136 0174 1346     		mov	r3, r2
 6137 0176 5B00     		lsls	r3, r3, #1
 6138 0178 1344     		add	r3, r3, r2
 6139 017a 9B00     		lsls	r3, r3, #2
 6140 017c 0344     		add	r3, r3, r0
 6141 017e 0833     		adds	r3, r3, #8
 6142 0180 1B68     		ldr	r3, [r3]
 6143 0182 9942     		cmp	r1, r3
 6144 0184 00F01F81 		beq	.L185
 618:.\pathfinder.c ****                //current direction - the next direction > 0 turn left otherwise turn right
 619:.\pathfinder.c ****                if((path[i][DIR] == 1 && path[i-1][DIR] == 4) || (path[i][DIR] == 3 && path[i-1][DIR
 6145              		.loc 1 619 0
 6146 0188 5F49     		ldr	r1, .L218+24
 6147 018a D7F88820 		ldr	r2, [r7, #136]
 6148 018e 1346     		mov	r3, r2
 6149 0190 5B00     		lsls	r3, r3, #1
 6150 0192 1344     		add	r3, r3, r2
 6151 0194 9B00     		lsls	r3, r3, #2
 6152 0196 0B44     		add	r3, r3, r1
 6153 0198 0833     		adds	r3, r3, #8
 6154 019a 1B68     		ldr	r3, [r3]
 6155 019c 012B     		cmp	r3, #1
 6156 019e 0CD1     		bne	.L186
 6157              		.loc 1 619 0 is_stmt 0 discriminator 1
 6158 01a0 D7F88830 		ldr	r3, [r7, #136]
 6159 01a4 5A1E     		subs	r2, r3, #1
 6160 01a6 5849     		ldr	r1, .L218+24
 6161 01a8 1346     		mov	r3, r2
 6162 01aa 5B00     		lsls	r3, r3, #1
 6163 01ac 1344     		add	r3, r3, r2
 6164 01ae 9B00     		lsls	r3, r3, #2
 6165 01b0 0B44     		add	r3, r3, r1
 6166 01b2 0833     		adds	r3, r3, #8
 6167 01b4 1B68     		ldr	r3, [r3]
 6168 01b6 042B     		cmp	r3, #4
 6169 01b8 18D0     		beq	.L187
 6170              	.L186:
 6171              		.loc 1 619 0 discriminator 3
 6172 01ba 5349     		ldr	r1, .L218+24
 6173 01bc D7F88820 		ldr	r2, [r7, #136]
 6174 01c0 1346     		mov	r3, r2
 6175 01c2 5B00     		lsls	r3, r3, #1
 6176 01c4 1344     		add	r3, r3, r2
 6177 01c6 9B00     		lsls	r3, r3, #2
 6178 01c8 0B44     		add	r3, r3, r1
 6179 01ca 0833     		adds	r3, r3, #8
 6180 01cc 1B68     		ldr	r3, [r3]
 6181 01ce 032B     		cmp	r3, #3
ARM GAS  C:\Users\Logan\AppData\Local\Temp\ccKKo5Vz.s 			page 121


 6182 01d0 34D1     		bne	.L188
 6183              		.loc 1 619 0 discriminator 4
 6184 01d2 D7F88830 		ldr	r3, [r7, #136]
 6185 01d6 5A1E     		subs	r2, r3, #1
 6186 01d8 4B49     		ldr	r1, .L218+24
 6187 01da 1346     		mov	r3, r2
 6188 01dc 5B00     		lsls	r3, r3, #1
 6189 01de 1344     		add	r3, r3, r2
 6190 01e0 9B00     		lsls	r3, r3, #2
 6191 01e2 0B44     		add	r3, r3, r1
 6192 01e4 0833     		adds	r3, r3, #8
 6193 01e6 1B68     		ldr	r3, [r3]
 6194 01e8 022B     		cmp	r3, #2
 6195 01ea 27D1     		bne	.L188
 6196              	.L187:
 620:.\pathfinder.c ****                   //printf("L/R intersection found (%d) [direction = %d] -- TURN LEFT\n", end - i +
 621:.\pathfinder.c ****                   instructions[counter] = LEFT;
 6197              		.loc 1 621 0 is_stmt 1
 6198 01ec 474A     		ldr	r2, .L218+28
 6199 01ee D7F89430 		ldr	r3, [r7, #148]
 6200 01f2 1344     		add	r3, r3, r2
 6201 01f4 4C22     		movs	r2, #76
 6202 01f6 1A70     		strb	r2, [r3]
 622:.\pathfinder.c ****                   instructions[counter + 1] = (end - i + 1 )- prev_intersection;
 6203              		.loc 1 622 0
 6204 01f8 D7F89430 		ldr	r3, [r7, #148]
 6205 01fc 0133     		adds	r3, r3, #1
 6206 01fe D7F88420 		ldr	r2, [r7, #132]
 6207 0202 D1B2     		uxtb	r1, r2
 6208 0204 D7F88820 		ldr	r2, [r7, #136]
 6209 0208 D2B2     		uxtb	r2, r2
 6210 020a 8A1A     		subs	r2, r1, r2
 6211 020c D1B2     		uxtb	r1, r2
 6212 020e D7F89020 		ldr	r2, [r7, #144]
 6213 0212 D2B2     		uxtb	r2, r2
 6214 0214 8A1A     		subs	r2, r1, r2
 6215 0216 D2B2     		uxtb	r2, r2
 6216 0218 0132     		adds	r2, r2, #1
 6217 021a D1B2     		uxtb	r1, r2
 6218 021c 3B4A     		ldr	r2, .L218+28
 6219 021e D154     		strb	r1, [r2, r3]
 623:.\pathfinder.c ****                   counter += 2;
 6220              		.loc 1 623 0
 6221 0220 D7F89430 		ldr	r3, [r7, #148]
 6222 0224 0233     		adds	r3, r3, #2
 6223 0226 C7F89430 		str	r3, [r7, #148]
 624:.\pathfinder.c ****                   prev_intersection = end - i + 1;//save the number of blocks travelled previously
 6224              		.loc 1 624 0
 6225 022a D7F88420 		ldr	r2, [r7, #132]
 6226 022e D7F88830 		ldr	r3, [r7, #136]
 6227 0232 D31A     		subs	r3, r2, r3
 6228 0234 0133     		adds	r3, r3, #1
 6229 0236 C7F89030 		str	r3, [r7, #144]
 6230 023a C3E0     		b	.L189
 6231              	.L188:
 625:.\pathfinder.c ****                }else if((path[i][DIR] == 1 && path[i-1][DIR] == 2) || (path[i][DIR] == 3 && path[i-
 6232              		.loc 1 625 0
ARM GAS  C:\Users\Logan\AppData\Local\Temp\ccKKo5Vz.s 			page 122


 6233 023c 3249     		ldr	r1, .L218+24
 6234 023e D7F88820 		ldr	r2, [r7, #136]
 6235 0242 1346     		mov	r3, r2
 6236 0244 5B00     		lsls	r3, r3, #1
 6237 0246 1344     		add	r3, r3, r2
 6238 0248 9B00     		lsls	r3, r3, #2
 6239 024a 0B44     		add	r3, r3, r1
 6240 024c 0833     		adds	r3, r3, #8
 6241 024e 1B68     		ldr	r3, [r3]
 6242 0250 012B     		cmp	r3, #1
 6243 0252 0CD1     		bne	.L190
 6244              		.loc 1 625 0 is_stmt 0 discriminator 1
 6245 0254 D7F88830 		ldr	r3, [r7, #136]
 6246 0258 5A1E     		subs	r2, r3, #1
 6247 025a 2B49     		ldr	r1, .L218+24
 6248 025c 1346     		mov	r3, r2
 6249 025e 5B00     		lsls	r3, r3, #1
 6250 0260 1344     		add	r3, r3, r2
 6251 0262 9B00     		lsls	r3, r3, #2
 6252 0264 0B44     		add	r3, r3, r1
 6253 0266 0833     		adds	r3, r3, #8
 6254 0268 1B68     		ldr	r3, [r3]
 6255 026a 022B     		cmp	r3, #2
 6256 026c 18D0     		beq	.L191
 6257              	.L190:
 6258              		.loc 1 625 0 discriminator 3
 6259 026e 2649     		ldr	r1, .L218+24
 6260 0270 D7F88820 		ldr	r2, [r7, #136]
 6261 0274 1346     		mov	r3, r2
 6262 0276 5B00     		lsls	r3, r3, #1
 6263 0278 1344     		add	r3, r3, r2
 6264 027a 9B00     		lsls	r3, r3, #2
 6265 027c 0B44     		add	r3, r3, r1
 6266 027e 0833     		adds	r3, r3, #8
 6267 0280 1B68     		ldr	r3, [r3]
 6268 0282 032B     		cmp	r3, #3
 6269 0284 44D1     		bne	.L192
 6270              		.loc 1 625 0 discriminator 4
 6271 0286 D7F88830 		ldr	r3, [r7, #136]
 6272 028a 5A1E     		subs	r2, r3, #1
 6273 028c 1E49     		ldr	r1, .L218+24
 6274 028e 1346     		mov	r3, r2
 6275 0290 5B00     		lsls	r3, r3, #1
 6276 0292 1344     		add	r3, r3, r2
 6277 0294 9B00     		lsls	r3, r3, #2
 6278 0296 0B44     		add	r3, r3, r1
 6279 0298 0833     		adds	r3, r3, #8
 6280 029a 1B68     		ldr	r3, [r3]
 6281 029c 042B     		cmp	r3, #4
 6282 029e 37D1     		bne	.L192
 6283              	.L191:
 626:.\pathfinder.c ****                   //printf("L/R intersection found (%d) [direction = %d] -- TURN RIGHT\n", end - i 
 627:.\pathfinder.c ****                   instructions[counter] = RIGHT;
 6284              		.loc 1 627 0 is_stmt 1
 6285 02a0 1A4A     		ldr	r2, .L218+28
 6286 02a2 D7F89430 		ldr	r3, [r7, #148]
 6287 02a6 1344     		add	r3, r3, r2
ARM GAS  C:\Users\Logan\AppData\Local\Temp\ccKKo5Vz.s 			page 123


 6288 02a8 5222     		movs	r2, #82
 6289 02aa 1A70     		strb	r2, [r3]
 628:.\pathfinder.c ****                   instructions[counter + 1] = (end - i + 1 )- prev_intersection;
 6290              		.loc 1 628 0
 6291 02ac D7F89430 		ldr	r3, [r7, #148]
 6292 02b0 0133     		adds	r3, r3, #1
 6293 02b2 D7F88420 		ldr	r2, [r7, #132]
 6294 02b6 D1B2     		uxtb	r1, r2
 6295 02b8 D7F88820 		ldr	r2, [r7, #136]
 6296 02bc D2B2     		uxtb	r2, r2
 6297 02be 8A1A     		subs	r2, r1, r2
 6298 02c0 D1B2     		uxtb	r1, r2
 6299 02c2 D7F89020 		ldr	r2, [r7, #144]
 6300 02c6 D2B2     		uxtb	r2, r2
 6301 02c8 8A1A     		subs	r2, r1, r2
 6302 02ca D2B2     		uxtb	r2, r2
 6303 02cc 0132     		adds	r2, r2, #1
 6304 02ce D1B2     		uxtb	r1, r2
 6305 02d0 0E4A     		ldr	r2, .L218+28
 6306 02d2 D154     		strb	r1, [r2, r3]
 629:.\pathfinder.c ****                   counter += 2;
 6307              		.loc 1 629 0
 6308 02d4 D7F89430 		ldr	r3, [r7, #148]
 6309 02d8 0233     		adds	r3, r3, #2
 6310 02da C7F89430 		str	r3, [r7, #148]
 630:.\pathfinder.c ****                   prev_intersection = end - i + 1;
 6311              		.loc 1 630 0
 6312 02de D7F88420 		ldr	r2, [r7, #132]
 6313 02e2 D7F88830 		ldr	r3, [r7, #136]
 6314 02e6 D31A     		subs	r3, r2, r3
 6315 02e8 0133     		adds	r3, r3, #1
 6316 02ea C7F89030 		str	r3, [r7, #144]
 6317 02ee 69E0     		b	.L189
 6318              	.L219:
 6319              		.align	2
 6320              	.L218:
 6321 02f0 00000000 		.word	destination
 6322 02f4 00000000 		.word	start
 6323 02f8 00000000 		.word	food_list
 6324 02fc 00000000 		.word	robot_direction
 6325 0300 00000000 		.word	.LC0
 6326 0304 00000000 		.word	map
 6327 0308 00000000 		.word	path
 6328 030c 00000000 		.word	instructions
 6329              	.L192:
 631:.\pathfinder.c ****                }else if ((path[i][DIR] == 1 && path[i-1][DIR] == 3) || (path[i][DIR] == 3 && path[i
 6330              		.loc 1 631 0
 6331 0310 C749     		ldr	r1, .L220
 6332 0312 D7F88820 		ldr	r2, [r7, #136]
 6333 0316 1346     		mov	r3, r2
 6334 0318 5B00     		lsls	r3, r3, #1
 6335 031a 1344     		add	r3, r3, r2
 6336 031c 9B00     		lsls	r3, r3, #2
 6337 031e 0B44     		add	r3, r3, r1
 6338 0320 0833     		adds	r3, r3, #8
 6339 0322 1B68     		ldr	r3, [r3]
 6340 0324 012B     		cmp	r3, #1
ARM GAS  C:\Users\Logan\AppData\Local\Temp\ccKKo5Vz.s 			page 124


 6341 0326 0CD1     		bne	.L193
 6342              		.loc 1 631 0 is_stmt 0 discriminator 1
 6343 0328 D7F88830 		ldr	r3, [r7, #136]
 6344 032c 5A1E     		subs	r2, r3, #1
 6345 032e C049     		ldr	r1, .L220
 6346 0330 1346     		mov	r3, r2
 6347 0332 5B00     		lsls	r3, r3, #1
 6348 0334 1344     		add	r3, r3, r2
 6349 0336 9B00     		lsls	r3, r3, #2
 6350 0338 0B44     		add	r3, r3, r1
 6351 033a 0833     		adds	r3, r3, #8
 6352 033c 1B68     		ldr	r3, [r3]
 6353 033e 032B     		cmp	r3, #3
 6354 0340 18D0     		beq	.L194
 6355              	.L193:
 6356              		.loc 1 631 0 discriminator 3
 6357 0342 BB49     		ldr	r1, .L220
 6358 0344 D7F88820 		ldr	r2, [r7, #136]
 6359 0348 1346     		mov	r3, r2
 6360 034a 5B00     		lsls	r3, r3, #1
 6361 034c 1344     		add	r3, r3, r2
 6362 034e 9B00     		lsls	r3, r3, #2
 6363 0350 0B44     		add	r3, r3, r1
 6364 0352 0833     		adds	r3, r3, #8
 6365 0354 1B68     		ldr	r3, [r3]
 6366 0356 032B     		cmp	r3, #3
 6367 0358 5DD1     		bne	.L195
 6368              		.loc 1 631 0 discriminator 4
 6369 035a D7F88830 		ldr	r3, [r7, #136]
 6370 035e 5A1E     		subs	r2, r3, #1
 6371 0360 B349     		ldr	r1, .L220
 6372 0362 1346     		mov	r3, r2
 6373 0364 5B00     		lsls	r3, r3, #1
 6374 0366 1344     		add	r3, r3, r2
 6375 0368 9B00     		lsls	r3, r3, #2
 6376 036a 0B44     		add	r3, r3, r1
 6377 036c 0833     		adds	r3, r3, #8
 6378 036e 1B68     		ldr	r3, [r3]
 6379 0370 012B     		cmp	r3, #1
 6380 0372 50D1     		bne	.L195
 6381              	.L194:
 632:.\pathfinder.c ****                   //printf("L/R intersection found (%d) [direction = %d] -- TURN U-TURN\n", end - i
 633:.\pathfinder.c ****                   instructions[counter] = UTURN;
 6382              		.loc 1 633 0 is_stmt 1
 6383 0374 AF4A     		ldr	r2, .L220+4
 6384 0376 D7F89430 		ldr	r3, [r7, #148]
 6385 037a 1344     		add	r3, r3, r2
 6386 037c 5522     		movs	r2, #85
 6387 037e 1A70     		strb	r2, [r3]
 634:.\pathfinder.c ****                   instructions[counter + 1] = (end - i + 1 )- prev_intersection;
 6388              		.loc 1 634 0
 6389 0380 D7F89430 		ldr	r3, [r7, #148]
 6390 0384 0133     		adds	r3, r3, #1
 6391 0386 D7F88420 		ldr	r2, [r7, #132]
 6392 038a D1B2     		uxtb	r1, r2
 6393 038c D7F88820 		ldr	r2, [r7, #136]
 6394 0390 D2B2     		uxtb	r2, r2
ARM GAS  C:\Users\Logan\AppData\Local\Temp\ccKKo5Vz.s 			page 125


 6395 0392 8A1A     		subs	r2, r1, r2
 6396 0394 D1B2     		uxtb	r1, r2
 6397 0396 D7F89020 		ldr	r2, [r7, #144]
 6398 039a D2B2     		uxtb	r2, r2
 6399 039c 8A1A     		subs	r2, r1, r2
 6400 039e D2B2     		uxtb	r2, r2
 6401 03a0 0132     		adds	r2, r2, #1
 6402 03a2 D1B2     		uxtb	r1, r2
 6403 03a4 A34A     		ldr	r2, .L220+4
 6404 03a6 D154     		strb	r1, [r2, r3]
 635:.\pathfinder.c ****                   counter += 2;
 6405              		.loc 1 635 0
 6406 03a8 D7F89430 		ldr	r3, [r7, #148]
 6407 03ac 0233     		adds	r3, r3, #2
 6408 03ae C7F89430 		str	r3, [r7, #148]
 636:.\pathfinder.c ****                   prev_intersection = end - i + 1;
 6409              		.loc 1 636 0
 6410 03b2 D7F88420 		ldr	r2, [r7, #132]
 6411 03b6 D7F88830 		ldr	r3, [r7, #136]
 6412 03ba D31A     		subs	r3, r2, r3
 6413 03bc 0133     		adds	r3, r3, #1
 6414 03be C7F89030 		str	r3, [r7, #144]
 6415 03c2 28E0     		b	.L195
 6416              	.L189:
 6417 03c4 27E0     		b	.L195
 6418              	.L185:
 637:.\pathfinder.c ****                }else{
 638:.\pathfinder.c ****                   //printf("Prev %d, current %d\n",path[i-1][DIR], path[i][DIR]);
 639:.\pathfinder.c ****                }
 640:.\pathfinder.c ****             }else{
 641:.\pathfinder.c ****                //printf("L/R intersection found (%d) [direction = %d]\n", end - i + 1, path[i][DIR]
 642:.\pathfinder.c ****                instructions[counter] = STRAIGHT;
 6419              		.loc 1 642 0
 6420 03c6 9B4A     		ldr	r2, .L220+4
 6421 03c8 D7F89430 		ldr	r3, [r7, #148]
 6422 03cc 1344     		add	r3, r3, r2
 6423 03ce 5322     		movs	r2, #83
 6424 03d0 1A70     		strb	r2, [r3]
 643:.\pathfinder.c ****                instructions[counter + 1] = (end - i + 1 )- prev_intersection;
 6425              		.loc 1 643 0
 6426 03d2 D7F89430 		ldr	r3, [r7, #148]
 6427 03d6 0133     		adds	r3, r3, #1
 6428 03d8 D7F88420 		ldr	r2, [r7, #132]
 6429 03dc D1B2     		uxtb	r1, r2
 6430 03de D7F88820 		ldr	r2, [r7, #136]
 6431 03e2 D2B2     		uxtb	r2, r2
 6432 03e4 8A1A     		subs	r2, r1, r2
 6433 03e6 D1B2     		uxtb	r1, r2
 6434 03e8 D7F89020 		ldr	r2, [r7, #144]
 6435 03ec D2B2     		uxtb	r2, r2
 6436 03ee 8A1A     		subs	r2, r1, r2
 6437 03f0 D2B2     		uxtb	r2, r2
 6438 03f2 0132     		adds	r2, r2, #1
 6439 03f4 D1B2     		uxtb	r1, r2
 6440 03f6 8F4A     		ldr	r2, .L220+4
 6441 03f8 D154     		strb	r1, [r2, r3]
 644:.\pathfinder.c ****                counter += 2;
ARM GAS  C:\Users\Logan\AppData\Local\Temp\ccKKo5Vz.s 			page 126


 6442              		.loc 1 644 0
 6443 03fa D7F89430 		ldr	r3, [r7, #148]
 6444 03fe 0233     		adds	r3, r3, #2
 6445 0400 C7F89430 		str	r3, [r7, #148]
 645:.\pathfinder.c ****                prev_intersection = end - i + 1;
 6446              		.loc 1 645 0
 6447 0404 D7F88420 		ldr	r2, [r7, #132]
 6448 0408 D7F88830 		ldr	r3, [r7, #136]
 6449 040c D31A     		subs	r3, r2, r3
 6450 040e 0133     		adds	r3, r3, #1
 6451 0410 C7F89030 		str	r3, [r7, #144]
 617:.\pathfinder.c ****                //current direction - the next direction > 0 turn left otherwise turn right
 6452              		.loc 1 617 0
 6453 0414 5AE0     		b	.L196
 6454              	.L195:
 617:.\pathfinder.c ****                //current direction - the next direction > 0 turn left otherwise turn right
 6455              		.loc 1 617 0 is_stmt 0 discriminator 1
 6456 0416 59E0     		b	.L196
 6457              	.L184:
 646:.\pathfinder.c ****             }
 647:.\pathfinder.c ****          }else{//not an intersection
 648:.\pathfinder.c ****             if ((path[i][DIR] == 1 && path[i-1][DIR] == 3) || (path[i][DIR] == 3 && path[i-1][DIR] 
 6458              		.loc 1 648 0 is_stmt 1
 6459 0418 8549     		ldr	r1, .L220
 6460 041a D7F88820 		ldr	r2, [r7, #136]
 6461 041e 1346     		mov	r3, r2
 6462 0420 5B00     		lsls	r3, r3, #1
 6463 0422 1344     		add	r3, r3, r2
 6464 0424 9B00     		lsls	r3, r3, #2
 6465 0426 0B44     		add	r3, r3, r1
 6466 0428 0833     		adds	r3, r3, #8
 6467 042a 1B68     		ldr	r3, [r3]
 6468 042c 012B     		cmp	r3, #1
 6469 042e 0CD1     		bne	.L197
 6470              		.loc 1 648 0 is_stmt 0 discriminator 1
 6471 0430 D7F88830 		ldr	r3, [r7, #136]
 6472 0434 5A1E     		subs	r2, r3, #1
 6473 0436 7E49     		ldr	r1, .L220
 6474 0438 1346     		mov	r3, r2
 6475 043a 5B00     		lsls	r3, r3, #1
 6476 043c 1344     		add	r3, r3, r2
 6477 043e 9B00     		lsls	r3, r3, #2
 6478 0440 0B44     		add	r3, r3, r1
 6479 0442 0833     		adds	r3, r3, #8
 6480 0444 1B68     		ldr	r3, [r3]
 6481 0446 032B     		cmp	r3, #3
 6482 0448 18D0     		beq	.L198
 6483              	.L197:
 6484              		.loc 1 648 0 discriminator 3
 6485 044a 7949     		ldr	r1, .L220
 6486 044c D7F88820 		ldr	r2, [r7, #136]
 6487 0450 1346     		mov	r3, r2
 6488 0452 5B00     		lsls	r3, r3, #1
 6489 0454 1344     		add	r3, r3, r2
 6490 0456 9B00     		lsls	r3, r3, #2
 6491 0458 0B44     		add	r3, r3, r1
 6492 045a 0833     		adds	r3, r3, #8
ARM GAS  C:\Users\Logan\AppData\Local\Temp\ccKKo5Vz.s 			page 127


 6493 045c 1B68     		ldr	r3, [r3]
 6494 045e 032B     		cmp	r3, #3
 6495 0460 34D1     		bne	.L196
 6496              		.loc 1 648 0 discriminator 4
 6497 0462 D7F88830 		ldr	r3, [r7, #136]
 6498 0466 5A1E     		subs	r2, r3, #1
 6499 0468 7149     		ldr	r1, .L220
 6500 046a 1346     		mov	r3, r2
 6501 046c 5B00     		lsls	r3, r3, #1
 6502 046e 1344     		add	r3, r3, r2
 6503 0470 9B00     		lsls	r3, r3, #2
 6504 0472 0B44     		add	r3, r3, r1
 6505 0474 0833     		adds	r3, r3, #8
 6506 0476 1B68     		ldr	r3, [r3]
 6507 0478 012B     		cmp	r3, #1
 6508 047a 27D1     		bne	.L196
 6509              	.L198:
 649:.\pathfinder.c ****                //printf("L/R intersection found (%d) [direction = %d] -- TURN U-TURN\n", end - i + 
 650:.\pathfinder.c ****                instructions[counter] = UTURN;
 6510              		.loc 1 650 0 is_stmt 1
 6511 047c 6D4A     		ldr	r2, .L220+4
 6512 047e D7F89430 		ldr	r3, [r7, #148]
 6513 0482 1344     		add	r3, r3, r2
 6514 0484 5522     		movs	r2, #85
 6515 0486 1A70     		strb	r2, [r3]
 651:.\pathfinder.c ****                instructions[counter + 1] = (end - i + 1 )- prev_intersection;
 6516              		.loc 1 651 0
 6517 0488 D7F89430 		ldr	r3, [r7, #148]
 6518 048c 0133     		adds	r3, r3, #1
 6519 048e D7F88420 		ldr	r2, [r7, #132]
 6520 0492 D1B2     		uxtb	r1, r2
 6521 0494 D7F88820 		ldr	r2, [r7, #136]
 6522 0498 D2B2     		uxtb	r2, r2
 6523 049a 8A1A     		subs	r2, r1, r2
 6524 049c D1B2     		uxtb	r1, r2
 6525 049e D7F89020 		ldr	r2, [r7, #144]
 6526 04a2 D2B2     		uxtb	r2, r2
 6527 04a4 8A1A     		subs	r2, r1, r2
 6528 04a6 D2B2     		uxtb	r2, r2
 6529 04a8 0132     		adds	r2, r2, #1
 6530 04aa D1B2     		uxtb	r1, r2
 6531 04ac 614A     		ldr	r2, .L220+4
 6532 04ae D154     		strb	r1, [r2, r3]
 652:.\pathfinder.c ****                counter += 2;
 6533              		.loc 1 652 0
 6534 04b0 D7F89430 		ldr	r3, [r7, #148]
 6535 04b4 0233     		adds	r3, r3, #2
 6536 04b6 C7F89430 		str	r3, [r7, #148]
 653:.\pathfinder.c ****                prev_intersection = end - i + 1;
 6537              		.loc 1 653 0
 6538 04ba D7F88420 		ldr	r2, [r7, #132]
 6539 04be D7F88830 		ldr	r3, [r7, #136]
 6540 04c2 D31A     		subs	r3, r2, r3
 6541 04c4 0133     		adds	r3, r3, #1
 6542 04c6 C7F89030 		str	r3, [r7, #144]
 616:.\pathfinder.c ****             if(path[i][DIR] != path[i - 1][DIR]){
 6543              		.loc 1 616 0
ARM GAS  C:\Users\Logan\AppData\Local\Temp\ccKKo5Vz.s 			page 128


 6544 04ca EEE1     		b	.L199
 6545              	.L196:
 616:.\pathfinder.c ****             if(path[i][DIR] != path[i - 1][DIR]){
 6546              		.loc 1 616 0 is_stmt 0 discriminator 2
 6547 04cc EDE1     		b	.L199
 6548              	.L182:
 654:.\pathfinder.c ****             }else{
 655:.\pathfinder.c ****             //printf("[(%d), direction = %d]\n", end - i + 1, path[i][DIR]);
 656:.\pathfinder.c ****          }
 657:.\pathfinder.c ****          }
 658:.\pathfinder.c ****       }else{
 659:.\pathfinder.c ****          if(map[path[i][Y] - 1][path[i][X]] == PATH || map[path[i][Y] + 1][path[i][X]] == PATH){
 6549              		.loc 1 659 0 is_stmt 1
 6550 04ce 5849     		ldr	r1, .L220
 6551 04d0 D7F88820 		ldr	r2, [r7, #136]
 6552 04d4 1346     		mov	r3, r2
 6553 04d6 5B00     		lsls	r3, r3, #1
 6554 04d8 1344     		add	r3, r3, r2
 6555 04da 9B00     		lsls	r3, r3, #2
 6556 04dc 0B44     		add	r3, r3, r1
 6557 04de 1B68     		ldr	r3, [r3]
 6558 04e0 5A1E     		subs	r2, r3, #1
 6559 04e2 5348     		ldr	r0, .L220
 6560 04e4 D7F88810 		ldr	r1, [r7, #136]
 6561 04e8 0B46     		mov	r3, r1
 6562 04ea 5B00     		lsls	r3, r3, #1
 6563 04ec 0B44     		add	r3, r3, r1
 6564 04ee 9B00     		lsls	r3, r3, #2
 6565 04f0 0344     		add	r3, r3, r0
 6566 04f2 0433     		adds	r3, r3, #4
 6567 04f4 1968     		ldr	r1, [r3]
 6568 04f6 5048     		ldr	r0, .L220+8
 6569 04f8 1346     		mov	r3, r2
 6570 04fa DB00     		lsls	r3, r3, #3
 6571 04fc 1344     		add	r3, r3, r2
 6572 04fe 5B00     		lsls	r3, r3, #1
 6573 0500 1344     		add	r3, r3, r2
 6574 0502 0B44     		add	r3, r3, r1
 6575 0504 50F82330 		ldr	r3, [r0, r3, lsl #2]
 6576 0508 002B     		cmp	r3, #0
 6577 050a 1FD0     		beq	.L200
 6578              		.loc 1 659 0 is_stmt 0 discriminator 1
 6579 050c 4849     		ldr	r1, .L220
 6580 050e D7F88820 		ldr	r2, [r7, #136]
 6581 0512 1346     		mov	r3, r2
 6582 0514 5B00     		lsls	r3, r3, #1
 6583 0516 1344     		add	r3, r3, r2
 6584 0518 9B00     		lsls	r3, r3, #2
 6585 051a 0B44     		add	r3, r3, r1
 6586 051c 1B68     		ldr	r3, [r3]
 6587 051e 5A1C     		adds	r2, r3, #1
 6588 0520 4348     		ldr	r0, .L220
 6589 0522 D7F88810 		ldr	r1, [r7, #136]
 6590 0526 0B46     		mov	r3, r1
 6591 0528 5B00     		lsls	r3, r3, #1
 6592 052a 0B44     		add	r3, r3, r1
 6593 052c 9B00     		lsls	r3, r3, #2
ARM GAS  C:\Users\Logan\AppData\Local\Temp\ccKKo5Vz.s 			page 129


 6594 052e 0344     		add	r3, r3, r0
 6595 0530 0433     		adds	r3, r3, #4
 6596 0532 1968     		ldr	r1, [r3]
 6597 0534 4048     		ldr	r0, .L220+8
 6598 0536 1346     		mov	r3, r2
 6599 0538 DB00     		lsls	r3, r3, #3
 6600 053a 1344     		add	r3, r3, r2
 6601 053c 5B00     		lsls	r3, r3, #1
 6602 053e 1344     		add	r3, r3, r2
 6603 0540 0B44     		add	r3, r3, r1
 6604 0542 50F82330 		ldr	r3, [r0, r3, lsl #2]
 6605 0546 002B     		cmp	r3, #0
 6606 0548 40F05681 		bne	.L201
 6607              	.L200:
 660:.\pathfinder.c ****             if(path[i][DIR] != path[i - 1][DIR]){
 6608              		.loc 1 660 0 is_stmt 1
 6609 054c 3849     		ldr	r1, .L220
 6610 054e D7F88820 		ldr	r2, [r7, #136]
 6611 0552 1346     		mov	r3, r2
 6612 0554 5B00     		lsls	r3, r3, #1
 6613 0556 1344     		add	r3, r3, r2
 6614 0558 9B00     		lsls	r3, r3, #2
 6615 055a 0B44     		add	r3, r3, r1
 6616 055c 0833     		adds	r3, r3, #8
 6617 055e 1968     		ldr	r1, [r3]
 6618 0560 D7F88830 		ldr	r3, [r7, #136]
 6619 0564 5A1E     		subs	r2, r3, #1
 6620 0566 3248     		ldr	r0, .L220
 6621 0568 1346     		mov	r3, r2
 6622 056a 5B00     		lsls	r3, r3, #1
 6623 056c 1344     		add	r3, r3, r2
 6624 056e 9B00     		lsls	r3, r3, #2
 6625 0570 0344     		add	r3, r3, r0
 6626 0572 0833     		adds	r3, r3, #8
 6627 0574 1B68     		ldr	r3, [r3]
 6628 0576 9942     		cmp	r1, r3
 6629 0578 00F01581 		beq	.L202
 661:.\pathfinder.c ****                if((path[i][DIR] == 4 && path[i-1][DIR] == 3) || (path[i][DIR] == 2 && path[i-1][DIR
 6630              		.loc 1 661 0
 6631 057c 2C49     		ldr	r1, .L220
 6632 057e D7F88820 		ldr	r2, [r7, #136]
 6633 0582 1346     		mov	r3, r2
 6634 0584 5B00     		lsls	r3, r3, #1
 6635 0586 1344     		add	r3, r3, r2
 6636 0588 9B00     		lsls	r3, r3, #2
 6637 058a 0B44     		add	r3, r3, r1
 6638 058c 0833     		adds	r3, r3, #8
 6639 058e 1B68     		ldr	r3, [r3]
 6640 0590 042B     		cmp	r3, #4
 6641 0592 0CD1     		bne	.L203
 6642              		.loc 1 661 0 is_stmt 0 discriminator 1
 6643 0594 D7F88830 		ldr	r3, [r7, #136]
 6644 0598 5A1E     		subs	r2, r3, #1
 6645 059a 2549     		ldr	r1, .L220
 6646 059c 1346     		mov	r3, r2
 6647 059e 5B00     		lsls	r3, r3, #1
 6648 05a0 1344     		add	r3, r3, r2
ARM GAS  C:\Users\Logan\AppData\Local\Temp\ccKKo5Vz.s 			page 130


 6649 05a2 9B00     		lsls	r3, r3, #2
 6650 05a4 0B44     		add	r3, r3, r1
 6651 05a6 0833     		adds	r3, r3, #8
 6652 05a8 1B68     		ldr	r3, [r3]
 6653 05aa 032B     		cmp	r3, #3
 6654 05ac 18D0     		beq	.L204
 6655              	.L203:
 6656              		.loc 1 661 0 discriminator 3
 6657 05ae 2049     		ldr	r1, .L220
 6658 05b0 D7F88820 		ldr	r2, [r7, #136]
 6659 05b4 1346     		mov	r3, r2
 6660 05b6 5B00     		lsls	r3, r3, #1
 6661 05b8 1344     		add	r3, r3, r2
 6662 05ba 9B00     		lsls	r3, r3, #2
 6663 05bc 0B44     		add	r3, r3, r1
 6664 05be 0833     		adds	r3, r3, #8
 6665 05c0 1B68     		ldr	r3, [r3]
 6666 05c2 022B     		cmp	r3, #2
 6667 05c4 3AD1     		bne	.L205
 6668              		.loc 1 661 0 discriminator 4
 6669 05c6 D7F88830 		ldr	r3, [r7, #136]
 6670 05ca 5A1E     		subs	r2, r3, #1
 6671 05cc 1849     		ldr	r1, .L220
 6672 05ce 1346     		mov	r3, r2
 6673 05d0 5B00     		lsls	r3, r3, #1
 6674 05d2 1344     		add	r3, r3, r2
 6675 05d4 9B00     		lsls	r3, r3, #2
 6676 05d6 0B44     		add	r3, r3, r1
 6677 05d8 0833     		adds	r3, r3, #8
 6678 05da 1B68     		ldr	r3, [r3]
 6679 05dc 012B     		cmp	r3, #1
 6680 05de 2DD1     		bne	.L205
 6681              	.L204:
 662:.\pathfinder.c ****                   //printf("U/D intersection found (%d) [direction = %d] -- TURN LEFT\n", end - i +
 663:.\pathfinder.c ****                   instructions[counter] = LEFT;
 6682              		.loc 1 663 0 is_stmt 1
 6683 05e0 144A     		ldr	r2, .L220+4
 6684 05e2 D7F89430 		ldr	r3, [r7, #148]
 6685 05e6 1344     		add	r3, r3, r2
 6686 05e8 4C22     		movs	r2, #76
 6687 05ea 1A70     		strb	r2, [r3]
 664:.\pathfinder.c ****                   instructions[counter + 1] = (end - i + 1 )- prev_intersection;
 6688              		.loc 1 664 0
 6689 05ec D7F89430 		ldr	r3, [r7, #148]
 6690 05f0 0133     		adds	r3, r3, #1
 6691 05f2 D7F88420 		ldr	r2, [r7, #132]
 6692 05f6 D1B2     		uxtb	r1, r2
 6693 05f8 D7F88820 		ldr	r2, [r7, #136]
 6694 05fc D2B2     		uxtb	r2, r2
 6695 05fe 8A1A     		subs	r2, r1, r2
 6696 0600 D1B2     		uxtb	r1, r2
 6697 0602 D7F89020 		ldr	r2, [r7, #144]
 6698 0606 D2B2     		uxtb	r2, r2
 6699 0608 8A1A     		subs	r2, r1, r2
 6700 060a D2B2     		uxtb	r2, r2
 6701 060c 0132     		adds	r2, r2, #1
 6702 060e D1B2     		uxtb	r1, r2
ARM GAS  C:\Users\Logan\AppData\Local\Temp\ccKKo5Vz.s 			page 131


 6703 0610 084A     		ldr	r2, .L220+4
 6704 0612 D154     		strb	r1, [r2, r3]
 665:.\pathfinder.c ****                   counter += 2;
 6705              		.loc 1 665 0
 6706 0614 D7F89430 		ldr	r3, [r7, #148]
 6707 0618 0233     		adds	r3, r3, #2
 6708 061a C7F89430 		str	r3, [r7, #148]
 666:.\pathfinder.c ****                   prev_intersection = end - i + 1;
 6709              		.loc 1 666 0
 6710 061e D7F88420 		ldr	r2, [r7, #132]
 6711 0622 D7F88830 		ldr	r3, [r7, #136]
 6712 0626 D31A     		subs	r3, r2, r3
 6713 0628 0133     		adds	r3, r3, #1
 6714 062a C7F89030 		str	r3, [r7, #144]
 6715 062e B9E0     		b	.L206
 6716              	.L221:
 6717              		.align	2
 6718              	.L220:
 6719 0630 00000000 		.word	path
 6720 0634 00000000 		.word	instructions
 6721 0638 00000000 		.word	map
 6722              	.L205:
 667:.\pathfinder.c ****                }else if((path[i][DIR] == 4 && path[i-1][DIR] == 1) || (path[i][DIR] == 2 && path[i-
 6723              		.loc 1 667 0
 6724 063c B549     		ldr	r1, .L222
 6725 063e D7F88820 		ldr	r2, [r7, #136]
 6726 0642 1346     		mov	r3, r2
 6727 0644 5B00     		lsls	r3, r3, #1
 6728 0646 1344     		add	r3, r3, r2
 6729 0648 9B00     		lsls	r3, r3, #2
 6730 064a 0B44     		add	r3, r3, r1
 6731 064c 0833     		adds	r3, r3, #8
 6732 064e 1B68     		ldr	r3, [r3]
 6733 0650 042B     		cmp	r3, #4
 6734 0652 0CD1     		bne	.L207
 6735              		.loc 1 667 0 is_stmt 0 discriminator 1
 6736 0654 D7F88830 		ldr	r3, [r7, #136]
 6737 0658 5A1E     		subs	r2, r3, #1
 6738 065a AE49     		ldr	r1, .L222
 6739 065c 1346     		mov	r3, r2
 6740 065e 5B00     		lsls	r3, r3, #1
 6741 0660 1344     		add	r3, r3, r2
 6742 0662 9B00     		lsls	r3, r3, #2
 6743 0664 0B44     		add	r3, r3, r1
 6744 0666 0833     		adds	r3, r3, #8
 6745 0668 1B68     		ldr	r3, [r3]
 6746 066a 012B     		cmp	r3, #1
 6747 066c 18D0     		beq	.L208
 6748              	.L207:
 6749              		.loc 1 667 0 discriminator 3
 6750 066e A949     		ldr	r1, .L222
 6751 0670 D7F88820 		ldr	r2, [r7, #136]
 6752 0674 1346     		mov	r3, r2
 6753 0676 5B00     		lsls	r3, r3, #1
 6754 0678 1344     		add	r3, r3, r2
 6755 067a 9B00     		lsls	r3, r3, #2
 6756 067c 0B44     		add	r3, r3, r1
ARM GAS  C:\Users\Logan\AppData\Local\Temp\ccKKo5Vz.s 			page 132


 6757 067e 0833     		adds	r3, r3, #8
 6758 0680 1B68     		ldr	r3, [r3]
 6759 0682 022B     		cmp	r3, #2
 6760 0684 34D1     		bne	.L209
 6761              		.loc 1 667 0 discriminator 4
 6762 0686 D7F88830 		ldr	r3, [r7, #136]
 6763 068a 5A1E     		subs	r2, r3, #1
 6764 068c A149     		ldr	r1, .L222
 6765 068e 1346     		mov	r3, r2
 6766 0690 5B00     		lsls	r3, r3, #1
 6767 0692 1344     		add	r3, r3, r2
 6768 0694 9B00     		lsls	r3, r3, #2
 6769 0696 0B44     		add	r3, r3, r1
 6770 0698 0833     		adds	r3, r3, #8
 6771 069a 1B68     		ldr	r3, [r3]
 6772 069c 032B     		cmp	r3, #3
 6773 069e 27D1     		bne	.L209
 6774              	.L208:
 668:.\pathfinder.c ****                   //printf("U/D intersection found (%d) [direction = %d] -- TURN RIGHT\n", end - i 
 669:.\pathfinder.c ****                   instructions[counter] = RIGHT;
 6775              		.loc 1 669 0 is_stmt 1
 6776 06a0 9D4A     		ldr	r2, .L222+4
 6777 06a2 D7F89430 		ldr	r3, [r7, #148]
 6778 06a6 1344     		add	r3, r3, r2
 6779 06a8 5222     		movs	r2, #82
 6780 06aa 1A70     		strb	r2, [r3]
 670:.\pathfinder.c ****                   instructions[counter + 1] = (end - i + 1 )- prev_intersection;
 6781              		.loc 1 670 0
 6782 06ac D7F89430 		ldr	r3, [r7, #148]
 6783 06b0 0133     		adds	r3, r3, #1
 6784 06b2 D7F88420 		ldr	r2, [r7, #132]
 6785 06b6 D1B2     		uxtb	r1, r2
 6786 06b8 D7F88820 		ldr	r2, [r7, #136]
 6787 06bc D2B2     		uxtb	r2, r2
 6788 06be 8A1A     		subs	r2, r1, r2
 6789 06c0 D1B2     		uxtb	r1, r2
 6790 06c2 D7F89020 		ldr	r2, [r7, #144]
 6791 06c6 D2B2     		uxtb	r2, r2
 6792 06c8 8A1A     		subs	r2, r1, r2
 6793 06ca D2B2     		uxtb	r2, r2
 6794 06cc 0132     		adds	r2, r2, #1
 6795 06ce D1B2     		uxtb	r1, r2
 6796 06d0 914A     		ldr	r2, .L222+4
 6797 06d2 D154     		strb	r1, [r2, r3]
 671:.\pathfinder.c ****                   counter += 2;
 6798              		.loc 1 671 0
 6799 06d4 D7F89430 		ldr	r3, [r7, #148]
 6800 06d8 0233     		adds	r3, r3, #2
 6801 06da C7F89430 		str	r3, [r7, #148]
 672:.\pathfinder.c ****                   prev_intersection = end - i + 1;
 6802              		.loc 1 672 0
 6803 06de D7F88420 		ldr	r2, [r7, #132]
 6804 06e2 D7F88830 		ldr	r3, [r7, #136]
 6805 06e6 D31A     		subs	r3, r2, r3
 6806 06e8 0133     		adds	r3, r3, #1
 6807 06ea C7F89030 		str	r3, [r7, #144]
 6808 06ee 59E0     		b	.L206
ARM GAS  C:\Users\Logan\AppData\Local\Temp\ccKKo5Vz.s 			page 133


 6809              	.L209:
 673:.\pathfinder.c ****                }else if ((path[i][DIR] == 4 && path[i-1][DIR] == 2) || (path[i][DIR] == 2 && path[i
 6810              		.loc 1 673 0
 6811 06f0 8849     		ldr	r1, .L222
 6812 06f2 D7F88820 		ldr	r2, [r7, #136]
 6813 06f6 1346     		mov	r3, r2
 6814 06f8 5B00     		lsls	r3, r3, #1
 6815 06fa 1344     		add	r3, r3, r2
 6816 06fc 9B00     		lsls	r3, r3, #2
 6817 06fe 0B44     		add	r3, r3, r1
 6818 0700 0833     		adds	r3, r3, #8
 6819 0702 1B68     		ldr	r3, [r3]
 6820 0704 042B     		cmp	r3, #4
 6821 0706 0CD1     		bne	.L210
 6822              		.loc 1 673 0 is_stmt 0 discriminator 1
 6823 0708 D7F88830 		ldr	r3, [r7, #136]
 6824 070c 5A1E     		subs	r2, r3, #1
 6825 070e 8149     		ldr	r1, .L222
 6826 0710 1346     		mov	r3, r2
 6827 0712 5B00     		lsls	r3, r3, #1
 6828 0714 1344     		add	r3, r3, r2
 6829 0716 9B00     		lsls	r3, r3, #2
 6830 0718 0B44     		add	r3, r3, r1
 6831 071a 0833     		adds	r3, r3, #8
 6832 071c 1B68     		ldr	r3, [r3]
 6833 071e 022B     		cmp	r3, #2
 6834 0720 18D0     		beq	.L211
 6835              	.L210:
 6836              		.loc 1 673 0 discriminator 3
 6837 0722 7C49     		ldr	r1, .L222
 6838 0724 D7F88820 		ldr	r2, [r7, #136]
 6839 0728 1346     		mov	r3, r2
 6840 072a 5B00     		lsls	r3, r3, #1
 6841 072c 1344     		add	r3, r3, r2
 6842 072e 9B00     		lsls	r3, r3, #2
 6843 0730 0B44     		add	r3, r3, r1
 6844 0732 0833     		adds	r3, r3, #8
 6845 0734 1B68     		ldr	r3, [r3]
 6846 0736 022B     		cmp	r3, #2
 6847 0738 5DD1     		bne	.L212
 6848              		.loc 1 673 0 discriminator 4
 6849 073a D7F88830 		ldr	r3, [r7, #136]
 6850 073e 5A1E     		subs	r2, r3, #1
 6851 0740 7449     		ldr	r1, .L222
 6852 0742 1346     		mov	r3, r2
 6853 0744 5B00     		lsls	r3, r3, #1
 6854 0746 1344     		add	r3, r3, r2
 6855 0748 9B00     		lsls	r3, r3, #2
 6856 074a 0B44     		add	r3, r3, r1
 6857 074c 0833     		adds	r3, r3, #8
 6858 074e 1B68     		ldr	r3, [r3]
 6859 0750 042B     		cmp	r3, #4
 6860 0752 50D1     		bne	.L212
 6861              	.L211:
 674:.\pathfinder.c ****                   //printf("U/D intersection found (%d) [direction = %d] -- TURN U-TURN\n", end - i
 675:.\pathfinder.c ****                   instructions[counter] = UTURN;
 6862              		.loc 1 675 0 is_stmt 1
ARM GAS  C:\Users\Logan\AppData\Local\Temp\ccKKo5Vz.s 			page 134


 6863 0754 704A     		ldr	r2, .L222+4
 6864 0756 D7F89430 		ldr	r3, [r7, #148]
 6865 075a 1344     		add	r3, r3, r2
 6866 075c 5522     		movs	r2, #85
 6867 075e 1A70     		strb	r2, [r3]
 676:.\pathfinder.c ****                   instructions[counter + 1] = (end - i + 1 )- prev_intersection;
 6868              		.loc 1 676 0
 6869 0760 D7F89430 		ldr	r3, [r7, #148]
 6870 0764 0133     		adds	r3, r3, #1
 6871 0766 D7F88420 		ldr	r2, [r7, #132]
 6872 076a D1B2     		uxtb	r1, r2
 6873 076c D7F88820 		ldr	r2, [r7, #136]
 6874 0770 D2B2     		uxtb	r2, r2
 6875 0772 8A1A     		subs	r2, r1, r2
 6876 0774 D1B2     		uxtb	r1, r2
 6877 0776 D7F89020 		ldr	r2, [r7, #144]
 6878 077a D2B2     		uxtb	r2, r2
 6879 077c 8A1A     		subs	r2, r1, r2
 6880 077e D2B2     		uxtb	r2, r2
 6881 0780 0132     		adds	r2, r2, #1
 6882 0782 D1B2     		uxtb	r1, r2
 6883 0784 644A     		ldr	r2, .L222+4
 6884 0786 D154     		strb	r1, [r2, r3]
 677:.\pathfinder.c ****                   counter += 2;
 6885              		.loc 1 677 0
 6886 0788 D7F89430 		ldr	r3, [r7, #148]
 6887 078c 0233     		adds	r3, r3, #2
 6888 078e C7F89430 		str	r3, [r7, #148]
 678:.\pathfinder.c ****                   prev_intersection = end - i + 1;
 6889              		.loc 1 678 0
 6890 0792 D7F88420 		ldr	r2, [r7, #132]
 6891 0796 D7F88830 		ldr	r3, [r7, #136]
 6892 079a D31A     		subs	r3, r2, r3
 6893 079c 0133     		adds	r3, r3, #1
 6894 079e C7F89030 		str	r3, [r7, #144]
 6895 07a2 28E0     		b	.L212
 6896              	.L206:
 6897 07a4 27E0     		b	.L212
 6898              	.L202:
 679:.\pathfinder.c ****                }else{
 680:.\pathfinder.c ****                   //printf("Prev %d, current %d\n", path[i-1][DIR], path[i][DIR]);
 681:.\pathfinder.c ****                }
 682:.\pathfinder.c ****             }else{
 683:.\pathfinder.c ****                //printf("U/D intersection found (%d) [direction = %d]\n", end - i + 1, path[i][DIR]
 684:.\pathfinder.c ****                instructions[counter] = STRAIGHT;
 6899              		.loc 1 684 0
 6900 07a6 5C4A     		ldr	r2, .L222+4
 6901 07a8 D7F89430 		ldr	r3, [r7, #148]
 6902 07ac 1344     		add	r3, r3, r2
 6903 07ae 5322     		movs	r2, #83
 6904 07b0 1A70     		strb	r2, [r3]
 685:.\pathfinder.c ****                instructions[counter + 1] = (end - i + 1 )- prev_intersection;
 6905              		.loc 1 685 0
 6906 07b2 D7F89430 		ldr	r3, [r7, #148]
 6907 07b6 0133     		adds	r3, r3, #1
 6908 07b8 D7F88420 		ldr	r2, [r7, #132]
 6909 07bc D1B2     		uxtb	r1, r2
ARM GAS  C:\Users\Logan\AppData\Local\Temp\ccKKo5Vz.s 			page 135


 6910 07be D7F88820 		ldr	r2, [r7, #136]
 6911 07c2 D2B2     		uxtb	r2, r2
 6912 07c4 8A1A     		subs	r2, r1, r2
 6913 07c6 D1B2     		uxtb	r1, r2
 6914 07c8 D7F89020 		ldr	r2, [r7, #144]
 6915 07cc D2B2     		uxtb	r2, r2
 6916 07ce 8A1A     		subs	r2, r1, r2
 6917 07d0 D2B2     		uxtb	r2, r2
 6918 07d2 0132     		adds	r2, r2, #1
 6919 07d4 D1B2     		uxtb	r1, r2
 6920 07d6 504A     		ldr	r2, .L222+4
 6921 07d8 D154     		strb	r1, [r2, r3]
 686:.\pathfinder.c ****                counter += 2;
 6922              		.loc 1 686 0
 6923 07da D7F89430 		ldr	r3, [r7, #148]
 6924 07de 0233     		adds	r3, r3, #2
 6925 07e0 C7F89430 		str	r3, [r7, #148]
 687:.\pathfinder.c ****                prev_intersection = end - i + 1;
 6926              		.loc 1 687 0
 6927 07e4 D7F88420 		ldr	r2, [r7, #132]
 6928 07e8 D7F88830 		ldr	r3, [r7, #136]
 6929 07ec D31A     		subs	r3, r2, r3
 6930 07ee 0133     		adds	r3, r3, #1
 6931 07f0 C7F89030 		str	r3, [r7, #144]
 660:.\pathfinder.c ****                if((path[i][DIR] == 4 && path[i-1][DIR] == 3) || (path[i][DIR] == 2 && path[i-1][DIR
 6932              		.loc 1 660 0
 6933 07f4 59E0     		b	.L199
 6934              	.L212:
 660:.\pathfinder.c ****                if((path[i][DIR] == 4 && path[i-1][DIR] == 3) || (path[i][DIR] == 2 && path[i-1][DIR
 6935              		.loc 1 660 0 is_stmt 0 discriminator 3
 6936 07f6 58E0     		b	.L199
 6937              	.L201:
 688:.\pathfinder.c ****             }
 689:.\pathfinder.c **** 
 690:.\pathfinder.c ****          }else{
 691:.\pathfinder.c ****             if ((path[i][DIR] == 4 && path[i-1][DIR] == 2) || (path[i][DIR] == 2 && path[i-1][DIR] 
 6938              		.loc 1 691 0 is_stmt 1
 6939 07f8 4649     		ldr	r1, .L222
 6940 07fa D7F88820 		ldr	r2, [r7, #136]
 6941 07fe 1346     		mov	r3, r2
 6942 0800 5B00     		lsls	r3, r3, #1
 6943 0802 1344     		add	r3, r3, r2
 6944 0804 9B00     		lsls	r3, r3, #2
 6945 0806 0B44     		add	r3, r3, r1
 6946 0808 0833     		adds	r3, r3, #8
 6947 080a 1B68     		ldr	r3, [r3]
 6948 080c 042B     		cmp	r3, #4
 6949 080e 0CD1     		bne	.L213
 6950              		.loc 1 691 0 is_stmt 0 discriminator 1
 6951 0810 D7F88830 		ldr	r3, [r7, #136]
 6952 0814 5A1E     		subs	r2, r3, #1
 6953 0816 3F49     		ldr	r1, .L222
 6954 0818 1346     		mov	r3, r2
 6955 081a 5B00     		lsls	r3, r3, #1
 6956 081c 1344     		add	r3, r3, r2
 6957 081e 9B00     		lsls	r3, r3, #2
 6958 0820 0B44     		add	r3, r3, r1
ARM GAS  C:\Users\Logan\AppData\Local\Temp\ccKKo5Vz.s 			page 136


 6959 0822 0833     		adds	r3, r3, #8
 6960 0824 1B68     		ldr	r3, [r3]
 6961 0826 022B     		cmp	r3, #2
 6962 0828 18D0     		beq	.L214
 6963              	.L213:
 6964              		.loc 1 691 0 discriminator 3
 6965 082a 3A49     		ldr	r1, .L222
 6966 082c D7F88820 		ldr	r2, [r7, #136]
 6967 0830 1346     		mov	r3, r2
 6968 0832 5B00     		lsls	r3, r3, #1
 6969 0834 1344     		add	r3, r3, r2
 6970 0836 9B00     		lsls	r3, r3, #2
 6971 0838 0B44     		add	r3, r3, r1
 6972 083a 0833     		adds	r3, r3, #8
 6973 083c 1B68     		ldr	r3, [r3]
 6974 083e 022B     		cmp	r3, #2
 6975 0840 33D1     		bne	.L199
 6976              		.loc 1 691 0 discriminator 4
 6977 0842 D7F88830 		ldr	r3, [r7, #136]
 6978 0846 5A1E     		subs	r2, r3, #1
 6979 0848 3249     		ldr	r1, .L222
 6980 084a 1346     		mov	r3, r2
 6981 084c 5B00     		lsls	r3, r3, #1
 6982 084e 1344     		add	r3, r3, r2
 6983 0850 9B00     		lsls	r3, r3, #2
 6984 0852 0B44     		add	r3, r3, r1
 6985 0854 0833     		adds	r3, r3, #8
 6986 0856 1B68     		ldr	r3, [r3]
 6987 0858 042B     		cmp	r3, #4
 6988 085a 26D1     		bne	.L199
 6989              	.L214:
 692:.\pathfinder.c ****                //printf("U/D intersection found (%d) [direction = %d] -- TURN U-TURN\n", end - i + 
 693:.\pathfinder.c ****                instructions[counter] = UTURN;
 6990              		.loc 1 693 0 is_stmt 1
 6991 085c 2E4A     		ldr	r2, .L222+4
 6992 085e D7F89430 		ldr	r3, [r7, #148]
 6993 0862 1344     		add	r3, r3, r2
 6994 0864 5522     		movs	r2, #85
 6995 0866 1A70     		strb	r2, [r3]
 694:.\pathfinder.c ****                instructions[counter + 1] = (end - i + 1 )- prev_intersection;
 6996              		.loc 1 694 0
 6997 0868 D7F89430 		ldr	r3, [r7, #148]
 6998 086c 0133     		adds	r3, r3, #1
 6999 086e D7F88420 		ldr	r2, [r7, #132]
 7000 0872 D1B2     		uxtb	r1, r2
 7001 0874 D7F88820 		ldr	r2, [r7, #136]
 7002 0878 D2B2     		uxtb	r2, r2
 7003 087a 8A1A     		subs	r2, r1, r2
 7004 087c D1B2     		uxtb	r1, r2
 7005 087e D7F89020 		ldr	r2, [r7, #144]
 7006 0882 D2B2     		uxtb	r2, r2
 7007 0884 8A1A     		subs	r2, r1, r2
 7008 0886 D2B2     		uxtb	r2, r2
 7009 0888 0132     		adds	r2, r2, #1
 7010 088a D1B2     		uxtb	r1, r2
 7011 088c 224A     		ldr	r2, .L222+4
 7012 088e D154     		strb	r1, [r2, r3]
ARM GAS  C:\Users\Logan\AppData\Local\Temp\ccKKo5Vz.s 			page 137


 695:.\pathfinder.c ****                counter += 2;
 7013              		.loc 1 695 0
 7014 0890 D7F89430 		ldr	r3, [r7, #148]
 7015 0894 0233     		adds	r3, r3, #2
 7016 0896 C7F89430 		str	r3, [r7, #148]
 696:.\pathfinder.c ****                prev_intersection = end - i + 1;
 7017              		.loc 1 696 0
 7018 089a D7F88420 		ldr	r2, [r7, #132]
 7019 089e D7F88830 		ldr	r3, [r7, #136]
 7020 08a2 D31A     		subs	r3, r2, r3
 7021 08a4 0133     		adds	r3, r3, #1
 7022 08a6 C7F89030 		str	r3, [r7, #144]
 7023              	.L199:
 613:.\pathfinder.c ****       if(path[i][DIR] == 1 || path[i][DIR] == 3){
 7024              		.loc 1 613 0 discriminator 2
 7025 08aa D7F88830 		ldr	r3, [r7, #136]
 7026 08ae 013B     		subs	r3, r3, #1
 7027 08b0 C7F88830 		str	r3, [r7, #136]
 7028              	.L180:
 613:.\pathfinder.c ****       if(path[i][DIR] == 1 || path[i][DIR] == 3){
 7029              		.loc 1 613 0 is_stmt 0 discriminator 1
 7030 08b4 D7F88830 		ldr	r3, [r7, #136]
 7031 08b8 002B     		cmp	r3, #0
 7032 08ba 3FF7F5AB 		bgt	.L215
 697:.\pathfinder.c ****             }else{
 698:.\pathfinder.c ****            // printf("[(%d), direction = %d]\n", end - i + 1, path[i][DIR]);
 699:.\pathfinder.c ****          }
 700:.\pathfinder.c ****          }
 701:.\pathfinder.c ****       }
 702:.\pathfinder.c ****     
 703:.\pathfinder.c ****    }
 704:.\pathfinder.c ****    instructions[counter] = DRIVE;
 7033              		.loc 1 704 0 is_stmt 1 discriminator 2
 7034 08be 164A     		ldr	r2, .L222+4
 7035 08c0 D7F89430 		ldr	r3, [r7, #148]
 7036 08c4 1344     		add	r3, r3, r2
 7037 08c6 4422     		movs	r2, #68
 7038 08c8 1A70     		strb	r2, [r3]
 705:.\pathfinder.c ****    instructions[counter + 1] = end - prev_intersection;
 7039              		.loc 1 705 0 discriminator 2
 7040 08ca D7F89430 		ldr	r3, [r7, #148]
 7041 08ce 0133     		adds	r3, r3, #1
 7042 08d0 D7F88420 		ldr	r2, [r7, #132]
 7043 08d4 D1B2     		uxtb	r1, r2
 7044 08d6 D7F89020 		ldr	r2, [r7, #144]
 7045 08da D2B2     		uxtb	r2, r2
 7046 08dc 8A1A     		subs	r2, r1, r2
 7047 08de D1B2     		uxtb	r1, r2
 7048 08e0 0D4A     		ldr	r2, .L222+4
 7049 08e2 D154     		strb	r1, [r2, r3]
 706:.\pathfinder.c ****    counter += 2;
 7050              		.loc 1 706 0 discriminator 2
 7051 08e4 D7F89430 		ldr	r3, [r7, #148]
 7052 08e8 0233     		adds	r3, r3, #2
 7053 08ea C7F89430 		str	r3, [r7, #148]
 7054              	.LBE7:
 580:.\pathfinder.c **** {   
ARM GAS  C:\Users\Logan\AppData\Local\Temp\ccKKo5Vz.s 			page 138


 7055              		.loc 1 580 0 discriminator 2
 7056 08ee D7F88C30 		ldr	r3, [r7, #140]
 7057 08f2 0133     		adds	r3, r3, #1
 7058 08f4 C7F88C30 		str	r3, [r7, #140]
 7059              	.L178:
 580:.\pathfinder.c **** {   
 7060              		.loc 1 580 0 is_stmt 0 discriminator 1
 7061 08f8 D7F88C20 		ldr	r2, [r7, #140]
 7062 08fc 074B     		ldr	r3, .L222+8
 7063 08fe 1B68     		ldr	r3, [r3]
 7064 0900 9A42     		cmp	r2, r3
 7065 0902 FFF48BAB 		bcc	.L216
 707:.\pathfinder.c ****    //instructions[counter] = '\0';
 708:.\pathfinder.c **** }
 709:.\pathfinder.c ****    return counter;
 7066              		.loc 1 709 0 is_stmt 1
 7067 0906 D7F89430 		ldr	r3, [r7, #148]
 710:.\pathfinder.c **** }
 7068              		.loc 1 710 0
 7069 090a 1846     		mov	r0, r3
 7070 090c 9837     		adds	r7, r7, #152
 7071              		.cfi_def_cfa_offset 16
 7072 090e BD46     		mov	sp, r7
 7073              		.cfi_def_cfa_register 13
 7074              		@ sp needed
 7075 0910 B0BD     		pop	{r4, r5, r7, pc}
 7076              	.L223:
 7077 0912 00BF     		.align	2
 7078              	.L222:
 7079 0914 00000000 		.word	path
 7080 0918 00000000 		.word	instructions
 7081 091c 00000000 		.word	food_length
 7082              		.cfi_endproc
 7083              	.LFE66:
 7084              		.size	generateDirections, .-generateDirections
 7085              		.text
 7086              	.Letext0:
 7087              		.file 2 "c:\\program files (x86)\\cypress\\psoc creator\\3.3\\psoc creator\\import\\gnu\\arm\\4.9.
 7088              		.file 3 "c:\\program files (x86)\\cypress\\psoc creator\\3.3\\psoc creator\\import\\gnu\\arm\\4.9.
 7089              		.file 4 "Generated_Source\\PSoC5/cytypes.h"
 7090              		.file 5 "Generated_Source\\PSoC5/core_cm3.h"
 7091              		.file 6 ".\\pathfinder.h"
 7092              		.section	.debug_info,"",%progbits
 7093              	.Ldebug_info0:
 7094 0000 EF060000 		.4byte	0x6ef
 7095 0004 0400     		.2byte	0x4
 7096 0006 00000000 		.4byte	.Ldebug_abbrev0
 7097 000a 04       		.byte	0x4
 7098 000b 01       		.uleb128 0x1
 7099 000c E8000000 		.4byte	.LASF63
 7100 0010 01       		.byte	0x1
 7101 0011 7F020000 		.4byte	.LASF64
 7102 0015 01030000 		.4byte	.LASF65
 7103 0019 00000000 		.4byte	.Ldebug_ranges0+0
 7104 001d 00000000 		.4byte	0
 7105 0021 00000000 		.4byte	.Ldebug_line0
 7106 0025 02       		.uleb128 0x2
ARM GAS  C:\Users\Logan\AppData\Local\Temp\ccKKo5Vz.s 			page 139


 7107 0026 01       		.byte	0x1
 7108 0027 06       		.byte	0x6
 7109 0028 E8010000 		.4byte	.LASF0
 7110 002c 02       		.uleb128 0x2
 7111 002d 01       		.byte	0x1
 7112 002e 08       		.byte	0x8
 7113 002f BF010000 		.4byte	.LASF1
 7114 0033 02       		.uleb128 0x2
 7115 0034 02       		.byte	0x2
 7116 0035 05       		.byte	0x5
 7117 0036 2A000000 		.4byte	.LASF2
 7118 003a 02       		.uleb128 0x2
 7119 003b 02       		.byte	0x2
 7120 003c 07       		.byte	0x7
 7121 003d A9020000 		.4byte	.LASF3
 7122 0041 03       		.uleb128 0x3
 7123 0042 6A030000 		.4byte	.LASF5
 7124 0046 02       		.byte	0x2
 7125 0047 3F       		.byte	0x3f
 7126 0048 4C000000 		.4byte	0x4c
 7127 004c 02       		.uleb128 0x2
 7128 004d 04       		.byte	0x4
 7129 004e 05       		.byte	0x5
 7130 004f 98020000 		.4byte	.LASF4
 7131 0053 03       		.uleb128 0x3
 7132 0054 1F000000 		.4byte	.LASF6
 7133 0058 02       		.byte	0x2
 7134 0059 41       		.byte	0x41
 7135 005a 5E000000 		.4byte	0x5e
 7136 005e 02       		.uleb128 0x2
 7137 005f 04       		.byte	0x4
 7138 0060 07       		.byte	0x7
 7139 0061 2D020000 		.4byte	.LASF7
 7140 0065 02       		.uleb128 0x2
 7141 0066 08       		.byte	0x8
 7142 0067 05       		.byte	0x5
 7143 0068 AC000000 		.4byte	.LASF8
 7144 006c 02       		.uleb128 0x2
 7145 006d 08       		.byte	0x8
 7146 006e 07       		.byte	0x7
 7147 006f F4010000 		.4byte	.LASF9
 7148 0073 04       		.uleb128 0x4
 7149 0074 04       		.byte	0x4
 7150 0075 05       		.byte	0x5
 7151 0076 696E7400 		.ascii	"int\000"
 7152 007a 02       		.uleb128 0x2
 7153 007b 04       		.byte	0x4
 7154 007c 07       		.byte	0x7
 7155 007d 20020000 		.4byte	.LASF10
 7156 0081 02       		.uleb128 0x2
 7157 0082 04       		.byte	0x4
 7158 0083 07       		.byte	0x7
 7159 0084 84030000 		.4byte	.LASF11
 7160 0088 02       		.uleb128 0x2
 7161 0089 01       		.byte	0x1
 7162 008a 08       		.byte	0x8
 7163 008b 8E020000 		.4byte	.LASF12
ARM GAS  C:\Users\Logan\AppData\Local\Temp\ccKKo5Vz.s 			page 140


 7164 008f 02       		.uleb128 0x2
 7165 0090 08       		.byte	0x8
 7166 0091 04       		.byte	0x4
 7167 0092 F0020000 		.4byte	.LASF13
 7168 0096 02       		.uleb128 0x2
 7169 0097 04       		.byte	0x4
 7170 0098 04       		.byte	0x4
 7171 0099 A6000000 		.4byte	.LASF14
 7172 009d 02       		.uleb128 0x2
 7173 009e 08       		.byte	0x8
 7174 009f 04       		.byte	0x4
 7175 00a0 A1010000 		.4byte	.LASF15
 7176 00a4 03       		.uleb128 0x3
 7177 00a5 A1020000 		.4byte	.LASF16
 7178 00a9 03       		.byte	0x3
 7179 00aa 2C       		.byte	0x2c
 7180 00ab 41000000 		.4byte	0x41
 7181 00af 03       		.uleb128 0x3
 7182 00b0 0B020000 		.4byte	.LASF17
 7183 00b4 03       		.byte	0x3
 7184 00b5 2D       		.byte	0x2d
 7185 00b6 53000000 		.4byte	0x53
 7186 00ba 05       		.uleb128 0x5
 7187 00bb 97000000 		.4byte	.LASF18
 7188 00bf 04       		.byte	0x4
 7189 00c0 9301     		.2byte	0x193
 7190 00c2 3A000000 		.4byte	0x3a
 7191 00c6 06       		.uleb128 0x6
 7192 00c7 AF000000 		.4byte	0xaf
 7193 00cb D6000000 		.4byte	0xd6
 7194 00cf 07       		.uleb128 0x7
 7195 00d0 81000000 		.4byte	0x81
 7196 00d4 01       		.byte	0x1
 7197 00d5 00       		.byte	0
 7198 00d6 08       		.uleb128 0x8
 7199 00d7 9C010000 		.4byte	.LASF25
 7200 00db 20       		.byte	0x20
 7201 00dc 01       		.byte	0x1
 7202 00dd 1A       		.byte	0x1a
 7203 00de 3F010000 		.4byte	0x13f
 7204 00e2 09       		.uleb128 0x9
 7205 00e3 74030000 		.4byte	.LASF19
 7206 00e7 01       		.byte	0x1
 7207 00e8 1B       		.byte	0x1b
 7208 00e9 AF000000 		.4byte	0xaf
 7209 00ed 00       		.byte	0
 7210 00ee 09       		.uleb128 0x9
 7211 00ef 9E000000 		.4byte	.LASF20
 7212 00f3 01       		.byte	0x1
 7213 00f4 1C       		.byte	0x1c
 7214 00f5 AF000000 		.4byte	0xaf
 7215 00f9 04       		.byte	0x4
 7216 00fa 09       		.uleb128 0x9
 7217 00fb 93020000 		.4byte	.LASF21
 7218 00ff 01       		.byte	0x1
 7219 0100 1D       		.byte	0x1d
 7220 0101 BA000000 		.4byte	0xba
ARM GAS  C:\Users\Logan\AppData\Local\Temp\ccKKo5Vz.s 			page 141


 7221 0105 08       		.byte	0x8
 7222 0106 0A       		.uleb128 0xa
 7223 0107 7800     		.ascii	"x\000"
 7224 0109 01       		.byte	0x1
 7225 010a 1E       		.byte	0x1e
 7226 010b AF000000 		.4byte	0xaf
 7227 010f 0C       		.byte	0xc
 7228 0110 0A       		.uleb128 0xa
 7229 0111 7900     		.ascii	"y\000"
 7230 0113 01       		.byte	0x1
 7231 0114 1F       		.byte	0x1f
 7232 0115 AF000000 		.4byte	0xaf
 7233 0119 10       		.byte	0x10
 7234 011a 09       		.uleb128 0x9
 7235 011b C8020000 		.4byte	.LASF22
 7236 011f 01       		.byte	0x1
 7237 0120 20       		.byte	0x20
 7238 0121 3F010000 		.4byte	0x13f
 7239 0125 14       		.byte	0x14
 7240 0126 09       		.uleb128 0x9
 7241 0127 06000000 		.4byte	.LASF23
 7242 012b 01       		.byte	0x1
 7243 012c 23       		.byte	0x23
 7244 012d BA000000 		.4byte	0xba
 7245 0131 18       		.byte	0x18
 7246 0132 09       		.uleb128 0x9
 7247 0133 7A000000 		.4byte	.LASF24
 7248 0137 01       		.byte	0x1
 7249 0138 24       		.byte	0x24
 7250 0139 AF000000 		.4byte	0xaf
 7251 013d 1C       		.byte	0x1c
 7252 013e 00       		.byte	0
 7253 013f 0B       		.uleb128 0xb
 7254 0140 04       		.byte	0x4
 7255 0141 D6000000 		.4byte	0xd6
 7256 0145 03       		.uleb128 0x3
 7257 0146 9C010000 		.4byte	.LASF25
 7258 014a 01       		.byte	0x1
 7259 014b 25       		.byte	0x25
 7260 014c D6000000 		.4byte	0xd6
 7261 0150 0C       		.uleb128 0xc
 7262 0151 95030000 		.4byte	.LASF44
 7263 0155 01       		.byte	0x1
 7264 0156 30       		.byte	0x30
 7265 0157 AF000000 		.4byte	0xaf
 7266 015b 00000000 		.4byte	.LFB63
 7267 015f 840B0000 		.4byte	.LFE63-.LFB63
 7268 0163 01       		.uleb128 0x1
 7269 0164 9C       		.byte	0x9c
 7270 0165 E0020000 		.4byte	0x2e0
 7271 0169 0D       		.uleb128 0xd
 7272 016a 6D617000 		.ascii	"map\000"
 7273 016e 01       		.byte	0x1
 7274 016f 30       		.byte	0x30
 7275 0170 F0020000 		.4byte	0x2f0
 7276 0174 04       		.uleb128 0x4
 7277 0175 91       		.byte	0x91
ARM GAS  C:\Users\Logan\AppData\Local\Temp\ccKKo5Vz.s 			page 142


 7278 0176 FC857F   		.sleb128 -15620
 7279 0179 0E       		.uleb128 0xe
 7280 017a F7020000 		.4byte	.LASF26
 7281 017e 01       		.byte	0x1
 7282 017f 30       		.byte	0x30
 7283 0180 F6020000 		.4byte	0x2f6
 7284 0184 04       		.uleb128 0x4
 7285 0185 91       		.byte	0x91
 7286 0186 F8857F   		.sleb128 -15624
 7287 0189 0E       		.uleb128 0xe
 7288 018a 74030000 		.4byte	.LASF19
 7289 018e 01       		.byte	0x1
 7290 018f 30       		.byte	0x30
 7291 0190 0C030000 		.4byte	0x30c
 7292 0194 04       		.uleb128 0x4
 7293 0195 91       		.byte	0x91
 7294 0196 F4857F   		.sleb128 -15628
 7295 0199 0E       		.uleb128 0xe
 7296 019a 55020000 		.4byte	.LASF27
 7297 019e 01       		.byte	0x1
 7298 019f 30       		.byte	0x30
 7299 01a0 12030000 		.4byte	0x312
 7300 01a4 04       		.uleb128 0x4
 7301 01a5 91       		.byte	0x91
 7302 01a6 F0857F   		.sleb128 -15632
 7303 01a9 0E       		.uleb128 0xe
 7304 01aa E4020000 		.4byte	.LASF28
 7305 01ae 01       		.byte	0x1
 7306 01af 30       		.byte	0x30
 7307 01b0 12030000 		.4byte	0x312
 7308 01b4 02       		.uleb128 0x2
 7309 01b5 91       		.byte	0x91
 7310 01b6 00       		.sleb128 0
 7311 01b7 0F       		.uleb128 0xf
 7312 01b8 00000000 		.4byte	.LASF29
 7313 01bc 01       		.byte	0x1
 7314 01bd 31       		.byte	0x31
 7315 01be 18030000 		.4byte	0x318
 7316 01c2 04       		.uleb128 0x4
 7317 01c3 91       		.byte	0x91
 7318 01c4 A0B87F   		.sleb128 -9184
 7319 01c7 10       		.uleb128 0x10
 7320 01c8 6900     		.ascii	"i\000"
 7321 01ca 01       		.byte	0x1
 7322 01cb 33       		.byte	0x33
 7323 01cc AF000000 		.4byte	0xaf
 7324 01d0 02       		.uleb128 0x2
 7325 01d1 91       		.byte	0x91
 7326 01d2 6C       		.sleb128 -20
 7327 01d3 0F       		.uleb128 0xf
 7328 01d4 8D030000 		.4byte	.LASF30
 7329 01d8 01       		.byte	0x1
 7330 01d9 44       		.byte	0x44
 7331 01da C6000000 		.4byte	0xc6
 7332 01de 04       		.uleb128 0x4
 7333 01df 91       		.byte	0x91
 7334 01e0 98B87F   		.sleb128 -9192
ARM GAS  C:\Users\Logan\AppData\Local\Temp\ccKKo5Vz.s 			page 143


 7335 01e3 0F       		.uleb128 0xf
 7336 01e4 34000000 		.4byte	.LASF31
 7337 01e8 01       		.byte	0x1
 7338 01e9 48       		.byte	0x48
 7339 01ea AF000000 		.4byte	0xaf
 7340 01ee 02       		.uleb128 0x2
 7341 01ef 91       		.byte	0x91
 7342 01f0 64       		.sleb128 -28
 7343 01f1 0F       		.uleb128 0xf
 7344 01f2 15000000 		.4byte	.LASF32
 7345 01f6 01       		.byte	0x1
 7346 01f7 49       		.byte	0x49
 7347 01f8 2E030000 		.4byte	0x32e
 7348 01fc 04       		.uleb128 0x4
 7349 01fd 91       		.byte	0x91
 7350 01fe 98867F   		.sleb128 -15592
 7351 0201 0F       		.uleb128 0xf
 7352 0202 76010000 		.4byte	.LASF33
 7353 0206 01       		.byte	0x1
 7354 0207 4B       		.byte	0x4b
 7355 0208 C6000000 		.4byte	0xc6
 7356 020c 04       		.uleb128 0x4
 7357 020d 91       		.byte	0x91
 7358 020e 90867F   		.sleb128 -15600
 7359 0211 0F       		.uleb128 0xf
 7360 0212 84010000 		.4byte	.LASF34
 7361 0216 01       		.byte	0x1
 7362 0217 4C       		.byte	0x4c
 7363 0218 AF000000 		.4byte	0xaf
 7364 021c 02       		.uleb128 0x2
 7365 021d 91       		.byte	0x91
 7366 021e 44       		.sleb128 -60
 7367 021f 0F       		.uleb128 0xf
 7368 0220 5B020000 		.4byte	.LASF35
 7369 0224 01       		.byte	0x1
 7370 0225 4D       		.byte	0x4d
 7371 0226 AF000000 		.4byte	0xaf
 7372 022a 02       		.uleb128 0x2
 7373 022b 91       		.byte	0x91
 7374 022c 60       		.sleb128 -32
 7375 022d 0F       		.uleb128 0xf
 7376 022e CD010000 		.4byte	.LASF36
 7377 0232 01       		.byte	0x1
 7378 0233 4E       		.byte	0x4e
 7379 0234 AF000000 		.4byte	0xaf
 7380 0238 02       		.uleb128 0x2
 7381 0239 91       		.byte	0x91
 7382 023a 5C       		.sleb128 -36
 7383 023b 0F       		.uleb128 0xf
 7384 023c 84000000 		.4byte	.LASF37
 7385 0240 01       		.byte	0x1
 7386 0241 4F       		.byte	0x4f
 7387 0242 BA000000 		.4byte	0xba
 7388 0246 02       		.uleb128 0x2
 7389 0247 91       		.byte	0x91
 7390 0248 42       		.sleb128 -62
 7391 0249 0F       		.uleb128 0xf
ARM GAS  C:\Users\Logan\AppData\Local\Temp\ccKKo5Vz.s 			page 144


 7392 024a 3F020000 		.4byte	.LASF38
 7393 024e 01       		.byte	0x1
 7394 024f 50       		.byte	0x50
 7395 0250 C6000000 		.4byte	0xc6
 7396 0254 04       		.uleb128 0x4
 7397 0255 91       		.byte	0x91
 7398 0256 88867F   		.sleb128 -15608
 7399 0259 0F       		.uleb128 0xf
 7400 025a AC030000 		.4byte	.LASF39
 7401 025e 01       		.byte	0x1
 7402 025f 51       		.byte	0x51
 7403 0260 AF000000 		.4byte	0xaf
 7404 0264 02       		.uleb128 0x2
 7405 0265 91       		.byte	0x91
 7406 0266 58       		.sleb128 -40
 7407 0267 0F       		.uleb128 0xf
 7408 0268 BC020000 		.4byte	.LASF40
 7409 026c 01       		.byte	0x1
 7410 026d 52       		.byte	0x52
 7411 026e C6000000 		.4byte	0xc6
 7412 0272 04       		.uleb128 0x4
 7413 0273 91       		.byte	0x91
 7414 0274 80867F   		.sleb128 -15616
 7415 0277 0F       		.uleb128 0xf
 7416 0278 48020000 		.4byte	.LASF41
 7417 027c 01       		.byte	0x1
 7418 027d 53       		.byte	0x53
 7419 027e BA000000 		.4byte	0xba
 7420 0282 02       		.uleb128 0x2
 7421 0283 91       		.byte	0x91
 7422 0284 56       		.sleb128 -42
 7423 0285 0F       		.uleb128 0xf
 7424 0286 72000000 		.4byte	.LASF42
 7425 028a 01       		.byte	0x1
 7426 028b 54       		.byte	0x54
 7427 028c AF000000 		.4byte	0xaf
 7428 0290 02       		.uleb128 0x2
 7429 0291 91       		.byte	0x91
 7430 0292 50       		.sleb128 -48
 7431 0293 11       		.uleb128 0x11
 7432 0294 32000000 		.4byte	.LBB2
 7433 0298 E8010000 		.4byte	.LBE2-.LBB2
 7434 029c AD020000 		.4byte	0x2ad
 7435 02a0 10       		.uleb128 0x10
 7436 02a1 6A00     		.ascii	"j\000"
 7437 02a3 01       		.byte	0x1
 7438 02a4 35       		.byte	0x35
 7439 02a5 AF000000 		.4byte	0xaf
 7440 02a9 02       		.uleb128 0x2
 7441 02aa 91       		.byte	0x91
 7442 02ab 68       		.sleb128 -24
 7443 02ac 00       		.byte	0
 7444 02ad 11       		.uleb128 0x11
 7445 02ae AE030000 		.4byte	.LBB3
 7446 02b2 52050000 		.4byte	.LBE3-.LBB3
 7447 02b6 C7020000 		.4byte	0x2c7
 7448 02ba 10       		.uleb128 0x10
ARM GAS  C:\Users\Logan\AppData\Local\Temp\ccKKo5Vz.s 			page 145


 7449 02bb 6900     		.ascii	"i\000"
 7450 02bd 01       		.byte	0x1
 7451 02be 8E       		.byte	0x8e
 7452 02bf 73000000 		.4byte	0x73
 7453 02c3 02       		.uleb128 0x2
 7454 02c4 91       		.byte	0x91
 7455 02c5 4C       		.sleb128 -52
 7456 02c6 00       		.byte	0
 7457 02c7 12       		.uleb128 0x12
 7458 02c8 84090000 		.4byte	.LBB4
 7459 02cc EE010000 		.4byte	.LBE4-.LBB4
 7460 02d0 0F       		.uleb128 0xf
 7461 02d1 14020000 		.4byte	.LASF43
 7462 02d5 01       		.byte	0x1
 7463 02d6 AB       		.byte	0xab
 7464 02d7 45030000 		.4byte	0x345
 7465 02db 02       		.uleb128 0x2
 7466 02dc 91       		.byte	0x91
 7467 02dd 48       		.sleb128 -56
 7468 02de 00       		.byte	0
 7469 02df 00       		.byte	0
 7470 02e0 06       		.uleb128 0x6
 7471 02e1 AF000000 		.4byte	0xaf
 7472 02e5 F0020000 		.4byte	0x2f0
 7473 02e9 07       		.uleb128 0x7
 7474 02ea 81000000 		.4byte	0x81
 7475 02ee 12       		.byte	0x12
 7476 02ef 00       		.byte	0
 7477 02f0 0B       		.uleb128 0xb
 7478 02f1 04       		.byte	0x4
 7479 02f2 E0020000 		.4byte	0x2e0
 7480 02f6 0B       		.uleb128 0xb
 7481 02f7 04       		.byte	0x4
 7482 02f8 C6000000 		.4byte	0xc6
 7483 02fc 06       		.uleb128 0x6
 7484 02fd AF000000 		.4byte	0xaf
 7485 0301 0C030000 		.4byte	0x30c
 7486 0305 07       		.uleb128 0x7
 7487 0306 81000000 		.4byte	0x81
 7488 030a 02       		.byte	0x2
 7489 030b 00       		.byte	0
 7490 030c 0B       		.uleb128 0xb
 7491 030d 04       		.byte	0x4
 7492 030e FC020000 		.4byte	0x2fc
 7493 0312 0B       		.uleb128 0xb
 7494 0313 04       		.byte	0x4
 7495 0314 AF000000 		.4byte	0xaf
 7496 0318 06       		.uleb128 0x6
 7497 0319 45010000 		.4byte	0x145
 7498 031d 2E030000 		.4byte	0x32e
 7499 0321 07       		.uleb128 0x7
 7500 0322 81000000 		.4byte	0x81
 7501 0326 0E       		.byte	0xe
 7502 0327 07       		.uleb128 0x7
 7503 0328 81000000 		.4byte	0x81
 7504 032c 12       		.byte	0x12
 7505 032d 00       		.byte	0
ARM GAS  C:\Users\Logan\AppData\Local\Temp\ccKKo5Vz.s 			page 146


 7506 032e 06       		.uleb128 0x6
 7507 032f AF000000 		.4byte	0xaf
 7508 0333 45030000 		.4byte	0x345
 7509 0337 13       		.uleb128 0x13
 7510 0338 81000000 		.4byte	0x81
 7511 033c 1F03     		.2byte	0x31f
 7512 033e 07       		.uleb128 0x7
 7513 033f 81000000 		.4byte	0x81
 7514 0343 01       		.byte	0x1
 7515 0344 00       		.byte	0
 7516 0345 0B       		.uleb128 0xb
 7517 0346 04       		.byte	0x4
 7518 0347 45010000 		.4byte	0x145
 7519 034b 0C       		.uleb128 0xc
 7520 034c 74020000 		.4byte	.LASF45
 7521 0350 01       		.byte	0x1
 7522 0351 C2       		.byte	0xc2
 7523 0352 AF000000 		.4byte	0xaf
 7524 0356 00000000 		.4byte	.LFB64
 7525 035a E8090000 		.4byte	.LFE64-.LFB64
 7526 035e 01       		.uleb128 0x1
 7527 035f 9C       		.byte	0x9c
 7528 0360 CE040000 		.4byte	0x4ce
 7529 0364 0D       		.uleb128 0xd
 7530 0365 6D617000 		.ascii	"map\000"
 7531 0369 01       		.byte	0x1
 7532 036a C2       		.byte	0xc2
 7533 036b F0020000 		.4byte	0x2f0
 7534 036f 04       		.uleb128 0x4
 7535 0370 91       		.byte	0x91
 7536 0371 FC857F   		.sleb128 -15620
 7537 0374 0E       		.uleb128 0xe
 7538 0375 F7020000 		.4byte	.LASF26
 7539 0379 01       		.byte	0x1
 7540 037a C2       		.byte	0xc2
 7541 037b F6020000 		.4byte	0x2f6
 7542 037f 04       		.uleb128 0x4
 7543 0380 91       		.byte	0x91
 7544 0381 F8857F   		.sleb128 -15624
 7545 0384 0E       		.uleb128 0xe
 7546 0385 74030000 		.4byte	.LASF19
 7547 0389 01       		.byte	0x1
 7548 038a C2       		.byte	0xc2
 7549 038b 0C030000 		.4byte	0x30c
 7550 038f 04       		.uleb128 0x4
 7551 0390 91       		.byte	0x91
 7552 0391 F4857F   		.sleb128 -15628
 7553 0394 0E       		.uleb128 0xe
 7554 0395 55020000 		.4byte	.LASF27
 7555 0399 01       		.byte	0x1
 7556 039a C2       		.byte	0xc2
 7557 039b 12030000 		.4byte	0x312
 7558 039f 04       		.uleb128 0x4
 7559 03a0 91       		.byte	0x91
 7560 03a1 F0857F   		.sleb128 -15632
 7561 03a4 0E       		.uleb128 0xe
 7562 03a5 E4020000 		.4byte	.LASF28
ARM GAS  C:\Users\Logan\AppData\Local\Temp\ccKKo5Vz.s 			page 147


 7563 03a9 01       		.byte	0x1
 7564 03aa C2       		.byte	0xc2
 7565 03ab 12030000 		.4byte	0x312
 7566 03af 02       		.uleb128 0x2
 7567 03b0 91       		.byte	0x91
 7568 03b1 00       		.sleb128 0
 7569 03b2 0E       		.uleb128 0xe
 7570 03b3 7A000000 		.4byte	.LASF24
 7571 03b7 01       		.byte	0x1
 7572 03b8 C2       		.byte	0xc2
 7573 03b9 AF000000 		.4byte	0xaf
 7574 03bd 02       		.uleb128 0x2
 7575 03be 91       		.byte	0x91
 7576 03bf 04       		.sleb128 4
 7577 03c0 0F       		.uleb128 0xf
 7578 03c1 00000000 		.4byte	.LASF29
 7579 03c5 01       		.byte	0x1
 7580 03c6 C4       		.byte	0xc4
 7581 03c7 18030000 		.4byte	0x318
 7582 03cb 04       		.uleb128 0x4
 7583 03cc 91       		.byte	0x91
 7584 03cd A0B87F   		.sleb128 -9184
 7585 03d0 10       		.uleb128 0x10
 7586 03d1 6900     		.ascii	"i\000"
 7587 03d3 01       		.byte	0x1
 7588 03d4 C6       		.byte	0xc6
 7589 03d5 AF000000 		.4byte	0xaf
 7590 03d9 02       		.uleb128 0x2
 7591 03da 91       		.byte	0x91
 7592 03db 6C       		.sleb128 -20
 7593 03dc 10       		.uleb128 0x10
 7594 03dd 6A00     		.ascii	"j\000"
 7595 03df 01       		.byte	0x1
 7596 03e0 C6       		.byte	0xc6
 7597 03e1 AF000000 		.4byte	0xaf
 7598 03e5 02       		.uleb128 0x2
 7599 03e6 91       		.byte	0x91
 7600 03e7 68       		.sleb128 -24
 7601 03e8 0F       		.uleb128 0xf
 7602 03e9 8D030000 		.4byte	.LASF30
 7603 03ed 01       		.byte	0x1
 7604 03ee D6       		.byte	0xd6
 7605 03ef C6000000 		.4byte	0xc6
 7606 03f3 04       		.uleb128 0x4
 7607 03f4 91       		.byte	0x91
 7608 03f5 98B87F   		.sleb128 -9192
 7609 03f8 0F       		.uleb128 0xf
 7610 03f9 34000000 		.4byte	.LASF31
 7611 03fd 01       		.byte	0x1
 7612 03fe DA       		.byte	0xda
 7613 03ff AF000000 		.4byte	0xaf
 7614 0403 02       		.uleb128 0x2
 7615 0404 91       		.byte	0x91
 7616 0405 64       		.sleb128 -28
 7617 0406 0F       		.uleb128 0xf
 7618 0407 15000000 		.4byte	.LASF32
 7619 040b 01       		.byte	0x1
ARM GAS  C:\Users\Logan\AppData\Local\Temp\ccKKo5Vz.s 			page 148


 7620 040c DB       		.byte	0xdb
 7621 040d 2E030000 		.4byte	0x32e
 7622 0411 04       		.uleb128 0x4
 7623 0412 91       		.byte	0x91
 7624 0413 98867F   		.sleb128 -15592
 7625 0416 0F       		.uleb128 0xf
 7626 0417 76010000 		.4byte	.LASF33
 7627 041b 01       		.byte	0x1
 7628 041c DD       		.byte	0xdd
 7629 041d C6000000 		.4byte	0xc6
 7630 0421 04       		.uleb128 0x4
 7631 0422 91       		.byte	0x91
 7632 0423 90867F   		.sleb128 -15600
 7633 0426 0F       		.uleb128 0xf
 7634 0427 84010000 		.4byte	.LASF34
 7635 042b 01       		.byte	0x1
 7636 042c DE       		.byte	0xde
 7637 042d AF000000 		.4byte	0xaf
 7638 0431 02       		.uleb128 0x2
 7639 0432 91       		.byte	0x91
 7640 0433 44       		.sleb128 -60
 7641 0434 0F       		.uleb128 0xf
 7642 0435 5B020000 		.4byte	.LASF35
 7643 0439 01       		.byte	0x1
 7644 043a DF       		.byte	0xdf
 7645 043b AF000000 		.4byte	0xaf
 7646 043f 02       		.uleb128 0x2
 7647 0440 91       		.byte	0x91
 7648 0441 60       		.sleb128 -32
 7649 0442 0F       		.uleb128 0xf
 7650 0443 CD010000 		.4byte	.LASF36
 7651 0447 01       		.byte	0x1
 7652 0448 E0       		.byte	0xe0
 7653 0449 AF000000 		.4byte	0xaf
 7654 044d 02       		.uleb128 0x2
 7655 044e 91       		.byte	0x91
 7656 044f 5C       		.sleb128 -36
 7657 0450 0F       		.uleb128 0xf
 7658 0451 84000000 		.4byte	.LASF37
 7659 0455 01       		.byte	0x1
 7660 0456 E1       		.byte	0xe1
 7661 0457 BA000000 		.4byte	0xba
 7662 045b 02       		.uleb128 0x2
 7663 045c 91       		.byte	0x91
 7664 045d 42       		.sleb128 -62
 7665 045e 0F       		.uleb128 0xf
 7666 045f 3F020000 		.4byte	.LASF38
 7667 0463 01       		.byte	0x1
 7668 0464 E2       		.byte	0xe2
 7669 0465 C6000000 		.4byte	0xc6
 7670 0469 04       		.uleb128 0x4
 7671 046a 91       		.byte	0x91
 7672 046b 88867F   		.sleb128 -15608
 7673 046e 0F       		.uleb128 0xf
 7674 046f AC030000 		.4byte	.LASF39
 7675 0473 01       		.byte	0x1
 7676 0474 E3       		.byte	0xe3
ARM GAS  C:\Users\Logan\AppData\Local\Temp\ccKKo5Vz.s 			page 149


 7677 0475 AF000000 		.4byte	0xaf
 7678 0479 02       		.uleb128 0x2
 7679 047a 91       		.byte	0x91
 7680 047b 58       		.sleb128 -40
 7681 047c 0F       		.uleb128 0xf
 7682 047d BC020000 		.4byte	.LASF40
 7683 0481 01       		.byte	0x1
 7684 0482 E4       		.byte	0xe4
 7685 0483 C6000000 		.4byte	0xc6
 7686 0487 04       		.uleb128 0x4
 7687 0488 91       		.byte	0x91
 7688 0489 80867F   		.sleb128 -15616
 7689 048c 0F       		.uleb128 0xf
 7690 048d 48020000 		.4byte	.LASF41
 7691 0491 01       		.byte	0x1
 7692 0492 E5       		.byte	0xe5
 7693 0493 AF000000 		.4byte	0xaf
 7694 0497 02       		.uleb128 0x2
 7695 0498 91       		.byte	0x91
 7696 0499 54       		.sleb128 -44
 7697 049a 0F       		.uleb128 0xf
 7698 049b 72000000 		.4byte	.LASF42
 7699 049f 01       		.byte	0x1
 7700 04a0 E6       		.byte	0xe6
 7701 04a1 AF000000 		.4byte	0xaf
 7702 04a5 02       		.uleb128 0x2
 7703 04a6 91       		.byte	0x91
 7704 04a7 50       		.sleb128 -48
 7705 04a8 0F       		.uleb128 0xf
 7706 04a9 40030000 		.4byte	.LASF46
 7707 04ad 01       		.byte	0x1
 7708 04ae EC       		.byte	0xec
 7709 04af 73000000 		.4byte	0x73
 7710 04b3 02       		.uleb128 0x2
 7711 04b4 91       		.byte	0x91
 7712 04b5 4C       		.sleb128 -52
 7713 04b6 12       		.uleb128 0x12
 7714 04b7 BE030000 		.4byte	.LBB5
 7715 04bb 06060000 		.4byte	.LBE5-.LBB5
 7716 04bf 14       		.uleb128 0x14
 7717 04c0 6900     		.ascii	"i\000"
 7718 04c2 01       		.byte	0x1
 7719 04c3 2201     		.2byte	0x122
 7720 04c5 73000000 		.4byte	0x73
 7721 04c9 02       		.uleb128 0x2
 7722 04ca 91       		.byte	0x91
 7723 04cb 48       		.sleb128 -56
 7724 04cc 00       		.byte	0
 7725 04cd 00       		.byte	0
 7726 04ce 15       		.uleb128 0x15
 7727 04cf CC000000 		.4byte	.LASF54
 7728 04d3 01       		.byte	0x1
 7729 04d4 4801     		.2byte	0x148
 7730 04d6 AF000000 		.4byte	0xaf
 7731 04da 00000000 		.4byte	.LFB65
 7732 04de 641F0000 		.4byte	.LFE65-.LFB65
 7733 04e2 01       		.uleb128 0x1
ARM GAS  C:\Users\Logan\AppData\Local\Temp\ccKKo5Vz.s 			page 150


 7734 04e3 9C       		.byte	0x9c
 7735 04e4 96050000 		.4byte	0x596
 7736 04e8 14       		.uleb128 0x14
 7737 04e9 656E6400 		.ascii	"end\000"
 7738 04ed 01       		.byte	0x1
 7739 04ee 4901     		.2byte	0x149
 7740 04f0 73000000 		.4byte	0x73
 7741 04f4 02       		.uleb128 0x2
 7742 04f5 91       		.byte	0x91
 7743 04f6 54       		.sleb128 -44
 7744 04f7 16       		.uleb128 0x16
 7745 04f8 AD010000 		.4byte	.LASF47
 7746 04fc 01       		.byte	0x1
 7747 04fd 5501     		.2byte	0x155
 7748 04ff 73000000 		.4byte	0x73
 7749 0503 02       		.uleb128 0x2
 7750 0504 91       		.byte	0x91
 7751 0505 6C       		.sleb128 -20
 7752 0506 16       		.uleb128 0x16
 7753 0507 CD010000 		.4byte	.LASF36
 7754 050b 01       		.byte	0x1
 7755 050c 5601     		.2byte	0x156
 7756 050e BA000000 		.4byte	0xba
 7757 0512 02       		.uleb128 0x2
 7758 0513 91       		.byte	0x91
 7759 0514 6A       		.sleb128 -22
 7760 0515 16       		.uleb128 0x16
 7761 0516 79030000 		.4byte	.LASF48
 7762 051a 01       		.byte	0x1
 7763 051b 5701     		.2byte	0x157
 7764 051d 73000000 		.4byte	0x73
 7765 0521 02       		.uleb128 0x2
 7766 0522 91       		.byte	0x91
 7767 0523 64       		.sleb128 -28
 7768 0524 16       		.uleb128 0x16
 7769 0525 5A000000 		.4byte	.LASF49
 7770 0529 01       		.byte	0x1
 7771 052a 5801     		.2byte	0x158
 7772 052c 73000000 		.4byte	0x73
 7773 0530 02       		.uleb128 0x2
 7774 0531 91       		.byte	0x91
 7775 0532 60       		.sleb128 -32
 7776 0533 14       		.uleb128 0x14
 7777 0534 6900     		.ascii	"i\000"
 7778 0536 01       		.byte	0x1
 7779 0537 5C01     		.2byte	0x15c
 7780 0539 73000000 		.4byte	0x73
 7781 053d 02       		.uleb128 0x2
 7782 053e 91       		.byte	0x91
 7783 053f 5C       		.sleb128 -36
 7784 0540 12       		.uleb128 0x12
 7785 0541 54020000 		.4byte	.LBB6
 7786 0545 98120000 		.4byte	.LBE6-.LBB6
 7787 0549 16       		.uleb128 0x16
 7788 054a D1020000 		.4byte	.LASF50
 7789 054e 01       		.byte	0x1
 7790 054f 6601     		.2byte	0x166
ARM GAS  C:\Users\Logan\AppData\Local\Temp\ccKKo5Vz.s 			page 151


 7791 0551 96050000 		.4byte	0x596
 7792 0555 04       		.uleb128 0x4
 7793 0556 91       		.byte	0x91
 7794 0557 C0B47F   		.sleb128 -9664
 7795 055a 16       		.uleb128 0x16
 7796 055b 5E030000 		.4byte	.LASF51
 7797 055f 01       		.byte	0x1
 7798 0560 6701     		.2byte	0x167
 7799 0562 C6000000 		.4byte	0xc6
 7800 0566 02       		.uleb128 0x2
 7801 0567 91       		.byte	0x91
 7802 0568 48       		.sleb128 -56
 7803 0569 16       		.uleb128 0x16
 7804 056a 4C030000 		.4byte	.LASF52
 7805 056e 01       		.byte	0x1
 7806 056f 6801     		.2byte	0x168
 7807 0571 C6000000 		.4byte	0xc6
 7808 0575 02       		.uleb128 0x2
 7809 0576 91       		.byte	0x91
 7810 0577 40       		.sleb128 -64
 7811 0578 16       		.uleb128 0x16
 7812 0579 6A020000 		.4byte	.LASF53
 7813 057d 01       		.byte	0x1
 7814 057e 6C01     		.2byte	0x16c
 7815 0580 73000000 		.4byte	0x73
 7816 0584 02       		.uleb128 0x2
 7817 0585 91       		.byte	0x91
 7818 0586 50       		.sleb128 -48
 7819 0587 14       		.uleb128 0x14
 7820 0588 6A00     		.ascii	"j\000"
 7821 058a 01       		.byte	0x1
 7822 058b 7901     		.2byte	0x179
 7823 058d 73000000 		.4byte	0x73
 7824 0591 02       		.uleb128 0x2
 7825 0592 91       		.byte	0x91
 7826 0593 58       		.sleb128 -40
 7827 0594 00       		.byte	0
 7828 0595 00       		.byte	0
 7829 0596 06       		.uleb128 0x6
 7830 0597 AF000000 		.4byte	0xaf
 7831 059b AD050000 		.4byte	0x5ad
 7832 059f 13       		.uleb128 0x13
 7833 05a0 81000000 		.4byte	0x81
 7834 05a4 1F03     		.2byte	0x31f
 7835 05a6 07       		.uleb128 0x7
 7836 05a7 81000000 		.4byte	0x81
 7837 05ab 02       		.byte	0x2
 7838 05ac 00       		.byte	0
 7839 05ad 15       		.uleb128 0x15
 7840 05ae D5010000 		.4byte	.LASF55
 7841 05b2 01       		.byte	0x1
 7842 05b3 3F02     		.2byte	0x23f
 7843 05b5 AF000000 		.4byte	0xaf
 7844 05b9 00000000 		.4byte	.LFB66
 7845 05bd 20090000 		.4byte	.LFE66-.LFB66
 7846 05c1 01       		.uleb128 0x1
 7847 05c2 9C       		.byte	0x9c
ARM GAS  C:\Users\Logan\AppData\Local\Temp\ccKKo5Vz.s 			page 152


 7848 05c3 2B060000 		.4byte	0x62b
 7849 05c7 16       		.uleb128 0x16
 7850 05c8 CD010000 		.4byte	.LASF36
 7851 05cc 01       		.byte	0x1
 7852 05cd 4002     		.2byte	0x240
 7853 05cf AF000000 		.4byte	0xaf
 7854 05d3 02       		.uleb128 0x2
 7855 05d4 91       		.byte	0x91
 7856 05d5 6C       		.sleb128 -20
 7857 05d6 16       		.uleb128 0x16
 7858 05d7 AD010000 		.4byte	.LASF47
 7859 05db 01       		.byte	0x1
 7860 05dc 4102     		.2byte	0x241
 7861 05de AF000000 		.4byte	0xaf
 7862 05e2 02       		.uleb128 0x2
 7863 05e3 91       		.byte	0x91
 7864 05e4 68       		.sleb128 -24
 7865 05e5 16       		.uleb128 0x16
 7866 05e6 8C000000 		.4byte	.LASF56
 7867 05ea 01       		.byte	0x1
 7868 05eb 4202     		.2byte	0x242
 7869 05ed 73000000 		.4byte	0x73
 7870 05f1 02       		.uleb128 0x2
 7871 05f2 91       		.byte	0x91
 7872 05f3 64       		.sleb128 -28
 7873 05f4 12       		.uleb128 0x12
 7874 05f5 1C000000 		.4byte	.LBB7
 7875 05f9 D2080000 		.4byte	.LBE7-.LBB7
 7876 05fd 16       		.uleb128 0x16
 7877 05fe DC020000 		.4byte	.LASF57
 7878 0602 01       		.byte	0x1
 7879 0603 5E02     		.2byte	0x25e
 7880 0605 2B060000 		.4byte	0x62b
 7881 0609 03       		.uleb128 0x3
 7882 060a 91       		.byte	0x91
 7883 060b DC7E     		.sleb128 -164
 7884 060d 14       		.uleb128 0x14
 7885 060e 656E6400 		.ascii	"end\000"
 7886 0612 01       		.byte	0x1
 7887 0613 6202     		.2byte	0x262
 7888 0615 73000000 		.4byte	0x73
 7889 0619 02       		.uleb128 0x2
 7890 061a 91       		.byte	0x91
 7891 061b 5C       		.sleb128 -36
 7892 061c 14       		.uleb128 0x14
 7893 061d 6900     		.ascii	"i\000"
 7894 061f 01       		.byte	0x1
 7895 0620 6402     		.2byte	0x264
 7896 0622 73000000 		.4byte	0x73
 7897 0626 02       		.uleb128 0x2
 7898 0627 91       		.byte	0x91
 7899 0628 60       		.sleb128 -32
 7900 0629 00       		.byte	0
 7901 062a 00       		.byte	0
 7902 062b 06       		.uleb128 0x6
 7903 062c 88000000 		.4byte	0x88
 7904 0630 3B060000 		.4byte	0x63b
ARM GAS  C:\Users\Logan\AppData\Local\Temp\ccKKo5Vz.s 			page 153


 7905 0634 07       		.uleb128 0x7
 7906 0635 81000000 		.4byte	0x81
 7907 0639 7F       		.byte	0x7f
 7908 063a 00       		.byte	0
 7909 063b 17       		.uleb128 0x17
 7910 063c 9F030000 		.4byte	.LASF58
 7911 0640 05       		.byte	0x5
 7912 0641 9606     		.2byte	0x696
 7913 0643 47060000 		.4byte	0x647
 7914 0647 18       		.uleb128 0x18
 7915 0648 A4000000 		.4byte	0xa4
 7916 064c 06       		.uleb128 0x6
 7917 064d AF000000 		.4byte	0xaf
 7918 0651 62060000 		.4byte	0x662
 7919 0655 07       		.uleb128 0x7
 7920 0656 81000000 		.4byte	0x81
 7921 065a 0E       		.byte	0xe
 7922 065b 07       		.uleb128 0x7
 7923 065c 81000000 		.4byte	0x81
 7924 0660 12       		.byte	0x12
 7925 0661 00       		.byte	0
 7926 0662 19       		.uleb128 0x19
 7927 0663 6D617000 		.ascii	"map\000"
 7928 0667 06       		.byte	0x6
 7929 0668 1B       		.byte	0x1b
 7930 0669 4C060000 		.4byte	0x64c
 7931 066d 06       		.uleb128 0x6
 7932 066e AF000000 		.4byte	0xaf
 7933 0672 83060000 		.4byte	0x683
 7934 0676 07       		.uleb128 0x7
 7935 0677 81000000 		.4byte	0x81
 7936 067b 05       		.byte	0x5
 7937 067c 07       		.uleb128 0x7
 7938 067d 81000000 		.4byte	0x81
 7939 0681 01       		.byte	0x1
 7940 0682 00       		.byte	0
 7941 0683 1A       		.uleb128 0x1a
 7942 0684 F7020000 		.4byte	.LASF26
 7943 0688 06       		.byte	0x6
 7944 0689 1D       		.byte	0x1d
 7945 068a 6D060000 		.4byte	0x66d
 7946 068e 1A       		.uleb128 0x1a
 7947 068f 74030000 		.4byte	.LASF19
 7948 0693 06       		.byte	0x6
 7949 0694 1E       		.byte	0x1e
 7950 0695 96050000 		.4byte	0x596
 7951 0699 1A       		.uleb128 0x1a
 7952 069a 55020000 		.4byte	.LASF27
 7953 069e 06       		.byte	0x6
 7954 069f 1F       		.byte	0x1f
 7955 06a0 C6000000 		.4byte	0xc6
 7956 06a4 1A       		.uleb128 0x1a
 7957 06a5 E4020000 		.4byte	.LASF28
 7958 06a9 06       		.byte	0x6
 7959 06aa 20       		.byte	0x20
 7960 06ab C6000000 		.4byte	0xc6
 7961 06af 1A       		.uleb128 0x1a
ARM GAS  C:\Users\Logan\AppData\Local\Temp\ccKKo5Vz.s 			page 154


 7962 06b0 4A000000 		.4byte	.LASF59
 7963 06b4 06       		.byte	0x6
 7964 06b5 21       		.byte	0x21
 7965 06b6 AF000000 		.4byte	0xaf
 7966 06ba 1B       		.uleb128 0x1b
 7967 06bb BA000000 		.4byte	.LASF60
 7968 06bf 06       		.byte	0x6
 7969 06c0 22       		.byte	0x22
 7970 06c1 AF000000 		.4byte	0xaf
 7971 06c5 05       		.uleb128 0x5
 7972 06c6 03       		.byte	0x3
 7973 06c7 00000000 		.4byte	tracked_direction
 7974 06cb 1A       		.uleb128 0x1a
 7975 06cc 90010000 		.4byte	.LASF61
 7976 06d0 06       		.byte	0x6
 7977 06d1 23       		.byte	0x23
 7978 06d2 AF000000 		.4byte	0xaf
 7979 06d6 06       		.uleb128 0x6
 7980 06d7 88000000 		.4byte	0x88
 7981 06db E7060000 		.4byte	0x6e7
 7982 06df 13       		.uleb128 0x13
 7983 06e0 81000000 		.4byte	0x81
 7984 06e4 1F03     		.2byte	0x31f
 7985 06e6 00       		.byte	0
 7986 06e7 1A       		.uleb128 0x1a
 7987 06e8 BA030000 		.4byte	.LASF62
 7988 06ec 06       		.byte	0x6
 7989 06ed 24       		.byte	0x24
 7990 06ee D6060000 		.4byte	0x6d6
 7991 06f2 00       		.byte	0
 7992              		.section	.debug_abbrev,"",%progbits
 7993              	.Ldebug_abbrev0:
 7994 0000 01       		.uleb128 0x1
 7995 0001 11       		.uleb128 0x11
 7996 0002 01       		.byte	0x1
 7997 0003 25       		.uleb128 0x25
 7998 0004 0E       		.uleb128 0xe
 7999 0005 13       		.uleb128 0x13
 8000 0006 0B       		.uleb128 0xb
 8001 0007 03       		.uleb128 0x3
 8002 0008 0E       		.uleb128 0xe
 8003 0009 1B       		.uleb128 0x1b
 8004 000a 0E       		.uleb128 0xe
 8005 000b 55       		.uleb128 0x55
 8006 000c 17       		.uleb128 0x17
 8007 000d 11       		.uleb128 0x11
 8008 000e 01       		.uleb128 0x1
 8009 000f 10       		.uleb128 0x10
 8010 0010 17       		.uleb128 0x17
 8011 0011 00       		.byte	0
 8012 0012 00       		.byte	0
 8013 0013 02       		.uleb128 0x2
 8014 0014 24       		.uleb128 0x24
 8015 0015 00       		.byte	0
 8016 0016 0B       		.uleb128 0xb
 8017 0017 0B       		.uleb128 0xb
 8018 0018 3E       		.uleb128 0x3e
ARM GAS  C:\Users\Logan\AppData\Local\Temp\ccKKo5Vz.s 			page 155


 8019 0019 0B       		.uleb128 0xb
 8020 001a 03       		.uleb128 0x3
 8021 001b 0E       		.uleb128 0xe
 8022 001c 00       		.byte	0
 8023 001d 00       		.byte	0
 8024 001e 03       		.uleb128 0x3
 8025 001f 16       		.uleb128 0x16
 8026 0020 00       		.byte	0
 8027 0021 03       		.uleb128 0x3
 8028 0022 0E       		.uleb128 0xe
 8029 0023 3A       		.uleb128 0x3a
 8030 0024 0B       		.uleb128 0xb
 8031 0025 3B       		.uleb128 0x3b
 8032 0026 0B       		.uleb128 0xb
 8033 0027 49       		.uleb128 0x49
 8034 0028 13       		.uleb128 0x13
 8035 0029 00       		.byte	0
 8036 002a 00       		.byte	0
 8037 002b 04       		.uleb128 0x4
 8038 002c 24       		.uleb128 0x24
 8039 002d 00       		.byte	0
 8040 002e 0B       		.uleb128 0xb
 8041 002f 0B       		.uleb128 0xb
 8042 0030 3E       		.uleb128 0x3e
 8043 0031 0B       		.uleb128 0xb
 8044 0032 03       		.uleb128 0x3
 8045 0033 08       		.uleb128 0x8
 8046 0034 00       		.byte	0
 8047 0035 00       		.byte	0
 8048 0036 05       		.uleb128 0x5
 8049 0037 16       		.uleb128 0x16
 8050 0038 00       		.byte	0
 8051 0039 03       		.uleb128 0x3
 8052 003a 0E       		.uleb128 0xe
 8053 003b 3A       		.uleb128 0x3a
 8054 003c 0B       		.uleb128 0xb
 8055 003d 3B       		.uleb128 0x3b
 8056 003e 05       		.uleb128 0x5
 8057 003f 49       		.uleb128 0x49
 8058 0040 13       		.uleb128 0x13
 8059 0041 00       		.byte	0
 8060 0042 00       		.byte	0
 8061 0043 06       		.uleb128 0x6
 8062 0044 01       		.uleb128 0x1
 8063 0045 01       		.byte	0x1
 8064 0046 49       		.uleb128 0x49
 8065 0047 13       		.uleb128 0x13
 8066 0048 01       		.uleb128 0x1
 8067 0049 13       		.uleb128 0x13
 8068 004a 00       		.byte	0
 8069 004b 00       		.byte	0
 8070 004c 07       		.uleb128 0x7
 8071 004d 21       		.uleb128 0x21
 8072 004e 00       		.byte	0
 8073 004f 49       		.uleb128 0x49
 8074 0050 13       		.uleb128 0x13
 8075 0051 2F       		.uleb128 0x2f
ARM GAS  C:\Users\Logan\AppData\Local\Temp\ccKKo5Vz.s 			page 156


 8076 0052 0B       		.uleb128 0xb
 8077 0053 00       		.byte	0
 8078 0054 00       		.byte	0
 8079 0055 08       		.uleb128 0x8
 8080 0056 13       		.uleb128 0x13
 8081 0057 01       		.byte	0x1
 8082 0058 03       		.uleb128 0x3
 8083 0059 0E       		.uleb128 0xe
 8084 005a 0B       		.uleb128 0xb
 8085 005b 0B       		.uleb128 0xb
 8086 005c 3A       		.uleb128 0x3a
 8087 005d 0B       		.uleb128 0xb
 8088 005e 3B       		.uleb128 0x3b
 8089 005f 0B       		.uleb128 0xb
 8090 0060 01       		.uleb128 0x1
 8091 0061 13       		.uleb128 0x13
 8092 0062 00       		.byte	0
 8093 0063 00       		.byte	0
 8094 0064 09       		.uleb128 0x9
 8095 0065 0D       		.uleb128 0xd
 8096 0066 00       		.byte	0
 8097 0067 03       		.uleb128 0x3
 8098 0068 0E       		.uleb128 0xe
 8099 0069 3A       		.uleb128 0x3a
 8100 006a 0B       		.uleb128 0xb
 8101 006b 3B       		.uleb128 0x3b
 8102 006c 0B       		.uleb128 0xb
 8103 006d 49       		.uleb128 0x49
 8104 006e 13       		.uleb128 0x13
 8105 006f 38       		.uleb128 0x38
 8106 0070 0B       		.uleb128 0xb
 8107 0071 00       		.byte	0
 8108 0072 00       		.byte	0
 8109 0073 0A       		.uleb128 0xa
 8110 0074 0D       		.uleb128 0xd
 8111 0075 00       		.byte	0
 8112 0076 03       		.uleb128 0x3
 8113 0077 08       		.uleb128 0x8
 8114 0078 3A       		.uleb128 0x3a
 8115 0079 0B       		.uleb128 0xb
 8116 007a 3B       		.uleb128 0x3b
 8117 007b 0B       		.uleb128 0xb
 8118 007c 49       		.uleb128 0x49
 8119 007d 13       		.uleb128 0x13
 8120 007e 38       		.uleb128 0x38
 8121 007f 0B       		.uleb128 0xb
 8122 0080 00       		.byte	0
 8123 0081 00       		.byte	0
 8124 0082 0B       		.uleb128 0xb
 8125 0083 0F       		.uleb128 0xf
 8126 0084 00       		.byte	0
 8127 0085 0B       		.uleb128 0xb
 8128 0086 0B       		.uleb128 0xb
 8129 0087 49       		.uleb128 0x49
 8130 0088 13       		.uleb128 0x13
 8131 0089 00       		.byte	0
 8132 008a 00       		.byte	0
ARM GAS  C:\Users\Logan\AppData\Local\Temp\ccKKo5Vz.s 			page 157


 8133 008b 0C       		.uleb128 0xc
 8134 008c 2E       		.uleb128 0x2e
 8135 008d 01       		.byte	0x1
 8136 008e 3F       		.uleb128 0x3f
 8137 008f 19       		.uleb128 0x19
 8138 0090 03       		.uleb128 0x3
 8139 0091 0E       		.uleb128 0xe
 8140 0092 3A       		.uleb128 0x3a
 8141 0093 0B       		.uleb128 0xb
 8142 0094 3B       		.uleb128 0x3b
 8143 0095 0B       		.uleb128 0xb
 8144 0096 27       		.uleb128 0x27
 8145 0097 19       		.uleb128 0x19
 8146 0098 49       		.uleb128 0x49
 8147 0099 13       		.uleb128 0x13
 8148 009a 11       		.uleb128 0x11
 8149 009b 01       		.uleb128 0x1
 8150 009c 12       		.uleb128 0x12
 8151 009d 06       		.uleb128 0x6
 8152 009e 40       		.uleb128 0x40
 8153 009f 18       		.uleb128 0x18
 8154 00a0 9642     		.uleb128 0x2116
 8155 00a2 19       		.uleb128 0x19
 8156 00a3 01       		.uleb128 0x1
 8157 00a4 13       		.uleb128 0x13
 8158 00a5 00       		.byte	0
 8159 00a6 00       		.byte	0
 8160 00a7 0D       		.uleb128 0xd
 8161 00a8 05       		.uleb128 0x5
 8162 00a9 00       		.byte	0
 8163 00aa 03       		.uleb128 0x3
 8164 00ab 08       		.uleb128 0x8
 8165 00ac 3A       		.uleb128 0x3a
 8166 00ad 0B       		.uleb128 0xb
 8167 00ae 3B       		.uleb128 0x3b
 8168 00af 0B       		.uleb128 0xb
 8169 00b0 49       		.uleb128 0x49
 8170 00b1 13       		.uleb128 0x13
 8171 00b2 02       		.uleb128 0x2
 8172 00b3 18       		.uleb128 0x18
 8173 00b4 00       		.byte	0
 8174 00b5 00       		.byte	0
 8175 00b6 0E       		.uleb128 0xe
 8176 00b7 05       		.uleb128 0x5
 8177 00b8 00       		.byte	0
 8178 00b9 03       		.uleb128 0x3
 8179 00ba 0E       		.uleb128 0xe
 8180 00bb 3A       		.uleb128 0x3a
 8181 00bc 0B       		.uleb128 0xb
 8182 00bd 3B       		.uleb128 0x3b
 8183 00be 0B       		.uleb128 0xb
 8184 00bf 49       		.uleb128 0x49
 8185 00c0 13       		.uleb128 0x13
 8186 00c1 02       		.uleb128 0x2
 8187 00c2 18       		.uleb128 0x18
 8188 00c3 00       		.byte	0
 8189 00c4 00       		.byte	0
ARM GAS  C:\Users\Logan\AppData\Local\Temp\ccKKo5Vz.s 			page 158


 8190 00c5 0F       		.uleb128 0xf
 8191 00c6 34       		.uleb128 0x34
 8192 00c7 00       		.byte	0
 8193 00c8 03       		.uleb128 0x3
 8194 00c9 0E       		.uleb128 0xe
 8195 00ca 3A       		.uleb128 0x3a
 8196 00cb 0B       		.uleb128 0xb
 8197 00cc 3B       		.uleb128 0x3b
 8198 00cd 0B       		.uleb128 0xb
 8199 00ce 49       		.uleb128 0x49
 8200 00cf 13       		.uleb128 0x13
 8201 00d0 02       		.uleb128 0x2
 8202 00d1 18       		.uleb128 0x18
 8203 00d2 00       		.byte	0
 8204 00d3 00       		.byte	0
 8205 00d4 10       		.uleb128 0x10
 8206 00d5 34       		.uleb128 0x34
 8207 00d6 00       		.byte	0
 8208 00d7 03       		.uleb128 0x3
 8209 00d8 08       		.uleb128 0x8
 8210 00d9 3A       		.uleb128 0x3a
 8211 00da 0B       		.uleb128 0xb
 8212 00db 3B       		.uleb128 0x3b
 8213 00dc 0B       		.uleb128 0xb
 8214 00dd 49       		.uleb128 0x49
 8215 00de 13       		.uleb128 0x13
 8216 00df 02       		.uleb128 0x2
 8217 00e0 18       		.uleb128 0x18
 8218 00e1 00       		.byte	0
 8219 00e2 00       		.byte	0
 8220 00e3 11       		.uleb128 0x11
 8221 00e4 0B       		.uleb128 0xb
 8222 00e5 01       		.byte	0x1
 8223 00e6 11       		.uleb128 0x11
 8224 00e7 01       		.uleb128 0x1
 8225 00e8 12       		.uleb128 0x12
 8226 00e9 06       		.uleb128 0x6
 8227 00ea 01       		.uleb128 0x1
 8228 00eb 13       		.uleb128 0x13
 8229 00ec 00       		.byte	0
 8230 00ed 00       		.byte	0
 8231 00ee 12       		.uleb128 0x12
 8232 00ef 0B       		.uleb128 0xb
 8233 00f0 01       		.byte	0x1
 8234 00f1 11       		.uleb128 0x11
 8235 00f2 01       		.uleb128 0x1
 8236 00f3 12       		.uleb128 0x12
 8237 00f4 06       		.uleb128 0x6
 8238 00f5 00       		.byte	0
 8239 00f6 00       		.byte	0
 8240 00f7 13       		.uleb128 0x13
 8241 00f8 21       		.uleb128 0x21
 8242 00f9 00       		.byte	0
 8243 00fa 49       		.uleb128 0x49
 8244 00fb 13       		.uleb128 0x13
 8245 00fc 2F       		.uleb128 0x2f
 8246 00fd 05       		.uleb128 0x5
ARM GAS  C:\Users\Logan\AppData\Local\Temp\ccKKo5Vz.s 			page 159


 8247 00fe 00       		.byte	0
 8248 00ff 00       		.byte	0
 8249 0100 14       		.uleb128 0x14
 8250 0101 34       		.uleb128 0x34
 8251 0102 00       		.byte	0
 8252 0103 03       		.uleb128 0x3
 8253 0104 08       		.uleb128 0x8
 8254 0105 3A       		.uleb128 0x3a
 8255 0106 0B       		.uleb128 0xb
 8256 0107 3B       		.uleb128 0x3b
 8257 0108 05       		.uleb128 0x5
 8258 0109 49       		.uleb128 0x49
 8259 010a 13       		.uleb128 0x13
 8260 010b 02       		.uleb128 0x2
 8261 010c 18       		.uleb128 0x18
 8262 010d 00       		.byte	0
 8263 010e 00       		.byte	0
 8264 010f 15       		.uleb128 0x15
 8265 0110 2E       		.uleb128 0x2e
 8266 0111 01       		.byte	0x1
 8267 0112 3F       		.uleb128 0x3f
 8268 0113 19       		.uleb128 0x19
 8269 0114 03       		.uleb128 0x3
 8270 0115 0E       		.uleb128 0xe
 8271 0116 3A       		.uleb128 0x3a
 8272 0117 0B       		.uleb128 0xb
 8273 0118 3B       		.uleb128 0x3b
 8274 0119 05       		.uleb128 0x5
 8275 011a 49       		.uleb128 0x49
 8276 011b 13       		.uleb128 0x13
 8277 011c 11       		.uleb128 0x11
 8278 011d 01       		.uleb128 0x1
 8279 011e 12       		.uleb128 0x12
 8280 011f 06       		.uleb128 0x6
 8281 0120 40       		.uleb128 0x40
 8282 0121 18       		.uleb128 0x18
 8283 0122 9642     		.uleb128 0x2116
 8284 0124 19       		.uleb128 0x19
 8285 0125 01       		.uleb128 0x1
 8286 0126 13       		.uleb128 0x13
 8287 0127 00       		.byte	0
 8288 0128 00       		.byte	0
 8289 0129 16       		.uleb128 0x16
 8290 012a 34       		.uleb128 0x34
 8291 012b 00       		.byte	0
 8292 012c 03       		.uleb128 0x3
 8293 012d 0E       		.uleb128 0xe
 8294 012e 3A       		.uleb128 0x3a
 8295 012f 0B       		.uleb128 0xb
 8296 0130 3B       		.uleb128 0x3b
 8297 0131 05       		.uleb128 0x5
 8298 0132 49       		.uleb128 0x49
 8299 0133 13       		.uleb128 0x13
 8300 0134 02       		.uleb128 0x2
 8301 0135 18       		.uleb128 0x18
 8302 0136 00       		.byte	0
 8303 0137 00       		.byte	0
ARM GAS  C:\Users\Logan\AppData\Local\Temp\ccKKo5Vz.s 			page 160


 8304 0138 17       		.uleb128 0x17
 8305 0139 34       		.uleb128 0x34
 8306 013a 00       		.byte	0
 8307 013b 03       		.uleb128 0x3
 8308 013c 0E       		.uleb128 0xe
 8309 013d 3A       		.uleb128 0x3a
 8310 013e 0B       		.uleb128 0xb
 8311 013f 3B       		.uleb128 0x3b
 8312 0140 05       		.uleb128 0x5
 8313 0141 49       		.uleb128 0x49
 8314 0142 13       		.uleb128 0x13
 8315 0143 3F       		.uleb128 0x3f
 8316 0144 19       		.uleb128 0x19
 8317 0145 3C       		.uleb128 0x3c
 8318 0146 19       		.uleb128 0x19
 8319 0147 00       		.byte	0
 8320 0148 00       		.byte	0
 8321 0149 18       		.uleb128 0x18
 8322 014a 35       		.uleb128 0x35
 8323 014b 00       		.byte	0
 8324 014c 49       		.uleb128 0x49
 8325 014d 13       		.uleb128 0x13
 8326 014e 00       		.byte	0
 8327 014f 00       		.byte	0
 8328 0150 19       		.uleb128 0x19
 8329 0151 34       		.uleb128 0x34
 8330 0152 00       		.byte	0
 8331 0153 03       		.uleb128 0x3
 8332 0154 08       		.uleb128 0x8
 8333 0155 3A       		.uleb128 0x3a
 8334 0156 0B       		.uleb128 0xb
 8335 0157 3B       		.uleb128 0x3b
 8336 0158 0B       		.uleb128 0xb
 8337 0159 49       		.uleb128 0x49
 8338 015a 13       		.uleb128 0x13
 8339 015b 3F       		.uleb128 0x3f
 8340 015c 19       		.uleb128 0x19
 8341 015d 3C       		.uleb128 0x3c
 8342 015e 19       		.uleb128 0x19
 8343 015f 00       		.byte	0
 8344 0160 00       		.byte	0
 8345 0161 1A       		.uleb128 0x1a
 8346 0162 34       		.uleb128 0x34
 8347 0163 00       		.byte	0
 8348 0164 03       		.uleb128 0x3
 8349 0165 0E       		.uleb128 0xe
 8350 0166 3A       		.uleb128 0x3a
 8351 0167 0B       		.uleb128 0xb
 8352 0168 3B       		.uleb128 0x3b
 8353 0169 0B       		.uleb128 0xb
 8354 016a 49       		.uleb128 0x49
 8355 016b 13       		.uleb128 0x13
 8356 016c 3F       		.uleb128 0x3f
 8357 016d 19       		.uleb128 0x19
 8358 016e 3C       		.uleb128 0x3c
 8359 016f 19       		.uleb128 0x19
 8360 0170 00       		.byte	0
ARM GAS  C:\Users\Logan\AppData\Local\Temp\ccKKo5Vz.s 			page 161


 8361 0171 00       		.byte	0
 8362 0172 1B       		.uleb128 0x1b
 8363 0173 34       		.uleb128 0x34
 8364 0174 00       		.byte	0
 8365 0175 03       		.uleb128 0x3
 8366 0176 0E       		.uleb128 0xe
 8367 0177 3A       		.uleb128 0x3a
 8368 0178 0B       		.uleb128 0xb
 8369 0179 3B       		.uleb128 0x3b
 8370 017a 0B       		.uleb128 0xb
 8371 017b 49       		.uleb128 0x49
 8372 017c 13       		.uleb128 0x13
 8373 017d 3F       		.uleb128 0x3f
 8374 017e 19       		.uleb128 0x19
 8375 017f 02       		.uleb128 0x2
 8376 0180 18       		.uleb128 0x18
 8377 0181 00       		.byte	0
 8378 0182 00       		.byte	0
 8379 0183 00       		.byte	0
 8380              		.section	.debug_aranges,"",%progbits
 8381 0000 34000000 		.4byte	0x34
 8382 0004 0200     		.2byte	0x2
 8383 0006 00000000 		.4byte	.Ldebug_info0
 8384 000a 04       		.byte	0x4
 8385 000b 00       		.byte	0
 8386 000c 0000     		.2byte	0
 8387 000e 0000     		.2byte	0
 8388 0010 00000000 		.4byte	.LFB63
 8389 0014 840B0000 		.4byte	.LFE63-.LFB63
 8390 0018 00000000 		.4byte	.LFB64
 8391 001c E8090000 		.4byte	.LFE64-.LFB64
 8392 0020 00000000 		.4byte	.LFB65
 8393 0024 641F0000 		.4byte	.LFE65-.LFB65
 8394 0028 00000000 		.4byte	.LFB66
 8395 002c 20090000 		.4byte	.LFE66-.LFB66
 8396 0030 00000000 		.4byte	0
 8397 0034 00000000 		.4byte	0
 8398              		.section	.debug_ranges,"",%progbits
 8399              	.Ldebug_ranges0:
 8400 0000 00000000 		.4byte	.LFB63
 8401 0004 840B0000 		.4byte	.LFE63
 8402 0008 00000000 		.4byte	.LFB64
 8403 000c E8090000 		.4byte	.LFE64
 8404 0010 00000000 		.4byte	.LFB65
 8405 0014 641F0000 		.4byte	.LFE65
 8406 0018 00000000 		.4byte	.LFB66
 8407 001c 20090000 		.4byte	.LFE66
 8408 0020 00000000 		.4byte	0
 8409 0024 00000000 		.4byte	0
 8410              		.section	.debug_line,"",%progbits
 8411              	.Ldebug_line0:
 8412 0000 5A080000 		.section	.debug_str,"MS",%progbits,1
 8412      02006101 
 8412      00000201 
 8412      FB0E0D00 
 8412      01010101 
 8413              	.LASF29:
ARM GAS  C:\Users\Logan\AppData\Local\Temp\ccKKo5Vz.s 			page 162


 8414 0000 4E6F6465 		.ascii	"Nodes\000"
 8414      7300
 8415              	.LASF23:
 8416 0006 74656E74 		.ascii	"tentative_cost\000"
 8416      61746976 
 8416      655F636F 
 8416      737400
 8417              	.LASF32:
 8418 0015 6E657874 		.ascii	"nextNodes\000"
 8418      4E6F6465 
 8418      7300
 8419              	.LASF6:
 8420 001f 5F5F7569 		.ascii	"__uint32_t\000"
 8420      6E743332 
 8420      5F7400
 8421              	.LASF2:
 8422 002a 73686F72 		.ascii	"short int\000"
 8422      7420696E 
 8422      7400
 8423              	.LASF31:
 8424 0034 746F7461 		.ascii	"totalIterationCounter\000"
 8424      6C497465 
 8424      72617469 
 8424      6F6E436F 
 8424      756E7465 
 8425              	.LASF59:
 8426 004a 726F626F 		.ascii	"robot_direction\000"
 8426      745F6469 
 8426      72656374 
 8426      696F6E00 
 8427              	.LASF49:
 8428 005a 696E7465 		.ascii	"inter_prev_intersection\000"
 8428      725F7072 
 8428      65765F69 
 8428      6E746572 
 8428      73656374 
 8429              	.LASF42:
 8430 0072 6861734E 		.ascii	"hasNext\000"
 8430      65787400 
 8431              	.LASF24:
 8432 007a 64697265 		.ascii	"direction\000"
 8432      6374696F 
 8432      6E00
 8433              	.LASF37:
 8434 0084 746D7043 		.ascii	"tmpCost\000"
 8434      6F737400 
 8435              	.LASF56:
 8436 008c 666F6F64 		.ascii	"food_count\000"
 8436      5F636F75 
 8436      6E7400
 8437              	.LASF18:
 8438 0097 75696E74 		.ascii	"uint16\000"
 8438      313600
 8439              	.LASF20:
 8440 009e 76697369 		.ascii	"visited\000"
 8440      74656400 
 8441              	.LASF14:
ARM GAS  C:\Users\Logan\AppData\Local\Temp\ccKKo5Vz.s 			page 163


 8442 00a6 666C6F61 		.ascii	"float\000"
 8442      7400
 8443              	.LASF8:
 8444 00ac 6C6F6E67 		.ascii	"long long int\000"
 8444      206C6F6E 
 8444      6720696E 
 8444      7400
 8445              	.LASF60:
 8446 00ba 74726163 		.ascii	"tracked_direction\000"
 8446      6B65645F 
 8446      64697265 
 8446      6374696F 
 8446      6E00
 8447              	.LASF54:
 8448 00cc 67656E65 		.ascii	"generateEntireMapDirections\000"
 8448      72617465 
 8448      456E7469 
 8448      72654D61 
 8448      70446972 
 8449              	.LASF63:
 8450 00e8 474E5520 		.ascii	"GNU C 4.9.3 20150303 (release) [ARM/embedded-4_9-br"
 8450      4320342E 
 8450      392E3320 
 8450      32303135 
 8450      30333033 
 8451 011b 616E6368 		.ascii	"anch revision 221220] -mcpu=cortex-m3 -mthumb -g -O"
 8451      20726576 
 8451      6973696F 
 8451      6E203232 
 8451      31323230 
 8452 014e 30202D66 		.ascii	"0 -ffunction-sections -ffat-lto-objects\000"
 8452      66756E63 
 8452      74696F6E 
 8452      2D736563 
 8452      74696F6E 
 8453              	.LASF33:
 8454 0176 74656E74 		.ascii	"tentativeNode\000"
 8454      61746976 
 8454      654E6F64 
 8454      6500
 8455              	.LASF34:
 8456 0184 756E7265 		.ascii	"unreachable\000"
 8456      61636861 
 8456      626C6500 
 8457              	.LASF61:
 8458 0190 666F6F64 		.ascii	"food_length\000"
 8458      5F6C656E 
 8458      67746800 
 8459              	.LASF25:
 8460 019c 6E6F6465 		.ascii	"node\000"
 8460      00
 8461              	.LASF15:
 8462 01a1 6C6F6E67 		.ascii	"long double\000"
 8462      20646F75 
 8462      626C6500 
 8463              	.LASF47:
 8464 01ad 70726576 		.ascii	"prev_intersection\000"
ARM GAS  C:\Users\Logan\AppData\Local\Temp\ccKKo5Vz.s 			page 164


 8464      5F696E74 
 8464      65727365 
 8464      6374696F 
 8464      6E00
 8465              	.LASF1:
 8466 01bf 756E7369 		.ascii	"unsigned char\000"
 8466      676E6564 
 8466      20636861 
 8466      7200
 8467              	.LASF36:
 8468 01cd 636F756E 		.ascii	"counter\000"
 8468      74657200 
 8469              	.LASF55:
 8470 01d5 67656E65 		.ascii	"generateDirections\000"
 8470      72617465 
 8470      44697265 
 8470      6374696F 
 8470      6E7300
 8471              	.LASF0:
 8472 01e8 7369676E 		.ascii	"signed char\000"
 8472      65642063 
 8472      68617200 
 8473              	.LASF9:
 8474 01f4 6C6F6E67 		.ascii	"long long unsigned int\000"
 8474      206C6F6E 
 8474      6720756E 
 8474      7369676E 
 8474      65642069 
 8475              	.LASF17:
 8476 020b 75696E74 		.ascii	"uint32_t\000"
 8476      33325F74 
 8476      00
 8477              	.LASF43:
 8478 0214 63757272 		.ascii	"currentNode\000"
 8478      656E744E 
 8478      6F646500 
 8479              	.LASF10:
 8480 0220 756E7369 		.ascii	"unsigned int\000"
 8480      676E6564 
 8480      20696E74 
 8480      00
 8481              	.LASF7:
 8482 022d 6C6F6E67 		.ascii	"long unsigned int\000"
 8482      20756E73 
 8482      69676E65 
 8482      6420696E 
 8482      7400
 8483              	.LASF38:
 8484 023f 6E657874 		.ascii	"nextNode\000"
 8484      4E6F6465 
 8484      00
 8485              	.LASF41:
 8486 0248 6E657874 		.ascii	"nextNodeCost\000"
 8486      4E6F6465 
 8486      436F7374 
 8486      00
 8487              	.LASF27:
ARM GAS  C:\Users\Logan\AppData\Local\Temp\ccKKo5Vz.s 			page 165


 8488 0255 73746172 		.ascii	"start\000"
 8488      7400
 8489              	.LASF35:
 8490 025b 636F726E 		.ascii	"corner_penalty\000"
 8490      65725F70 
 8490      656E616C 
 8490      747900
 8491              	.LASF53:
 8492 026a 696E7465 		.ascii	"inter_end\000"
 8492      725F656E 
 8492      6400
 8493              	.LASF45:
 8494 0274 44657074 		.ascii	"DepthFirst\000"
 8494      68466972 
 8494      737400
 8495              	.LASF64:
 8496 027f 2E5C7061 		.ascii	".\\pathfinder.c\000"
 8496      74686669 
 8496      6E646572 
 8496      2E6300
 8497              	.LASF12:
 8498 028e 63686172 		.ascii	"char\000"
 8498      00
 8499              	.LASF21:
 8500 0293 636F7374 		.ascii	"cost\000"
 8500      00
 8501              	.LASF4:
 8502 0298 6C6F6E67 		.ascii	"long int\000"
 8502      20696E74 
 8502      00
 8503              	.LASF16:
 8504 02a1 696E7433 		.ascii	"int32_t\000"
 8504      325F7400 
 8505              	.LASF3:
 8506 02a9 73686F72 		.ascii	"short unsigned int\000"
 8506      7420756E 
 8506      7369676E 
 8506      65642069 
 8506      6E7400
 8507              	.LASF40:
 8508 02bc 746D704E 		.ascii	"tmpNextNode\000"
 8508      6578744E 
 8508      6F646500 
 8509              	.LASF22:
 8510 02c8 70726576 		.ascii	"prevNode\000"
 8510      4E6F6465 
 8510      00
 8511              	.LASF50:
 8512 02d1 696E7465 		.ascii	"inter_path\000"
 8512      725F7061 
 8512      746800
 8513              	.LASF57:
 8514 02dc 6D657373 		.ascii	"message\000"
 8514      61676500 
 8515              	.LASF28:
 8516 02e4 64657374 		.ascii	"destination\000"
 8516      696E6174 
ARM GAS  C:\Users\Logan\AppData\Local\Temp\ccKKo5Vz.s 			page 166


 8516      696F6E00 
 8517              	.LASF13:
 8518 02f0 646F7562 		.ascii	"double\000"
 8518      6C6500
 8519              	.LASF26:
 8520 02f7 666F6F64 		.ascii	"food_list\000"
 8520      5F6C6973 
 8520      7400
 8521              	.LASF65:
 8522 0301 433A5C55 		.ascii	"C:\\Users\\Logan\\Desktop\\repos\\CS301-Team-Repo\\"
 8522      73657273 
 8522      5C4C6F67 
 8522      616E5C44 
 8522      65736B74 
 8523 032e 43533330 		.ascii	"CS301_Class.cydsn\000"
 8523      315F436C 
 8523      6173732E 
 8523      63796473 
 8523      6E00
 8524              	.LASF46:
 8525 0340 70617468 		.ascii	"path_couter\000"
 8525      5F636F75 
 8525      74657200 
 8526              	.LASF52:
 8527 034c 696E7465 		.ascii	"inter_destination\000"
 8527      725F6465 
 8527      7374696E 
 8527      6174696F 
 8527      6E00
 8528              	.LASF51:
 8529 035e 696E7465 		.ascii	"inter_start\000"
 8529      725F7374 
 8529      61727400 
 8530              	.LASF5:
 8531 036a 5F5F696E 		.ascii	"__int32_t\000"
 8531      7433325F 
 8531      7400
 8532              	.LASF19:
 8533 0374 70617468 		.ascii	"path\000"
 8533      00
 8534              	.LASF48:
 8535 0379 746D7043 		.ascii	"tmpCounter\000"
 8535      6F756E74 
 8535      657200
 8536              	.LASF11:
 8537 0384 73697A65 		.ascii	"sizetype\000"
 8537      74797065 
 8537      00
 8538              	.LASF30:
 8539 038d 63757272 		.ascii	"current\000"
 8539      656E7400 
 8540              	.LASF44:
 8541 0395 646A696B 		.ascii	"djikstras\000"
 8541      73747261 
 8541      7300
 8542              	.LASF58:
 8543 039f 49544D5F 		.ascii	"ITM_RxBuffer\000"
ARM GAS  C:\Users\Logan\AppData\Local\Temp\ccKKo5Vz.s 			page 167


 8543      52784275 
 8543      66666572 
 8543      00
 8544              	.LASF39:
 8545 03ac 6E657874 		.ascii	"nextNodeIndex\000"
 8545      4E6F6465 
 8545      496E6465 
 8545      7800
 8546              	.LASF62:
 8547 03ba 696E7374 		.ascii	"instructions\000"
 8547      72756374 
 8547      696F6E73 
 8547      00
 8548              		.ident	"GCC: (GNU Tools for ARM Embedded Processors) 4.9.3 20150303 (release) [ARM/embedded-4_9-br
