ARM GAS  C:\Users\tant836\AppData\Local\Temp\ccXZYOJd.s 			page 1


   1              		.syntax unified
   2              		.cpu cortex-m3
   3              		.fpu softvfp
   4              		.eabi_attribute 20, 1
   5              		.eabi_attribute 21, 1
   6              		.eabi_attribute 23, 3
   7              		.eabi_attribute 24, 1
   8              		.eabi_attribute 25, 1
   9              		.eabi_attribute 26, 1
  10              		.eabi_attribute 30, 6
  11              		.eabi_attribute 34, 1
  12              		.eabi_attribute 18, 4
  13              		.thumb
  14              		.file	"pathfinder.c"
  15              		.text
  16              	.Ltext0:
  17              		.cfi_sections	.debug_frame
  18              		.comm	tracked_direction,1,1
  19              		.section	.text.djikstras,"ax",%progbits
  20              		.align	2
  21              		.global	djikstras
  22              		.thumb
  23              		.thumb_func
  24              		.type	djikstras, %function
  25              	djikstras:
  26              	.LFB63:
  27              		.file 1 ".\\pathfinder.c"
   1:.\pathfinder.c **** #include "pathfinder.h"
   2:.\pathfinder.c **** //define the variables
   3:.\pathfinder.c **** #define VALUE_OF_FOOD 0 //penalty for going over food pellets.
   4:.\pathfinder.c **** #define DEFAULT_NODE_COST 10 //the cost of moving to a normal node.
   5:.\pathfinder.c **** #define CORNER_PENALTY 0 //penalty for changing direction.
   6:.\pathfinder.c **** #define PATH 0 //idicates weather the path is the 1s or the 0s.
   7:.\pathfinder.c **** 
   8:.\pathfinder.c **** 
   9:.\pathfinder.c **** 
  10:.\pathfinder.c **** #define STRAIGHT 'S'
  11:.\pathfinder.c **** #define LEFT 'L'
  12:.\pathfinder.c **** #define RIGHT 'R'
  13:.\pathfinder.c **** #define UTURN 'U'
  14:.\pathfinder.c **** 
  15:.\pathfinder.c **** #define INF_16 65535
  16:.\pathfinder.c **** 
  17:.\pathfinder.c **** #define VISITED 1
  18:.\pathfinder.c **** #define UNVISITED 0
  19:.\pathfinder.c **** 
  20:.\pathfinder.c **** #define X 1
  21:.\pathfinder.c **** #define Y 0
  22:.\pathfinder.c **** #define DIR 2
  23:.\pathfinder.c **** 
  24:.\pathfinder.c **** //struct for nodes
  25:.\pathfinder.c **** typedef struct node{
  26:.\pathfinder.c ****    uint8 path;// 1
  27:.\pathfinder.c ****    uint8 visited;// 2
  28:.\pathfinder.c ****    uint16 cost;// 6
  29:.\pathfinder.c ****    uint8 x;
  30:.\pathfinder.c ****    uint8 y;
ARM GAS  C:\Users\tant836\AppData\Local\Temp\ccXZYOJd.s 			page 2


  31:.\pathfinder.c ****    struct node* prevNode;
  32:.\pathfinder.c ****    //uint8 previous_y;// 4
  33:.\pathfinder.c ****    //uint8 previous_x; // 5
  34:.\pathfinder.c ****    uint16 tentative_cost; // 3
  35:.\pathfinder.c ****    uint8 direction;
  36:.\pathfinder.c **** } node;
  37:.\pathfinder.c **** 
  38:.\pathfinder.c **** /**pathfinding algorithm
  39:.\pathfinder.c **** * returns the length of the path array 0 if no path is found
  40:.\pathfinder.c **** * map - map to be searched through (needs size)
  41:.\pathfinder.c **** * food_list - list of food (needs size)
  42:.\pathfinder.c **** * path - will be filled with the path found by the algorithm
  43:.\pathfinder.c **** * start - is the start node duh
  44:.\pathfinder.c **** * destination - end node
  45:.\pathfinder.c **** * direction - the initial direction of the robot
  46:.\pathfinder.c **** */
  47:.\pathfinder.c **** uint16 djikstras(uint8 map[Y_SIZE][X_SIZE], uint8 food_list[6][2], uint8 path[DEFAULT_ARRAY_SIZE][3
  28              		.loc 1 47 0
  29              		.cfi_startproc
  30              		@ args = 4, pretend = 0, frame = 6216
  31              		@ frame_needed = 1, uses_anonymous_args = 0
  32 0000 B0B5     		push	{r4, r5, r7, lr}
  33              		.cfi_def_cfa_offset 16
  34              		.cfi_offset 4, -16
  35              		.cfi_offset 5, -12
  36              		.cfi_offset 7, -8
  37              		.cfi_offset 14, -4
  38 0002 ADF5C25D 		sub	sp, sp, #6208
  39              		.cfi_def_cfa_offset 6224
  40 0006 82B0     		sub	sp, sp, #8
  41              		.cfi_def_cfa_offset 6232
  42 0008 00AF     		add	r7, sp, #0
  43              		.cfi_def_cfa_register 7
  44 000a 07F12804 		add	r4, r7, #40
  45 000e 1C3C     		subs	r4, r4, #28
  46 0010 2060     		str	r0, [r4]
  47 0012 07F10800 		add	r0, r7, #8
  48 0016 0160     		str	r1, [r0]
  49 0018 07F10801 		add	r1, r7, #8
  50 001c 0439     		subs	r1, r1, #4
  51 001e 0A60     		str	r2, [r1]
  52 0020 07F10802 		add	r2, r7, #8
  53 0024 083A     		subs	r2, r2, #8
  54 0026 1360     		str	r3, [r2]
  48:.\pathfinder.c ****    node Nodes[Y_SIZE][X_SIZE];
  49:.\pathfinder.c ****    //fill up the default information for each node
  50:.\pathfinder.c ****     uint8 i;
  51:.\pathfinder.c ****    for(i = 0; i < Y_SIZE; i++){
  55              		.loc 1 51 0
  56 0028 0023     		movs	r3, #0
  57 002a 07F5C252 		add	r2, r7, #6208
  58 002e 02F10702 		add	r2, r2, #7
  59 0032 1370     		strb	r3, [r2]
  60 0034 FDE0     		b	.L2
  61              	.L5:
  62              	.LBB2:
  52:.\pathfinder.c ****       uint8 j;
ARM GAS  C:\Users\tant836\AppData\Local\Temp\ccXZYOJd.s 			page 3


  53:.\pathfinder.c ****       for(j = 0; j < X_SIZE; j++){
  63              		.loc 1 53 0
  64 0036 0023     		movs	r3, #0
  65 0038 07F5C252 		add	r2, r7, #6208
  66 003c 02F10602 		add	r2, r2, #6
  67 0040 1370     		strb	r3, [r2]
  68 0042 E3E0     		b	.L3
  69              	.L4:
  54:.\pathfinder.c ****             Nodes[i][j].path = map[i][j];//map information
  70              		.loc 1 54 0 discriminator 3
  71 0044 07F5C253 		add	r3, r7, #6208
  72 0048 03F10703 		add	r3, r3, #7
  73 004c 1978     		ldrb	r1, [r3]	@ zero_extendqisi2
  74 004e 07F5C253 		add	r3, r7, #6208
  75 0052 03F10603 		add	r3, r3, #6
  76 0056 1878     		ldrb	r0, [r3]	@ zero_extendqisi2
  77 0058 07F5C253 		add	r3, r7, #6208
  78 005c 03F10703 		add	r3, r3, #7
  79 0060 1A78     		ldrb	r2, [r3]	@ zero_extendqisi2
  80 0062 1346     		mov	r3, r2
  81 0064 DB00     		lsls	r3, r3, #3
  82 0066 1344     		add	r3, r3, r2
  83 0068 5B00     		lsls	r3, r3, #1
  84 006a 1A44     		add	r2, r2, r3
  85 006c 07F12803 		add	r3, r7, #40
  86 0070 1C3B     		subs	r3, r3, #28
  87 0072 1B68     		ldr	r3, [r3]
  88 0074 1A44     		add	r2, r2, r3
  89 0076 07F5C253 		add	r3, r7, #6208
  90 007a 03F10603 		add	r3, r3, #6
  91 007e 1B78     		ldrb	r3, [r3]	@ zero_extendqisi2
  92 0080 D45C     		ldrb	r4, [r2, r3]	@ zero_extendqisi2
  93 0082 07F5CD62 		add	r2, r7, #1640
  94 0086 083A     		subs	r2, r2, #8
  95 0088 0B46     		mov	r3, r1
  96 008a DB00     		lsls	r3, r3, #3
  97 008c 0B44     		add	r3, r3, r1
  98 008e 5B00     		lsls	r3, r3, #1
  99 0090 0B44     		add	r3, r3, r1
 100 0092 0344     		add	r3, r3, r0
 101 0094 1B01     		lsls	r3, r3, #4
 102 0096 1344     		add	r3, r3, r2
 103 0098 2246     		mov	r2, r4
 104 009a 1A70     		strb	r2, [r3]
  55:.\pathfinder.c ****             //printf("%d\n", map[i][j]);
  56:.\pathfinder.c ****             Nodes[i][j].visited = UNVISITED; //set all unvisited
 105              		.loc 1 56 0 discriminator 3
 106 009c 07F5C253 		add	r3, r7, #6208
 107 00a0 03F10703 		add	r3, r3, #7
 108 00a4 1978     		ldrb	r1, [r3]	@ zero_extendqisi2
 109 00a6 07F5C253 		add	r3, r7, #6208
 110 00aa 03F10603 		add	r3, r3, #6
 111 00ae 1878     		ldrb	r0, [r3]	@ zero_extendqisi2
 112 00b0 07F5CD62 		add	r2, r7, #1640
 113 00b4 083A     		subs	r2, r2, #8
 114 00b6 0B46     		mov	r3, r1
 115 00b8 DB00     		lsls	r3, r3, #3
ARM GAS  C:\Users\tant836\AppData\Local\Temp\ccXZYOJd.s 			page 4


 116 00ba 0B44     		add	r3, r3, r1
 117 00bc 5B00     		lsls	r3, r3, #1
 118 00be 0B44     		add	r3, r3, r1
 119 00c0 0344     		add	r3, r3, r0
 120 00c2 1B01     		lsls	r3, r3, #4
 121 00c4 1344     		add	r3, r3, r2
 122 00c6 0022     		movs	r2, #0
 123 00c8 5A70     		strb	r2, [r3, #1]
  57:.\pathfinder.c ****             Nodes[i][j].cost = DEFAULT_NODE_COST; // seet the cost of going to this node to the def
 124              		.loc 1 57 0 discriminator 3
 125 00ca 07F5C253 		add	r3, r7, #6208
 126 00ce 03F10703 		add	r3, r3, #7
 127 00d2 1978     		ldrb	r1, [r3]	@ zero_extendqisi2
 128 00d4 07F5C253 		add	r3, r7, #6208
 129 00d8 03F10603 		add	r3, r3, #6
 130 00dc 1878     		ldrb	r0, [r3]	@ zero_extendqisi2
 131 00de 07F5CD62 		add	r2, r7, #1640
 132 00e2 083A     		subs	r2, r2, #8
 133 00e4 0B46     		mov	r3, r1
 134 00e6 DB00     		lsls	r3, r3, #3
 135 00e8 0B44     		add	r3, r3, r1
 136 00ea 5B00     		lsls	r3, r3, #1
 137 00ec 0B44     		add	r3, r3, r1
 138 00ee 0344     		add	r3, r3, r0
 139 00f0 1B01     		lsls	r3, r3, #4
 140 00f2 1344     		add	r3, r3, r2
 141 00f4 0A22     		movs	r2, #10
 142 00f6 5A80     		strh	r2, [r3, #2]	@ movhi
  58:.\pathfinder.c ****             Nodes[i][j].y = i;
 143              		.loc 1 58 0 discriminator 3
 144 00f8 07F5C253 		add	r3, r7, #6208
 145 00fc 03F10703 		add	r3, r3, #7
 146 0100 1978     		ldrb	r1, [r3]	@ zero_extendqisi2
 147 0102 07F5C253 		add	r3, r7, #6208
 148 0106 03F10603 		add	r3, r3, #6
 149 010a 1878     		ldrb	r0, [r3]	@ zero_extendqisi2
 150 010c 07F5CD62 		add	r2, r7, #1640
 151 0110 083A     		subs	r2, r2, #8
 152 0112 0B46     		mov	r3, r1
 153 0114 DB00     		lsls	r3, r3, #3
 154 0116 0B44     		add	r3, r3, r1
 155 0118 5B00     		lsls	r3, r3, #1
 156 011a 0B44     		add	r3, r3, r1
 157 011c 0344     		add	r3, r3, r0
 158 011e 1B01     		lsls	r3, r3, #4
 159 0120 1344     		add	r3, r3, r2
 160 0122 07F5C252 		add	r2, r7, #6208
 161 0126 02F10702 		add	r2, r2, #7
 162 012a 1278     		ldrb	r2, [r2]
 163 012c 5A71     		strb	r2, [r3, #5]
  59:.\pathfinder.c ****             Nodes[i][j].x = j;
 164              		.loc 1 59 0 discriminator 3
 165 012e 07F5C253 		add	r3, r7, #6208
 166 0132 03F10703 		add	r3, r3, #7
 167 0136 1978     		ldrb	r1, [r3]	@ zero_extendqisi2
 168 0138 07F5C253 		add	r3, r7, #6208
 169 013c 03F10603 		add	r3, r3, #6
ARM GAS  C:\Users\tant836\AppData\Local\Temp\ccXZYOJd.s 			page 5


 170 0140 1878     		ldrb	r0, [r3]	@ zero_extendqisi2
 171 0142 07F5CD62 		add	r2, r7, #1640
 172 0146 083A     		subs	r2, r2, #8
 173 0148 0B46     		mov	r3, r1
 174 014a DB00     		lsls	r3, r3, #3
 175 014c 0B44     		add	r3, r3, r1
 176 014e 5B00     		lsls	r3, r3, #1
 177 0150 0B44     		add	r3, r3, r1
 178 0152 0344     		add	r3, r3, r0
 179 0154 1B01     		lsls	r3, r3, #4
 180 0156 1344     		add	r3, r3, r2
 181 0158 07F5C252 		add	r2, r7, #6208
 182 015c 02F10602 		add	r2, r2, #6
 183 0160 1278     		ldrb	r2, [r2]
 184 0162 1A71     		strb	r2, [r3, #4]
  60:.\pathfinder.c ****             Nodes[i][j].prevNode = 0;
 185              		.loc 1 60 0 discriminator 3
 186 0164 07F5C253 		add	r3, r7, #6208
 187 0168 03F10703 		add	r3, r3, #7
 188 016c 1978     		ldrb	r1, [r3]	@ zero_extendqisi2
 189 016e 07F5C253 		add	r3, r7, #6208
 190 0172 03F10603 		add	r3, r3, #6
 191 0176 1878     		ldrb	r0, [r3]	@ zero_extendqisi2
 192 0178 07F5CD62 		add	r2, r7, #1640
 193 017c 083A     		subs	r2, r2, #8
 194 017e 0B46     		mov	r3, r1
 195 0180 DB00     		lsls	r3, r3, #3
 196 0182 0B44     		add	r3, r3, r1
 197 0184 5B00     		lsls	r3, r3, #1
 198 0186 0B44     		add	r3, r3, r1
 199 0188 0344     		add	r3, r3, r0
 200 018a 1B01     		lsls	r3, r3, #4
 201 018c 1344     		add	r3, r3, r2
 202 018e 0833     		adds	r3, r3, #8
 203 0190 0022     		movs	r2, #0
 204 0192 1A60     		str	r2, [r3]
  61:.\pathfinder.c ****             Nodes[i][j].tentative_cost = INF_16;// set the current cost to infinity
 205              		.loc 1 61 0 discriminator 3
 206 0194 07F5C253 		add	r3, r7, #6208
 207 0198 03F10703 		add	r3, r3, #7
 208 019c 1978     		ldrb	r1, [r3]	@ zero_extendqisi2
 209 019e 07F5C253 		add	r3, r7, #6208
 210 01a2 03F10603 		add	r3, r3, #6
 211 01a6 1878     		ldrb	r0, [r3]	@ zero_extendqisi2
 212 01a8 07F5CD62 		add	r2, r7, #1640
 213 01ac 083A     		subs	r2, r2, #8
 214 01ae 0B46     		mov	r3, r1
 215 01b0 DB00     		lsls	r3, r3, #3
 216 01b2 0B44     		add	r3, r3, r1
 217 01b4 5B00     		lsls	r3, r3, #1
 218 01b6 0B44     		add	r3, r3, r1
 219 01b8 0344     		add	r3, r3, r0
 220 01ba 1B01     		lsls	r3, r3, #4
 221 01bc 1344     		add	r3, r3, r2
 222 01be 0833     		adds	r3, r3, #8
 223 01c0 4FF6FF72 		movw	r2, #65535
 224 01c4 9A80     		strh	r2, [r3, #4]	@ movhi
ARM GAS  C:\Users\tant836\AppData\Local\Temp\ccXZYOJd.s 			page 6


  62:.\pathfinder.c ****             Nodes[i][j].direction = 0;
 225              		.loc 1 62 0 discriminator 3
 226 01c6 07F5C253 		add	r3, r7, #6208
 227 01ca 03F10703 		add	r3, r3, #7
 228 01ce 1978     		ldrb	r1, [r3]	@ zero_extendqisi2
 229 01d0 07F5C253 		add	r3, r7, #6208
 230 01d4 03F10603 		add	r3, r3, #6
 231 01d8 1878     		ldrb	r0, [r3]	@ zero_extendqisi2
 232 01da 07F5CD62 		add	r2, r7, #1640
 233 01de 083A     		subs	r2, r2, #8
 234 01e0 0B46     		mov	r3, r1
 235 01e2 DB00     		lsls	r3, r3, #3
 236 01e4 0B44     		add	r3, r3, r1
 237 01e6 5B00     		lsls	r3, r3, #1
 238 01e8 0B44     		add	r3, r3, r1
 239 01ea 0344     		add	r3, r3, r0
 240 01ec 1B01     		lsls	r3, r3, #4
 241 01ee 1344     		add	r3, r3, r2
 242 01f0 0833     		adds	r3, r3, #8
 243 01f2 0022     		movs	r2, #0
 244 01f4 9A71     		strb	r2, [r3, #6]
  53:.\pathfinder.c ****             Nodes[i][j].path = map[i][j];//map information
 245              		.loc 1 53 0 discriminator 3
 246 01f6 07F5C253 		add	r3, r7, #6208
 247 01fa 03F10603 		add	r3, r3, #6
 248 01fe 1B78     		ldrb	r3, [r3]	@ zero_extendqisi2
 249 0200 0133     		adds	r3, r3, #1
 250 0202 07F5C252 		add	r2, r7, #6208
 251 0206 02F10602 		add	r2, r2, #6
 252 020a 1370     		strb	r3, [r2]
 253              	.L3:
  53:.\pathfinder.c ****             Nodes[i][j].path = map[i][j];//map information
 254              		.loc 1 53 0 is_stmt 0 discriminator 1
 255 020c 07F5C253 		add	r3, r7, #6208
 256 0210 03F10603 		add	r3, r3, #6
 257 0214 1B78     		ldrb	r3, [r3]	@ zero_extendqisi2
 258 0216 122B     		cmp	r3, #18
 259 0218 7FF614AF 		bls	.L4
 260              	.LBE2:
  51:.\pathfinder.c ****       uint8 j;
 261              		.loc 1 51 0 is_stmt 1 discriminator 2
 262 021c 07F5C253 		add	r3, r7, #6208
 263 0220 03F10703 		add	r3, r3, #7
 264 0224 1B78     		ldrb	r3, [r3]	@ zero_extendqisi2
 265 0226 0133     		adds	r3, r3, #1
 266 0228 07F5C252 		add	r2, r7, #6208
 267 022c 02F10702 		add	r2, r2, #7
 268 0230 1370     		strb	r3, [r2]
 269              	.L2:
  51:.\pathfinder.c ****       uint8 j;
 270              		.loc 1 51 0 is_stmt 0 discriminator 1
 271 0232 07F5C253 		add	r3, r7, #6208
 272 0236 03F10703 		add	r3, r3, #7
 273 023a 1B78     		ldrb	r3, [r3]	@ zero_extendqisi2
 274 023c 0E2B     		cmp	r3, #14
 275 023e 7FF6FAAE 		bls	.L5
  63:.\pathfinder.c ****       }
ARM GAS  C:\Users\tant836\AppData\Local\Temp\ccXZYOJd.s 			page 7


  64:.\pathfinder.c ****    }
  65:.\pathfinder.c **** 
  66:.\pathfinder.c **** 
  67:.\pathfinder.c ****    uint8 current[2];
  68:.\pathfinder.c ****    //memcpy(current, start, sizeof(current));//because nothing works in c the way you want it to
  69:.\pathfinder.c ****    current[Y] = start[Y];
 276              		.loc 1 69 0 is_stmt 1
 277 0242 07F10803 		add	r3, r7, #8
 278 0246 083B     		subs	r3, r3, #8
 279 0248 1B68     		ldr	r3, [r3]
 280 024a 1A78     		ldrb	r2, [r3]	@ zero_extendqisi2
 281 024c 07F5CD63 		add	r3, r7, #1640
 282 0250 0C3B     		subs	r3, r3, #12
 283 0252 1A70     		strb	r2, [r3]
  70:.\pathfinder.c ****    current[X] = start[X];
 284              		.loc 1 70 0
 285 0254 07F10803 		add	r3, r7, #8
 286 0258 083B     		subs	r3, r3, #8
 287 025a 1B68     		ldr	r3, [r3]
 288 025c 5A78     		ldrb	r2, [r3, #1]	@ zero_extendqisi2
 289 025e 07F5CD63 		add	r3, r7, #1640
 290 0262 0C3B     		subs	r3, r3, #12
 291 0264 5A70     		strb	r2, [r3, #1]
  71:.\pathfinder.c ****    uint8 totalIterationCounter = 0;
 292              		.loc 1 71 0
 293 0266 0023     		movs	r3, #0
 294 0268 07F5C252 		add	r2, r7, #6208
 295 026c 02F10502 		add	r2, r2, #5
 296 0270 1370     		strb	r3, [r2]
  72:.\pathfinder.c ****    uint8 nextNodes[DEFAULT_ARRAY_SIZE][2] = {0};
 297              		.loc 1 72 0
 298 0272 07F12803 		add	r3, r7, #40
 299 0276 0C3B     		subs	r3, r3, #12
 300 0278 1A46     		mov	r2, r3
 301 027a 4FF4C863 		mov	r3, #1600
 302 027e 1046     		mov	r0, r2
 303 0280 0021     		movs	r1, #0
 304 0282 1A46     		mov	r2, r3
 305 0284 FFF7FEFF 		bl	memset
  73:.\pathfinder.c ****    //uint8 nextNodesDirection[DEFAULT_ARRAY_SIZE] = {0};
  74:.\pathfinder.c ****    uint8 tentativeNode[2] = {0};//x and y coordinate of the next node
 306              		.loc 1 74 0
 307 0288 07F12803 		add	r3, r7, #40
 308 028c 103B     		subs	r3, r3, #16
 309 028e 0022     		movs	r2, #0
 310 0290 1A80     		strh	r2, [r3]	@ movhi
  75:.\pathfinder.c ****    uint8 unreachable = 0;
 311              		.loc 1 75 0
 312 0292 0023     		movs	r3, #0
 313 0294 07F5C152 		add	r2, r7, #6176
 314 0298 02F11302 		add	r2, r2, #19
 315 029c 1370     		strb	r3, [r2]
  76:.\pathfinder.c ****    uint8 corner_penalty = 0;
 316              		.loc 1 76 0
 317 029e 0023     		movs	r3, #0
 318 02a0 07F5C252 		add	r2, r7, #6208
 319 02a4 02F10402 		add	r2, r2, #4
ARM GAS  C:\Users\tant836\AppData\Local\Temp\ccXZYOJd.s 			page 8


 320 02a8 1370     		strb	r3, [r2]
  77:.\pathfinder.c ****    uint8 counter = 0;
 321              		.loc 1 77 0
 322 02aa 0023     		movs	r3, #0
 323 02ac 07F5C252 		add	r2, r7, #6208
 324 02b0 02F10302 		add	r2, r2, #3
 325 02b4 1370     		strb	r3, [r2]
  78:.\pathfinder.c ****    uint16 tmpCost = 0;
 326              		.loc 1 78 0
 327 02b6 0023     		movs	r3, #0
 328 02b8 07F5C152 		add	r2, r7, #6176
 329 02bc 02F11002 		add	r2, r2, #16
 330 02c0 1380     		strh	r3, [r2]	@ movhi
  79:.\pathfinder.c ****    uint8 nextNode[2] = {0, 0};
 331              		.loc 1 79 0
 332 02c2 07F12803 		add	r3, r7, #40
 333 02c6 143B     		subs	r3, r3, #20
 334 02c8 0022     		movs	r2, #0
 335 02ca 1A70     		strb	r2, [r3]
 336 02cc 07F12803 		add	r3, r7, #40
 337 02d0 143B     		subs	r3, r3, #20
 338 02d2 0022     		movs	r2, #0
 339 02d4 5A70     		strb	r2, [r3, #1]
  80:.\pathfinder.c ****    uint8 nextNodeIndex = 0;
 340              		.loc 1 80 0
 341 02d6 0023     		movs	r3, #0
 342 02d8 07F5C252 		add	r2, r7, #6208
 343 02dc 02F10202 		add	r2, r2, #2
 344 02e0 1370     		strb	r3, [r2]
  81:.\pathfinder.c ****    uint8 tmpNextNode[2] = {0};
 345              		.loc 1 81 0
 346 02e2 07F12803 		add	r3, r7, #40
 347 02e6 183B     		subs	r3, r3, #24
 348 02e8 0022     		movs	r2, #0
 349 02ea 1A80     		strh	r2, [r3]	@ movhi
  82:.\pathfinder.c ****    uint16 nextNodeCost = 0;
 350              		.loc 1 82 0
 351 02ec 0023     		movs	r3, #0
 352 02ee 07F5C252 		add	r2, r7, #6208
 353 02f2 1380     		strh	r3, [r2]	@ movhi
  83:.\pathfinder.c ****    uint8 hasNext = 1;
 354              		.loc 1 83 0
 355 02f4 0123     		movs	r3, #1
 356 02f6 07F5C152 		add	r2, r7, #6176
 357 02fa 02F11F02 		add	r2, r2, #31
 358 02fe 1370     		strb	r3, [r2]
  84:.\pathfinder.c **** 
  85:.\pathfinder.c ****    Nodes[current[Y]][current[X]].tentative_cost = 0;
 359              		.loc 1 85 0
 360 0300 07F5CD63 		add	r3, r7, #1640
 361 0304 0C3B     		subs	r3, r3, #12
 362 0306 1B78     		ldrb	r3, [r3]	@ zero_extendqisi2
 363 0308 1946     		mov	r1, r3
 364 030a 07F5CD63 		add	r3, r7, #1640
 365 030e 0C3B     		subs	r3, r3, #12
 366 0310 5B78     		ldrb	r3, [r3, #1]	@ zero_extendqisi2
 367 0312 1846     		mov	r0, r3
ARM GAS  C:\Users\tant836\AppData\Local\Temp\ccXZYOJd.s 			page 9


 368 0314 07F5CD62 		add	r2, r7, #1640
 369 0318 083A     		subs	r2, r2, #8
 370 031a 0B46     		mov	r3, r1
 371 031c DB00     		lsls	r3, r3, #3
 372 031e 0B44     		add	r3, r3, r1
 373 0320 5B00     		lsls	r3, r3, #1
 374 0322 0B44     		add	r3, r3, r1
 375 0324 0344     		add	r3, r3, r0
 376 0326 1B01     		lsls	r3, r3, #4
 377 0328 1344     		add	r3, r3, r2
 378 032a 0833     		adds	r3, r3, #8
 379 032c 0022     		movs	r2, #0
 380 032e 9A80     		strh	r2, [r3, #4]	@ movhi
  86:.\pathfinder.c ****    Nodes[current[Y]][current[X]].prevNode = &Nodes[current[Y]][current[X]];
 381              		.loc 1 86 0
 382 0330 07F5CD63 		add	r3, r7, #1640
 383 0334 0C3B     		subs	r3, r3, #12
 384 0336 1B78     		ldrb	r3, [r3]	@ zero_extendqisi2
 385 0338 1946     		mov	r1, r3
 386 033a 07F5CD63 		add	r3, r7, #1640
 387 033e 0C3B     		subs	r3, r3, #12
 388 0340 5B78     		ldrb	r3, [r3, #1]	@ zero_extendqisi2
 389 0342 1C46     		mov	r4, r3
 390 0344 07F5CD63 		add	r3, r7, #1640
 391 0348 0C3B     		subs	r3, r3, #12
 392 034a 1B78     		ldrb	r3, [r3]	@ zero_extendqisi2
 393 034c 1846     		mov	r0, r3
 394 034e 07F5CD63 		add	r3, r7, #1640
 395 0352 0C3B     		subs	r3, r3, #12
 396 0354 5B78     		ldrb	r3, [r3, #1]	@ zero_extendqisi2
 397 0356 1D46     		mov	r5, r3
 398 0358 07F5CD62 		add	r2, r7, #1640
 399 035c 083A     		subs	r2, r2, #8
 400 035e 0346     		mov	r3, r0
 401 0360 DB00     		lsls	r3, r3, #3
 402 0362 0344     		add	r3, r3, r0
 403 0364 5B00     		lsls	r3, r3, #1
 404 0366 0344     		add	r3, r3, r0
 405 0368 2B44     		add	r3, r3, r5
 406 036a 1B01     		lsls	r3, r3, #4
 407 036c D018     		adds	r0, r2, r3
 408 036e 07F5CD62 		add	r2, r7, #1640
 409 0372 083A     		subs	r2, r2, #8
 410 0374 0B46     		mov	r3, r1
 411 0376 DB00     		lsls	r3, r3, #3
 412 0378 0B44     		add	r3, r3, r1
 413 037a 5B00     		lsls	r3, r3, #1
 414 037c 0B44     		add	r3, r3, r1
 415 037e 2344     		add	r3, r3, r4
 416 0380 1B01     		lsls	r3, r3, #4
 417 0382 1344     		add	r3, r3, r2
 418 0384 0833     		adds	r3, r3, #8
 419 0386 1860     		str	r0, [r3]
  87:.\pathfinder.c ****    Nodes[current[Y]][current[X]].direction = robot_direction;
 420              		.loc 1 87 0
 421 0388 07F5CD63 		add	r3, r7, #1640
 422 038c 0C3B     		subs	r3, r3, #12
ARM GAS  C:\Users\tant836\AppData\Local\Temp\ccXZYOJd.s 			page 10


 423 038e 1B78     		ldrb	r3, [r3]	@ zero_extendqisi2
 424 0390 1946     		mov	r1, r3
 425 0392 07F5CD63 		add	r3, r7, #1640
 426 0396 0C3B     		subs	r3, r3, #12
 427 0398 5B78     		ldrb	r3, [r3, #1]	@ zero_extendqisi2
 428 039a 1C46     		mov	r4, r3
 429 039c 414B     		ldr	r3, .L26
 430 039e 1878     		ldrb	r0, [r3]	@ zero_extendqisi2
 431 03a0 07F5CD62 		add	r2, r7, #1640
 432 03a4 083A     		subs	r2, r2, #8
 433 03a6 0B46     		mov	r3, r1
 434 03a8 DB00     		lsls	r3, r3, #3
 435 03aa 0B44     		add	r3, r3, r1
 436 03ac 5B00     		lsls	r3, r3, #1
 437 03ae 0B44     		add	r3, r3, r1
 438 03b0 2344     		add	r3, r3, r4
 439 03b2 1B01     		lsls	r3, r3, #4
 440 03b4 1344     		add	r3, r3, r2
 441 03b6 0833     		adds	r3, r3, #8
 442 03b8 0246     		mov	r2, r0
 443 03ba 9A71     		strb	r2, [r3, #6]
  88:.\pathfinder.c **** 
  89:.\pathfinder.c ****    //early exit, run until x and y are equal
  90:.\pathfinder.c ****    while(!((current[Y] == destination[Y]) && (current[X] == destination[X])) && hasNext == 1){
 444              		.loc 1 90 0
 445 03bc C2E2     		b	.L6
 446              	.L20:
 447              	.LBB3:
  91:.\pathfinder.c ****       counter = 1;
 448              		.loc 1 91 0
 449 03be 0123     		movs	r3, #1
 450 03c0 07F5C252 		add	r2, r7, #6208
 451 03c4 02F10302 		add	r2, r2, #3
 452 03c8 1370     		strb	r3, [r2]
  92:.\pathfinder.c ****       Nodes[current[Y]][current[1]].visited = VISITED; // set visitetd to true
 453              		.loc 1 92 0
 454 03ca 07F5CD63 		add	r3, r7, #1640
 455 03ce 0C3B     		subs	r3, r3, #12
 456 03d0 1B78     		ldrb	r3, [r3]	@ zero_extendqisi2
 457 03d2 1946     		mov	r1, r3
 458 03d4 07F5CD63 		add	r3, r7, #1640
 459 03d8 0C3B     		subs	r3, r3, #12
 460 03da 5B78     		ldrb	r3, [r3, #1]	@ zero_extendqisi2
 461 03dc 1846     		mov	r0, r3
 462 03de 07F5CD62 		add	r2, r7, #1640
 463 03e2 083A     		subs	r2, r2, #8
 464 03e4 0B46     		mov	r3, r1
 465 03e6 DB00     		lsls	r3, r3, #3
 466 03e8 0B44     		add	r3, r3, r1
 467 03ea 5B00     		lsls	r3, r3, #1
 468 03ec 0B44     		add	r3, r3, r1
 469 03ee 0344     		add	r3, r3, r0
 470 03f0 1B01     		lsls	r3, r3, #4
 471 03f2 1344     		add	r3, r3, r2
 472 03f4 0122     		movs	r2, #1
 473 03f6 5A70     		strb	r2, [r3, #1]
  93:.\pathfinder.c ****       //printf("main loop %d | X: %d | Y: %d\n", Nodes[current[0]][current[1]].visited, Nodes[curre
ARM GAS  C:\Users\tant836\AppData\Local\Temp\ccXZYOJd.s 			page 11


  94:.\pathfinder.c ****       while(counter <= 4){
 474              		.loc 1 94 0
 475 03f8 97E1     		b	.L7
 476              	.L14:
  95:.\pathfinder.c ****          corner_penalty = 0;
 477              		.loc 1 95 0
 478 03fa 0023     		movs	r3, #0
 479 03fc 07F5C252 		add	r2, r7, #6208
 480 0400 02F10402 		add	r2, r2, #4
 481 0404 1370     		strb	r3, [r2]
  96:.\pathfinder.c ****          if(counter == 1){
 482              		.loc 1 96 0
 483 0406 07F5C253 		add	r3, r7, #6208
 484 040a 03F10303 		add	r3, r3, #3
 485 040e 1B78     		ldrb	r3, [r3]	@ zero_extendqisi2
 486 0410 012B     		cmp	r3, #1
 487 0412 12D1     		bne	.L8
  97:.\pathfinder.c ****             tentativeNode[Y] = current[Y] - 1;
 488              		.loc 1 97 0
 489 0414 07F5CD63 		add	r3, r7, #1640
 490 0418 0C3B     		subs	r3, r3, #12
 491 041a 1B78     		ldrb	r3, [r3]	@ zero_extendqisi2
 492 041c 013B     		subs	r3, r3, #1
 493 041e DAB2     		uxtb	r2, r3
 494 0420 07F12803 		add	r3, r7, #40
 495 0424 103B     		subs	r3, r3, #16
 496 0426 1A70     		strb	r2, [r3]
  98:.\pathfinder.c ****             tentativeNode[X] = current[X];
 497              		.loc 1 98 0
 498 0428 07F5CD63 		add	r3, r7, #1640
 499 042c 0C3B     		subs	r3, r3, #12
 500 042e 5A78     		ldrb	r2, [r3, #1]	@ zero_extendqisi2
 501 0430 07F12803 		add	r3, r7, #40
 502 0434 103B     		subs	r3, r3, #16
 503 0436 5A70     		strb	r2, [r3, #1]
 504 0438 4FE0     		b	.L9
 505              	.L8:
  99:.\pathfinder.c ****          }else if(counter == 2){
 506              		.loc 1 99 0
 507 043a 07F5C253 		add	r3, r7, #6208
 508 043e 03F10303 		add	r3, r3, #3
 509 0442 1B78     		ldrb	r3, [r3]	@ zero_extendqisi2
 510 0444 022B     		cmp	r3, #2
 511 0446 12D1     		bne	.L10
 100:.\pathfinder.c ****             tentativeNode[Y] = current[Y];
 512              		.loc 1 100 0
 513 0448 07F5CD63 		add	r3, r7, #1640
 514 044c 0C3B     		subs	r3, r3, #12
 515 044e 1A78     		ldrb	r2, [r3]	@ zero_extendqisi2
 516 0450 07F12803 		add	r3, r7, #40
 517 0454 103B     		subs	r3, r3, #16
 518 0456 1A70     		strb	r2, [r3]
 101:.\pathfinder.c ****             tentativeNode[X] = current[X] + 1;
 519              		.loc 1 101 0
 520 0458 07F5CD63 		add	r3, r7, #1640
 521 045c 0C3B     		subs	r3, r3, #12
 522 045e 5B78     		ldrb	r3, [r3, #1]	@ zero_extendqisi2
ARM GAS  C:\Users\tant836\AppData\Local\Temp\ccXZYOJd.s 			page 12


 523 0460 0133     		adds	r3, r3, #1
 524 0462 DAB2     		uxtb	r2, r3
 525 0464 07F12803 		add	r3, r7, #40
 526 0468 103B     		subs	r3, r3, #16
 527 046a 5A70     		strb	r2, [r3, #1]
 528 046c 35E0     		b	.L9
 529              	.L10:
 102:.\pathfinder.c ****          }else if(counter == 3){
 530              		.loc 1 102 0
 531 046e 07F5C253 		add	r3, r7, #6208
 532 0472 03F10303 		add	r3, r3, #3
 533 0476 1B78     		ldrb	r3, [r3]	@ zero_extendqisi2
 534 0478 032B     		cmp	r3, #3
 535 047a 15D1     		bne	.L11
 103:.\pathfinder.c ****             tentativeNode[Y] = current[Y] + 1;
 536              		.loc 1 103 0
 537 047c 07F5CD63 		add	r3, r7, #1640
 538 0480 0C3B     		subs	r3, r3, #12
 539 0482 1B78     		ldrb	r3, [r3]	@ zero_extendqisi2
 540 0484 0133     		adds	r3, r3, #1
 541 0486 DAB2     		uxtb	r2, r3
 542 0488 07F12803 		add	r3, r7, #40
 543 048c 103B     		subs	r3, r3, #16
 544 048e 1A70     		strb	r2, [r3]
 104:.\pathfinder.c ****             tentativeNode[X] = current[X];
 545              		.loc 1 104 0
 546 0490 07F5CD63 		add	r3, r7, #1640
 547 0494 0C3B     		subs	r3, r3, #12
 548 0496 5A78     		ldrb	r2, [r3, #1]	@ zero_extendqisi2
 549 0498 07F12803 		add	r3, r7, #40
 550 049c 103B     		subs	r3, r3, #16
 551 049e 5A70     		strb	r2, [r3, #1]
 552 04a0 1BE0     		b	.L9
 553              	.L27:
 554 04a2 00BF     		.align	2
 555              	.L26:
 556 04a4 00000000 		.word	robot_direction
 557              	.L11:
 105:.\pathfinder.c ****          }else if(counter == 4){
 558              		.loc 1 105 0
 559 04a8 07F5C253 		add	r3, r7, #6208
 560 04ac 03F10303 		add	r3, r3, #3
 561 04b0 1B78     		ldrb	r3, [r3]	@ zero_extendqisi2
 562 04b2 042B     		cmp	r3, #4
 563 04b4 11D1     		bne	.L9
 106:.\pathfinder.c ****             tentativeNode[Y] = current[Y];
 564              		.loc 1 106 0
 565 04b6 07F5CD63 		add	r3, r7, #1640
 566 04ba 0C3B     		subs	r3, r3, #12
 567 04bc 1A78     		ldrb	r2, [r3]	@ zero_extendqisi2
 568 04be 07F12803 		add	r3, r7, #40
 569 04c2 103B     		subs	r3, r3, #16
 570 04c4 1A70     		strb	r2, [r3]
 107:.\pathfinder.c ****             tentativeNode[X] = current[X] - 1;
 571              		.loc 1 107 0
 572 04c6 07F5CD63 		add	r3, r7, #1640
 573 04ca 0C3B     		subs	r3, r3, #12
ARM GAS  C:\Users\tant836\AppData\Local\Temp\ccXZYOJd.s 			page 13


 574 04cc 5B78     		ldrb	r3, [r3, #1]	@ zero_extendqisi2
 575 04ce 013B     		subs	r3, r3, #1
 576 04d0 DAB2     		uxtb	r2, r3
 577 04d2 07F12803 		add	r3, r7, #40
 578 04d6 103B     		subs	r3, r3, #16
 579 04d8 5A70     		strb	r2, [r3, #1]
 580              	.L9:
 108:.\pathfinder.c ****          }
 109:.\pathfinder.c ****          if(counter != robot_direction){
 581              		.loc 1 109 0
 582 04da A14B     		ldr	r3, .L28
 583 04dc 1B78     		ldrb	r3, [r3]	@ zero_extendqisi2
 584 04de 07F5C252 		add	r2, r7, #6208
 585 04e2 02F10302 		add	r2, r2, #3
 586 04e6 1278     		ldrb	r2, [r2]	@ zero_extendqisi2
 587 04e8 9A42     		cmp	r2, r3
 588 04ea 05D0     		beq	.L12
 110:.\pathfinder.c ****             corner_penalty = CORNER_PENALTY;
 589              		.loc 1 110 0
 590 04ec 0023     		movs	r3, #0
 591 04ee 07F5C252 		add	r2, r7, #6208
 592 04f2 02F10402 		add	r2, r2, #4
 593 04f6 1370     		strb	r3, [r2]
 594              	.L12:
 111:.\pathfinder.c ****          }
 112:.\pathfinder.c **** 
 113:.\pathfinder.c ****          if(tentativeNode[Y] >= 0 && tentativeNode[X] >= 0 && tentativeNode[Y] <= Y_SIZE && tentati
 595              		.loc 1 113 0
 596 04f8 07F12803 		add	r3, r7, #40
 597 04fc 103B     		subs	r3, r3, #16
 598 04fe 1B78     		ldrb	r3, [r3]	@ zero_extendqisi2
 599 0500 0F2B     		cmp	r3, #15
 600 0502 00F20781 		bhi	.L13
 601              		.loc 1 113 0 is_stmt 0 discriminator 1
 602 0506 07F12803 		add	r3, r7, #40
 603 050a 103B     		subs	r3, r3, #16
 604 050c 5B78     		ldrb	r3, [r3, #1]	@ zero_extendqisi2
 605 050e 132B     		cmp	r3, #19
 606 0510 00F20081 		bhi	.L13
 114:.\pathfinder.c ****             if(Nodes[tentativeNode[Y]][tentativeNode[X]].path == PATH){//check the node is a path
 607              		.loc 1 114 0 is_stmt 1
 608 0514 07F12803 		add	r3, r7, #40
 609 0518 103B     		subs	r3, r3, #16
 610 051a 1B78     		ldrb	r3, [r3]	@ zero_extendqisi2
 611 051c 1946     		mov	r1, r3
 612 051e 07F12803 		add	r3, r7, #40
 613 0522 103B     		subs	r3, r3, #16
 614 0524 5B78     		ldrb	r3, [r3, #1]	@ zero_extendqisi2
 615 0526 1846     		mov	r0, r3
 616 0528 07F5CD62 		add	r2, r7, #1640
 617 052c 083A     		subs	r2, r2, #8
 618 052e 0B46     		mov	r3, r1
 619 0530 DB00     		lsls	r3, r3, #3
 620 0532 0B44     		add	r3, r3, r1
 621 0534 5B00     		lsls	r3, r3, #1
 622 0536 0B44     		add	r3, r3, r1
 623 0538 0344     		add	r3, r3, r0
ARM GAS  C:\Users\tant836\AppData\Local\Temp\ccXZYOJd.s 			page 14


 624 053a 1B01     		lsls	r3, r3, #4
 625 053c 1344     		add	r3, r3, r2
 626 053e 1B78     		ldrb	r3, [r3]	@ zero_extendqisi2
 627 0540 002B     		cmp	r3, #0
 628 0542 40F0E780 		bne	.L13
 115:.\pathfinder.c ****                //printf("3\n", hasNext);
 116:.\pathfinder.c ****                tmpCost = Nodes[current[Y]][current[X]].tentative_cost + Nodes[tentativeNode[Y]][ten
 629              		.loc 1 116 0
 630 0546 07F5CD63 		add	r3, r7, #1640
 631 054a 0C3B     		subs	r3, r3, #12
 632 054c 1B78     		ldrb	r3, [r3]	@ zero_extendqisi2
 633 054e 1946     		mov	r1, r3
 634 0550 07F5CD63 		add	r3, r7, #1640
 635 0554 0C3B     		subs	r3, r3, #12
 636 0556 5B78     		ldrb	r3, [r3, #1]	@ zero_extendqisi2
 637 0558 1846     		mov	r0, r3
 638 055a 07F5CD62 		add	r2, r7, #1640
 639 055e 083A     		subs	r2, r2, #8
 640 0560 0B46     		mov	r3, r1
 641 0562 DB00     		lsls	r3, r3, #3
 642 0564 0B44     		add	r3, r3, r1
 643 0566 5B00     		lsls	r3, r3, #1
 644 0568 0B44     		add	r3, r3, r1
 645 056a 0344     		add	r3, r3, r0
 646 056c 1B01     		lsls	r3, r3, #4
 647 056e 1344     		add	r3, r3, r2
 648 0570 0833     		adds	r3, r3, #8
 649 0572 9888     		ldrh	r0, [r3, #4]
 650 0574 07F12803 		add	r3, r7, #40
 651 0578 103B     		subs	r3, r3, #16
 652 057a 1B78     		ldrb	r3, [r3]	@ zero_extendqisi2
 653 057c 1946     		mov	r1, r3
 654 057e 07F12803 		add	r3, r7, #40
 655 0582 103B     		subs	r3, r3, #16
 656 0584 5B78     		ldrb	r3, [r3, #1]	@ zero_extendqisi2
 657 0586 1C46     		mov	r4, r3
 658 0588 07F5CD62 		add	r2, r7, #1640
 659 058c 083A     		subs	r2, r2, #8
 660 058e 0B46     		mov	r3, r1
 661 0590 DB00     		lsls	r3, r3, #3
 662 0592 0B44     		add	r3, r3, r1
 663 0594 5B00     		lsls	r3, r3, #1
 664 0596 0B44     		add	r3, r3, r1
 665 0598 2344     		add	r3, r3, r4
 666 059a 1B01     		lsls	r3, r3, #4
 667 059c 1344     		add	r3, r3, r2
 668 059e 5B88     		ldrh	r3, [r3, #2]
 669 05a0 0344     		add	r3, r3, r0
 670 05a2 9AB2     		uxth	r2, r3
 671 05a4 07F5C253 		add	r3, r7, #6208
 672 05a8 03F10403 		add	r3, r3, #4
 673 05ac 1B78     		ldrb	r3, [r3]	@ zero_extendqisi2
 674 05ae 9BB2     		uxth	r3, r3
 675 05b0 1344     		add	r3, r3, r2
 676 05b2 07F5C152 		add	r2, r7, #6176
 677 05b6 02F11002 		add	r2, r2, #16
 678 05ba 1380     		strh	r3, [r2]	@ movhi
ARM GAS  C:\Users\tant836\AppData\Local\Temp\ccXZYOJd.s 			page 15


 117:.\pathfinder.c ****                if(tmpCost < Nodes[tentativeNode[Y]][tentativeNode[X]].tentative_cost){
 679              		.loc 1 117 0
 680 05bc 07F12803 		add	r3, r7, #40
 681 05c0 103B     		subs	r3, r3, #16
 682 05c2 1B78     		ldrb	r3, [r3]	@ zero_extendqisi2
 683 05c4 1946     		mov	r1, r3
 684 05c6 07F12803 		add	r3, r7, #40
 685 05ca 103B     		subs	r3, r3, #16
 686 05cc 5B78     		ldrb	r3, [r3, #1]	@ zero_extendqisi2
 687 05ce 1846     		mov	r0, r3
 688 05d0 07F5CD62 		add	r2, r7, #1640
 689 05d4 083A     		subs	r2, r2, #8
 690 05d6 0B46     		mov	r3, r1
 691 05d8 DB00     		lsls	r3, r3, #3
 692 05da 0B44     		add	r3, r3, r1
 693 05dc 5B00     		lsls	r3, r3, #1
 694 05de 0B44     		add	r3, r3, r1
 695 05e0 0344     		add	r3, r3, r0
 696 05e2 1B01     		lsls	r3, r3, #4
 697 05e4 1344     		add	r3, r3, r2
 698 05e6 0833     		adds	r3, r3, #8
 699 05e8 9B88     		ldrh	r3, [r3, #4]
 700 05ea 07F5C152 		add	r2, r7, #6176
 701 05ee 02F11002 		add	r2, r2, #16
 702 05f2 1288     		ldrh	r2, [r2]
 703 05f4 9A42     		cmp	r2, r3
 704 05f6 80F08D80 		bcs	.L13
 118:.\pathfinder.c ****                   //printf("5 %d\n", tmpCost);
 119:.\pathfinder.c ****                   Nodes[tentativeNode[Y]][tentativeNode[X]].tentative_cost = tmpCost;
 705              		.loc 1 119 0
 706 05fa 07F12803 		add	r3, r7, #40
 707 05fe 103B     		subs	r3, r3, #16
 708 0600 1B78     		ldrb	r3, [r3]	@ zero_extendqisi2
 709 0602 1946     		mov	r1, r3
 710 0604 07F12803 		add	r3, r7, #40
 711 0608 103B     		subs	r3, r3, #16
 712 060a 5B78     		ldrb	r3, [r3, #1]	@ zero_extendqisi2
 713 060c 1846     		mov	r0, r3
 714 060e 07F5CD62 		add	r2, r7, #1640
 715 0612 083A     		subs	r2, r2, #8
 716 0614 0B46     		mov	r3, r1
 717 0616 DB00     		lsls	r3, r3, #3
 718 0618 0B44     		add	r3, r3, r1
 719 061a 5B00     		lsls	r3, r3, #1
 720 061c 0B44     		add	r3, r3, r1
 721 061e 0344     		add	r3, r3, r0
 722 0620 1B01     		lsls	r3, r3, #4
 723 0622 1344     		add	r3, r3, r2
 724 0624 0833     		adds	r3, r3, #8
 725 0626 07F5C152 		add	r2, r7, #6176
 726 062a 02F11002 		add	r2, r2, #16
 727 062e 1288     		ldrh	r2, [r2]	@ movhi
 728 0630 9A80     		strh	r2, [r3, #4]	@ movhi
 120:.\pathfinder.c ****                   //printf("6 currentX : %d, currentY : %d\n", current[0], current[1]);
 121:.\pathfinder.c **** 
 122:.\pathfinder.c ****                   //printf("Discovered node at X : %d, Y : %d\n", tentativeNode[0], tentativeNode[1
 123:.\pathfinder.c ****                   Nodes[tentativeNode[Y]][tentativeNode[X]].prevNode = &Nodes[current[Y]][current[1
ARM GAS  C:\Users\tant836\AppData\Local\Temp\ccXZYOJd.s 			page 16


 729              		.loc 1 123 0
 730 0632 07F12803 		add	r3, r7, #40
 731 0636 103B     		subs	r3, r3, #16
 732 0638 1B78     		ldrb	r3, [r3]	@ zero_extendqisi2
 733 063a 1946     		mov	r1, r3
 734 063c 07F12803 		add	r3, r7, #40
 735 0640 103B     		subs	r3, r3, #16
 736 0642 5B78     		ldrb	r3, [r3, #1]	@ zero_extendqisi2
 737 0644 1C46     		mov	r4, r3
 738 0646 07F5CD63 		add	r3, r7, #1640
 739 064a 0C3B     		subs	r3, r3, #12
 740 064c 1B78     		ldrb	r3, [r3]	@ zero_extendqisi2
 741 064e 1846     		mov	r0, r3
 742 0650 07F5CD63 		add	r3, r7, #1640
 743 0654 0C3B     		subs	r3, r3, #12
 744 0656 5B78     		ldrb	r3, [r3, #1]	@ zero_extendqisi2
 745 0658 1D46     		mov	r5, r3
 746 065a 07F5CD62 		add	r2, r7, #1640
 747 065e 083A     		subs	r2, r2, #8
 748 0660 0346     		mov	r3, r0
 749 0662 DB00     		lsls	r3, r3, #3
 750 0664 0344     		add	r3, r3, r0
 751 0666 5B00     		lsls	r3, r3, #1
 752 0668 0344     		add	r3, r3, r0
 753 066a 2B44     		add	r3, r3, r5
 754 066c 1B01     		lsls	r3, r3, #4
 755 066e D018     		adds	r0, r2, r3
 756 0670 07F5CD62 		add	r2, r7, #1640
 757 0674 083A     		subs	r2, r2, #8
 758 0676 0B46     		mov	r3, r1
 759 0678 DB00     		lsls	r3, r3, #3
 760 067a 0B44     		add	r3, r3, r1
 761 067c 5B00     		lsls	r3, r3, #1
 762 067e 0B44     		add	r3, r3, r1
 763 0680 2344     		add	r3, r3, r4
 764 0682 1B01     		lsls	r3, r3, #4
 765 0684 1344     		add	r3, r3, r2
 766 0686 0833     		adds	r3, r3, #8
 767 0688 1860     		str	r0, [r3]
 124:.\pathfinder.c ****                   nextNodes[totalIterationCounter][Y] = tentativeNode[Y];
 768              		.loc 1 124 0
 769 068a 07F5C253 		add	r3, r7, #6208
 770 068e 03F10503 		add	r3, r3, #5
 771 0692 1A78     		ldrb	r2, [r3]	@ zero_extendqisi2
 772 0694 07F12803 		add	r3, r7, #40
 773 0698 103B     		subs	r3, r3, #16
 774 069a 1978     		ldrb	r1, [r3]	@ zero_extendqisi2
 775 069c 07F12803 		add	r3, r7, #40
 776 06a0 0C3B     		subs	r3, r3, #12
 777 06a2 03F81210 		strb	r1, [r3, r2, lsl #1]
 125:.\pathfinder.c ****                   nextNodes[totalIterationCounter][X] = tentativeNode[X];
 778              		.loc 1 125 0
 779 06a6 07F5C253 		add	r3, r7, #6208
 780 06aa 03F10503 		add	r3, r3, #5
 781 06ae 1978     		ldrb	r1, [r3]	@ zero_extendqisi2
 782 06b0 07F12803 		add	r3, r7, #40
 783 06b4 103B     		subs	r3, r3, #16
ARM GAS  C:\Users\tant836\AppData\Local\Temp\ccXZYOJd.s 			page 17


 784 06b6 5878     		ldrb	r0, [r3, #1]	@ zero_extendqisi2
 785 06b8 07F12802 		add	r2, r7, #40
 786 06bc 0C3A     		subs	r2, r2, #12
 787 06be 4B00     		lsls	r3, r1, #1
 788 06c0 1344     		add	r3, r3, r2
 789 06c2 0246     		mov	r2, r0
 790 06c4 5A70     		strb	r2, [r3, #1]
 126:.\pathfinder.c ****                   Nodes[tentativeNode[Y]][tentativeNode[X]].direction = counter;
 791              		.loc 1 126 0
 792 06c6 07F12803 		add	r3, r7, #40
 793 06ca 103B     		subs	r3, r3, #16
 794 06cc 1B78     		ldrb	r3, [r3]	@ zero_extendqisi2
 795 06ce 1946     		mov	r1, r3
 796 06d0 07F12803 		add	r3, r7, #40
 797 06d4 103B     		subs	r3, r3, #16
 798 06d6 5B78     		ldrb	r3, [r3, #1]	@ zero_extendqisi2
 799 06d8 1846     		mov	r0, r3
 800 06da 07F5CD62 		add	r2, r7, #1640
 801 06de 083A     		subs	r2, r2, #8
 802 06e0 0B46     		mov	r3, r1
 803 06e2 DB00     		lsls	r3, r3, #3
 804 06e4 0B44     		add	r3, r3, r1
 805 06e6 5B00     		lsls	r3, r3, #1
 806 06e8 0B44     		add	r3, r3, r1
 807 06ea 0344     		add	r3, r3, r0
 808 06ec 1B01     		lsls	r3, r3, #4
 809 06ee 1344     		add	r3, r3, r2
 810 06f0 0833     		adds	r3, r3, #8
 811 06f2 07F5C252 		add	r2, r7, #6208
 812 06f6 02F10302 		add	r2, r2, #3
 813 06fa 1278     		ldrb	r2, [r2]
 814 06fc 9A71     		strb	r2, [r3, #6]
 127:.\pathfinder.c ****                   //nextNodesDirection[totalIterationCounter] = counter;
 128:.\pathfinder.c ****                   totalIterationCounter = 1 + totalIterationCounter;
 815              		.loc 1 128 0
 816 06fe 07F5C253 		add	r3, r7, #6208
 817 0702 03F10503 		add	r3, r3, #5
 818 0706 1B78     		ldrb	r3, [r3]
 819 0708 0133     		adds	r3, r3, #1
 820 070a 07F5C252 		add	r2, r7, #6208
 821 070e 02F10502 		add	r2, r2, #5
 822 0712 1370     		strb	r3, [r2]
 823              	.L13:
 129:.\pathfinder.c ****                }
 130:.\pathfinder.c ****             }
 131:.\pathfinder.c ****          }
 132:.\pathfinder.c ****          counter++;
 824              		.loc 1 132 0
 825 0714 07F5C253 		add	r3, r7, #6208
 826 0718 03F10303 		add	r3, r3, #3
 827 071c 1B78     		ldrb	r3, [r3]	@ zero_extendqisi2
 828 071e 0133     		adds	r3, r3, #1
 829 0720 07F5C252 		add	r2, r7, #6208
 830 0724 02F10302 		add	r2, r2, #3
 831 0728 1370     		strb	r3, [r2]
 832              	.L7:
  94:.\pathfinder.c ****          corner_penalty = 0;
ARM GAS  C:\Users\tant836\AppData\Local\Temp\ccXZYOJd.s 			page 18


 833              		.loc 1 94 0
 834 072a 07F5C253 		add	r3, r7, #6208
 835 072e 03F10303 		add	r3, r3, #3
 836 0732 1B78     		ldrb	r3, [r3]	@ zero_extendqisi2
 837 0734 042B     		cmp	r3, #4
 838 0736 7FF660AE 		bls	.L14
 133:.\pathfinder.c ****       }
 134:.\pathfinder.c ****       //set the default cost value so that the for loop will find the lowest unvisited node
 135:.\pathfinder.c ****       nextNodeCost = INF_16;
 839              		.loc 1 135 0
 840 073a 4FF6FF73 		movw	r3, #65535
 841 073e 07F5C252 		add	r2, r7, #6208
 842 0742 1380     		strh	r3, [r2]	@ movhi
 136:.\pathfinder.c ****       //find the lowest unvisited node
 137:.\pathfinder.c ****       hasNext = 0;
 843              		.loc 1 137 0
 844 0744 0023     		movs	r3, #0
 845 0746 07F5C152 		add	r2, r7, #6176
 846 074a 02F11F02 		add	r2, r2, #31
 847 074e 1370     		strb	r3, [r2]
 138:.\pathfinder.c **** 
 139:.\pathfinder.c ****       //find the next node to visit
 140:.\pathfinder.c ****       //printf("totalIterationCounter : %d\n", totalIterationCounter);
 141:.\pathfinder.c ****         int i;
 142:.\pathfinder.c ****       for(i = 0; i < totalIterationCounter; i++){
 848              		.loc 1 142 0
 849 0750 0023     		movs	r3, #0
 850 0752 07F5C152 		add	r2, r7, #6176
 851 0756 02F11802 		add	r2, r2, #24
 852 075a 1360     		str	r3, [r2]
 853 075c AFE0     		b	.L15
 854              	.L29:
 855 075e 00BF     		.align	2
 856              	.L28:
 857 0760 00000000 		.word	robot_direction
 858              	.L17:
 143:.\pathfinder.c ****          //printf("i : %d\n", i);
 144:.\pathfinder.c ****          tmpNextNode[Y] = nextNodes[i][Y];
 859              		.loc 1 144 0
 860 0764 07F12803 		add	r3, r7, #40
 861 0768 0C3B     		subs	r3, r3, #12
 862 076a 07F5C152 		add	r2, r7, #6176
 863 076e 02F11802 		add	r2, r2, #24
 864 0772 1268     		ldr	r2, [r2]
 865 0774 13F81220 		ldrb	r2, [r3, r2, lsl #1]	@ zero_extendqisi2
 866 0778 07F12803 		add	r3, r7, #40
 867 077c 183B     		subs	r3, r3, #24
 868 077e 1A70     		strb	r2, [r3]
 145:.\pathfinder.c ****          tmpNextNode[X] = nextNodes[i][X];
 869              		.loc 1 145 0
 870 0780 07F12802 		add	r2, r7, #40
 871 0784 0C3A     		subs	r2, r2, #12
 872 0786 07F5C153 		add	r3, r7, #6176
 873 078a 03F11803 		add	r3, r3, #24
 874 078e 1B68     		ldr	r3, [r3]
 875 0790 5B00     		lsls	r3, r3, #1
 876 0792 1344     		add	r3, r3, r2
ARM GAS  C:\Users\tant836\AppData\Local\Temp\ccXZYOJd.s 			page 19


 877 0794 5A78     		ldrb	r2, [r3, #1]	@ zero_extendqisi2
 878 0796 07F12803 		add	r3, r7, #40
 879 079a 183B     		subs	r3, r3, #24
 880 079c 5A70     		strb	r2, [r3, #1]
 146:.\pathfinder.c ****          //printf("tentative_cost : %d\n", Nodes[nextNodes[i][0]][nextNodes[i][1]].tentative_cost);
 147:.\pathfinder.c ****          if(Nodes[nextNodes[i][Y]][nextNodes[i][X]].tentative_cost < nextNodeCost){
 881              		.loc 1 147 0
 882 079e 07F12803 		add	r3, r7, #40
 883 07a2 0C3B     		subs	r3, r3, #12
 884 07a4 07F5C152 		add	r2, r7, #6176
 885 07a8 02F11802 		add	r2, r2, #24
 886 07ac 1268     		ldr	r2, [r2]
 887 07ae 13F81230 		ldrb	r3, [r3, r2, lsl #1]	@ zero_extendqisi2
 888 07b2 1946     		mov	r1, r3
 889 07b4 07F12802 		add	r2, r7, #40
 890 07b8 0C3A     		subs	r2, r2, #12
 891 07ba 07F5C153 		add	r3, r7, #6176
 892 07be 03F11803 		add	r3, r3, #24
 893 07c2 1B68     		ldr	r3, [r3]
 894 07c4 5B00     		lsls	r3, r3, #1
 895 07c6 1344     		add	r3, r3, r2
 896 07c8 5B78     		ldrb	r3, [r3, #1]	@ zero_extendqisi2
 897 07ca 1846     		mov	r0, r3
 898 07cc 07F5CD62 		add	r2, r7, #1640
 899 07d0 083A     		subs	r2, r2, #8
 900 07d2 0B46     		mov	r3, r1
 901 07d4 DB00     		lsls	r3, r3, #3
 902 07d6 0B44     		add	r3, r3, r1
 903 07d8 5B00     		lsls	r3, r3, #1
 904 07da 0B44     		add	r3, r3, r1
 905 07dc 0344     		add	r3, r3, r0
 906 07de 1B01     		lsls	r3, r3, #4
 907 07e0 1344     		add	r3, r3, r2
 908 07e2 0833     		adds	r3, r3, #8
 909 07e4 9B88     		ldrh	r3, [r3, #4]
 910 07e6 07F5C252 		add	r2, r7, #6208
 911 07ea 1288     		ldrh	r2, [r2]
 912 07ec 9A42     		cmp	r2, r3
 913 07ee 5BD9     		bls	.L16
 148:.\pathfinder.c ****             //printf("1 : %d\n", Nodes[nextNodes[i][0]][nextNodes[i][1]].tentative_cost);
 149:.\pathfinder.c ****             if(Nodes[nextNodes[i][Y]][nextNodes[i][X]].visited == UNVISITED){
 914              		.loc 1 149 0
 915 07f0 07F12803 		add	r3, r7, #40
 916 07f4 0C3B     		subs	r3, r3, #12
 917 07f6 07F5C152 		add	r2, r7, #6176
 918 07fa 02F11802 		add	r2, r2, #24
 919 07fe 1268     		ldr	r2, [r2]
 920 0800 13F81230 		ldrb	r3, [r3, r2, lsl #1]	@ zero_extendqisi2
 921 0804 1946     		mov	r1, r3
 922 0806 07F12802 		add	r2, r7, #40
 923 080a 0C3A     		subs	r2, r2, #12
 924 080c 07F5C153 		add	r3, r7, #6176
 925 0810 03F11803 		add	r3, r3, #24
 926 0814 1B68     		ldr	r3, [r3]
 927 0816 5B00     		lsls	r3, r3, #1
 928 0818 1344     		add	r3, r3, r2
 929 081a 5B78     		ldrb	r3, [r3, #1]	@ zero_extendqisi2
ARM GAS  C:\Users\tant836\AppData\Local\Temp\ccXZYOJd.s 			page 20


 930 081c 1846     		mov	r0, r3
 931 081e 07F5CD62 		add	r2, r7, #1640
 932 0822 083A     		subs	r2, r2, #8
 933 0824 0B46     		mov	r3, r1
 934 0826 DB00     		lsls	r3, r3, #3
 935 0828 0B44     		add	r3, r3, r1
 936 082a 5B00     		lsls	r3, r3, #1
 937 082c 0B44     		add	r3, r3, r1
 938 082e 0344     		add	r3, r3, r0
 939 0830 1B01     		lsls	r3, r3, #4
 940 0832 1344     		add	r3, r3, r2
 941 0834 5B78     		ldrb	r3, [r3, #1]	@ zero_extendqisi2
 942 0836 002B     		cmp	r3, #0
 943 0838 36D1     		bne	.L16
 150:.\pathfinder.c **** 
 151:.\pathfinder.c ****                //printf("2 : %d\n", Nodes[nextNodes[i][0]][nextNodes[i][1]].visited);
 152:.\pathfinder.c ****                nextNodeCost = Nodes[nextNodes[i][Y]][nextNodes[i][X]].tentative_cost;
 944              		.loc 1 152 0
 945 083a 07F12803 		add	r3, r7, #40
 946 083e 0C3B     		subs	r3, r3, #12
 947 0840 07F5C152 		add	r2, r7, #6176
 948 0844 02F11802 		add	r2, r2, #24
 949 0848 1268     		ldr	r2, [r2]
 950 084a 13F81230 		ldrb	r3, [r3, r2, lsl #1]	@ zero_extendqisi2
 951 084e 1946     		mov	r1, r3
 952 0850 07F12802 		add	r2, r7, #40
 953 0854 0C3A     		subs	r2, r2, #12
 954 0856 07F5C153 		add	r3, r7, #6176
 955 085a 03F11803 		add	r3, r3, #24
 956 085e 1B68     		ldr	r3, [r3]
 957 0860 5B00     		lsls	r3, r3, #1
 958 0862 1344     		add	r3, r3, r2
 959 0864 5B78     		ldrb	r3, [r3, #1]	@ zero_extendqisi2
 960 0866 1846     		mov	r0, r3
 961 0868 07F5CD62 		add	r2, r7, #1640
 962 086c 083A     		subs	r2, r2, #8
 963 086e 0B46     		mov	r3, r1
 964 0870 DB00     		lsls	r3, r3, #3
 965 0872 0B44     		add	r3, r3, r1
 966 0874 5B00     		lsls	r3, r3, #1
 967 0876 0B44     		add	r3, r3, r1
 968 0878 0344     		add	r3, r3, r0
 969 087a 1B01     		lsls	r3, r3, #4
 970 087c 1344     		add	r3, r3, r2
 971 087e 0833     		adds	r3, r3, #8
 972 0880 9B88     		ldrh	r3, [r3, #4]	@ movhi
 973 0882 07F5C252 		add	r2, r7, #6208
 974 0886 1380     		strh	r3, [r2]	@ movhi
 153:.\pathfinder.c **** 
 154:.\pathfinder.c ****                nextNodeIndex = i;
 975              		.loc 1 154 0
 976 0888 07F5C153 		add	r3, r7, #6176
 977 088c 03F11803 		add	r3, r3, #24
 978 0890 1B68     		ldr	r3, [r3]
 979 0892 07F5C252 		add	r2, r7, #6208
 980 0896 02F10202 		add	r2, r2, #2
 981 089a 1370     		strb	r3, [r2]
ARM GAS  C:\Users\tant836\AppData\Local\Temp\ccXZYOJd.s 			page 21


 155:.\pathfinder.c ****                hasNext = 1;
 982              		.loc 1 155 0
 983 089c 0123     		movs	r3, #1
 984 089e 07F5C152 		add	r2, r7, #6176
 985 08a2 02F11F02 		add	r2, r2, #31
 986 08a6 1370     		strb	r3, [r2]
 987              	.L16:
 142:.\pathfinder.c ****          //printf("i : %d\n", i);
 988              		.loc 1 142 0 discriminator 2
 989 08a8 07F5C153 		add	r3, r7, #6176
 990 08ac 03F11803 		add	r3, r3, #24
 991 08b0 1B68     		ldr	r3, [r3]
 992 08b2 0133     		adds	r3, r3, #1
 993 08b4 07F5C152 		add	r2, r7, #6176
 994 08b8 02F11802 		add	r2, r2, #24
 995 08bc 1360     		str	r3, [r2]
 996              	.L15:
 142:.\pathfinder.c ****          //printf("i : %d\n", i);
 997              		.loc 1 142 0 is_stmt 0 discriminator 1
 998 08be 07F5C253 		add	r3, r7, #6208
 999 08c2 03F10503 		add	r3, r3, #5
 1000 08c6 1A78     		ldrb	r2, [r3]	@ zero_extendqisi2
 1001 08c8 07F5C153 		add	r3, r7, #6176
 1002 08cc 03F11803 		add	r3, r3, #24
 1003 08d0 1B68     		ldr	r3, [r3]
 1004 08d2 9A42     		cmp	r2, r3
 1005 08d4 3FF746AF 		bgt	.L17
 156:.\pathfinder.c ****             }
 157:.\pathfinder.c ****          }
 158:.\pathfinder.c ****       }
 159:.\pathfinder.c ****       //printf("has next %d\n", hasNext);
 160:.\pathfinder.c ****       current[Y] = nextNodes[nextNodeIndex][Y];
 1006              		.loc 1 160 0 is_stmt 1
 1007 08d8 07F5C253 		add	r3, r7, #6208
 1008 08dc 03F10203 		add	r3, r3, #2
 1009 08e0 1A78     		ldrb	r2, [r3]	@ zero_extendqisi2
 1010 08e2 07F12803 		add	r3, r7, #40
 1011 08e6 0C3B     		subs	r3, r3, #12
 1012 08e8 13F81220 		ldrb	r2, [r3, r2, lsl #1]	@ zero_extendqisi2
 1013 08ec 07F5CD63 		add	r3, r7, #1640
 1014 08f0 0C3B     		subs	r3, r3, #12
 1015 08f2 1A70     		strb	r2, [r3]
 161:.\pathfinder.c ****       current[X] = nextNodes[nextNodeIndex][X];
 1016              		.loc 1 161 0
 1017 08f4 07F5C253 		add	r3, r7, #6208
 1018 08f8 03F10203 		add	r3, r3, #2
 1019 08fc 1B78     		ldrb	r3, [r3]	@ zero_extendqisi2
 1020 08fe 07F12802 		add	r2, r7, #40
 1021 0902 0C3A     		subs	r2, r2, #12
 1022 0904 5B00     		lsls	r3, r3, #1
 1023 0906 1344     		add	r3, r3, r2
 1024 0908 5A78     		ldrb	r2, [r3, #1]	@ zero_extendqisi2
 1025 090a 07F5CD63 		add	r3, r7, #1640
 1026 090e 0C3B     		subs	r3, r3, #12
 1027 0910 5A70     		strb	r2, [r3, #1]
 162:.\pathfinder.c ****       robot_direction = Nodes[current[Y]][current[X]].direction;
 1028              		.loc 1 162 0
ARM GAS  C:\Users\tant836\AppData\Local\Temp\ccXZYOJd.s 			page 22


 1029 0912 07F5CD63 		add	r3, r7, #1640
 1030 0916 0C3B     		subs	r3, r3, #12
 1031 0918 1B78     		ldrb	r3, [r3]	@ zero_extendqisi2
 1032 091a 1946     		mov	r1, r3
 1033 091c 07F5CD63 		add	r3, r7, #1640
 1034 0920 0C3B     		subs	r3, r3, #12
 1035 0922 5B78     		ldrb	r3, [r3, #1]	@ zero_extendqisi2
 1036 0924 1846     		mov	r0, r3
 1037 0926 07F5CD62 		add	r2, r7, #1640
 1038 092a 083A     		subs	r2, r2, #8
 1039 092c 0B46     		mov	r3, r1
 1040 092e DB00     		lsls	r3, r3, #3
 1041 0930 0B44     		add	r3, r3, r1
 1042 0932 5B00     		lsls	r3, r3, #1
 1043 0934 0B44     		add	r3, r3, r1
 1044 0936 0344     		add	r3, r3, r0
 1045 0938 1B01     		lsls	r3, r3, #4
 1046 093a 1344     		add	r3, r3, r2
 1047 093c 0833     		adds	r3, r3, #8
 1048 093e 9A79     		ldrb	r2, [r3, #6]	@ zero_extendqisi2
 1049 0940 A04B     		ldr	r3, .L30
 1050 0942 1A70     		strb	r2, [r3]
 1051              	.L6:
 1052              	.LBE3:
  90:.\pathfinder.c ****       counter = 1;
 1053              		.loc 1 90 0
 1054 0944 07F5CD63 		add	r3, r7, #1640
 1055 0948 0C3B     		subs	r3, r3, #12
 1056 094a 1A78     		ldrb	r2, [r3]	@ zero_extendqisi2
 1057 094c 07F5C253 		add	r3, r7, #6208
 1058 0950 03F11803 		add	r3, r3, #24
 1059 0954 1B68     		ldr	r3, [r3]
 1060 0956 1B78     		ldrb	r3, [r3]	@ zero_extendqisi2
 1061 0958 9A42     		cmp	r2, r3
 1062 095a 0CD1     		bne	.L18
  90:.\pathfinder.c ****       counter = 1;
 1063              		.loc 1 90 0 is_stmt 0 discriminator 2
 1064 095c 07F5CD63 		add	r3, r7, #1640
 1065 0960 0C3B     		subs	r3, r3, #12
 1066 0962 5A78     		ldrb	r2, [r3, #1]	@ zero_extendqisi2
 1067 0964 07F5C253 		add	r3, r7, #6208
 1068 0968 03F11803 		add	r3, r3, #24
 1069 096c 1B68     		ldr	r3, [r3]
 1070 096e 0133     		adds	r3, r3, #1
 1071 0970 1B78     		ldrb	r3, [r3]	@ zero_extendqisi2
 1072 0972 9A42     		cmp	r2, r3
 1073 0974 07D0     		beq	.L19
 1074              	.L18:
  90:.\pathfinder.c ****       counter = 1;
 1075              		.loc 1 90 0 discriminator 3
 1076 0976 07F5C153 		add	r3, r7, #6176
 1077 097a 03F11F03 		add	r3, r3, #31
 1078 097e 1B78     		ldrb	r3, [r3]	@ zero_extendqisi2
 1079 0980 012B     		cmp	r3, #1
 1080 0982 3FF41CAD 		beq	.L20
 1081              	.L19:
 163:.\pathfinder.c **** 
ARM GAS  C:\Users\tant836\AppData\Local\Temp\ccXZYOJd.s 			page 23


 164:.\pathfinder.c ****    }
 165:.\pathfinder.c **** 
 166:.\pathfinder.c ****    counter = 0;
 1082              		.loc 1 166 0 is_stmt 1
 1083 0986 0023     		movs	r3, #0
 1084 0988 07F5C252 		add	r2, r7, #6208
 1085 098c 02F10302 		add	r2, r2, #3
 1086 0990 1370     		strb	r3, [r2]
 167:.\pathfinder.c ****    //printf("Node %d | X: %d | Y: %d\n", counter, current[0], current[1]);
 168:.\pathfinder.c ****    if((current[Y] == destination[Y]) && (current[X] == destination[X])){
 1087              		.loc 1 168 0
 1088 0992 07F5CD63 		add	r3, r7, #1640
 1089 0996 0C3B     		subs	r3, r3, #12
 1090 0998 1A78     		ldrb	r2, [r3]	@ zero_extendqisi2
 1091 099a 07F5C253 		add	r3, r7, #6208
 1092 099e 03F11803 		add	r3, r3, #24
 1093 09a2 1B68     		ldr	r3, [r3]
 1094 09a4 1B78     		ldrb	r3, [r3]	@ zero_extendqisi2
 1095 09a6 9A42     		cmp	r2, r3
 1096 09a8 40F00481 		bne	.L21
 1097              		.loc 1 168 0 is_stmt 0 discriminator 1
 1098 09ac 07F5CD63 		add	r3, r7, #1640
 1099 09b0 0C3B     		subs	r3, r3, #12
 1100 09b2 5A78     		ldrb	r2, [r3, #1]	@ zero_extendqisi2
 1101 09b4 07F5C253 		add	r3, r7, #6208
 1102 09b8 03F11803 		add	r3, r3, #24
 1103 09bc 1B68     		ldr	r3, [r3]
 1104 09be 0133     		adds	r3, r3, #1
 1105 09c0 1B78     		ldrb	r3, [r3]	@ zero_extendqisi2
 1106 09c2 9A42     		cmp	r2, r3
 1107 09c4 40F0F680 		bne	.L21
 1108              	.LBB4:
 169:.\pathfinder.c ****       //printf("1 : startX: %d, startY: %d\n", start[0], start[1]);
 170:.\pathfinder.c ****       node* currentNode = &(Nodes[current[Y]][current[X]]);
 1109              		.loc 1 170 0 is_stmt 1
 1110 09c8 07F5CD63 		add	r3, r7, #1640
 1111 09cc 0C3B     		subs	r3, r3, #12
 1112 09ce 1B78     		ldrb	r3, [r3]	@ zero_extendqisi2
 1113 09d0 1946     		mov	r1, r3
 1114 09d2 07F5CD63 		add	r3, r7, #1640
 1115 09d6 0C3B     		subs	r3, r3, #12
 1116 09d8 5B78     		ldrb	r3, [r3, #1]	@ zero_extendqisi2
 1117 09da 1846     		mov	r0, r3
 1118 09dc 07F5CD62 		add	r2, r7, #1640
 1119 09e0 083A     		subs	r2, r2, #8
 1120 09e2 0B46     		mov	r3, r1
 1121 09e4 DB00     		lsls	r3, r3, #3
 1122 09e6 0B44     		add	r3, r3, r1
 1123 09e8 5B00     		lsls	r3, r3, #1
 1124 09ea 0B44     		add	r3, r3, r1
 1125 09ec 0344     		add	r3, r3, r0
 1126 09ee 1B01     		lsls	r3, r3, #4
 1127 09f0 1344     		add	r3, r3, r2
 1128 09f2 07F5C152 		add	r2, r7, #6176
 1129 09f6 02F11402 		add	r2, r2, #20
 1130 09fa 1360     		str	r3, [r2]
 171:.\pathfinder.c ****       while(!((currentNode->y == start[Y]) && (currentNode->x == start[X]))){
ARM GAS  C:\Users\tant836\AppData\Local\Temp\ccXZYOJd.s 			page 24


 1131              		.loc 1 171 0
 1132 09fc 66E0     		b	.L22
 1133              	.L23:
 172:.\pathfinder.c ****          //printf("1 : %d\n", Nodes[nextNodes[i][0]][nextNodes[i][1]].tentative_cost);
 173:.\pathfinder.c ****          path[counter][Y] = currentNode->y;
 1134              		.loc 1 173 0
 1135 09fe 07F5C253 		add	r3, r7, #6208
 1136 0a02 03F10303 		add	r3, r3, #3
 1137 0a06 1A78     		ldrb	r2, [r3]	@ zero_extendqisi2
 1138 0a08 1346     		mov	r3, r2
 1139 0a0a 5B00     		lsls	r3, r3, #1
 1140 0a0c 1A44     		add	r2, r2, r3
 1141 0a0e 07F10803 		add	r3, r7, #8
 1142 0a12 043B     		subs	r3, r3, #4
 1143 0a14 1B68     		ldr	r3, [r3]
 1144 0a16 1344     		add	r3, r3, r2
 1145 0a18 07F5C152 		add	r2, r7, #6176
 1146 0a1c 02F11402 		add	r2, r2, #20
 1147 0a20 1268     		ldr	r2, [r2]
 1148 0a22 5279     		ldrb	r2, [r2, #5]	@ zero_extendqisi2
 1149 0a24 1A70     		strb	r2, [r3]
 174:.\pathfinder.c ****          path[counter][X] = currentNode->x;
 1150              		.loc 1 174 0
 1151 0a26 07F5C253 		add	r3, r7, #6208
 1152 0a2a 03F10303 		add	r3, r3, #3
 1153 0a2e 1A78     		ldrb	r2, [r3]	@ zero_extendqisi2
 1154 0a30 1346     		mov	r3, r2
 1155 0a32 5B00     		lsls	r3, r3, #1
 1156 0a34 1A44     		add	r2, r2, r3
 1157 0a36 07F10803 		add	r3, r7, #8
 1158 0a3a 043B     		subs	r3, r3, #4
 1159 0a3c 1B68     		ldr	r3, [r3]
 1160 0a3e 1344     		add	r3, r3, r2
 1161 0a40 07F5C152 		add	r2, r7, #6176
 1162 0a44 02F11402 		add	r2, r2, #20
 1163 0a48 1268     		ldr	r2, [r2]
 1164 0a4a 1279     		ldrb	r2, [r2, #4]	@ zero_extendqisi2
 1165 0a4c 5A70     		strb	r2, [r3, #1]
 175:.\pathfinder.c ****          path[counter][DIR] = Nodes[currentNode->y][currentNode->x].direction;
 1166              		.loc 1 175 0
 1167 0a4e 07F5C253 		add	r3, r7, #6208
 1168 0a52 03F10303 		add	r3, r3, #3
 1169 0a56 1A78     		ldrb	r2, [r3]	@ zero_extendqisi2
 1170 0a58 1346     		mov	r3, r2
 1171 0a5a 5B00     		lsls	r3, r3, #1
 1172 0a5c 1A44     		add	r2, r2, r3
 1173 0a5e 07F10803 		add	r3, r7, #8
 1174 0a62 043B     		subs	r3, r3, #4
 1175 0a64 1B68     		ldr	r3, [r3]
 1176 0a66 9818     		adds	r0, r3, r2
 1177 0a68 07F5C153 		add	r3, r7, #6176
 1178 0a6c 03F11403 		add	r3, r3, #20
 1179 0a70 1B68     		ldr	r3, [r3]
 1180 0a72 5B79     		ldrb	r3, [r3, #5]	@ zero_extendqisi2
 1181 0a74 1946     		mov	r1, r3
 1182 0a76 07F5C153 		add	r3, r7, #6176
 1183 0a7a 03F11403 		add	r3, r3, #20
ARM GAS  C:\Users\tant836\AppData\Local\Temp\ccXZYOJd.s 			page 25


 1184 0a7e 1B68     		ldr	r3, [r3]
 1185 0a80 1B79     		ldrb	r3, [r3, #4]	@ zero_extendqisi2
 1186 0a82 1C46     		mov	r4, r3
 1187 0a84 07F5CD62 		add	r2, r7, #1640
 1188 0a88 083A     		subs	r2, r2, #8
 1189 0a8a 0B46     		mov	r3, r1
 1190 0a8c DB00     		lsls	r3, r3, #3
 1191 0a8e 0B44     		add	r3, r3, r1
 1192 0a90 5B00     		lsls	r3, r3, #1
 1193 0a92 0B44     		add	r3, r3, r1
 1194 0a94 2344     		add	r3, r3, r4
 1195 0a96 1B01     		lsls	r3, r3, #4
 1196 0a98 1344     		add	r3, r3, r2
 1197 0a9a 0833     		adds	r3, r3, #8
 1198 0a9c 9B79     		ldrb	r3, [r3, #6]	@ zero_extendqisi2
 1199 0a9e 8370     		strb	r3, [r0, #2]
 176:.\pathfinder.c ****          //printf("direction2 %d\n", path[0][DIR]);
 177:.\pathfinder.c ****          currentNode = currentNode->prevNode;
 1200              		.loc 1 177 0
 1201 0aa0 07F5C153 		add	r3, r7, #6176
 1202 0aa4 03F11403 		add	r3, r3, #20
 1203 0aa8 1B68     		ldr	r3, [r3]
 1204 0aaa 9B68     		ldr	r3, [r3, #8]
 1205 0aac 07F5C152 		add	r2, r7, #6176
 1206 0ab0 02F11402 		add	r2, r2, #20
 1207 0ab4 1360     		str	r3, [r2]
 178:.\pathfinder.c **** 
 179:.\pathfinder.c ****          counter++;
 1208              		.loc 1 179 0
 1209 0ab6 07F5C253 		add	r3, r7, #6208
 1210 0aba 03F10303 		add	r3, r3, #3
 1211 0abe 1B78     		ldrb	r3, [r3]	@ zero_extendqisi2
 1212 0ac0 0133     		adds	r3, r3, #1
 1213 0ac2 07F5C252 		add	r2, r7, #6208
 1214 0ac6 02F10302 		add	r2, r2, #3
 1215 0aca 1370     		strb	r3, [r2]
 1216              	.L22:
 171:.\pathfinder.c ****          //printf("1 : %d\n", Nodes[nextNodes[i][0]][nextNodes[i][1]].tentative_cost);
 1217              		.loc 1 171 0
 1218 0acc 07F5C153 		add	r3, r7, #6176
 1219 0ad0 03F11403 		add	r3, r3, #20
 1220 0ad4 1B68     		ldr	r3, [r3]
 1221 0ad6 5A79     		ldrb	r2, [r3, #5]	@ zero_extendqisi2
 1222 0ad8 07F10803 		add	r3, r7, #8
 1223 0adc 083B     		subs	r3, r3, #8
 1224 0ade 1B68     		ldr	r3, [r3]
 1225 0ae0 1B78     		ldrb	r3, [r3]	@ zero_extendqisi2
 1226 0ae2 9A42     		cmp	r2, r3
 1227 0ae4 8BD1     		bne	.L23
 171:.\pathfinder.c ****          //printf("1 : %d\n", Nodes[nextNodes[i][0]][nextNodes[i][1]].tentative_cost);
 1228              		.loc 1 171 0 is_stmt 0 discriminator 1
 1229 0ae6 07F5C153 		add	r3, r7, #6176
 1230 0aea 03F11403 		add	r3, r3, #20
 1231 0aee 1B68     		ldr	r3, [r3]
 1232 0af0 1A79     		ldrb	r2, [r3, #4]	@ zero_extendqisi2
 1233 0af2 07F10803 		add	r3, r7, #8
 1234 0af6 083B     		subs	r3, r3, #8
ARM GAS  C:\Users\tant836\AppData\Local\Temp\ccXZYOJd.s 			page 26


 1235 0af8 1B68     		ldr	r3, [r3]
 1236 0afa 0133     		adds	r3, r3, #1
 1237 0afc 1B78     		ldrb	r3, [r3]	@ zero_extendqisi2
 1238 0afe 9A42     		cmp	r2, r3
 1239 0b00 7FF47DAF 		bne	.L23
 180:.\pathfinder.c ****       }
 181:.\pathfinder.c ****       path[counter][Y] = currentNode->y;
 1240              		.loc 1 181 0 is_stmt 1
 1241 0b04 07F5C253 		add	r3, r7, #6208
 1242 0b08 03F10303 		add	r3, r3, #3
 1243 0b0c 1A78     		ldrb	r2, [r3]	@ zero_extendqisi2
 1244 0b0e 1346     		mov	r3, r2
 1245 0b10 5B00     		lsls	r3, r3, #1
 1246 0b12 1A44     		add	r2, r2, r3
 1247 0b14 07F10803 		add	r3, r7, #8
 1248 0b18 043B     		subs	r3, r3, #4
 1249 0b1a 1B68     		ldr	r3, [r3]
 1250 0b1c 1344     		add	r3, r3, r2
 1251 0b1e 07F5C152 		add	r2, r7, #6176
 1252 0b22 02F11402 		add	r2, r2, #20
 1253 0b26 1268     		ldr	r2, [r2]
 1254 0b28 5279     		ldrb	r2, [r2, #5]	@ zero_extendqisi2
 1255 0b2a 1A70     		strb	r2, [r3]
 182:.\pathfinder.c ****       path[counter][X] = currentNode->x;
 1256              		.loc 1 182 0
 1257 0b2c 07F5C253 		add	r3, r7, #6208
 1258 0b30 03F10303 		add	r3, r3, #3
 1259 0b34 1A78     		ldrb	r2, [r3]	@ zero_extendqisi2
 1260 0b36 1346     		mov	r3, r2
 1261 0b38 5B00     		lsls	r3, r3, #1
 1262 0b3a 1A44     		add	r2, r2, r3
 1263 0b3c 07F10803 		add	r3, r7, #8
 1264 0b40 043B     		subs	r3, r3, #4
 1265 0b42 1B68     		ldr	r3, [r3]
 1266 0b44 1344     		add	r3, r3, r2
 1267 0b46 07F5C152 		add	r2, r7, #6176
 1268 0b4a 02F11402 		add	r2, r2, #20
 1269 0b4e 1268     		ldr	r2, [r2]
 1270 0b50 1279     		ldrb	r2, [r2, #4]	@ zero_extendqisi2
 1271 0b52 5A70     		strb	r2, [r3, #1]
 183:.\pathfinder.c ****       path[counter][DIR] = Nodes[currentNode->y][currentNode->x].direction;
 1272              		.loc 1 183 0
 1273 0b54 07F5C253 		add	r3, r7, #6208
 1274 0b58 03F10303 		add	r3, r3, #3
 1275 0b5c 1A78     		ldrb	r2, [r3]	@ zero_extendqisi2
 1276 0b5e 1346     		mov	r3, r2
 1277 0b60 5B00     		lsls	r3, r3, #1
 1278 0b62 1A44     		add	r2, r2, r3
 1279 0b64 07F10803 		add	r3, r7, #8
 1280 0b68 043B     		subs	r3, r3, #4
 1281 0b6a 1B68     		ldr	r3, [r3]
 1282 0b6c 9818     		adds	r0, r3, r2
 1283 0b6e 07F5C153 		add	r3, r7, #6176
 1284 0b72 03F11403 		add	r3, r3, #20
 1285 0b76 1B68     		ldr	r3, [r3]
 1286 0b78 5B79     		ldrb	r3, [r3, #5]	@ zero_extendqisi2
 1287 0b7a 1946     		mov	r1, r3
ARM GAS  C:\Users\tant836\AppData\Local\Temp\ccXZYOJd.s 			page 27


 1288 0b7c 07F5C153 		add	r3, r7, #6176
 1289 0b80 03F11403 		add	r3, r3, #20
 1290 0b84 1B68     		ldr	r3, [r3]
 1291 0b86 1B79     		ldrb	r3, [r3, #4]	@ zero_extendqisi2
 1292 0b88 1C46     		mov	r4, r3
 1293 0b8a 07F5CD62 		add	r2, r7, #1640
 1294 0b8e 083A     		subs	r2, r2, #8
 1295 0b90 0B46     		mov	r3, r1
 1296 0b92 DB00     		lsls	r3, r3, #3
 1297 0b94 0B44     		add	r3, r3, r1
 1298 0b96 5B00     		lsls	r3, r3, #1
 1299 0b98 0B44     		add	r3, r3, r1
 1300 0b9a 2344     		add	r3, r3, r4
 1301 0b9c 1B01     		lsls	r3, r3, #4
 1302 0b9e 1344     		add	r3, r3, r2
 1303 0ba0 0833     		adds	r3, r3, #8
 1304 0ba2 9B79     		ldrb	r3, [r3, #6]	@ zero_extendqisi2
 1305 0ba4 8370     		strb	r3, [r0, #2]
 184:.\pathfinder.c ****       return counter;
 1306              		.loc 1 184 0
 1307 0ba6 07F5C253 		add	r3, r7, #6208
 1308 0baa 03F10303 		add	r3, r3, #3
 1309 0bae 1B78     		ldrb	r3, [r3]	@ zero_extendqisi2
 1310 0bb0 9BB2     		uxth	r3, r3
 1311 0bb2 00E0     		b	.L25
 1312              	.L21:
 1313              	.LBE4:
 185:.\pathfinder.c ****    }else{
 186:.\pathfinder.c ****       return 0;
 1314              		.loc 1 186 0
 1315 0bb4 0023     		movs	r3, #0
 1316              	.L25:
 187:.\pathfinder.c ****    }
 188:.\pathfinder.c **** 
 189:.\pathfinder.c ****    //return 0;
 190:.\pathfinder.c **** }
 1317              		.loc 1 190 0 discriminator 1
 1318 0bb6 1846     		mov	r0, r3
 1319 0bb8 07F5C257 		add	r7, r7, #6208
 1320 0bbc 0837     		adds	r7, r7, #8
 1321              		.cfi_def_cfa_offset 16
 1322 0bbe BD46     		mov	sp, r7
 1323              		.cfi_def_cfa_register 13
 1324              		@ sp needed
 1325 0bc0 B0BD     		pop	{r4, r5, r7, pc}
 1326              	.L31:
 1327 0bc2 00BF     		.align	2
 1328              	.L30:
 1329 0bc4 00000000 		.word	robot_direction
 1330              		.cfi_endproc
 1331              	.LFE63:
 1332              		.size	djikstras, .-djikstras
 1333              		.section	.text.DepthFirst,"ax",%progbits
 1334              		.align	2
 1335              		.global	DepthFirst
 1336              		.thumb
 1337              		.thumb_func
ARM GAS  C:\Users\tant836\AppData\Local\Temp\ccXZYOJd.s 			page 28


 1338              		.type	DepthFirst, %function
 1339              	DepthFirst:
 1340              	.LFB64:
 191:.\pathfinder.c **** 
 192:.\pathfinder.c **** 
 193:.\pathfinder.c **** uint16 DepthFirst(uint8 map[Y_SIZE][X_SIZE], uint8 food_list[6][2], uint8 path[DEFAULT_ARRAY_SIZE][
 1341              		.loc 1 193 0
 1342              		.cfi_startproc
 1343              		@ args = 8, pretend = 0, frame = 6216
 1344              		@ frame_needed = 1, uses_anonymous_args = 0
 1345 0000 B0B5     		push	{r4, r5, r7, lr}
 1346              		.cfi_def_cfa_offset 16
 1347              		.cfi_offset 4, -16
 1348              		.cfi_offset 5, -12
 1349              		.cfi_offset 7, -8
 1350              		.cfi_offset 14, -4
 1351 0002 ADF5C25D 		sub	sp, sp, #6208
 1352              		.cfi_def_cfa_offset 6224
 1353 0006 82B0     		sub	sp, sp, #8
 1354              		.cfi_def_cfa_offset 6232
 1355 0008 00AF     		add	r7, sp, #0
 1356              		.cfi_def_cfa_register 7
 1357 000a 07F12804 		add	r4, r7, #40
 1358 000e 1C3C     		subs	r4, r4, #28
 1359 0010 2060     		str	r0, [r4]
 1360 0012 07F10800 		add	r0, r7, #8
 1361 0016 0160     		str	r1, [r0]
 1362 0018 07F10801 		add	r1, r7, #8
 1363 001c 0439     		subs	r1, r1, #4
 1364 001e 0A60     		str	r2, [r1]
 1365 0020 07F10802 		add	r2, r7, #8
 1366 0024 083A     		subs	r2, r2, #8
 1367 0026 1360     		str	r3, [r2]
 194:.\pathfinder.c ****    //printf("Finding path\n");
 195:.\pathfinder.c ****    node Nodes[Y_SIZE][X_SIZE];
 196:.\pathfinder.c ****    //fill up the default information for each node
 197:.\pathfinder.c ****    uint8 i, j;
 198:.\pathfinder.c ****    for(i = 0; i < Y_SIZE; i++){
 1368              		.loc 1 198 0
 1369 0028 0023     		movs	r3, #0
 1370 002a 07F5C252 		add	r2, r7, #6208
 1371 002e 02F10702 		add	r2, r2, #7
 1372 0032 1370     		strb	r3, [r2]
 1373 0034 FCE0     		b	.L33
 1374              	.L36:
 199:.\pathfinder.c ****       for(j = 0; j < X_SIZE; j++){
 1375              		.loc 1 199 0
 1376 0036 0023     		movs	r3, #0
 1377 0038 07F5C252 		add	r2, r7, #6208
 1378 003c 02F10602 		add	r2, r2, #6
 1379 0040 1370     		strb	r3, [r2]
 1380 0042 E2E0     		b	.L34
 1381              	.L35:
 200:.\pathfinder.c ****             Nodes[i][j].path = map[i][j];//map information
 1382              		.loc 1 200 0 discriminator 3
 1383 0044 07F5C253 		add	r3, r7, #6208
 1384 0048 03F10703 		add	r3, r3, #7
ARM GAS  C:\Users\tant836\AppData\Local\Temp\ccXZYOJd.s 			page 29


 1385 004c 1978     		ldrb	r1, [r3]	@ zero_extendqisi2
 1386 004e 07F5C253 		add	r3, r7, #6208
 1387 0052 03F10603 		add	r3, r3, #6
 1388 0056 1878     		ldrb	r0, [r3]	@ zero_extendqisi2
 1389 0058 07F5C253 		add	r3, r7, #6208
 1390 005c 03F10703 		add	r3, r3, #7
 1391 0060 1A78     		ldrb	r2, [r3]	@ zero_extendqisi2
 1392 0062 1346     		mov	r3, r2
 1393 0064 DB00     		lsls	r3, r3, #3
 1394 0066 1344     		add	r3, r3, r2
 1395 0068 5B00     		lsls	r3, r3, #1
 1396 006a 1A44     		add	r2, r2, r3
 1397 006c 07F12803 		add	r3, r7, #40
 1398 0070 1C3B     		subs	r3, r3, #28
 1399 0072 1B68     		ldr	r3, [r3]
 1400 0074 1A44     		add	r2, r2, r3
 1401 0076 07F5C253 		add	r3, r7, #6208
 1402 007a 03F10603 		add	r3, r3, #6
 1403 007e 1B78     		ldrb	r3, [r3]	@ zero_extendqisi2
 1404 0080 D45C     		ldrb	r4, [r2, r3]	@ zero_extendqisi2
 1405 0082 07F5CD62 		add	r2, r7, #1640
 1406 0086 043A     		subs	r2, r2, #4
 1407 0088 0B46     		mov	r3, r1
 1408 008a DB00     		lsls	r3, r3, #3
 1409 008c 0B44     		add	r3, r3, r1
 1410 008e 5B00     		lsls	r3, r3, #1
 1411 0090 0B44     		add	r3, r3, r1
 1412 0092 0344     		add	r3, r3, r0
 1413 0094 1B01     		lsls	r3, r3, #4
 1414 0096 1344     		add	r3, r3, r2
 1415 0098 2246     		mov	r2, r4
 1416 009a 1A70     		strb	r2, [r3]
 201:.\pathfinder.c ****             //printf("%d\n", map[i][j]);
 202:.\pathfinder.c ****             Nodes[i][j].visited = UNVISITED; //set all unvisited
 1417              		.loc 1 202 0 discriminator 3
 1418 009c 07F5C253 		add	r3, r7, #6208
 1419 00a0 03F10703 		add	r3, r3, #7
 1420 00a4 1978     		ldrb	r1, [r3]	@ zero_extendqisi2
 1421 00a6 07F5C253 		add	r3, r7, #6208
 1422 00aa 03F10603 		add	r3, r3, #6
 1423 00ae 1878     		ldrb	r0, [r3]	@ zero_extendqisi2
 1424 00b0 07F5CD62 		add	r2, r7, #1640
 1425 00b4 043A     		subs	r2, r2, #4
 1426 00b6 0B46     		mov	r3, r1
 1427 00b8 DB00     		lsls	r3, r3, #3
 1428 00ba 0B44     		add	r3, r3, r1
 1429 00bc 5B00     		lsls	r3, r3, #1
 1430 00be 0B44     		add	r3, r3, r1
 1431 00c0 0344     		add	r3, r3, r0
 1432 00c2 1B01     		lsls	r3, r3, #4
 1433 00c4 1344     		add	r3, r3, r2
 1434 00c6 0022     		movs	r2, #0
 1435 00c8 5A70     		strb	r2, [r3, #1]
 203:.\pathfinder.c ****             Nodes[i][j].cost = DEFAULT_NODE_COST; // seet the cost of going to this node to the def
 1436              		.loc 1 203 0 discriminator 3
 1437 00ca 07F5C253 		add	r3, r7, #6208
 1438 00ce 03F10703 		add	r3, r3, #7
ARM GAS  C:\Users\tant836\AppData\Local\Temp\ccXZYOJd.s 			page 30


 1439 00d2 1978     		ldrb	r1, [r3]	@ zero_extendqisi2
 1440 00d4 07F5C253 		add	r3, r7, #6208
 1441 00d8 03F10603 		add	r3, r3, #6
 1442 00dc 1878     		ldrb	r0, [r3]	@ zero_extendqisi2
 1443 00de 07F5CD62 		add	r2, r7, #1640
 1444 00e2 043A     		subs	r2, r2, #4
 1445 00e4 0B46     		mov	r3, r1
 1446 00e6 DB00     		lsls	r3, r3, #3
 1447 00e8 0B44     		add	r3, r3, r1
 1448 00ea 5B00     		lsls	r3, r3, #1
 1449 00ec 0B44     		add	r3, r3, r1
 1450 00ee 0344     		add	r3, r3, r0
 1451 00f0 1B01     		lsls	r3, r3, #4
 1452 00f2 1344     		add	r3, r3, r2
 1453 00f4 0A22     		movs	r2, #10
 1454 00f6 5A80     		strh	r2, [r3, #2]	@ movhi
 204:.\pathfinder.c ****             Nodes[i][j].y = i;
 1455              		.loc 1 204 0 discriminator 3
 1456 00f8 07F5C253 		add	r3, r7, #6208
 1457 00fc 03F10703 		add	r3, r3, #7
 1458 0100 1978     		ldrb	r1, [r3]	@ zero_extendqisi2
 1459 0102 07F5C253 		add	r3, r7, #6208
 1460 0106 03F10603 		add	r3, r3, #6
 1461 010a 1878     		ldrb	r0, [r3]	@ zero_extendqisi2
 1462 010c 07F5CD62 		add	r2, r7, #1640
 1463 0110 043A     		subs	r2, r2, #4
 1464 0112 0B46     		mov	r3, r1
 1465 0114 DB00     		lsls	r3, r3, #3
 1466 0116 0B44     		add	r3, r3, r1
 1467 0118 5B00     		lsls	r3, r3, #1
 1468 011a 0B44     		add	r3, r3, r1
 1469 011c 0344     		add	r3, r3, r0
 1470 011e 1B01     		lsls	r3, r3, #4
 1471 0120 1344     		add	r3, r3, r2
 1472 0122 07F5C252 		add	r2, r7, #6208
 1473 0126 02F10702 		add	r2, r2, #7
 1474 012a 1278     		ldrb	r2, [r2]
 1475 012c 5A71     		strb	r2, [r3, #5]
 205:.\pathfinder.c ****             Nodes[i][j].x = j;
 1476              		.loc 1 205 0 discriminator 3
 1477 012e 07F5C253 		add	r3, r7, #6208
 1478 0132 03F10703 		add	r3, r3, #7
 1479 0136 1978     		ldrb	r1, [r3]	@ zero_extendqisi2
 1480 0138 07F5C253 		add	r3, r7, #6208
 1481 013c 03F10603 		add	r3, r3, #6
 1482 0140 1878     		ldrb	r0, [r3]	@ zero_extendqisi2
 1483 0142 07F5CD62 		add	r2, r7, #1640
 1484 0146 043A     		subs	r2, r2, #4
 1485 0148 0B46     		mov	r3, r1
 1486 014a DB00     		lsls	r3, r3, #3
 1487 014c 0B44     		add	r3, r3, r1
 1488 014e 5B00     		lsls	r3, r3, #1
 1489 0150 0B44     		add	r3, r3, r1
 1490 0152 0344     		add	r3, r3, r0
 1491 0154 1B01     		lsls	r3, r3, #4
 1492 0156 1344     		add	r3, r3, r2
 1493 0158 07F5C252 		add	r2, r7, #6208
ARM GAS  C:\Users\tant836\AppData\Local\Temp\ccXZYOJd.s 			page 31


 1494 015c 02F10602 		add	r2, r2, #6
 1495 0160 1278     		ldrb	r2, [r2]
 1496 0162 1A71     		strb	r2, [r3, #4]
 206:.\pathfinder.c ****             Nodes[i][j].prevNode = 0;
 1497              		.loc 1 206 0 discriminator 3
 1498 0164 07F5C253 		add	r3, r7, #6208
 1499 0168 03F10703 		add	r3, r3, #7
 1500 016c 1978     		ldrb	r1, [r3]	@ zero_extendqisi2
 1501 016e 07F5C253 		add	r3, r7, #6208
 1502 0172 03F10603 		add	r3, r3, #6
 1503 0176 1878     		ldrb	r0, [r3]	@ zero_extendqisi2
 1504 0178 07F5CD62 		add	r2, r7, #1640
 1505 017c 043A     		subs	r2, r2, #4
 1506 017e 0B46     		mov	r3, r1
 1507 0180 DB00     		lsls	r3, r3, #3
 1508 0182 0B44     		add	r3, r3, r1
 1509 0184 5B00     		lsls	r3, r3, #1
 1510 0186 0B44     		add	r3, r3, r1
 1511 0188 0344     		add	r3, r3, r0
 1512 018a 1B01     		lsls	r3, r3, #4
 1513 018c 1344     		add	r3, r3, r2
 1514 018e 0833     		adds	r3, r3, #8
 1515 0190 0022     		movs	r2, #0
 1516 0192 1A60     		str	r2, [r3]
 207:.\pathfinder.c ****             Nodes[i][j].tentative_cost = 0;// set the current cost to infinity
 1517              		.loc 1 207 0 discriminator 3
 1518 0194 07F5C253 		add	r3, r7, #6208
 1519 0198 03F10703 		add	r3, r3, #7
 1520 019c 1978     		ldrb	r1, [r3]	@ zero_extendqisi2
 1521 019e 07F5C253 		add	r3, r7, #6208
 1522 01a2 03F10603 		add	r3, r3, #6
 1523 01a6 1878     		ldrb	r0, [r3]	@ zero_extendqisi2
 1524 01a8 07F5CD62 		add	r2, r7, #1640
 1525 01ac 043A     		subs	r2, r2, #4
 1526 01ae 0B46     		mov	r3, r1
 1527 01b0 DB00     		lsls	r3, r3, #3
 1528 01b2 0B44     		add	r3, r3, r1
 1529 01b4 5B00     		lsls	r3, r3, #1
 1530 01b6 0B44     		add	r3, r3, r1
 1531 01b8 0344     		add	r3, r3, r0
 1532 01ba 1B01     		lsls	r3, r3, #4
 1533 01bc 1344     		add	r3, r3, r2
 1534 01be 0833     		adds	r3, r3, #8
 1535 01c0 0022     		movs	r2, #0
 1536 01c2 9A80     		strh	r2, [r3, #4]	@ movhi
 208:.\pathfinder.c ****             Nodes[i][j].direction = 0;
 1537              		.loc 1 208 0 discriminator 3
 1538 01c4 07F5C253 		add	r3, r7, #6208
 1539 01c8 03F10703 		add	r3, r3, #7
 1540 01cc 1978     		ldrb	r1, [r3]	@ zero_extendqisi2
 1541 01ce 07F5C253 		add	r3, r7, #6208
 1542 01d2 03F10603 		add	r3, r3, #6
 1543 01d6 1878     		ldrb	r0, [r3]	@ zero_extendqisi2
 1544 01d8 07F5CD62 		add	r2, r7, #1640
 1545 01dc 043A     		subs	r2, r2, #4
 1546 01de 0B46     		mov	r3, r1
 1547 01e0 DB00     		lsls	r3, r3, #3
ARM GAS  C:\Users\tant836\AppData\Local\Temp\ccXZYOJd.s 			page 32


 1548 01e2 0B44     		add	r3, r3, r1
 1549 01e4 5B00     		lsls	r3, r3, #1
 1550 01e6 0B44     		add	r3, r3, r1
 1551 01e8 0344     		add	r3, r3, r0
 1552 01ea 1B01     		lsls	r3, r3, #4
 1553 01ec 1344     		add	r3, r3, r2
 1554 01ee 0833     		adds	r3, r3, #8
 1555 01f0 0022     		movs	r2, #0
 1556 01f2 9A71     		strb	r2, [r3, #6]
 199:.\pathfinder.c ****             Nodes[i][j].path = map[i][j];//map information
 1557              		.loc 1 199 0 discriminator 3
 1558 01f4 07F5C253 		add	r3, r7, #6208
 1559 01f8 03F10603 		add	r3, r3, #6
 1560 01fc 1B78     		ldrb	r3, [r3]	@ zero_extendqisi2
 1561 01fe 0133     		adds	r3, r3, #1
 1562 0200 07F5C252 		add	r2, r7, #6208
 1563 0204 02F10602 		add	r2, r2, #6
 1564 0208 1370     		strb	r3, [r2]
 1565              	.L34:
 199:.\pathfinder.c ****             Nodes[i][j].path = map[i][j];//map information
 1566              		.loc 1 199 0 is_stmt 0 discriminator 1
 1567 020a 07F5C253 		add	r3, r7, #6208
 1568 020e 03F10603 		add	r3, r3, #6
 1569 0212 1B78     		ldrb	r3, [r3]	@ zero_extendqisi2
 1570 0214 122B     		cmp	r3, #18
 1571 0216 7FF615AF 		bls	.L35
 198:.\pathfinder.c ****       for(j = 0; j < X_SIZE; j++){
 1572              		.loc 1 198 0 is_stmt 1 discriminator 2
 1573 021a 07F5C253 		add	r3, r7, #6208
 1574 021e 03F10703 		add	r3, r3, #7
 1575 0222 1B78     		ldrb	r3, [r3]	@ zero_extendqisi2
 1576 0224 0133     		adds	r3, r3, #1
 1577 0226 07F5C252 		add	r2, r7, #6208
 1578 022a 02F10702 		add	r2, r2, #7
 1579 022e 1370     		strb	r3, [r2]
 1580              	.L33:
 198:.\pathfinder.c ****       for(j = 0; j < X_SIZE; j++){
 1581              		.loc 1 198 0 is_stmt 0 discriminator 1
 1582 0230 07F5C253 		add	r3, r7, #6208
 1583 0234 03F10703 		add	r3, r3, #7
 1584 0238 1B78     		ldrb	r3, [r3]	@ zero_extendqisi2
 1585 023a 0E2B     		cmp	r3, #14
 1586 023c 7FF6FBAE 		bls	.L36
 209:.\pathfinder.c ****       }
 210:.\pathfinder.c ****    }
 211:.\pathfinder.c **** 
 212:.\pathfinder.c **** 
 213:.\pathfinder.c ****    uint8 current[2];
 214:.\pathfinder.c ****    //memcpy(current, start, sizeof(current));//because nothing works in c the way you want it to
 215:.\pathfinder.c ****    current[Y] = start[Y];
 1587              		.loc 1 215 0 is_stmt 1
 1588 0240 07F10803 		add	r3, r7, #8
 1589 0244 083B     		subs	r3, r3, #8
 1590 0246 1B68     		ldr	r3, [r3]
 1591 0248 1A78     		ldrb	r2, [r3]	@ zero_extendqisi2
 1592 024a 07F5CD63 		add	r3, r7, #1640
 1593 024e 083B     		subs	r3, r3, #8
ARM GAS  C:\Users\tant836\AppData\Local\Temp\ccXZYOJd.s 			page 33


 1594 0250 1A70     		strb	r2, [r3]
 216:.\pathfinder.c ****    current[X] = start[X];
 1595              		.loc 1 216 0
 1596 0252 07F10803 		add	r3, r7, #8
 1597 0256 083B     		subs	r3, r3, #8
 1598 0258 1B68     		ldr	r3, [r3]
 1599 025a 5A78     		ldrb	r2, [r3, #1]	@ zero_extendqisi2
 1600 025c 07F5CD63 		add	r3, r7, #1640
 1601 0260 083B     		subs	r3, r3, #8
 1602 0262 5A70     		strb	r2, [r3, #1]
 217:.\pathfinder.c ****    uint8 totalIterationCounter = 0;
 1603              		.loc 1 217 0
 1604 0264 0023     		movs	r3, #0
 1605 0266 07F5C252 		add	r2, r7, #6208
 1606 026a 02F10502 		add	r2, r2, #5
 1607 026e 1370     		strb	r3, [r2]
 218:.\pathfinder.c ****    uint8 nextNodes[DEFAULT_ARRAY_SIZE][2] = {0};
 1608              		.loc 1 218 0
 1609 0270 07F12803 		add	r3, r7, #40
 1610 0274 083B     		subs	r3, r3, #8
 1611 0276 1A46     		mov	r2, r3
 1612 0278 4FF4C863 		mov	r3, #1600
 1613 027c 1046     		mov	r0, r2
 1614 027e 0021     		movs	r1, #0
 1615 0280 1A46     		mov	r2, r3
 1616 0282 FFF7FEFF 		bl	memset
 219:.\pathfinder.c ****    //uint8 nextNodesDirection[DEFAULT_ARRAY_SIZE] = {0};
 220:.\pathfinder.c ****    uint8 tentativeNode[2] = {0};//x and y coordinate of the next node
 1617              		.loc 1 220 0
 1618 0286 07F12803 		add	r3, r7, #40
 1619 028a 0C3B     		subs	r3, r3, #12
 1620 028c 0022     		movs	r2, #0
 1621 028e 1A80     		strh	r2, [r3]	@ movhi
 221:.\pathfinder.c ****    uint8 unreachable = 0;
 1622              		.loc 1 221 0
 1623 0290 0023     		movs	r3, #0
 1624 0292 07F5C152 		add	r2, r7, #6176
 1625 0296 02F11702 		add	r2, r2, #23
 1626 029a 1370     		strb	r3, [r2]
 222:.\pathfinder.c ****    uint8 corner_penalty = 0;
 1627              		.loc 1 222 0
 1628 029c 0023     		movs	r3, #0
 1629 029e 07F5C252 		add	r2, r7, #6208
 1630 02a2 02F10402 		add	r2, r2, #4
 1631 02a6 1370     		strb	r3, [r2]
 223:.\pathfinder.c ****    uint8 counter = 0;
 1632              		.loc 1 223 0
 1633 02a8 0023     		movs	r3, #0
 1634 02aa 07F5C252 		add	r2, r7, #6208
 1635 02ae 02F10302 		add	r2, r2, #3
 1636 02b2 1370     		strb	r3, [r2]
 224:.\pathfinder.c ****    uint16 tmpCost = 0;
 1637              		.loc 1 224 0
 1638 02b4 0023     		movs	r3, #0
 1639 02b6 07F5C152 		add	r2, r7, #6176
 1640 02ba 02F11402 		add	r2, r2, #20
 1641 02be 1380     		strh	r3, [r2]	@ movhi
ARM GAS  C:\Users\tant836\AppData\Local\Temp\ccXZYOJd.s 			page 34


 225:.\pathfinder.c ****    uint8 nextNode[2] = {0, 0};
 1642              		.loc 1 225 0
 1643 02c0 07F12803 		add	r3, r7, #40
 1644 02c4 103B     		subs	r3, r3, #16
 1645 02c6 0022     		movs	r2, #0
 1646 02c8 1A70     		strb	r2, [r3]
 1647 02ca 07F12803 		add	r3, r7, #40
 1648 02ce 103B     		subs	r3, r3, #16
 1649 02d0 0022     		movs	r2, #0
 1650 02d2 5A70     		strb	r2, [r3, #1]
 226:.\pathfinder.c ****    uint8 nextNodeIndex = 0;
 1651              		.loc 1 226 0
 1652 02d4 0023     		movs	r3, #0
 1653 02d6 07F5C252 		add	r2, r7, #6208
 1654 02da 02F10202 		add	r2, r2, #2
 1655 02de 1370     		strb	r3, [r2]
 227:.\pathfinder.c ****    uint8 tmpNextNode[2] = {0};
 1656              		.loc 1 227 0
 1657 02e0 07F12803 		add	r3, r7, #40
 1658 02e4 143B     		subs	r3, r3, #20
 1659 02e6 0022     		movs	r2, #0
 1660 02e8 1A80     		strh	r2, [r3]	@ movhi
 228:.\pathfinder.c ****    uint8 nextNodeCost = 0;
 1661              		.loc 1 228 0
 1662 02ea 0023     		movs	r3, #0
 1663 02ec 07F5C252 		add	r2, r7, #6208
 1664 02f0 02F10102 		add	r2, r2, #1
 1665 02f4 1370     		strb	r3, [r2]
 229:.\pathfinder.c ****    uint8 hasNext = 1;
 1666              		.loc 1 229 0
 1667 02f6 0123     		movs	r3, #1
 1668 02f8 07F5C252 		add	r2, r7, #6208
 1669 02fc 1370     		strb	r3, [r2]
 230:.\pathfinder.c **** 
 231:.\pathfinder.c ****    //set the initial variables
 232:.\pathfinder.c ****    Nodes[current[Y]][current[X]].tentative_cost = 0;
 1670              		.loc 1 232 0
 1671 02fe 07F5CD63 		add	r3, r7, #1640
 1672 0302 083B     		subs	r3, r3, #8
 1673 0304 1B78     		ldrb	r3, [r3]	@ zero_extendqisi2
 1674 0306 1946     		mov	r1, r3
 1675 0308 07F5CD63 		add	r3, r7, #1640
 1676 030c 083B     		subs	r3, r3, #8
 1677 030e 5B78     		ldrb	r3, [r3, #1]	@ zero_extendqisi2
 1678 0310 1846     		mov	r0, r3
 1679 0312 07F5CD62 		add	r2, r7, #1640
 1680 0316 043A     		subs	r2, r2, #4
 1681 0318 0B46     		mov	r3, r1
 1682 031a DB00     		lsls	r3, r3, #3
 1683 031c 0B44     		add	r3, r3, r1
 1684 031e 5B00     		lsls	r3, r3, #1
 1685 0320 0B44     		add	r3, r3, r1
 1686 0322 0344     		add	r3, r3, r0
 1687 0324 1B01     		lsls	r3, r3, #4
 1688 0326 1344     		add	r3, r3, r2
 1689 0328 0833     		adds	r3, r3, #8
 1690 032a 0022     		movs	r2, #0
ARM GAS  C:\Users\tant836\AppData\Local\Temp\ccXZYOJd.s 			page 35


 1691 032c 9A80     		strh	r2, [r3, #4]	@ movhi
 233:.\pathfinder.c ****    Nodes[current[Y]][current[X]].prevNode = &Nodes[current[Y]][current[X]];
 1692              		.loc 1 233 0
 1693 032e 07F5CD63 		add	r3, r7, #1640
 1694 0332 083B     		subs	r3, r3, #8
 1695 0334 1B78     		ldrb	r3, [r3]	@ zero_extendqisi2
 1696 0336 1946     		mov	r1, r3
 1697 0338 07F5CD63 		add	r3, r7, #1640
 1698 033c 083B     		subs	r3, r3, #8
 1699 033e 5B78     		ldrb	r3, [r3, #1]	@ zero_extendqisi2
 1700 0340 1C46     		mov	r4, r3
 1701 0342 07F5CD63 		add	r3, r7, #1640
 1702 0346 083B     		subs	r3, r3, #8
 1703 0348 1B78     		ldrb	r3, [r3]	@ zero_extendqisi2
 1704 034a 1846     		mov	r0, r3
 1705 034c 07F5CD63 		add	r3, r7, #1640
 1706 0350 083B     		subs	r3, r3, #8
 1707 0352 5B78     		ldrb	r3, [r3, #1]	@ zero_extendqisi2
 1708 0354 1D46     		mov	r5, r3
 1709 0356 07F5CD62 		add	r2, r7, #1640
 1710 035a 043A     		subs	r2, r2, #4
 1711 035c 0346     		mov	r3, r0
 1712 035e DB00     		lsls	r3, r3, #3
 1713 0360 0344     		add	r3, r3, r0
 1714 0362 5B00     		lsls	r3, r3, #1
 1715 0364 0344     		add	r3, r3, r0
 1716 0366 2B44     		add	r3, r3, r5
 1717 0368 1B01     		lsls	r3, r3, #4
 1718 036a D018     		adds	r0, r2, r3
 1719 036c 07F5CD62 		add	r2, r7, #1640
 1720 0370 043A     		subs	r2, r2, #4
 1721 0372 0B46     		mov	r3, r1
 1722 0374 DB00     		lsls	r3, r3, #3
 1723 0376 0B44     		add	r3, r3, r1
 1724 0378 5B00     		lsls	r3, r3, #1
 1725 037a 0B44     		add	r3, r3, r1
 1726 037c 2344     		add	r3, r3, r4
 1727 037e 1B01     		lsls	r3, r3, #4
 1728 0380 1344     		add	r3, r3, r2
 1729 0382 0833     		adds	r3, r3, #8
 1730 0384 1860     		str	r0, [r3]
 234:.\pathfinder.c ****    Nodes[current[Y]][current[X]].direction = direction;//TODO: changed
 1731              		.loc 1 234 0
 1732 0386 07F5CD63 		add	r3, r7, #1640
 1733 038a 083B     		subs	r3, r3, #8
 1734 038c 1B78     		ldrb	r3, [r3]	@ zero_extendqisi2
 1735 038e 1946     		mov	r1, r3
 1736 0390 07F5CD63 		add	r3, r7, #1640
 1737 0394 083B     		subs	r3, r3, #8
 1738 0396 5B78     		ldrb	r3, [r3, #1]	@ zero_extendqisi2
 1739 0398 1846     		mov	r0, r3
 1740 039a 07F5CD62 		add	r2, r7, #1640
 1741 039e 043A     		subs	r2, r2, #4
 1742 03a0 0B46     		mov	r3, r1
 1743 03a2 DB00     		lsls	r3, r3, #3
 1744 03a4 0B44     		add	r3, r3, r1
 1745 03a6 5B00     		lsls	r3, r3, #1
ARM GAS  C:\Users\tant836\AppData\Local\Temp\ccXZYOJd.s 			page 36


 1746 03a8 0B44     		add	r3, r3, r1
 1747 03aa 0344     		add	r3, r3, r0
 1748 03ac 1B01     		lsls	r3, r3, #4
 1749 03ae 1344     		add	r3, r3, r2
 1750 03b0 0833     		adds	r3, r3, #8
 1751 03b2 07F5C252 		add	r2, r7, #6208
 1752 03b6 02F11C02 		add	r2, r2, #28
 1753 03ba 1278     		ldrb	r2, [r2]
 1754 03bc 9A71     		strb	r2, [r3, #6]
 235:.\pathfinder.c ****    int path_couter = 0;
 1755              		.loc 1 235 0
 1756 03be 0023     		movs	r3, #0
 1757 03c0 07F5C152 		add	r2, r7, #6176
 1758 03c4 02F11C02 		add	r2, r2, #28
 1759 03c8 1360     		str	r3, [r2]
 236:.\pathfinder.c **** 
 237:.\pathfinder.c ****    //early exit, run until x and y are equal
 238:.\pathfinder.c ****    while(hasNext == 1){
 1760              		.loc 1 238 0
 1761 03ca 18E3     		b	.L37
 1762              	.L49:
 1763              	.LBB5:
 239:.\pathfinder.c ****       counter = 1;
 1764              		.loc 1 239 0
 1765 03cc 0123     		movs	r3, #1
 1766 03ce 07F5C252 		add	r2, r7, #6208
 1767 03d2 02F10302 		add	r2, r2, #3
 1768 03d6 1370     		strb	r3, [r2]
 240:.\pathfinder.c ****       Nodes[current[Y]][current[1]].visited = VISITED; // set visited to true
 1769              		.loc 1 240 0
 1770 03d8 07F5CD63 		add	r3, r7, #1640
 1771 03dc 083B     		subs	r3, r3, #8
 1772 03de 1B78     		ldrb	r3, [r3]	@ zero_extendqisi2
 1773 03e0 1946     		mov	r1, r3
 1774 03e2 07F5CD63 		add	r3, r7, #1640
 1775 03e6 083B     		subs	r3, r3, #8
 1776 03e8 5B78     		ldrb	r3, [r3, #1]	@ zero_extendqisi2
 1777 03ea 1846     		mov	r0, r3
 1778 03ec 07F5CD62 		add	r2, r7, #1640
 1779 03f0 043A     		subs	r2, r2, #4
 1780 03f2 0B46     		mov	r3, r1
 1781 03f4 DB00     		lsls	r3, r3, #3
 1782 03f6 0B44     		add	r3, r3, r1
 1783 03f8 5B00     		lsls	r3, r3, #1
 1784 03fa 0B44     		add	r3, r3, r1
 1785 03fc 0344     		add	r3, r3, r0
 1786 03fe 1B01     		lsls	r3, r3, #4
 1787 0400 1344     		add	r3, r3, r2
 1788 0402 0122     		movs	r2, #1
 1789 0404 5A70     		strb	r2, [r3, #1]
 241:.\pathfinder.c ****       //printf("main loop %d | X: %d | Y: %d\n", Nodes[current[0]][current[1]].visited, Nodes[curre
 242:.\pathfinder.c ****       while(counter <= 4){
 1790              		.loc 1 242 0
 1791 0406 97E1     		b	.L38
 1792              	.L45:
 243:.\pathfinder.c ****          corner_penalty = 0;
 1793              		.loc 1 243 0
ARM GAS  C:\Users\tant836\AppData\Local\Temp\ccXZYOJd.s 			page 37


 1794 0408 0023     		movs	r3, #0
 1795 040a 07F5C252 		add	r2, r7, #6208
 1796 040e 02F10402 		add	r2, r2, #4
 1797 0412 1370     		strb	r3, [r2]
 244:.\pathfinder.c ****          if(counter == 1){
 1798              		.loc 1 244 0
 1799 0414 07F5C253 		add	r3, r7, #6208
 1800 0418 03F10303 		add	r3, r3, #3
 1801 041c 1B78     		ldrb	r3, [r3]	@ zero_extendqisi2
 1802 041e 012B     		cmp	r3, #1
 1803 0420 12D1     		bne	.L39
 245:.\pathfinder.c ****             tentativeNode[Y] = current[Y] - 1;
 1804              		.loc 1 245 0
 1805 0422 07F5CD63 		add	r3, r7, #1640
 1806 0426 083B     		subs	r3, r3, #8
 1807 0428 1B78     		ldrb	r3, [r3]	@ zero_extendqisi2
 1808 042a 013B     		subs	r3, r3, #1
 1809 042c DAB2     		uxtb	r2, r3
 1810 042e 07F12803 		add	r3, r7, #40
 1811 0432 0C3B     		subs	r3, r3, #12
 1812 0434 1A70     		strb	r2, [r3]
 246:.\pathfinder.c ****             tentativeNode[X] = current[X];
 1813              		.loc 1 246 0
 1814 0436 07F5CD63 		add	r3, r7, #1640
 1815 043a 083B     		subs	r3, r3, #8
 1816 043c 5A78     		ldrb	r2, [r3, #1]	@ zero_extendqisi2
 1817 043e 07F12803 		add	r3, r7, #40
 1818 0442 0C3B     		subs	r3, r3, #12
 1819 0444 5A70     		strb	r2, [r3, #1]
 1820 0446 4CE0     		b	.L40
 1821              	.L39:
 247:.\pathfinder.c ****          }else if(counter == 2){
 1822              		.loc 1 247 0
 1823 0448 07F5C253 		add	r3, r7, #6208
 1824 044c 03F10303 		add	r3, r3, #3
 1825 0450 1B78     		ldrb	r3, [r3]	@ zero_extendqisi2
 1826 0452 022B     		cmp	r3, #2
 1827 0454 12D1     		bne	.L41
 248:.\pathfinder.c ****             tentativeNode[Y] = current[Y];
 1828              		.loc 1 248 0
 1829 0456 07F5CD63 		add	r3, r7, #1640
 1830 045a 083B     		subs	r3, r3, #8
 1831 045c 1A78     		ldrb	r2, [r3]	@ zero_extendqisi2
 1832 045e 07F12803 		add	r3, r7, #40
 1833 0462 0C3B     		subs	r3, r3, #12
 1834 0464 1A70     		strb	r2, [r3]
 249:.\pathfinder.c ****             tentativeNode[X] = current[X] + 1;
 1835              		.loc 1 249 0
 1836 0466 07F5CD63 		add	r3, r7, #1640
 1837 046a 083B     		subs	r3, r3, #8
 1838 046c 5B78     		ldrb	r3, [r3, #1]	@ zero_extendqisi2
 1839 046e 0133     		adds	r3, r3, #1
 1840 0470 DAB2     		uxtb	r2, r3
 1841 0472 07F12803 		add	r3, r7, #40
 1842 0476 0C3B     		subs	r3, r3, #12
 1843 0478 5A70     		strb	r2, [r3, #1]
 1844 047a 32E0     		b	.L40
ARM GAS  C:\Users\tant836\AppData\Local\Temp\ccXZYOJd.s 			page 38


 1845              	.L41:
 250:.\pathfinder.c ****          }else if(counter == 3){
 1846              		.loc 1 250 0
 1847 047c 07F5C253 		add	r3, r7, #6208
 1848 0480 03F10303 		add	r3, r3, #3
 1849 0484 1B78     		ldrb	r3, [r3]	@ zero_extendqisi2
 1850 0486 032B     		cmp	r3, #3
 1851 0488 12D1     		bne	.L42
 251:.\pathfinder.c ****             tentativeNode[Y] = current[Y] + 1;
 1852              		.loc 1 251 0
 1853 048a 07F5CD63 		add	r3, r7, #1640
 1854 048e 083B     		subs	r3, r3, #8
 1855 0490 1B78     		ldrb	r3, [r3]	@ zero_extendqisi2
 1856 0492 0133     		adds	r3, r3, #1
 1857 0494 DAB2     		uxtb	r2, r3
 1858 0496 07F12803 		add	r3, r7, #40
 1859 049a 0C3B     		subs	r3, r3, #12
 1860 049c 1A70     		strb	r2, [r3]
 252:.\pathfinder.c ****             tentativeNode[X] = current[X];
 1861              		.loc 1 252 0
 1862 049e 07F5CD63 		add	r3, r7, #1640
 1863 04a2 083B     		subs	r3, r3, #8
 1864 04a4 5A78     		ldrb	r2, [r3, #1]	@ zero_extendqisi2
 1865 04a6 07F12803 		add	r3, r7, #40
 1866 04aa 0C3B     		subs	r3, r3, #12
 1867 04ac 5A70     		strb	r2, [r3, #1]
 1868 04ae 18E0     		b	.L40
 1869              	.L42:
 253:.\pathfinder.c ****          }else if(counter == 4){
 1870              		.loc 1 253 0
 1871 04b0 07F5C253 		add	r3, r7, #6208
 1872 04b4 03F10303 		add	r3, r3, #3
 1873 04b8 1B78     		ldrb	r3, [r3]	@ zero_extendqisi2
 1874 04ba 042B     		cmp	r3, #4
 1875 04bc 11D1     		bne	.L40
 254:.\pathfinder.c ****             tentativeNode[Y] = current[Y];
 1876              		.loc 1 254 0
 1877 04be 07F5CD63 		add	r3, r7, #1640
 1878 04c2 083B     		subs	r3, r3, #8
 1879 04c4 1A78     		ldrb	r2, [r3]	@ zero_extendqisi2
 1880 04c6 07F12803 		add	r3, r7, #40
 1881 04ca 0C3B     		subs	r3, r3, #12
 1882 04cc 1A70     		strb	r2, [r3]
 255:.\pathfinder.c ****             tentativeNode[X] = current[X] - 1;
 1883              		.loc 1 255 0
 1884 04ce 07F5CD63 		add	r3, r7, #1640
 1885 04d2 083B     		subs	r3, r3, #8
 1886 04d4 5B78     		ldrb	r3, [r3, #1]	@ zero_extendqisi2
 1887 04d6 013B     		subs	r3, r3, #1
 1888 04d8 DAB2     		uxtb	r2, r3
 1889 04da 07F12803 		add	r3, r7, #40
 1890 04de 0C3B     		subs	r3, r3, #12
 1891 04e0 5A70     		strb	r2, [r3, #1]
 1892              	.L40:
 256:.\pathfinder.c ****          }
 257:.\pathfinder.c ****          if(counter != direction){
 1893              		.loc 1 257 0
ARM GAS  C:\Users\tant836\AppData\Local\Temp\ccXZYOJd.s 			page 39


 1894 04e2 07F5C253 		add	r3, r7, #6208
 1895 04e6 03F10303 		add	r3, r3, #3
 1896 04ea 1A78     		ldrb	r2, [r3]	@ zero_extendqisi2
 1897 04ec 07F5C253 		add	r3, r7, #6208
 1898 04f0 03F11C03 		add	r3, r3, #28
 1899 04f4 1B78     		ldrb	r3, [r3]	@ zero_extendqisi2
 1900 04f6 9A42     		cmp	r2, r3
 1901 04f8 05D0     		beq	.L43
 258:.\pathfinder.c ****             corner_penalty = CORNER_PENALTY;
 1902              		.loc 1 258 0
 1903 04fa 0023     		movs	r3, #0
 1904 04fc 07F5C252 		add	r2, r7, #6208
 1905 0500 02F10402 		add	r2, r2, #4
 1906 0504 1370     		strb	r3, [r2]
 1907              	.L43:
 259:.\pathfinder.c ****          }
 260:.\pathfinder.c **** 
 261:.\pathfinder.c ****          if(tentativeNode[Y] >= 0 && tentativeNode[X] >= 0 && tentativeNode[Y] <= Y_SIZE && tentati
 1908              		.loc 1 261 0
 1909 0506 07F12803 		add	r3, r7, #40
 1910 050a 0C3B     		subs	r3, r3, #12
 1911 050c 1B78     		ldrb	r3, [r3]	@ zero_extendqisi2
 1912 050e 0F2B     		cmp	r3, #15
 1913 0510 00F20781 		bhi	.L44
 1914              		.loc 1 261 0 is_stmt 0 discriminator 1
 1915 0514 07F12803 		add	r3, r7, #40
 1916 0518 0C3B     		subs	r3, r3, #12
 1917 051a 5B78     		ldrb	r3, [r3, #1]	@ zero_extendqisi2
 1918 051c 132B     		cmp	r3, #19
 1919 051e 00F20081 		bhi	.L44
 262:.\pathfinder.c ****             if(Nodes[tentativeNode[Y]][tentativeNode[X]].path == PATH){//check the node is a path
 1920              		.loc 1 262 0 is_stmt 1
 1921 0522 07F12803 		add	r3, r7, #40
 1922 0526 0C3B     		subs	r3, r3, #12
 1923 0528 1B78     		ldrb	r3, [r3]	@ zero_extendqisi2
 1924 052a 1946     		mov	r1, r3
 1925 052c 07F12803 		add	r3, r7, #40
 1926 0530 0C3B     		subs	r3, r3, #12
 1927 0532 5B78     		ldrb	r3, [r3, #1]	@ zero_extendqisi2
 1928 0534 1846     		mov	r0, r3
 1929 0536 07F5CD62 		add	r2, r7, #1640
 1930 053a 043A     		subs	r2, r2, #4
 1931 053c 0B46     		mov	r3, r1
 1932 053e DB00     		lsls	r3, r3, #3
 1933 0540 0B44     		add	r3, r3, r1
 1934 0542 5B00     		lsls	r3, r3, #1
 1935 0544 0B44     		add	r3, r3, r1
 1936 0546 0344     		add	r3, r3, r0
 1937 0548 1B01     		lsls	r3, r3, #4
 1938 054a 1344     		add	r3, r3, r2
 1939 054c 1B78     		ldrb	r3, [r3]	@ zero_extendqisi2
 1940 054e 002B     		cmp	r3, #0
 1941 0550 40F0E780 		bne	.L44
 263:.\pathfinder.c ****                //printf("3\n", hasNext);
 264:.\pathfinder.c ****                tmpCost = Nodes[current[Y]][current[X]].tentative_cost + Nodes[tentativeNode[Y]][ten
 1942              		.loc 1 264 0
 1943 0554 07F5CD63 		add	r3, r7, #1640
ARM GAS  C:\Users\tant836\AppData\Local\Temp\ccXZYOJd.s 			page 40


 1944 0558 083B     		subs	r3, r3, #8
 1945 055a 1B78     		ldrb	r3, [r3]	@ zero_extendqisi2
 1946 055c 1946     		mov	r1, r3
 1947 055e 07F5CD63 		add	r3, r7, #1640
 1948 0562 083B     		subs	r3, r3, #8
 1949 0564 5B78     		ldrb	r3, [r3, #1]	@ zero_extendqisi2
 1950 0566 1846     		mov	r0, r3
 1951 0568 07F5CD62 		add	r2, r7, #1640
 1952 056c 043A     		subs	r2, r2, #4
 1953 056e 0B46     		mov	r3, r1
 1954 0570 DB00     		lsls	r3, r3, #3
 1955 0572 0B44     		add	r3, r3, r1
 1956 0574 5B00     		lsls	r3, r3, #1
 1957 0576 0B44     		add	r3, r3, r1
 1958 0578 0344     		add	r3, r3, r0
 1959 057a 1B01     		lsls	r3, r3, #4
 1960 057c 1344     		add	r3, r3, r2
 1961 057e 0833     		adds	r3, r3, #8
 1962 0580 9888     		ldrh	r0, [r3, #4]
 1963 0582 07F12803 		add	r3, r7, #40
 1964 0586 0C3B     		subs	r3, r3, #12
 1965 0588 1B78     		ldrb	r3, [r3]	@ zero_extendqisi2
 1966 058a 1946     		mov	r1, r3
 1967 058c 07F12803 		add	r3, r7, #40
 1968 0590 0C3B     		subs	r3, r3, #12
 1969 0592 5B78     		ldrb	r3, [r3, #1]	@ zero_extendqisi2
 1970 0594 1C46     		mov	r4, r3
 1971 0596 07F5CD62 		add	r2, r7, #1640
 1972 059a 043A     		subs	r2, r2, #4
 1973 059c 0B46     		mov	r3, r1
 1974 059e DB00     		lsls	r3, r3, #3
 1975 05a0 0B44     		add	r3, r3, r1
 1976 05a2 5B00     		lsls	r3, r3, #1
 1977 05a4 0B44     		add	r3, r3, r1
 1978 05a6 2344     		add	r3, r3, r4
 1979 05a8 1B01     		lsls	r3, r3, #4
 1980 05aa 1344     		add	r3, r3, r2
 1981 05ac 5B88     		ldrh	r3, [r3, #2]
 1982 05ae 0344     		add	r3, r3, r0
 1983 05b0 9AB2     		uxth	r2, r3
 1984 05b2 07F5C253 		add	r3, r7, #6208
 1985 05b6 03F10403 		add	r3, r3, #4
 1986 05ba 1B78     		ldrb	r3, [r3]	@ zero_extendqisi2
 1987 05bc 9BB2     		uxth	r3, r3
 1988 05be 1344     		add	r3, r3, r2
 1989 05c0 07F5C152 		add	r2, r7, #6176
 1990 05c4 02F11402 		add	r2, r2, #20
 1991 05c8 1380     		strh	r3, [r2]	@ movhi
 265:.\pathfinder.c ****                if(tmpCost > Nodes[tentativeNode[Y]][tentativeNode[X]].tentative_cost){
 1992              		.loc 1 265 0
 1993 05ca 07F12803 		add	r3, r7, #40
 1994 05ce 0C3B     		subs	r3, r3, #12
 1995 05d0 1B78     		ldrb	r3, [r3]	@ zero_extendqisi2
 1996 05d2 1946     		mov	r1, r3
 1997 05d4 07F12803 		add	r3, r7, #40
 1998 05d8 0C3B     		subs	r3, r3, #12
 1999 05da 5B78     		ldrb	r3, [r3, #1]	@ zero_extendqisi2
ARM GAS  C:\Users\tant836\AppData\Local\Temp\ccXZYOJd.s 			page 41


 2000 05dc 1846     		mov	r0, r3
 2001 05de 07F5CD62 		add	r2, r7, #1640
 2002 05e2 043A     		subs	r2, r2, #4
 2003 05e4 0B46     		mov	r3, r1
 2004 05e6 DB00     		lsls	r3, r3, #3
 2005 05e8 0B44     		add	r3, r3, r1
 2006 05ea 5B00     		lsls	r3, r3, #1
 2007 05ec 0B44     		add	r3, r3, r1
 2008 05ee 0344     		add	r3, r3, r0
 2009 05f0 1B01     		lsls	r3, r3, #4
 2010 05f2 1344     		add	r3, r3, r2
 2011 05f4 0833     		adds	r3, r3, #8
 2012 05f6 9B88     		ldrh	r3, [r3, #4]
 2013 05f8 07F5C152 		add	r2, r7, #6176
 2014 05fc 02F11402 		add	r2, r2, #20
 2015 0600 1288     		ldrh	r2, [r2]
 2016 0602 9A42     		cmp	r2, r3
 2017 0604 40F28D80 		bls	.L44
 266:.\pathfinder.c ****                   //printf("5 %d\n", tmpCost);
 267:.\pathfinder.c ****                   Nodes[tentativeNode[Y]][tentativeNode[X]].tentative_cost = tmpCost;
 2018              		.loc 1 267 0
 2019 0608 07F12803 		add	r3, r7, #40
 2020 060c 0C3B     		subs	r3, r3, #12
 2021 060e 1B78     		ldrb	r3, [r3]	@ zero_extendqisi2
 2022 0610 1946     		mov	r1, r3
 2023 0612 07F12803 		add	r3, r7, #40
 2024 0616 0C3B     		subs	r3, r3, #12
 2025 0618 5B78     		ldrb	r3, [r3, #1]	@ zero_extendqisi2
 2026 061a 1846     		mov	r0, r3
 2027 061c 07F5CD62 		add	r2, r7, #1640
 2028 0620 043A     		subs	r2, r2, #4
 2029 0622 0B46     		mov	r3, r1
 2030 0624 DB00     		lsls	r3, r3, #3
 2031 0626 0B44     		add	r3, r3, r1
 2032 0628 5B00     		lsls	r3, r3, #1
 2033 062a 0B44     		add	r3, r3, r1
 2034 062c 0344     		add	r3, r3, r0
 2035 062e 1B01     		lsls	r3, r3, #4
 2036 0630 1344     		add	r3, r3, r2
 2037 0632 0833     		adds	r3, r3, #8
 2038 0634 07F5C152 		add	r2, r7, #6176
 2039 0638 02F11402 		add	r2, r2, #20
 2040 063c 1288     		ldrh	r2, [r2]	@ movhi
 2041 063e 9A80     		strh	r2, [r3, #4]	@ movhi
 268:.\pathfinder.c ****                   //printf("6 currentX : %d, currentY : %d\n", current[0], current[1]);
 269:.\pathfinder.c **** 
 270:.\pathfinder.c ****                   //printf("Discovered node at X : %d, Y : %d\n", tentativeNode[0], tentativeNode[1
 271:.\pathfinder.c ****                   Nodes[tentativeNode[Y]][tentativeNode[X]].prevNode = &Nodes[current[Y]][current[1
 2042              		.loc 1 271 0
 2043 0640 07F12803 		add	r3, r7, #40
 2044 0644 0C3B     		subs	r3, r3, #12
 2045 0646 1B78     		ldrb	r3, [r3]	@ zero_extendqisi2
 2046 0648 1946     		mov	r1, r3
 2047 064a 07F12803 		add	r3, r7, #40
 2048 064e 0C3B     		subs	r3, r3, #12
 2049 0650 5B78     		ldrb	r3, [r3, #1]	@ zero_extendqisi2
 2050 0652 1C46     		mov	r4, r3
ARM GAS  C:\Users\tant836\AppData\Local\Temp\ccXZYOJd.s 			page 42


 2051 0654 07F5CD63 		add	r3, r7, #1640
 2052 0658 083B     		subs	r3, r3, #8
 2053 065a 1B78     		ldrb	r3, [r3]	@ zero_extendqisi2
 2054 065c 1846     		mov	r0, r3
 2055 065e 07F5CD63 		add	r3, r7, #1640
 2056 0662 083B     		subs	r3, r3, #8
 2057 0664 5B78     		ldrb	r3, [r3, #1]	@ zero_extendqisi2
 2058 0666 1D46     		mov	r5, r3
 2059 0668 07F5CD62 		add	r2, r7, #1640
 2060 066c 043A     		subs	r2, r2, #4
 2061 066e 0346     		mov	r3, r0
 2062 0670 DB00     		lsls	r3, r3, #3
 2063 0672 0344     		add	r3, r3, r0
 2064 0674 5B00     		lsls	r3, r3, #1
 2065 0676 0344     		add	r3, r3, r0
 2066 0678 2B44     		add	r3, r3, r5
 2067 067a 1B01     		lsls	r3, r3, #4
 2068 067c D018     		adds	r0, r2, r3
 2069 067e 07F5CD62 		add	r2, r7, #1640
 2070 0682 043A     		subs	r2, r2, #4
 2071 0684 0B46     		mov	r3, r1
 2072 0686 DB00     		lsls	r3, r3, #3
 2073 0688 0B44     		add	r3, r3, r1
 2074 068a 5B00     		lsls	r3, r3, #1
 2075 068c 0B44     		add	r3, r3, r1
 2076 068e 2344     		add	r3, r3, r4
 2077 0690 1B01     		lsls	r3, r3, #4
 2078 0692 1344     		add	r3, r3, r2
 2079 0694 0833     		adds	r3, r3, #8
 2080 0696 1860     		str	r0, [r3]
 272:.\pathfinder.c ****                   nextNodes[totalIterationCounter][Y] = tentativeNode[Y];
 2081              		.loc 1 272 0
 2082 0698 07F5C253 		add	r3, r7, #6208
 2083 069c 03F10503 		add	r3, r3, #5
 2084 06a0 1A78     		ldrb	r2, [r3]	@ zero_extendqisi2
 2085 06a2 07F12803 		add	r3, r7, #40
 2086 06a6 0C3B     		subs	r3, r3, #12
 2087 06a8 1978     		ldrb	r1, [r3]	@ zero_extendqisi2
 2088 06aa 07F12803 		add	r3, r7, #40
 2089 06ae 083B     		subs	r3, r3, #8
 2090 06b0 03F81210 		strb	r1, [r3, r2, lsl #1]
 273:.\pathfinder.c ****                   nextNodes[totalIterationCounter][X] = tentativeNode[X];
 2091              		.loc 1 273 0
 2092 06b4 07F5C253 		add	r3, r7, #6208
 2093 06b8 03F10503 		add	r3, r3, #5
 2094 06bc 1978     		ldrb	r1, [r3]	@ zero_extendqisi2
 2095 06be 07F12803 		add	r3, r7, #40
 2096 06c2 0C3B     		subs	r3, r3, #12
 2097 06c4 5878     		ldrb	r0, [r3, #1]	@ zero_extendqisi2
 2098 06c6 07F12802 		add	r2, r7, #40
 2099 06ca 083A     		subs	r2, r2, #8
 2100 06cc 4B00     		lsls	r3, r1, #1
 2101 06ce 1344     		add	r3, r3, r2
 2102 06d0 0246     		mov	r2, r0
 2103 06d2 5A70     		strb	r2, [r3, #1]
 274:.\pathfinder.c ****                   Nodes[tentativeNode[Y]][tentativeNode[X]].direction = counter;
 2104              		.loc 1 274 0
ARM GAS  C:\Users\tant836\AppData\Local\Temp\ccXZYOJd.s 			page 43


 2105 06d4 07F12803 		add	r3, r7, #40
 2106 06d8 0C3B     		subs	r3, r3, #12
 2107 06da 1B78     		ldrb	r3, [r3]	@ zero_extendqisi2
 2108 06dc 1946     		mov	r1, r3
 2109 06de 07F12803 		add	r3, r7, #40
 2110 06e2 0C3B     		subs	r3, r3, #12
 2111 06e4 5B78     		ldrb	r3, [r3, #1]	@ zero_extendqisi2
 2112 06e6 1846     		mov	r0, r3
 2113 06e8 07F5CD62 		add	r2, r7, #1640
 2114 06ec 043A     		subs	r2, r2, #4
 2115 06ee 0B46     		mov	r3, r1
 2116 06f0 DB00     		lsls	r3, r3, #3
 2117 06f2 0B44     		add	r3, r3, r1
 2118 06f4 5B00     		lsls	r3, r3, #1
 2119 06f6 0B44     		add	r3, r3, r1
 2120 06f8 0344     		add	r3, r3, r0
 2121 06fa 1B01     		lsls	r3, r3, #4
 2122 06fc 1344     		add	r3, r3, r2
 2123 06fe 0833     		adds	r3, r3, #8
 2124 0700 07F5C252 		add	r2, r7, #6208
 2125 0704 02F10302 		add	r2, r2, #3
 2126 0708 1278     		ldrb	r2, [r2]
 2127 070a 9A71     		strb	r2, [r3, #6]
 275:.\pathfinder.c ****                   //nextNodesDirection[totalIterationCounter] = counter;
 276:.\pathfinder.c ****                   totalIterationCounter = 1 + totalIterationCounter;
 2128              		.loc 1 276 0
 2129 070c 07F5C253 		add	r3, r7, #6208
 2130 0710 03F10503 		add	r3, r3, #5
 2131 0714 1B78     		ldrb	r3, [r3]
 2132 0716 0133     		adds	r3, r3, #1
 2133 0718 07F5C252 		add	r2, r7, #6208
 2134 071c 02F10502 		add	r2, r2, #5
 2135 0720 1370     		strb	r3, [r2]
 2136              	.L44:
 277:.\pathfinder.c ****                }
 278:.\pathfinder.c ****             }
 279:.\pathfinder.c ****          }
 280:.\pathfinder.c ****          counter++;
 2137              		.loc 1 280 0
 2138 0722 07F5C253 		add	r3, r7, #6208
 2139 0726 03F10303 		add	r3, r3, #3
 2140 072a 1B78     		ldrb	r3, [r3]	@ zero_extendqisi2
 2141 072c 0133     		adds	r3, r3, #1
 2142 072e 07F5C252 		add	r2, r7, #6208
 2143 0732 02F10302 		add	r2, r2, #3
 2144 0736 1370     		strb	r3, [r2]
 2145              	.L38:
 242:.\pathfinder.c ****          corner_penalty = 0;
 2146              		.loc 1 242 0
 2147 0738 07F5C253 		add	r3, r7, #6208
 2148 073c 03F10303 		add	r3, r3, #3
 2149 0740 1B78     		ldrb	r3, [r3]	@ zero_extendqisi2
 2150 0742 042B     		cmp	r3, #4
 2151 0744 7FF660AE 		bls	.L45
 281:.\pathfinder.c ****       }
 282:.\pathfinder.c ****       //set the default cost value so that the for loop will find the lowest unvisited node
 283:.\pathfinder.c ****       nextNodeCost = 0;
ARM GAS  C:\Users\tant836\AppData\Local\Temp\ccXZYOJd.s 			page 44


 2152              		.loc 1 283 0
 2153 0748 0023     		movs	r3, #0
 2154 074a 07F5C252 		add	r2, r7, #6208
 2155 074e 02F10102 		add	r2, r2, #1
 2156 0752 1370     		strb	r3, [r2]
 284:.\pathfinder.c ****       //find the lowest unvisited node
 285:.\pathfinder.c ****       hasNext = 0;
 2157              		.loc 1 285 0
 2158 0754 0023     		movs	r3, #0
 2159 0756 07F5C252 		add	r2, r7, #6208
 2160 075a 1370     		strb	r3, [r2]
 286:.\pathfinder.c **** 
 287:.\pathfinder.c ****       //find the next node to visit
 288:.\pathfinder.c ****       //printf("totalIterationCounter : %d\n", totalIterationCounter);
 289:.\pathfinder.c ****         int i;
 290:.\pathfinder.c ****       for(i = 0; i < totalIterationCounter; i++){
 2161              		.loc 1 290 0
 2162 075c 0023     		movs	r3, #0
 2163 075e 07F5C152 		add	r2, r7, #6176
 2164 0762 02F11802 		add	r2, r2, #24
 2165 0766 1360     		str	r3, [r2]
 2166 0768 AFE0     		b	.L46
 2167              	.L48:
 291:.\pathfinder.c ****          //printf("i : %d\n", i);
 292:.\pathfinder.c ****          tmpNextNode[Y] = nextNodes[i][Y];
 2168              		.loc 1 292 0
 2169 076a 07F12803 		add	r3, r7, #40
 2170 076e 083B     		subs	r3, r3, #8
 2171 0770 07F5C152 		add	r2, r7, #6176
 2172 0774 02F11802 		add	r2, r2, #24
 2173 0778 1268     		ldr	r2, [r2]
 2174 077a 13F81220 		ldrb	r2, [r3, r2, lsl #1]	@ zero_extendqisi2
 2175 077e 07F12803 		add	r3, r7, #40
 2176 0782 143B     		subs	r3, r3, #20
 2177 0784 1A70     		strb	r2, [r3]
 293:.\pathfinder.c ****          tmpNextNode[X] = nextNodes[i][X];
 2178              		.loc 1 293 0
 2179 0786 07F12802 		add	r2, r7, #40
 2180 078a 083A     		subs	r2, r2, #8
 2181 078c 07F5C153 		add	r3, r7, #6176
 2182 0790 03F11803 		add	r3, r3, #24
 2183 0794 1B68     		ldr	r3, [r3]
 2184 0796 5B00     		lsls	r3, r3, #1
 2185 0798 1344     		add	r3, r3, r2
 2186 079a 5A78     		ldrb	r2, [r3, #1]	@ zero_extendqisi2
 2187 079c 07F12803 		add	r3, r7, #40
 2188 07a0 143B     		subs	r3, r3, #20
 2189 07a2 5A70     		strb	r2, [r3, #1]
 294:.\pathfinder.c ****          //printf("tentative_cost : %d\n", Nodes[nextNodes[i][0]][nextNodes[i][1]].tentative_cost);
 295:.\pathfinder.c ****          if(Nodes[nextNodes[i][Y]][nextNodes[i][X]].tentative_cost > nextNodeCost){
 2190              		.loc 1 295 0
 2191 07a4 07F12803 		add	r3, r7, #40
 2192 07a8 083B     		subs	r3, r3, #8
 2193 07aa 07F5C152 		add	r2, r7, #6176
 2194 07ae 02F11802 		add	r2, r2, #24
 2195 07b2 1268     		ldr	r2, [r2]
 2196 07b4 13F81230 		ldrb	r3, [r3, r2, lsl #1]	@ zero_extendqisi2
ARM GAS  C:\Users\tant836\AppData\Local\Temp\ccXZYOJd.s 			page 45


 2197 07b8 1946     		mov	r1, r3
 2198 07ba 07F12802 		add	r2, r7, #40
 2199 07be 083A     		subs	r2, r2, #8
 2200 07c0 07F5C153 		add	r3, r7, #6176
 2201 07c4 03F11803 		add	r3, r3, #24
 2202 07c8 1B68     		ldr	r3, [r3]
 2203 07ca 5B00     		lsls	r3, r3, #1
 2204 07cc 1344     		add	r3, r3, r2
 2205 07ce 5B78     		ldrb	r3, [r3, #1]	@ zero_extendqisi2
 2206 07d0 1846     		mov	r0, r3
 2207 07d2 07F5CD62 		add	r2, r7, #1640
 2208 07d6 043A     		subs	r2, r2, #4
 2209 07d8 0B46     		mov	r3, r1
 2210 07da DB00     		lsls	r3, r3, #3
 2211 07dc 0B44     		add	r3, r3, r1
 2212 07de 5B00     		lsls	r3, r3, #1
 2213 07e0 0B44     		add	r3, r3, r1
 2214 07e2 0344     		add	r3, r3, r0
 2215 07e4 1B01     		lsls	r3, r3, #4
 2216 07e6 1344     		add	r3, r3, r2
 2217 07e8 0833     		adds	r3, r3, #8
 2218 07ea 9A88     		ldrh	r2, [r3, #4]
 2219 07ec 07F5C253 		add	r3, r7, #6208
 2220 07f0 03F10103 		add	r3, r3, #1
 2221 07f4 1B78     		ldrb	r3, [r3]	@ zero_extendqisi2
 2222 07f6 9BB2     		uxth	r3, r3
 2223 07f8 9A42     		cmp	r2, r3
 2224 07fa 5BD9     		bls	.L47
 296:.\pathfinder.c ****             //printf("1 : %d\n", Nodes[nextNodes[i][0]][nextNodes[i][1]].tentative_cost);
 297:.\pathfinder.c ****             if(Nodes[nextNodes[i][Y]][nextNodes[i][X]].visited == UNVISITED){
 2225              		.loc 1 297 0
 2226 07fc 07F12803 		add	r3, r7, #40
 2227 0800 083B     		subs	r3, r3, #8
 2228 0802 07F5C152 		add	r2, r7, #6176
 2229 0806 02F11802 		add	r2, r2, #24
 2230 080a 1268     		ldr	r2, [r2]
 2231 080c 13F81230 		ldrb	r3, [r3, r2, lsl #1]	@ zero_extendqisi2
 2232 0810 1946     		mov	r1, r3
 2233 0812 07F12802 		add	r2, r7, #40
 2234 0816 083A     		subs	r2, r2, #8
 2235 0818 07F5C153 		add	r3, r7, #6176
 2236 081c 03F11803 		add	r3, r3, #24
 2237 0820 1B68     		ldr	r3, [r3]
 2238 0822 5B00     		lsls	r3, r3, #1
 2239 0824 1344     		add	r3, r3, r2
 2240 0826 5B78     		ldrb	r3, [r3, #1]	@ zero_extendqisi2
 2241 0828 1846     		mov	r0, r3
 2242 082a 07F5CD62 		add	r2, r7, #1640
 2243 082e 043A     		subs	r2, r2, #4
 2244 0830 0B46     		mov	r3, r1
 2245 0832 DB00     		lsls	r3, r3, #3
 2246 0834 0B44     		add	r3, r3, r1
 2247 0836 5B00     		lsls	r3, r3, #1
 2248 0838 0B44     		add	r3, r3, r1
 2249 083a 0344     		add	r3, r3, r0
 2250 083c 1B01     		lsls	r3, r3, #4
 2251 083e 1344     		add	r3, r3, r2
ARM GAS  C:\Users\tant836\AppData\Local\Temp\ccXZYOJd.s 			page 46


 2252 0840 5B78     		ldrb	r3, [r3, #1]	@ zero_extendqisi2
 2253 0842 002B     		cmp	r3, #0
 2254 0844 36D1     		bne	.L47
 298:.\pathfinder.c **** 
 299:.\pathfinder.c **** 
 300:.\pathfinder.c ****                //printf("2 : %d\n", Nodes[nextNodes[i][0]][nextNodes[i][1]].visited);
 301:.\pathfinder.c ****                nextNodeCost = Nodes[nextNodes[i][Y]][nextNodes[i][X]].tentative_cost;
 2255              		.loc 1 301 0
 2256 0846 07F12803 		add	r3, r7, #40
 2257 084a 083B     		subs	r3, r3, #8
 2258 084c 07F5C152 		add	r2, r7, #6176
 2259 0850 02F11802 		add	r2, r2, #24
 2260 0854 1268     		ldr	r2, [r2]
 2261 0856 13F81230 		ldrb	r3, [r3, r2, lsl #1]	@ zero_extendqisi2
 2262 085a 1946     		mov	r1, r3
 2263 085c 07F12802 		add	r2, r7, #40
 2264 0860 083A     		subs	r2, r2, #8
 2265 0862 07F5C153 		add	r3, r7, #6176
 2266 0866 03F11803 		add	r3, r3, #24
 2267 086a 1B68     		ldr	r3, [r3]
 2268 086c 5B00     		lsls	r3, r3, #1
 2269 086e 1344     		add	r3, r3, r2
 2270 0870 5B78     		ldrb	r3, [r3, #1]	@ zero_extendqisi2
 2271 0872 1846     		mov	r0, r3
 2272 0874 07F5CD62 		add	r2, r7, #1640
 2273 0878 043A     		subs	r2, r2, #4
 2274 087a 0B46     		mov	r3, r1
 2275 087c DB00     		lsls	r3, r3, #3
 2276 087e 0B44     		add	r3, r3, r1
 2277 0880 5B00     		lsls	r3, r3, #1
 2278 0882 0B44     		add	r3, r3, r1
 2279 0884 0344     		add	r3, r3, r0
 2280 0886 1B01     		lsls	r3, r3, #4
 2281 0888 1344     		add	r3, r3, r2
 2282 088a 0833     		adds	r3, r3, #8
 2283 088c 9B88     		ldrh	r3, [r3, #4]
 2284 088e 07F5C252 		add	r2, r7, #6208
 2285 0892 02F10102 		add	r2, r2, #1
 2286 0896 1370     		strb	r3, [r2]
 302:.\pathfinder.c **** 
 303:.\pathfinder.c ****                nextNodeIndex = i;
 2287              		.loc 1 303 0
 2288 0898 07F5C153 		add	r3, r7, #6176
 2289 089c 03F11803 		add	r3, r3, #24
 2290 08a0 1B68     		ldr	r3, [r3]
 2291 08a2 07F5C252 		add	r2, r7, #6208
 2292 08a6 02F10202 		add	r2, r2, #2
 2293 08aa 1370     		strb	r3, [r2]
 304:.\pathfinder.c ****                hasNext = 1;
 2294              		.loc 1 304 0
 2295 08ac 0123     		movs	r3, #1
 2296 08ae 07F5C252 		add	r2, r7, #6208
 2297 08b2 1370     		strb	r3, [r2]
 2298              	.L47:
 290:.\pathfinder.c ****          //printf("i : %d\n", i);
 2299              		.loc 1 290 0 discriminator 2
 2300 08b4 07F5C153 		add	r3, r7, #6176
ARM GAS  C:\Users\tant836\AppData\Local\Temp\ccXZYOJd.s 			page 47


 2301 08b8 03F11803 		add	r3, r3, #24
 2302 08bc 1B68     		ldr	r3, [r3]
 2303 08be 0133     		adds	r3, r3, #1
 2304 08c0 07F5C152 		add	r2, r7, #6176
 2305 08c4 02F11802 		add	r2, r2, #24
 2306 08c8 1360     		str	r3, [r2]
 2307              	.L46:
 290:.\pathfinder.c ****          //printf("i : %d\n", i);
 2308              		.loc 1 290 0 is_stmt 0 discriminator 1
 2309 08ca 07F5C253 		add	r3, r7, #6208
 2310 08ce 03F10503 		add	r3, r3, #5
 2311 08d2 1A78     		ldrb	r2, [r3]	@ zero_extendqisi2
 2312 08d4 07F5C153 		add	r3, r7, #6176
 2313 08d8 03F11803 		add	r3, r3, #24
 2314 08dc 1B68     		ldr	r3, [r3]
 2315 08de 9A42     		cmp	r2, r3
 2316 08e0 3FF743AF 		bgt	.L48
 305:.\pathfinder.c ****             }
 306:.\pathfinder.c ****          }
 307:.\pathfinder.c ****       }
 308:.\pathfinder.c ****       //printf("has next %d\n", hasNext);
 309:.\pathfinder.c ****       current[Y] = nextNodes[nextNodeIndex][Y];
 2317              		.loc 1 309 0 is_stmt 1
 2318 08e4 07F5C253 		add	r3, r7, #6208
 2319 08e8 03F10203 		add	r3, r3, #2
 2320 08ec 1A78     		ldrb	r2, [r3]	@ zero_extendqisi2
 2321 08ee 07F12803 		add	r3, r7, #40
 2322 08f2 083B     		subs	r3, r3, #8
 2323 08f4 13F81220 		ldrb	r2, [r3, r2, lsl #1]	@ zero_extendqisi2
 2324 08f8 07F5CD63 		add	r3, r7, #1640
 2325 08fc 083B     		subs	r3, r3, #8
 2326 08fe 1A70     		strb	r2, [r3]
 310:.\pathfinder.c ****       current[X] = nextNodes[nextNodeIndex][X];
 2327              		.loc 1 310 0
 2328 0900 07F5C253 		add	r3, r7, #6208
 2329 0904 03F10203 		add	r3, r3, #2
 2330 0908 1B78     		ldrb	r3, [r3]	@ zero_extendqisi2
 2331 090a 07F12802 		add	r2, r7, #40
 2332 090e 083A     		subs	r2, r2, #8
 2333 0910 5B00     		lsls	r3, r3, #1
 2334 0912 1344     		add	r3, r3, r2
 2335 0914 5A78     		ldrb	r2, [r3, #1]	@ zero_extendqisi2
 2336 0916 07F5CD63 		add	r3, r7, #1640
 2337 091a 083B     		subs	r3, r3, #8
 2338 091c 5A70     		strb	r2, [r3, #1]
 311:.\pathfinder.c ****       direction = Nodes[current[Y]][current[X]].direction;
 2339              		.loc 1 311 0
 2340 091e 07F5CD63 		add	r3, r7, #1640
 2341 0922 083B     		subs	r3, r3, #8
 2342 0924 1B78     		ldrb	r3, [r3]	@ zero_extendqisi2
 2343 0926 1946     		mov	r1, r3
 2344 0928 07F5CD63 		add	r3, r7, #1640
 2345 092c 083B     		subs	r3, r3, #8
 2346 092e 5B78     		ldrb	r3, [r3, #1]	@ zero_extendqisi2
 2347 0930 1846     		mov	r0, r3
 2348 0932 07F5CD62 		add	r2, r7, #1640
 2349 0936 043A     		subs	r2, r2, #4
ARM GAS  C:\Users\tant836\AppData\Local\Temp\ccXZYOJd.s 			page 48


 2350 0938 0B46     		mov	r3, r1
 2351 093a DB00     		lsls	r3, r3, #3
 2352 093c 0B44     		add	r3, r3, r1
 2353 093e 5B00     		lsls	r3, r3, #1
 2354 0940 0B44     		add	r3, r3, r1
 2355 0942 0344     		add	r3, r3, r0
 2356 0944 1B01     		lsls	r3, r3, #4
 2357 0946 1344     		add	r3, r3, r2
 2358 0948 0833     		adds	r3, r3, #8
 2359 094a 9B79     		ldrb	r3, [r3, #6]
 2360 094c 07F5C252 		add	r2, r7, #6208
 2361 0950 02F11C02 		add	r2, r2, #28
 2362 0954 1370     		strb	r3, [r2]
 312:.\pathfinder.c **** 
 313:.\pathfinder.c ****       //printf("%d %d;", current[Y] + 1, current[X] + 1);
 314:.\pathfinder.c **** 
 315:.\pathfinder.c ****       //generate the path
 316:.\pathfinder.c ****       path[path_couter][Y] = current[Y];
 2363              		.loc 1 316 0
 2364 0956 07F5C153 		add	r3, r7, #6176
 2365 095a 03F11C03 		add	r3, r3, #28
 2366 095e 1A68     		ldr	r2, [r3]
 2367 0960 1346     		mov	r3, r2
 2368 0962 5B00     		lsls	r3, r3, #1
 2369 0964 1A44     		add	r2, r2, r3
 2370 0966 07F10803 		add	r3, r7, #8
 2371 096a 043B     		subs	r3, r3, #4
 2372 096c 1B68     		ldr	r3, [r3]
 2373 096e 1A44     		add	r2, r2, r3
 2374 0970 07F5CD63 		add	r3, r7, #1640
 2375 0974 083B     		subs	r3, r3, #8
 2376 0976 1B78     		ldrb	r3, [r3]	@ zero_extendqisi2
 2377 0978 1370     		strb	r3, [r2]
 317:.\pathfinder.c ****       path[path_couter][X] = current[X];
 2378              		.loc 1 317 0
 2379 097a 07F5C153 		add	r3, r7, #6176
 2380 097e 03F11C03 		add	r3, r3, #28
 2381 0982 1A68     		ldr	r2, [r3]
 2382 0984 1346     		mov	r3, r2
 2383 0986 5B00     		lsls	r3, r3, #1
 2384 0988 1A44     		add	r2, r2, r3
 2385 098a 07F10803 		add	r3, r7, #8
 2386 098e 043B     		subs	r3, r3, #4
 2387 0990 1B68     		ldr	r3, [r3]
 2388 0992 1A44     		add	r2, r2, r3
 2389 0994 07F5CD63 		add	r3, r7, #1640
 2390 0998 083B     		subs	r3, r3, #8
 2391 099a 5B78     		ldrb	r3, [r3, #1]	@ zero_extendqisi2
 2392 099c 5370     		strb	r3, [r2, #1]
 318:.\pathfinder.c ****       path[path_couter][DIR] = Nodes[current[Y]][current[X]].direction;
 2393              		.loc 1 318 0
 2394 099e 07F5C153 		add	r3, r7, #6176
 2395 09a2 03F11C03 		add	r3, r3, #28
 2396 09a6 1A68     		ldr	r2, [r3]
 2397 09a8 1346     		mov	r3, r2
 2398 09aa 5B00     		lsls	r3, r3, #1
 2399 09ac 1A44     		add	r2, r2, r3
ARM GAS  C:\Users\tant836\AppData\Local\Temp\ccXZYOJd.s 			page 49


 2400 09ae 07F10803 		add	r3, r7, #8
 2401 09b2 043B     		subs	r3, r3, #4
 2402 09b4 1B68     		ldr	r3, [r3]
 2403 09b6 9818     		adds	r0, r3, r2
 2404 09b8 07F5CD63 		add	r3, r7, #1640
 2405 09bc 083B     		subs	r3, r3, #8
 2406 09be 1B78     		ldrb	r3, [r3]	@ zero_extendqisi2
 2407 09c0 1946     		mov	r1, r3
 2408 09c2 07F5CD63 		add	r3, r7, #1640
 2409 09c6 083B     		subs	r3, r3, #8
 2410 09c8 5B78     		ldrb	r3, [r3, #1]	@ zero_extendqisi2
 2411 09ca 1C46     		mov	r4, r3
 2412 09cc 07F5CD62 		add	r2, r7, #1640
 2413 09d0 043A     		subs	r2, r2, #4
 2414 09d2 0B46     		mov	r3, r1
 2415 09d4 DB00     		lsls	r3, r3, #3
 2416 09d6 0B44     		add	r3, r3, r1
 2417 09d8 5B00     		lsls	r3, r3, #1
 2418 09da 0B44     		add	r3, r3, r1
 2419 09dc 2344     		add	r3, r3, r4
 2420 09de 1B01     		lsls	r3, r3, #4
 2421 09e0 1344     		add	r3, r3, r2
 2422 09e2 0833     		adds	r3, r3, #8
 2423 09e4 9B79     		ldrb	r3, [r3, #6]	@ zero_extendqisi2
 2424 09e6 8370     		strb	r3, [r0, #2]
 319:.\pathfinder.c ****       path_couter++;
 2425              		.loc 1 319 0
 2426 09e8 07F5C153 		add	r3, r7, #6176
 2427 09ec 03F11C03 		add	r3, r3, #28
 2428 09f0 1B68     		ldr	r3, [r3]
 2429 09f2 0133     		adds	r3, r3, #1
 2430 09f4 07F5C152 		add	r2, r7, #6176
 2431 09f8 02F11C02 		add	r2, r2, #28
 2432 09fc 1360     		str	r3, [r2]
 2433              	.L37:
 2434              	.LBE5:
 238:.\pathfinder.c ****       counter = 1;
 2435              		.loc 1 238 0
 2436 09fe 07F5C253 		add	r3, r7, #6208
 2437 0a02 1B78     		ldrb	r3, [r3]	@ zero_extendqisi2
 2438 0a04 012B     		cmp	r3, #1
 2439 0a06 3FF4E1AC 		beq	.L49
 320:.\pathfinder.c ****       //printf("tent_cost : %d || NODE(%d, %d) || visited: %d\n", Nodes[current[Y]][current[X]].ten
 321:.\pathfinder.c **** 
 322:.\pathfinder.c ****    }
 323:.\pathfinder.c **** 
 324:.\pathfinder.c ****    return path_couter;
 2440              		.loc 1 324 0
 2441 0a0a 07F5C153 		add	r3, r7, #6176
 2442 0a0e 03F11C03 		add	r3, r3, #28
 2443 0a12 1B68     		ldr	r3, [r3]
 2444 0a14 9BB2     		uxth	r3, r3
 325:.\pathfinder.c **** }
 2445              		.loc 1 325 0
 2446 0a16 1846     		mov	r0, r3
 2447 0a18 07F5C257 		add	r7, r7, #6208
 2448 0a1c 0837     		adds	r7, r7, #8
ARM GAS  C:\Users\tant836\AppData\Local\Temp\ccXZYOJd.s 			page 50


 2449              		.cfi_def_cfa_offset 16
 2450 0a1e BD46     		mov	sp, r7
 2451              		.cfi_def_cfa_register 13
 2452              		@ sp needed
 2453 0a20 B0BD     		pop	{r4, r5, r7, pc}
 2454              		.cfi_endproc
 2455              	.LFE64:
 2456              		.size	DepthFirst, .-DepthFirst
 2457 0a22 00BF     		.section	.rodata
 2458              		.align	2
 2459              	.LC0:
 2460 0000 25642025 		.ascii	"%d %d;\000"
 2460      643B00
 2461              		.section	.text.generateEntireMapDirections,"ax",%progbits
 2462              		.align	2
 2463              		.global	generateEntireMapDirections
 2464              		.thumb
 2465              		.thumb_func
 2466              		.type	generateEntireMapDirections, %function
 2467              	generateEntireMapDirections:
 2468              	.LFB65:
 326:.\pathfinder.c **** 
 327:.\pathfinder.c **** int generateEntireMapDirections(){
 2469              		.loc 1 327 0
 2470              		.cfi_startproc
 2471              		@ args = 0, pretend = 0, frame = 2432
 2472              		@ frame_needed = 1, uses_anonymous_args = 0
 2473 0000 90B5     		push	{r4, r7, lr}
 2474              		.cfi_def_cfa_offset 12
 2475              		.cfi_offset 4, -12
 2476              		.cfi_offset 7, -8
 2477              		.cfi_offset 14, -4
 2478 0002 ADF68C1D 		subw	sp, sp, #2444
 2479              		.cfi_def_cfa_offset 2456
 2480 0006 02AF     		add	r7, sp, #8
 2481              		.cfi_def_cfa 7, 2448
 328:.\pathfinder.c ****     int end = DepthFirst(map, food_list, path, start, destination, robot_direction);
 2482              		.loc 1 328 0
 2483 0008 964B     		ldr	r3, .L130
 2484 000a 1B78     		ldrb	r3, [r3]	@ zero_extendqisi2
 2485 000c 964A     		ldr	r2, .L130+4
 2486 000e 0092     		str	r2, [sp]
 2487 0010 0193     		str	r3, [sp, #4]
 2488 0012 9648     		ldr	r0, .L130+8
 2489 0014 9649     		ldr	r1, .L130+12
 2490 0016 974A     		ldr	r2, .L130+16
 2491 0018 974B     		ldr	r3, .L130+20
 2492 001a FFF7FEFF 		bl	DepthFirst
 2493 001e 0346     		mov	r3, r0
 2494 0020 C7F87039 		str	r3, [r7, #2416]
 329:.\pathfinder.c **** 
 330:.\pathfinder.c ****    /*
 331:.\pathfinder.c ****    printf("hello\n");
 332:.\pathfinder.c ****    printf("end value : %d\n", end);
 333:.\pathfinder.c ****    printf("[");
 334:.\pathfinder.c ****    for(int i = 0; i <end; i++){
 335:.\pathfinder.c ****       printf("%d  %d;", path[i][Y] + 1, path[i][X] + 1);
ARM GAS  C:\Users\tant836\AppData\Local\Temp\ccXZYOJd.s 			page 51


 336:.\pathfinder.c ****    }
 337:.\pathfinder.c ****    printf("]\n");
 338:.\pathfinder.c ****    */
 339:.\pathfinder.c **** 
 340:.\pathfinder.c ****    uint16 counter = 0;
 2495              		.loc 1 340 0
 2496 0024 0023     		movs	r3, #0
 2497 0026 A7F87E39 		strh	r3, [r7, #2430]	@ movhi
 341:.\pathfinder.c ****    //printf("here\n");
 342:.\pathfinder.c ****    //start from the end since that's the way the path has been stored in the the array
 343:.\pathfinder.c ****    //U/D stands for up down intersection L/R stands for left right internsection
 344:.\pathfinder.c ****     int i;
 345:.\pathfinder.c ****    for(i = 0; i < end; i++){
 2498              		.loc 1 345 0
 2499 002a 0023     		movs	r3, #0
 2500 002c C7F87839 		str	r3, [r7, #2424]
 2501 0030 00F09CBE 		b	.L52
 2502              	.L128:
 346:.\pathfinder.c ****       printf("%d %d;", path[i][Y] + 1, path[i][X] + 1);
 2503              		.loc 1 346 0
 2504 0034 8F49     		ldr	r1, .L130+16
 2505 0036 D7F87829 		ldr	r2, [r7, #2424]
 2506 003a 1346     		mov	r3, r2
 2507 003c 5B00     		lsls	r3, r3, #1
 2508 003e 1344     		add	r3, r3, r2
 2509 0040 0B44     		add	r3, r3, r1
 2510 0042 1B78     		ldrb	r3, [r3]	@ zero_extendqisi2
 2511 0044 5C1C     		adds	r4, r3, #1
 2512 0046 8B49     		ldr	r1, .L130+16
 2513 0048 D7F87829 		ldr	r2, [r7, #2424]
 2514 004c 1346     		mov	r3, r2
 2515 004e 5B00     		lsls	r3, r3, #1
 2516 0050 1344     		add	r3, r3, r2
 2517 0052 0B44     		add	r3, r3, r1
 2518 0054 0133     		adds	r3, r3, #1
 2519 0056 1B78     		ldrb	r3, [r3]	@ zero_extendqisi2
 2520 0058 0133     		adds	r3, r3, #1
 2521 005a 8848     		ldr	r0, .L130+24
 2522 005c 2146     		mov	r1, r4
 2523 005e 1A46     		mov	r2, r3
 2524 0060 FFF7FEFF 		bl	printf
 347:.\pathfinder.c ****       //if next direction is not possible from current direction then find the inter path (down, up
 348:.\pathfinder.c ****       if(!((path[i + 1][Y] == path[i][Y] + 1 && path[i + 1][X] == path[i][X]) || (path[i + 1][Y] ==
 2525              		.loc 1 348 0
 2526 0064 D7F87839 		ldr	r3, [r7, #2424]
 2527 0068 5A1C     		adds	r2, r3, #1
 2528 006a 8249     		ldr	r1, .L130+16
 2529 006c 1346     		mov	r3, r2
 2530 006e 5B00     		lsls	r3, r3, #1
 2531 0070 1344     		add	r3, r3, r2
 2532 0072 0B44     		add	r3, r3, r1
 2533 0074 1B78     		ldrb	r3, [r3]	@ zero_extendqisi2
 2534 0076 1846     		mov	r0, r3
 2535 0078 7E49     		ldr	r1, .L130+16
 2536 007a D7F87829 		ldr	r2, [r7, #2424]
 2537 007e 1346     		mov	r3, r2
 2538 0080 5B00     		lsls	r3, r3, #1
ARM GAS  C:\Users\tant836\AppData\Local\Temp\ccXZYOJd.s 			page 52


 2539 0082 1344     		add	r3, r3, r2
 2540 0084 0B44     		add	r3, r3, r1
 2541 0086 1B78     		ldrb	r3, [r3]	@ zero_extendqisi2
 2542 0088 0133     		adds	r3, r3, #1
 2543 008a 9842     		cmp	r0, r3
 2544 008c 15D1     		bne	.L53
 2545              		.loc 1 348 0 is_stmt 0 discriminator 2
 2546 008e D7F87839 		ldr	r3, [r7, #2424]
 2547 0092 5A1C     		adds	r2, r3, #1
 2548 0094 7749     		ldr	r1, .L130+16
 2549 0096 1346     		mov	r3, r2
 2550 0098 5B00     		lsls	r3, r3, #1
 2551 009a 1344     		add	r3, r3, r2
 2552 009c 0B44     		add	r3, r3, r1
 2553 009e 0133     		adds	r3, r3, #1
 2554 00a0 1978     		ldrb	r1, [r3]	@ zero_extendqisi2
 2555 00a2 7448     		ldr	r0, .L130+16
 2556 00a4 D7F87829 		ldr	r2, [r7, #2424]
 2557 00a8 1346     		mov	r3, r2
 2558 00aa 5B00     		lsls	r3, r3, #1
 2559 00ac 1344     		add	r3, r3, r2
 2560 00ae 0344     		add	r3, r3, r0
 2561 00b0 0133     		adds	r3, r3, #1
 2562 00b2 1B78     		ldrb	r3, [r3]	@ zero_extendqisi2
 2563 00b4 9942     		cmp	r1, r3
 2564 00b6 00F0AF83 		beq	.L54
 2565              	.L53:
 2566              		.loc 1 348 0 discriminator 3
 2567 00ba D7F87839 		ldr	r3, [r7, #2424]
 2568 00be 5A1C     		adds	r2, r3, #1
 2569 00c0 6C49     		ldr	r1, .L130+16
 2570 00c2 1346     		mov	r3, r2
 2571 00c4 5B00     		lsls	r3, r3, #1
 2572 00c6 1344     		add	r3, r3, r2
 2573 00c8 0B44     		add	r3, r3, r1
 2574 00ca 1B78     		ldrb	r3, [r3]	@ zero_extendqisi2
 2575 00cc 1846     		mov	r0, r3
 2576 00ce 6949     		ldr	r1, .L130+16
 2577 00d0 D7F87829 		ldr	r2, [r7, #2424]
 2578 00d4 1346     		mov	r3, r2
 2579 00d6 5B00     		lsls	r3, r3, #1
 2580 00d8 1344     		add	r3, r3, r2
 2581 00da 0B44     		add	r3, r3, r1
 2582 00dc 1B78     		ldrb	r3, [r3]	@ zero_extendqisi2
 2583 00de 013B     		subs	r3, r3, #1
 2584 00e0 9842     		cmp	r0, r3
 2585 00e2 15D1     		bne	.L55
 2586              		.loc 1 348 0 discriminator 5
 2587 00e4 D7F87839 		ldr	r3, [r7, #2424]
 2588 00e8 5A1C     		adds	r2, r3, #1
 2589 00ea 6249     		ldr	r1, .L130+16
 2590 00ec 1346     		mov	r3, r2
 2591 00ee 5B00     		lsls	r3, r3, #1
 2592 00f0 1344     		add	r3, r3, r2
 2593 00f2 0B44     		add	r3, r3, r1
 2594 00f4 0133     		adds	r3, r3, #1
 2595 00f6 1978     		ldrb	r1, [r3]	@ zero_extendqisi2
ARM GAS  C:\Users\tant836\AppData\Local\Temp\ccXZYOJd.s 			page 53


 2596 00f8 5E48     		ldr	r0, .L130+16
 2597 00fa D7F87829 		ldr	r2, [r7, #2424]
 2598 00fe 1346     		mov	r3, r2
 2599 0100 5B00     		lsls	r3, r3, #1
 2600 0102 1344     		add	r3, r3, r2
 2601 0104 0344     		add	r3, r3, r0
 2602 0106 0133     		adds	r3, r3, #1
 2603 0108 1B78     		ldrb	r3, [r3]	@ zero_extendqisi2
 2604 010a 9942     		cmp	r1, r3
 2605 010c 00F08483 		beq	.L54
 2606              	.L55:
 2607              		.loc 1 348 0 discriminator 6
 2608 0110 D7F87839 		ldr	r3, [r7, #2424]
 2609 0114 5A1C     		adds	r2, r3, #1
 2610 0116 5749     		ldr	r1, .L130+16
 2611 0118 1346     		mov	r3, r2
 2612 011a 5B00     		lsls	r3, r3, #1
 2613 011c 1344     		add	r3, r3, r2
 2614 011e 0B44     		add	r3, r3, r1
 2615 0120 0133     		adds	r3, r3, #1
 2616 0122 1B78     		ldrb	r3, [r3]	@ zero_extendqisi2
 2617 0124 1846     		mov	r0, r3
 2618 0126 5349     		ldr	r1, .L130+16
 2619 0128 D7F87829 		ldr	r2, [r7, #2424]
 2620 012c 1346     		mov	r3, r2
 2621 012e 5B00     		lsls	r3, r3, #1
 2622 0130 1344     		add	r3, r3, r2
 2623 0132 0B44     		add	r3, r3, r1
 2624 0134 0133     		adds	r3, r3, #1
 2625 0136 1B78     		ldrb	r3, [r3]	@ zero_extendqisi2
 2626 0138 013B     		subs	r3, r3, #1
 2627 013a 9842     		cmp	r0, r3
 2628 013c 13D1     		bne	.L56
 2629              		.loc 1 348 0 discriminator 8
 2630 013e D7F87839 		ldr	r3, [r7, #2424]
 2631 0142 5A1C     		adds	r2, r3, #1
 2632 0144 4B49     		ldr	r1, .L130+16
 2633 0146 1346     		mov	r3, r2
 2634 0148 5B00     		lsls	r3, r3, #1
 2635 014a 1344     		add	r3, r3, r2
 2636 014c 0B44     		add	r3, r3, r1
 2637 014e 1978     		ldrb	r1, [r3]	@ zero_extendqisi2
 2638 0150 4848     		ldr	r0, .L130+16
 2639 0152 D7F87829 		ldr	r2, [r7, #2424]
 2640 0156 1346     		mov	r3, r2
 2641 0158 5B00     		lsls	r3, r3, #1
 2642 015a 1344     		add	r3, r3, r2
 2643 015c 0344     		add	r3, r3, r0
 2644 015e 1B78     		ldrb	r3, [r3]	@ zero_extendqisi2
 2645 0160 9942     		cmp	r1, r3
 2646 0162 00F05983 		beq	.L54
 2647              	.L56:
 2648              		.loc 1 348 0 discriminator 9
 2649 0166 D7F87839 		ldr	r3, [r7, #2424]
 2650 016a 5A1C     		adds	r2, r3, #1
 2651 016c 4149     		ldr	r1, .L130+16
 2652 016e 1346     		mov	r3, r2
ARM GAS  C:\Users\tant836\AppData\Local\Temp\ccXZYOJd.s 			page 54


 2653 0170 5B00     		lsls	r3, r3, #1
 2654 0172 1344     		add	r3, r3, r2
 2655 0174 0B44     		add	r3, r3, r1
 2656 0176 0133     		adds	r3, r3, #1
 2657 0178 1B78     		ldrb	r3, [r3]	@ zero_extendqisi2
 2658 017a 1846     		mov	r0, r3
 2659 017c 3D49     		ldr	r1, .L130+16
 2660 017e D7F87829 		ldr	r2, [r7, #2424]
 2661 0182 1346     		mov	r3, r2
 2662 0184 5B00     		lsls	r3, r3, #1
 2663 0186 1344     		add	r3, r3, r2
 2664 0188 0B44     		add	r3, r3, r1
 2665 018a 0133     		adds	r3, r3, #1
 2666 018c 1B78     		ldrb	r3, [r3]	@ zero_extendqisi2
 2667 018e 0133     		adds	r3, r3, #1
 2668 0190 9842     		cmp	r0, r3
 2669 0192 13D1     		bne	.L57
 2670              		.loc 1 348 0 discriminator 10
 2671 0194 D7F87839 		ldr	r3, [r7, #2424]
 2672 0198 5A1C     		adds	r2, r3, #1
 2673 019a 3649     		ldr	r1, .L130+16
 2674 019c 1346     		mov	r3, r2
 2675 019e 5B00     		lsls	r3, r3, #1
 2676 01a0 1344     		add	r3, r3, r2
 2677 01a2 0B44     		add	r3, r3, r1
 2678 01a4 1978     		ldrb	r1, [r3]	@ zero_extendqisi2
 2679 01a6 3348     		ldr	r0, .L130+16
 2680 01a8 D7F87829 		ldr	r2, [r7, #2424]
 2681 01ac 1346     		mov	r3, r2
 2682 01ae 5B00     		lsls	r3, r3, #1
 2683 01b0 1344     		add	r3, r3, r2
 2684 01b2 0344     		add	r3, r3, r0
 2685 01b4 1B78     		ldrb	r3, [r3]	@ zero_extendqisi2
 2686 01b6 9942     		cmp	r1, r3
 2687 01b8 00F02E83 		beq	.L54
 2688              	.L57:
 2689              	.LBB6:
 349:.\pathfinder.c ****          uint8 inter_path[DEFAULT_ARRAY_SIZE][3] = {0};
 2690              		.loc 1 349 0 is_stmt 1
 2691 01bc 3B1D     		adds	r3, r7, #4
 2692 01be 1A46     		mov	r2, r3
 2693 01c0 4FF41663 		mov	r3, #2400
 2694 01c4 1046     		mov	r0, r2
 2695 01c6 0021     		movs	r1, #0
 2696 01c8 1A46     		mov	r2, r3
 2697 01ca FFF7FEFF 		bl	memset
 350:.\pathfinder.c ****          uint8 inter_start[2] = {path[i][Y], path[i][X]};//(y, x) array starts at 0
 2698              		.loc 1 350 0
 2699 01ce 2949     		ldr	r1, .L130+16
 2700 01d0 D7F87829 		ldr	r2, [r7, #2424]
 2701 01d4 1346     		mov	r3, r2
 2702 01d6 5B00     		lsls	r3, r3, #1
 2703 01d8 1344     		add	r3, r3, r2
 2704 01da 0B44     		add	r3, r3, r1
 2705 01dc 1B78     		ldrb	r3, [r3]	@ zero_extendqisi2
 2706 01de 87F86839 		strb	r3, [r7, #2408]
 2707 01e2 2449     		ldr	r1, .L130+16
ARM GAS  C:\Users\tant836\AppData\Local\Temp\ccXZYOJd.s 			page 55


 2708 01e4 D7F87829 		ldr	r2, [r7, #2424]
 2709 01e8 1346     		mov	r3, r2
 2710 01ea 5B00     		lsls	r3, r3, #1
 2711 01ec 1344     		add	r3, r3, r2
 2712 01ee 0B44     		add	r3, r3, r1
 2713 01f0 0133     		adds	r3, r3, #1
 2714 01f2 1B78     		ldrb	r3, [r3]	@ zero_extendqisi2
 2715 01f4 87F86939 		strb	r3, [r7, #2409]
 351:.\pathfinder.c ****          uint8 inter_destination[2] = {path[i + 1][Y], path[i + 1][X]};//(y, x)
 2716              		.loc 1 351 0
 2717 01f8 D7F87839 		ldr	r3, [r7, #2424]
 2718 01fc 5A1C     		adds	r2, r3, #1
 2719 01fe 1D49     		ldr	r1, .L130+16
 2720 0200 1346     		mov	r3, r2
 2721 0202 5B00     		lsls	r3, r3, #1
 2722 0204 1344     		add	r3, r3, r2
 2723 0206 0B44     		add	r3, r3, r1
 2724 0208 1B78     		ldrb	r3, [r3]	@ zero_extendqisi2
 2725 020a 87F86439 		strb	r3, [r7, #2404]
 2726 020e D7F87839 		ldr	r3, [r7, #2424]
 2727 0212 5A1C     		adds	r2, r3, #1
 2728 0214 1749     		ldr	r1, .L130+16
 2729 0216 1346     		mov	r3, r2
 2730 0218 5B00     		lsls	r3, r3, #1
 2731 021a 1344     		add	r3, r3, r2
 2732 021c 0B44     		add	r3, r3, r1
 2733 021e 0133     		adds	r3, r3, #1
 2734 0220 1B78     		ldrb	r3, [r3]	@ zero_extendqisi2
 2735 0222 87F86539 		strb	r3, [r7, #2405]
 352:.\pathfinder.c ****             
 353:.\pathfinder.c ****         //change the global direction
 354:.\pathfinder.c ****         robot_direction = path[i][DIR];
 2736              		.loc 1 354 0
 2737 0226 1349     		ldr	r1, .L130+16
 2738 0228 D7F87829 		ldr	r2, [r7, #2424]
 2739 022c 1346     		mov	r3, r2
 2740 022e 5B00     		lsls	r3, r3, #1
 2741 0230 1344     		add	r3, r3, r2
 2742 0232 0B44     		add	r3, r3, r1
 2743 0234 0233     		adds	r3, r3, #2
 2744 0236 1A78     		ldrb	r2, [r3]	@ zero_extendqisi2
 2745 0238 0A4B     		ldr	r3, .L130
 2746 023a 1A70     		strb	r2, [r3]
 355:.\pathfinder.c ****          int inter_end = djikstras(map, food_list, inter_path, inter_start, inter_destination);
 2747              		.loc 1 355 0
 2748 023c 3A1D     		adds	r2, r7, #4
 2749 023e 07F66814 		addw	r4, r7, #2408
 2750 0242 07F66413 		addw	r3, r7, #2404
 2751 0246 0093     		str	r3, [sp]
 2752 0248 0848     		ldr	r0, .L130+8
 2753 024a 0949     		ldr	r1, .L130+12
 2754 024c 2346     		mov	r3, r4
 2755 024e FFF7FEFF 		bl	djikstras
 2756 0252 0346     		mov	r3, r0
 2757 0254 C7F86C39 		str	r3, [r7, #2412]
 356:.\pathfinder.c **** 
 357:.\pathfinder.c ****          /*
ARM GAS  C:\Users\tant836\AppData\Local\Temp\ccXZYOJd.s 			page 56


 358:.\pathfinder.c ****          printf("\nDiscontinuity found path:\n");
 359:.\pathfinder.c ****          printf("end value : %d\n", inter_end);
 360:.\pathfinder.c ****          printf("[");
 361:.\pathfinder.c ****          for(int tmpI = inter_end; tmpI >=0; tmpI--){//TODO: do you include the final value j>=1 or
 362:.\pathfinder.c ****             printf("%d  %d;", inter_path[tmpI][Y] + 1, inter_path[tmpI][X] + 1);
 363:.\pathfinder.c ****          }
 364:.\pathfinder.c ****          printf("]\n");
 365:.\pathfinder.c ****          */
 366:.\pathfinder.c **** 
 367:.\pathfinder.c ****          //stuff
 368:.\pathfinder.c ****          int j;
 369:.\pathfinder.c ****          for(j = inter_end; j >= 1; j--){//TODO: do you include the final value j>=1 or j>=0
 2758              		.loc 1 369 0
 2759 0258 D7F86C39 		ldr	r3, [r7, #2412]
 2760 025c C7F87439 		str	r3, [r7, #2420]
 2761 0260 D5E2     		b	.L58
 2762              	.L131:
 2763 0262 00BF     		.align	2
 2764              	.L130:
 2765 0264 00000000 		.word	robot_direction
 2766 0268 00000000 		.word	destination
 2767 026c 00000000 		.word	map
 2768 0270 00000000 		.word	food_list
 2769 0274 00000000 		.word	path
 2770 0278 00000000 		.word	start
 2771 027c 00000000 		.word	.LC0
 2772              	.L93:
 370:.\pathfinder.c ****             printf("%d %d;", inter_path[j][Y] + 1, inter_path[j][X] + 1);
 2773              		.loc 1 370 0
 2774 0280 391D     		adds	r1, r7, #4
 2775 0282 D7F87429 		ldr	r2, [r7, #2420]
 2776 0286 1346     		mov	r3, r2
 2777 0288 5B00     		lsls	r3, r3, #1
 2778 028a 1344     		add	r3, r3, r2
 2779 028c 0B44     		add	r3, r3, r1
 2780 028e 1B78     		ldrb	r3, [r3]	@ zero_extendqisi2
 2781 0290 5C1C     		adds	r4, r3, #1
 2782 0292 391D     		adds	r1, r7, #4
 2783 0294 D7F87429 		ldr	r2, [r7, #2420]
 2784 0298 1346     		mov	r3, r2
 2785 029a 5B00     		lsls	r3, r3, #1
 2786 029c 1344     		add	r3, r3, r2
 2787 029e 0B44     		add	r3, r3, r1
 2788 02a0 0133     		adds	r3, r3, #1
 2789 02a2 1B78     		ldrb	r3, [r3]	@ zero_extendqisi2
 2790 02a4 0133     		adds	r3, r3, #1
 2791 02a6 B048     		ldr	r0, .L132
 2792 02a8 2146     		mov	r1, r4
 2793 02aa 1A46     		mov	r2, r3
 2794 02ac FFF7FEFF 		bl	printf
 371:.\pathfinder.c ****             if(inter_path[j][DIR] == 1 || inter_path[j][DIR] == 3){
 2795              		.loc 1 371 0
 2796 02b0 391D     		adds	r1, r7, #4
 2797 02b2 D7F87429 		ldr	r2, [r7, #2420]
 2798 02b6 1346     		mov	r3, r2
 2799 02b8 5B00     		lsls	r3, r3, #1
 2800 02ba 1344     		add	r3, r3, r2
ARM GAS  C:\Users\tant836\AppData\Local\Temp\ccXZYOJd.s 			page 57


 2801 02bc 0B44     		add	r3, r3, r1
 2802 02be 0233     		adds	r3, r3, #2
 2803 02c0 1B78     		ldrb	r3, [r3]	@ zero_extendqisi2
 2804 02c2 012B     		cmp	r3, #1
 2805 02c4 0BD0     		beq	.L59
 2806              		.loc 1 371 0 is_stmt 0 discriminator 1
 2807 02c6 391D     		adds	r1, r7, #4
 2808 02c8 D7F87429 		ldr	r2, [r7, #2420]
 2809 02cc 1346     		mov	r3, r2
 2810 02ce 5B00     		lsls	r3, r3, #1
 2811 02d0 1344     		add	r3, r3, r2
 2812 02d2 0B44     		add	r3, r3, r1
 2813 02d4 0233     		adds	r3, r3, #2
 2814 02d6 1B78     		ldrb	r3, [r3]	@ zero_extendqisi2
 2815 02d8 032B     		cmp	r3, #3
 2816 02da 40F04B81 		bne	.L60
 2817              	.L59:
 372:.\pathfinder.c ****                        //There should be a check that it is within the map
 373:.\pathfinder.c ****                        if(map[inter_path[j][Y]][inter_path[j][X] - 1] == PATH || map[inter_path[j][
 2818              		.loc 1 373 0 is_stmt 1
 2819 02de 391D     		adds	r1, r7, #4
 2820 02e0 D7F87429 		ldr	r2, [r7, #2420]
 2821 02e4 1346     		mov	r3, r2
 2822 02e6 5B00     		lsls	r3, r3, #1
 2823 02e8 1344     		add	r3, r3, r2
 2824 02ea 0B44     		add	r3, r3, r1
 2825 02ec 1B78     		ldrb	r3, [r3]	@ zero_extendqisi2
 2826 02ee 1A46     		mov	r2, r3
 2827 02f0 381D     		adds	r0, r7, #4
 2828 02f2 D7F87419 		ldr	r1, [r7, #2420]
 2829 02f6 0B46     		mov	r3, r1
 2830 02f8 5B00     		lsls	r3, r3, #1
 2831 02fa 0B44     		add	r3, r3, r1
 2832 02fc 0344     		add	r3, r3, r0
 2833 02fe 0133     		adds	r3, r3, #1
 2834 0300 1B78     		ldrb	r3, [r3]	@ zero_extendqisi2
 2835 0302 591E     		subs	r1, r3, #1
 2836 0304 9948     		ldr	r0, .L132+4
 2837 0306 1346     		mov	r3, r2
 2838 0308 DB00     		lsls	r3, r3, #3
 2839 030a 1344     		add	r3, r3, r2
 2840 030c 5B00     		lsls	r3, r3, #1
 2841 030e 1344     		add	r3, r3, r2
 2842 0310 0B44     		add	r3, r3, r1
 2843 0312 0344     		add	r3, r3, r0
 2844 0314 1B78     		ldrb	r3, [r3]	@ zero_extendqisi2
 2845 0316 002B     		cmp	r3, #0
 2846 0318 1ED0     		beq	.L61
 2847              		.loc 1 373 0 is_stmt 0 discriminator 1
 2848 031a 391D     		adds	r1, r7, #4
 2849 031c D7F87429 		ldr	r2, [r7, #2420]
 2850 0320 1346     		mov	r3, r2
 2851 0322 5B00     		lsls	r3, r3, #1
 2852 0324 1344     		add	r3, r3, r2
 2853 0326 0B44     		add	r3, r3, r1
 2854 0328 1B78     		ldrb	r3, [r3]	@ zero_extendqisi2
 2855 032a 1A46     		mov	r2, r3
ARM GAS  C:\Users\tant836\AppData\Local\Temp\ccXZYOJd.s 			page 58


 2856 032c 381D     		adds	r0, r7, #4
 2857 032e D7F87419 		ldr	r1, [r7, #2420]
 2858 0332 0B46     		mov	r3, r1
 2859 0334 5B00     		lsls	r3, r3, #1
 2860 0336 0B44     		add	r3, r3, r1
 2861 0338 0344     		add	r3, r3, r0
 2862 033a 0133     		adds	r3, r3, #1
 2863 033c 1B78     		ldrb	r3, [r3]	@ zero_extendqisi2
 2864 033e 591C     		adds	r1, r3, #1
 2865 0340 8A48     		ldr	r0, .L132+4
 2866 0342 1346     		mov	r3, r2
 2867 0344 DB00     		lsls	r3, r3, #3
 2868 0346 1344     		add	r3, r3, r2
 2869 0348 5B00     		lsls	r3, r3, #1
 2870 034a 1344     		add	r3, r3, r2
 2871 034c 0B44     		add	r3, r3, r1
 2872 034e 0344     		add	r3, r3, r0
 2873 0350 1B78     		ldrb	r3, [r3]	@ zero_extendqisi2
 2874 0352 002B     		cmp	r3, #0
 2875 0354 40F0CE80 		bne	.L62
 2876              	.L61:
 374:.\pathfinder.c ****                           if(inter_path[j][DIR] != inter_path[j - 1][DIR]){
 2877              		.loc 1 374 0 is_stmt 1
 2878 0358 391D     		adds	r1, r7, #4
 2879 035a D7F87429 		ldr	r2, [r7, #2420]
 2880 035e 1346     		mov	r3, r2
 2881 0360 5B00     		lsls	r3, r3, #1
 2882 0362 1344     		add	r3, r3, r2
 2883 0364 0B44     		add	r3, r3, r1
 2884 0366 0233     		adds	r3, r3, #2
 2885 0368 1978     		ldrb	r1, [r3]	@ zero_extendqisi2
 2886 036a D7F87439 		ldr	r3, [r7, #2420]
 2887 036e 5A1E     		subs	r2, r3, #1
 2888 0370 381D     		adds	r0, r7, #4
 2889 0372 1346     		mov	r3, r2
 2890 0374 5B00     		lsls	r3, r3, #1
 2891 0376 1344     		add	r3, r3, r2
 2892 0378 0344     		add	r3, r3, r0
 2893 037a 0233     		adds	r3, r3, #2
 2894 037c 1B78     		ldrb	r3, [r3]	@ zero_extendqisi2
 2895 037e 9942     		cmp	r1, r3
 2896 0380 00F0AC80 		beq	.L63
 375:.\pathfinder.c ****                              //current direction , the next direction
 376:.\pathfinder.c ****                              if((inter_path[j][DIR] == 1 && inter_path[j - 1][DIR] == 4) || (inter_
 2897              		.loc 1 376 0
 2898 0384 391D     		adds	r1, r7, #4
 2899 0386 D7F87429 		ldr	r2, [r7, #2420]
 2900 038a 1346     		mov	r3, r2
 2901 038c 5B00     		lsls	r3, r3, #1
 2902 038e 1344     		add	r3, r3, r2
 2903 0390 0B44     		add	r3, r3, r1
 2904 0392 0233     		adds	r3, r3, #2
 2905 0394 1B78     		ldrb	r3, [r3]	@ zero_extendqisi2
 2906 0396 012B     		cmp	r3, #1
 2907 0398 0BD1     		bne	.L64
 2908              		.loc 1 376 0 is_stmt 0 discriminator 1
 2909 039a D7F87439 		ldr	r3, [r7, #2420]
ARM GAS  C:\Users\tant836\AppData\Local\Temp\ccXZYOJd.s 			page 59


 2910 039e 5A1E     		subs	r2, r3, #1
 2911 03a0 391D     		adds	r1, r7, #4
 2912 03a2 1346     		mov	r3, r2
 2913 03a4 5B00     		lsls	r3, r3, #1
 2914 03a6 1344     		add	r3, r3, r2
 2915 03a8 0B44     		add	r3, r3, r1
 2916 03aa 0233     		adds	r3, r3, #2
 2917 03ac 1B78     		ldrb	r3, [r3]	@ zero_extendqisi2
 2918 03ae 042B     		cmp	r3, #4
 2919 03b0 16D0     		beq	.L65
 2920              	.L64:
 2921              		.loc 1 376 0 discriminator 3
 2922 03b2 391D     		adds	r1, r7, #4
 2923 03b4 D7F87429 		ldr	r2, [r7, #2420]
 2924 03b8 1346     		mov	r3, r2
 2925 03ba 5B00     		lsls	r3, r3, #1
 2926 03bc 1344     		add	r3, r3, r2
 2927 03be 0B44     		add	r3, r3, r1
 2928 03c0 0233     		adds	r3, r3, #2
 2929 03c2 1B78     		ldrb	r3, [r3]	@ zero_extendqisi2
 2930 03c4 032B     		cmp	r3, #3
 2931 03c6 16D1     		bne	.L66
 2932              		.loc 1 376 0 discriminator 4
 2933 03c8 D7F87439 		ldr	r3, [r7, #2420]
 2934 03cc 5A1E     		subs	r2, r3, #1
 2935 03ce 391D     		adds	r1, r7, #4
 2936 03d0 1346     		mov	r3, r2
 2937 03d2 5B00     		lsls	r3, r3, #1
 2938 03d4 1344     		add	r3, r3, r2
 2939 03d6 0B44     		add	r3, r3, r1
 2940 03d8 0233     		adds	r3, r3, #2
 2941 03da 1B78     		ldrb	r3, [r3]	@ zero_extendqisi2
 2942 03dc 022B     		cmp	r3, #2
 2943 03de 0AD1     		bne	.L66
 2944              	.L65:
 377:.\pathfinder.c ****                                 //printf("L/R intersection found (%d) [direction = %d] -- TURN LEFT
 378:.\pathfinder.c ****                                 instructions[counter] = LEFT;
 2945              		.loc 1 378 0 is_stmt 1
 2946 03e0 B7F87E39 		ldrh	r3, [r7, #2430]
 2947 03e4 624A     		ldr	r2, .L132+8
 2948 03e6 4C21     		movs	r1, #76
 2949 03e8 D154     		strb	r1, [r2, r3]
 379:.\pathfinder.c ****                                 counter++;
 2950              		.loc 1 379 0
 2951 03ea B7F87E39 		ldrh	r3, [r7, #2430]
 2952 03ee 0133     		adds	r3, r3, #1
 2953 03f0 A7F87E39 		strh	r3, [r7, #2430]	@ movhi
 2954 03f4 71E0     		b	.L67
 2955              	.L66:
 380:.\pathfinder.c ****                              }else if((inter_path[j][DIR] == 1 && inter_path[j - 1][DIR] == 2) || (
 2956              		.loc 1 380 0
 2957 03f6 391D     		adds	r1, r7, #4
 2958 03f8 D7F87429 		ldr	r2, [r7, #2420]
 2959 03fc 1346     		mov	r3, r2
 2960 03fe 5B00     		lsls	r3, r3, #1
 2961 0400 1344     		add	r3, r3, r2
 2962 0402 0B44     		add	r3, r3, r1
ARM GAS  C:\Users\tant836\AppData\Local\Temp\ccXZYOJd.s 			page 60


 2963 0404 0233     		adds	r3, r3, #2
 2964 0406 1B78     		ldrb	r3, [r3]	@ zero_extendqisi2
 2965 0408 012B     		cmp	r3, #1
 2966 040a 0BD1     		bne	.L68
 2967              		.loc 1 380 0 is_stmt 0 discriminator 1
 2968 040c D7F87439 		ldr	r3, [r7, #2420]
 2969 0410 5A1E     		subs	r2, r3, #1
 2970 0412 391D     		adds	r1, r7, #4
 2971 0414 1346     		mov	r3, r2
 2972 0416 5B00     		lsls	r3, r3, #1
 2973 0418 1344     		add	r3, r3, r2
 2974 041a 0B44     		add	r3, r3, r1
 2975 041c 0233     		adds	r3, r3, #2
 2976 041e 1B78     		ldrb	r3, [r3]	@ zero_extendqisi2
 2977 0420 022B     		cmp	r3, #2
 2978 0422 16D0     		beq	.L69
 2979              	.L68:
 2980              		.loc 1 380 0 discriminator 3
 2981 0424 391D     		adds	r1, r7, #4
 2982 0426 D7F87429 		ldr	r2, [r7, #2420]
 2983 042a 1346     		mov	r3, r2
 2984 042c 5B00     		lsls	r3, r3, #1
 2985 042e 1344     		add	r3, r3, r2
 2986 0430 0B44     		add	r3, r3, r1
 2987 0432 0233     		adds	r3, r3, #2
 2988 0434 1B78     		ldrb	r3, [r3]	@ zero_extendqisi2
 2989 0436 032B     		cmp	r3, #3
 2990 0438 16D1     		bne	.L70
 2991              		.loc 1 380 0 discriminator 4
 2992 043a D7F87439 		ldr	r3, [r7, #2420]
 2993 043e 5A1E     		subs	r2, r3, #1
 2994 0440 391D     		adds	r1, r7, #4
 2995 0442 1346     		mov	r3, r2
 2996 0444 5B00     		lsls	r3, r3, #1
 2997 0446 1344     		add	r3, r3, r2
 2998 0448 0B44     		add	r3, r3, r1
 2999 044a 0233     		adds	r3, r3, #2
 3000 044c 1B78     		ldrb	r3, [r3]	@ zero_extendqisi2
 3001 044e 042B     		cmp	r3, #4
 3002 0450 0AD1     		bne	.L70
 3003              	.L69:
 381:.\pathfinder.c ****                                 //printf("L/R intersection found (%d) [direction = %d] -- TURN RIGH
 382:.\pathfinder.c ****                                 instructions[counter] = RIGHT;
 3004              		.loc 1 382 0 is_stmt 1
 3005 0452 B7F87E39 		ldrh	r3, [r7, #2430]
 3006 0456 464A     		ldr	r2, .L132+8
 3007 0458 5221     		movs	r1, #82
 3008 045a D154     		strb	r1, [r2, r3]
 383:.\pathfinder.c ****                                 counter++;
 3009              		.loc 1 383 0
 3010 045c B7F87E39 		ldrh	r3, [r7, #2430]
 3011 0460 0133     		adds	r3, r3, #1
 3012 0462 A7F87E39 		strh	r3, [r7, #2430]	@ movhi
 3013 0466 38E0     		b	.L67
 3014              	.L70:
 384:.\pathfinder.c ****                              }else if ((inter_path[j][DIR] == 1 && inter_path[j - 1][DIR] == 3) || 
 3015              		.loc 1 384 0
ARM GAS  C:\Users\tant836\AppData\Local\Temp\ccXZYOJd.s 			page 61


 3016 0468 391D     		adds	r1, r7, #4
 3017 046a D7F87429 		ldr	r2, [r7, #2420]
 3018 046e 1346     		mov	r3, r2
 3019 0470 5B00     		lsls	r3, r3, #1
 3020 0472 1344     		add	r3, r3, r2
 3021 0474 0B44     		add	r3, r3, r1
 3022 0476 0233     		adds	r3, r3, #2
 3023 0478 1B78     		ldrb	r3, [r3]	@ zero_extendqisi2
 3024 047a 012B     		cmp	r3, #1
 3025 047c 0BD1     		bne	.L71
 3026              		.loc 1 384 0 is_stmt 0 discriminator 1
 3027 047e D7F87439 		ldr	r3, [r7, #2420]
 3028 0482 5A1E     		subs	r2, r3, #1
 3029 0484 391D     		adds	r1, r7, #4
 3030 0486 1346     		mov	r3, r2
 3031 0488 5B00     		lsls	r3, r3, #1
 3032 048a 1344     		add	r3, r3, r2
 3033 048c 0B44     		add	r3, r3, r1
 3034 048e 0233     		adds	r3, r3, #2
 3035 0490 1B78     		ldrb	r3, [r3]	@ zero_extendqisi2
 3036 0492 032B     		cmp	r3, #3
 3037 0494 16D0     		beq	.L72
 3038              	.L71:
 3039              		.loc 1 384 0 discriminator 3
 3040 0496 391D     		adds	r1, r7, #4
 3041 0498 D7F87429 		ldr	r2, [r7, #2420]
 3042 049c 1346     		mov	r3, r2
 3043 049e 5B00     		lsls	r3, r3, #1
 3044 04a0 1344     		add	r3, r3, r2
 3045 04a2 0B44     		add	r3, r3, r1
 3046 04a4 0233     		adds	r3, r3, #2
 3047 04a6 1B78     		ldrb	r3, [r3]	@ zero_extendqisi2
 3048 04a8 032B     		cmp	r3, #3
 3049 04aa 22D1     		bne	.L73
 3050              		.loc 1 384 0 discriminator 4
 3051 04ac D7F87439 		ldr	r3, [r7, #2420]
 3052 04b0 5A1E     		subs	r2, r3, #1
 3053 04b2 391D     		adds	r1, r7, #4
 3054 04b4 1346     		mov	r3, r2
 3055 04b6 5B00     		lsls	r3, r3, #1
 3056 04b8 1344     		add	r3, r3, r2
 3057 04ba 0B44     		add	r3, r3, r1
 3058 04bc 0233     		adds	r3, r3, #2
 3059 04be 1B78     		ldrb	r3, [r3]	@ zero_extendqisi2
 3060 04c0 012B     		cmp	r3, #1
 3061 04c2 16D1     		bne	.L73
 3062              	.L72:
 385:.\pathfinder.c ****                                 //printf("L/R intersection found (%d) [direction = %d] -- TURN U-TU
 386:.\pathfinder.c ****                                 instructions[counter] = UTURN;
 3063              		.loc 1 386 0 is_stmt 1
 3064 04c4 B7F87E39 		ldrh	r3, [r7, #2430]
 3065 04c8 294A     		ldr	r2, .L132+8
 3066 04ca 5521     		movs	r1, #85
 3067 04cc D154     		strb	r1, [r2, r3]
 387:.\pathfinder.c ****                                 counter++;
 3068              		.loc 1 387 0
 3069 04ce B7F87E39 		ldrh	r3, [r7, #2430]
ARM GAS  C:\Users\tant836\AppData\Local\Temp\ccXZYOJd.s 			page 62


 3070 04d2 0133     		adds	r3, r3, #1
 3071 04d4 A7F87E39 		strh	r3, [r7, #2430]	@ movhi
 3072 04d8 0BE0     		b	.L73
 3073              	.L67:
 3074 04da 0AE0     		b	.L73
 3075              	.L63:
 388:.\pathfinder.c ****                              }else{
 389:.\pathfinder.c ****                                 //printf("Prev %d, current %d\n",inter_path[j - 1][DIR], inter_path
 390:.\pathfinder.c ****                              }
 391:.\pathfinder.c ****                           }else{
 392:.\pathfinder.c ****                              //printf("L/R intersection found (%d) [direction = %d]\n", end - j + 1
 393:.\pathfinder.c ****                              instructions[counter] = STRAIGHT;
 3076              		.loc 1 393 0
 3077 04dc B7F87E39 		ldrh	r3, [r7, #2430]
 3078 04e0 234A     		ldr	r2, .L132+8
 3079 04e2 5321     		movs	r1, #83
 3080 04e4 D154     		strb	r1, [r2, r3]
 394:.\pathfinder.c ****                              counter++;
 3081              		.loc 1 394 0
 3082 04e6 B7F87E39 		ldrh	r3, [r7, #2430]
 3083 04ea 0133     		adds	r3, r3, #1
 3084 04ec A7F87E39 		strh	r3, [r7, #2430]	@ movhi
 374:.\pathfinder.c ****                              //current direction , the next direction
 3085              		.loc 1 374 0
 3086 04f0 39E0     		b	.L74
 3087              	.L73:
 374:.\pathfinder.c ****                              //current direction , the next direction
 3088              		.loc 1 374 0 is_stmt 0 discriminator 1
 3089 04f2 38E0     		b	.L74
 3090              	.L62:
 395:.\pathfinder.c ****                           }
 396:.\pathfinder.c ****                        }else{//not an intersection
 397:.\pathfinder.c ****                           if ((inter_path[j][DIR] == 1 && inter_path[j - 1][DIR] == 3) || (inter_pa
 3091              		.loc 1 397 0 is_stmt 1
 3092 04f4 391D     		adds	r1, r7, #4
 3093 04f6 D7F87429 		ldr	r2, [r7, #2420]
 3094 04fa 1346     		mov	r3, r2
 3095 04fc 5B00     		lsls	r3, r3, #1
 3096 04fe 1344     		add	r3, r3, r2
 3097 0500 0B44     		add	r3, r3, r1
 3098 0502 0233     		adds	r3, r3, #2
 3099 0504 1B78     		ldrb	r3, [r3]	@ zero_extendqisi2
 3100 0506 012B     		cmp	r3, #1
 3101 0508 0BD1     		bne	.L75
 3102              		.loc 1 397 0 is_stmt 0 discriminator 1
 3103 050a D7F87439 		ldr	r3, [r7, #2420]
 3104 050e 5A1E     		subs	r2, r3, #1
 3105 0510 391D     		adds	r1, r7, #4
 3106 0512 1346     		mov	r3, r2
 3107 0514 5B00     		lsls	r3, r3, #1
 3108 0516 1344     		add	r3, r3, r2
 3109 0518 0B44     		add	r3, r3, r1
 3110 051a 0233     		adds	r3, r3, #2
 3111 051c 1B78     		ldrb	r3, [r3]	@ zero_extendqisi2
 3112 051e 032B     		cmp	r3, #3
 3113 0520 16D0     		beq	.L76
 3114              	.L75:
ARM GAS  C:\Users\tant836\AppData\Local\Temp\ccXZYOJd.s 			page 63


 3115              		.loc 1 397 0 discriminator 3
 3116 0522 391D     		adds	r1, r7, #4
 3117 0524 D7F87429 		ldr	r2, [r7, #2420]
 3118 0528 1346     		mov	r3, r2
 3119 052a 5B00     		lsls	r3, r3, #1
 3120 052c 1344     		add	r3, r3, r2
 3121 052e 0B44     		add	r3, r3, r1
 3122 0530 0233     		adds	r3, r3, #2
 3123 0532 1B78     		ldrb	r3, [r3]	@ zero_extendqisi2
 3124 0534 032B     		cmp	r3, #3
 3125 0536 16D1     		bne	.L74
 3126              		.loc 1 397 0 discriminator 4
 3127 0538 D7F87439 		ldr	r3, [r7, #2420]
 3128 053c 5A1E     		subs	r2, r3, #1
 3129 053e 391D     		adds	r1, r7, #4
 3130 0540 1346     		mov	r3, r2
 3131 0542 5B00     		lsls	r3, r3, #1
 3132 0544 1344     		add	r3, r3, r2
 3133 0546 0B44     		add	r3, r3, r1
 3134 0548 0233     		adds	r3, r3, #2
 3135 054a 1B78     		ldrb	r3, [r3]	@ zero_extendqisi2
 3136 054c 012B     		cmp	r3, #1
 3137 054e 0AD1     		bne	.L74
 3138              	.L76:
 398:.\pathfinder.c ****                              //printf("L/R intersection found (%d) [direction = %d] -- TURN U-TURN\
 399:.\pathfinder.c ****                              instructions[counter] = UTURN;
 3139              		.loc 1 399 0 is_stmt 1
 3140 0550 B7F87E39 		ldrh	r3, [r7, #2430]
 3141 0554 064A     		ldr	r2, .L132+8
 3142 0556 5521     		movs	r1, #85
 3143 0558 D154     		strb	r1, [r2, r3]
 400:.\pathfinder.c ****                              counter++;
 3144              		.loc 1 400 0
 3145 055a B7F87E39 		ldrh	r3, [r7, #2430]
 3146 055e 0133     		adds	r3, r3, #1
 3147 0560 A7F87E39 		strh	r3, [r7, #2430]	@ movhi
 373:.\pathfinder.c ****                           if(inter_path[j][DIR] != inter_path[j - 1][DIR]){
 3148              		.loc 1 373 0
 3149 0564 4EE1     		b	.L77
 3150              	.L74:
 373:.\pathfinder.c ****                           if(inter_path[j][DIR] != inter_path[j - 1][DIR]){
 3151              		.loc 1 373 0 is_stmt 0 discriminator 2
 3152 0566 4DE1     		b	.L77
 3153              	.L133:
 3154              		.align	2
 3155              	.L132:
 3156 0568 00000000 		.word	.LC0
 3157 056c 00000000 		.word	map
 3158 0570 00000000 		.word	instructions
 3159              	.L60:
 401:.\pathfinder.c ****                           }else{
 402:.\pathfinder.c ****                           //printf("[(%d), direction = %d]\n", end - j + 1, inter_path[j][DIR]);
 403:.\pathfinder.c ****                        }
 404:.\pathfinder.c ****                        }
 405:.\pathfinder.c ****                     }else{
 406:.\pathfinder.c ****                        if(map[inter_path[j][Y] - 1][inter_path[j][X]] == PATH || map[inter_path[j][
 3160              		.loc 1 406 0 is_stmt 1
ARM GAS  C:\Users\tant836\AppData\Local\Temp\ccXZYOJd.s 			page 64


 3161 0574 391D     		adds	r1, r7, #4
 3162 0576 D7F87429 		ldr	r2, [r7, #2420]
 3163 057a 1346     		mov	r3, r2
 3164 057c 5B00     		lsls	r3, r3, #1
 3165 057e 1344     		add	r3, r3, r2
 3166 0580 0B44     		add	r3, r3, r1
 3167 0582 1B78     		ldrb	r3, [r3]	@ zero_extendqisi2
 3168 0584 5A1E     		subs	r2, r3, #1
 3169 0586 381D     		adds	r0, r7, #4
 3170 0588 D7F87419 		ldr	r1, [r7, #2420]
 3171 058c 0B46     		mov	r3, r1
 3172 058e 5B00     		lsls	r3, r3, #1
 3173 0590 0B44     		add	r3, r3, r1
 3174 0592 0344     		add	r3, r3, r0
 3175 0594 0133     		adds	r3, r3, #1
 3176 0596 1B78     		ldrb	r3, [r3]	@ zero_extendqisi2
 3177 0598 1846     		mov	r0, r3
 3178 059a 7C49     		ldr	r1, .L134
 3179 059c 1346     		mov	r3, r2
 3180 059e DB00     		lsls	r3, r3, #3
 3181 05a0 1344     		add	r3, r3, r2
 3182 05a2 5B00     		lsls	r3, r3, #1
 3183 05a4 1344     		add	r3, r3, r2
 3184 05a6 0344     		add	r3, r3, r0
 3185 05a8 0B44     		add	r3, r3, r1
 3186 05aa 1B78     		ldrb	r3, [r3]	@ zero_extendqisi2
 3187 05ac 002B     		cmp	r3, #0
 3188 05ae 1ED0     		beq	.L78
 3189              		.loc 1 406 0 is_stmt 0 discriminator 1
 3190 05b0 391D     		adds	r1, r7, #4
 3191 05b2 D7F87429 		ldr	r2, [r7, #2420]
 3192 05b6 1346     		mov	r3, r2
 3193 05b8 5B00     		lsls	r3, r3, #1
 3194 05ba 1344     		add	r3, r3, r2
 3195 05bc 0B44     		add	r3, r3, r1
 3196 05be 1B78     		ldrb	r3, [r3]	@ zero_extendqisi2
 3197 05c0 5A1C     		adds	r2, r3, #1
 3198 05c2 381D     		adds	r0, r7, #4
 3199 05c4 D7F87419 		ldr	r1, [r7, #2420]
 3200 05c8 0B46     		mov	r3, r1
 3201 05ca 5B00     		lsls	r3, r3, #1
 3202 05cc 0B44     		add	r3, r3, r1
 3203 05ce 0344     		add	r3, r3, r0
 3204 05d0 0133     		adds	r3, r3, #1
 3205 05d2 1B78     		ldrb	r3, [r3]	@ zero_extendqisi2
 3206 05d4 1846     		mov	r0, r3
 3207 05d6 6D49     		ldr	r1, .L134
 3208 05d8 1346     		mov	r3, r2
 3209 05da DB00     		lsls	r3, r3, #3
 3210 05dc 1344     		add	r3, r3, r2
 3211 05de 5B00     		lsls	r3, r3, #1
 3212 05e0 1344     		add	r3, r3, r2
 3213 05e2 0344     		add	r3, r3, r0
 3214 05e4 0B44     		add	r3, r3, r1
 3215 05e6 1B78     		ldrb	r3, [r3]	@ zero_extendqisi2
 3216 05e8 002B     		cmp	r3, #0
 3217 05ea 40F0D380 		bne	.L79
ARM GAS  C:\Users\tant836\AppData\Local\Temp\ccXZYOJd.s 			page 65


 3218              	.L78:
 407:.\pathfinder.c ****                           if(inter_path[j][DIR] != inter_path[j - 1][DIR]){
 3219              		.loc 1 407 0 is_stmt 1
 3220 05ee 391D     		adds	r1, r7, #4
 3221 05f0 D7F87429 		ldr	r2, [r7, #2420]
 3222 05f4 1346     		mov	r3, r2
 3223 05f6 5B00     		lsls	r3, r3, #1
 3224 05f8 1344     		add	r3, r3, r2
 3225 05fa 0B44     		add	r3, r3, r1
 3226 05fc 0233     		adds	r3, r3, #2
 3227 05fe 1978     		ldrb	r1, [r3]	@ zero_extendqisi2
 3228 0600 D7F87439 		ldr	r3, [r7, #2420]
 3229 0604 5A1E     		subs	r2, r3, #1
 3230 0606 381D     		adds	r0, r7, #4
 3231 0608 1346     		mov	r3, r2
 3232 060a 5B00     		lsls	r3, r3, #1
 3233 060c 1344     		add	r3, r3, r2
 3234 060e 0344     		add	r3, r3, r0
 3235 0610 0233     		adds	r3, r3, #2
 3236 0612 1B78     		ldrb	r3, [r3]	@ zero_extendqisi2
 3237 0614 9942     		cmp	r1, r3
 3238 0616 00F0AC80 		beq	.L80
 408:.\pathfinder.c ****                              if((inter_path[j][DIR] == 4 && inter_path[j - 1][DIR] == 3) || (inter_
 3239              		.loc 1 408 0
 3240 061a 391D     		adds	r1, r7, #4
 3241 061c D7F87429 		ldr	r2, [r7, #2420]
 3242 0620 1346     		mov	r3, r2
 3243 0622 5B00     		lsls	r3, r3, #1
 3244 0624 1344     		add	r3, r3, r2
 3245 0626 0B44     		add	r3, r3, r1
 3246 0628 0233     		adds	r3, r3, #2
 3247 062a 1B78     		ldrb	r3, [r3]	@ zero_extendqisi2
 3248 062c 042B     		cmp	r3, #4
 3249 062e 0BD1     		bne	.L81
 3250              		.loc 1 408 0 is_stmt 0 discriminator 1
 3251 0630 D7F87439 		ldr	r3, [r7, #2420]
 3252 0634 5A1E     		subs	r2, r3, #1
 3253 0636 391D     		adds	r1, r7, #4
 3254 0638 1346     		mov	r3, r2
 3255 063a 5B00     		lsls	r3, r3, #1
 3256 063c 1344     		add	r3, r3, r2
 3257 063e 0B44     		add	r3, r3, r1
 3258 0640 0233     		adds	r3, r3, #2
 3259 0642 1B78     		ldrb	r3, [r3]	@ zero_extendqisi2
 3260 0644 032B     		cmp	r3, #3
 3261 0646 16D0     		beq	.L82
 3262              	.L81:
 3263              		.loc 1 408 0 discriminator 3
 3264 0648 391D     		adds	r1, r7, #4
 3265 064a D7F87429 		ldr	r2, [r7, #2420]
 3266 064e 1346     		mov	r3, r2
 3267 0650 5B00     		lsls	r3, r3, #1
 3268 0652 1344     		add	r3, r3, r2
 3269 0654 0B44     		add	r3, r3, r1
 3270 0656 0233     		adds	r3, r3, #2
 3271 0658 1B78     		ldrb	r3, [r3]	@ zero_extendqisi2
 3272 065a 022B     		cmp	r3, #2
ARM GAS  C:\Users\tant836\AppData\Local\Temp\ccXZYOJd.s 			page 66


 3273 065c 16D1     		bne	.L83
 3274              		.loc 1 408 0 discriminator 4
 3275 065e D7F87439 		ldr	r3, [r7, #2420]
 3276 0662 5A1E     		subs	r2, r3, #1
 3277 0664 391D     		adds	r1, r7, #4
 3278 0666 1346     		mov	r3, r2
 3279 0668 5B00     		lsls	r3, r3, #1
 3280 066a 1344     		add	r3, r3, r2
 3281 066c 0B44     		add	r3, r3, r1
 3282 066e 0233     		adds	r3, r3, #2
 3283 0670 1B78     		ldrb	r3, [r3]	@ zero_extendqisi2
 3284 0672 012B     		cmp	r3, #1
 3285 0674 0AD1     		bne	.L83
 3286              	.L82:
 409:.\pathfinder.c ****                                 //printf("U/D intersection found (%d) [direction = %d] -- TURN LEFT
 410:.\pathfinder.c ****                                 instructions[counter] = LEFT;
 3287              		.loc 1 410 0 is_stmt 1
 3288 0676 B7F87E39 		ldrh	r3, [r7, #2430]
 3289 067a 454A     		ldr	r2, .L134+4
 3290 067c 4C21     		movs	r1, #76
 3291 067e D154     		strb	r1, [r2, r3]
 411:.\pathfinder.c ****                                 counter++;
 3292              		.loc 1 411 0
 3293 0680 B7F87E39 		ldrh	r3, [r7, #2430]
 3294 0684 0133     		adds	r3, r3, #1
 3295 0686 A7F87E39 		strh	r3, [r7, #2430]	@ movhi
 3296 068a 71E0     		b	.L84
 3297              	.L83:
 412:.\pathfinder.c ****                              }else if((inter_path[j][DIR] == 4 && inter_path[j - 1][DIR] == 1) || (
 3298              		.loc 1 412 0
 3299 068c 391D     		adds	r1, r7, #4
 3300 068e D7F87429 		ldr	r2, [r7, #2420]
 3301 0692 1346     		mov	r3, r2
 3302 0694 5B00     		lsls	r3, r3, #1
 3303 0696 1344     		add	r3, r3, r2
 3304 0698 0B44     		add	r3, r3, r1
 3305 069a 0233     		adds	r3, r3, #2
 3306 069c 1B78     		ldrb	r3, [r3]	@ zero_extendqisi2
 3307 069e 042B     		cmp	r3, #4
 3308 06a0 0BD1     		bne	.L85
 3309              		.loc 1 412 0 is_stmt 0 discriminator 1
 3310 06a2 D7F87439 		ldr	r3, [r7, #2420]
 3311 06a6 5A1E     		subs	r2, r3, #1
 3312 06a8 391D     		adds	r1, r7, #4
 3313 06aa 1346     		mov	r3, r2
 3314 06ac 5B00     		lsls	r3, r3, #1
 3315 06ae 1344     		add	r3, r3, r2
 3316 06b0 0B44     		add	r3, r3, r1
 3317 06b2 0233     		adds	r3, r3, #2
 3318 06b4 1B78     		ldrb	r3, [r3]	@ zero_extendqisi2
 3319 06b6 012B     		cmp	r3, #1
 3320 06b8 16D0     		beq	.L86
 3321              	.L85:
 3322              		.loc 1 412 0 discriminator 3
 3323 06ba 391D     		adds	r1, r7, #4
 3324 06bc D7F87429 		ldr	r2, [r7, #2420]
 3325 06c0 1346     		mov	r3, r2
ARM GAS  C:\Users\tant836\AppData\Local\Temp\ccXZYOJd.s 			page 67


 3326 06c2 5B00     		lsls	r3, r3, #1
 3327 06c4 1344     		add	r3, r3, r2
 3328 06c6 0B44     		add	r3, r3, r1
 3329 06c8 0233     		adds	r3, r3, #2
 3330 06ca 1B78     		ldrb	r3, [r3]	@ zero_extendqisi2
 3331 06cc 022B     		cmp	r3, #2
 3332 06ce 16D1     		bne	.L87
 3333              		.loc 1 412 0 discriminator 4
 3334 06d0 D7F87439 		ldr	r3, [r7, #2420]
 3335 06d4 5A1E     		subs	r2, r3, #1
 3336 06d6 391D     		adds	r1, r7, #4
 3337 06d8 1346     		mov	r3, r2
 3338 06da 5B00     		lsls	r3, r3, #1
 3339 06dc 1344     		add	r3, r3, r2
 3340 06de 0B44     		add	r3, r3, r1
 3341 06e0 0233     		adds	r3, r3, #2
 3342 06e2 1B78     		ldrb	r3, [r3]	@ zero_extendqisi2
 3343 06e4 032B     		cmp	r3, #3
 3344 06e6 0AD1     		bne	.L87
 3345              	.L86:
 413:.\pathfinder.c ****                                 //printf("U/D intersection found (%d) [direction = %d] -- TURN RIGH
 414:.\pathfinder.c ****                                 instructions[counter] = RIGHT;
 3346              		.loc 1 414 0 is_stmt 1
 3347 06e8 B7F87E39 		ldrh	r3, [r7, #2430]
 3348 06ec 284A     		ldr	r2, .L134+4
 3349 06ee 5221     		movs	r1, #82
 3350 06f0 D154     		strb	r1, [r2, r3]
 415:.\pathfinder.c ****                                 counter++;
 3351              		.loc 1 415 0
 3352 06f2 B7F87E39 		ldrh	r3, [r7, #2430]
 3353 06f6 0133     		adds	r3, r3, #1
 3354 06f8 A7F87E39 		strh	r3, [r7, #2430]	@ movhi
 3355 06fc 38E0     		b	.L84
 3356              	.L87:
 416:.\pathfinder.c ****                              }else if ((inter_path[j][DIR] == 4 && inter_path[j - 1][DIR] == 2) || 
 3357              		.loc 1 416 0
 3358 06fe 391D     		adds	r1, r7, #4
 3359 0700 D7F87429 		ldr	r2, [r7, #2420]
 3360 0704 1346     		mov	r3, r2
 3361 0706 5B00     		lsls	r3, r3, #1
 3362 0708 1344     		add	r3, r3, r2
 3363 070a 0B44     		add	r3, r3, r1
 3364 070c 0233     		adds	r3, r3, #2
 3365 070e 1B78     		ldrb	r3, [r3]	@ zero_extendqisi2
 3366 0710 042B     		cmp	r3, #4
 3367 0712 0BD1     		bne	.L88
 3368              		.loc 1 416 0 is_stmt 0 discriminator 1
 3369 0714 D7F87439 		ldr	r3, [r7, #2420]
 3370 0718 5A1E     		subs	r2, r3, #1
 3371 071a 391D     		adds	r1, r7, #4
 3372 071c 1346     		mov	r3, r2
 3373 071e 5B00     		lsls	r3, r3, #1
 3374 0720 1344     		add	r3, r3, r2
 3375 0722 0B44     		add	r3, r3, r1
 3376 0724 0233     		adds	r3, r3, #2
 3377 0726 1B78     		ldrb	r3, [r3]	@ zero_extendqisi2
 3378 0728 022B     		cmp	r3, #2
ARM GAS  C:\Users\tant836\AppData\Local\Temp\ccXZYOJd.s 			page 68


 3379 072a 16D0     		beq	.L89
 3380              	.L88:
 3381              		.loc 1 416 0 discriminator 3
 3382 072c 391D     		adds	r1, r7, #4
 3383 072e D7F87429 		ldr	r2, [r7, #2420]
 3384 0732 1346     		mov	r3, r2
 3385 0734 5B00     		lsls	r3, r3, #1
 3386 0736 1344     		add	r3, r3, r2
 3387 0738 0B44     		add	r3, r3, r1
 3388 073a 0233     		adds	r3, r3, #2
 3389 073c 1B78     		ldrb	r3, [r3]	@ zero_extendqisi2
 3390 073e 022B     		cmp	r3, #2
 3391 0740 22D1     		bne	.L90
 3392              		.loc 1 416 0 discriminator 4
 3393 0742 D7F87439 		ldr	r3, [r7, #2420]
 3394 0746 5A1E     		subs	r2, r3, #1
 3395 0748 391D     		adds	r1, r7, #4
 3396 074a 1346     		mov	r3, r2
 3397 074c 5B00     		lsls	r3, r3, #1
 3398 074e 1344     		add	r3, r3, r2
 3399 0750 0B44     		add	r3, r3, r1
 3400 0752 0233     		adds	r3, r3, #2
 3401 0754 1B78     		ldrb	r3, [r3]	@ zero_extendqisi2
 3402 0756 042B     		cmp	r3, #4
 3403 0758 16D1     		bne	.L90
 3404              	.L89:
 417:.\pathfinder.c ****                                 //printf("U/D intersection found (%d) [direction = %d] -- TURN U-TU
 418:.\pathfinder.c ****                                 instructions[counter] = UTURN;
 3405              		.loc 1 418 0 is_stmt 1
 3406 075a B7F87E39 		ldrh	r3, [r7, #2430]
 3407 075e 0C4A     		ldr	r2, .L134+4
 3408 0760 5521     		movs	r1, #85
 3409 0762 D154     		strb	r1, [r2, r3]
 419:.\pathfinder.c ****                                 counter++;
 3410              		.loc 1 419 0
 3411 0764 B7F87E39 		ldrh	r3, [r7, #2430]
 3412 0768 0133     		adds	r3, r3, #1
 3413 076a A7F87E39 		strh	r3, [r7, #2430]	@ movhi
 3414 076e 0BE0     		b	.L90
 3415              	.L84:
 3416 0770 0AE0     		b	.L90
 3417              	.L80:
 420:.\pathfinder.c ****                              }else{
 421:.\pathfinder.c ****                                 //printf("Prev %d, current %d\n", inter_path[j - 1][DIR], inter_pat
 422:.\pathfinder.c ****                              }
 423:.\pathfinder.c ****                           }else{
 424:.\pathfinder.c ****                              //printf("U/D intersection found (%d) [direction = %d]\n", end - j + 1
 425:.\pathfinder.c ****                              instructions[counter] = STRAIGHT;
 3418              		.loc 1 425 0
 3419 0772 B7F87E39 		ldrh	r3, [r7, #2430]
 3420 0776 064A     		ldr	r2, .L134+4
 3421 0778 5321     		movs	r1, #83
 3422 077a D154     		strb	r1, [r2, r3]
 426:.\pathfinder.c ****                              counter++;
 3423              		.loc 1 426 0
 3424 077c B7F87E39 		ldrh	r3, [r7, #2430]
 3425 0780 0133     		adds	r3, r3, #1
ARM GAS  C:\Users\tant836\AppData\Local\Temp\ccXZYOJd.s 			page 69


 3426 0782 A7F87E39 		strh	r3, [r7, #2430]	@ movhi
 407:.\pathfinder.c ****                              if((inter_path[j][DIR] == 4 && inter_path[j - 1][DIR] == 3) || (inter_
 3427              		.loc 1 407 0
 3428 0786 3DE0     		b	.L77
 3429              	.L90:
 407:.\pathfinder.c ****                              if((inter_path[j][DIR] == 4 && inter_path[j - 1][DIR] == 3) || (inter_
 3430              		.loc 1 407 0 is_stmt 0 discriminator 3
 3431 0788 3CE0     		b	.L77
 3432              	.L135:
 3433 078a 00BF     		.align	2
 3434              	.L134:
 3435 078c 00000000 		.word	map
 3436 0790 00000000 		.word	instructions
 3437              	.L79:
 427:.\pathfinder.c ****                           }
 428:.\pathfinder.c **** 
 429:.\pathfinder.c ****                        }else{
 430:.\pathfinder.c ****                           if ((inter_path[j][DIR] == 4 && inter_path[j - 1][DIR] == 2) || (inter_pa
 3438              		.loc 1 430 0 is_stmt 1
 3439 0794 391D     		adds	r1, r7, #4
 3440 0796 D7F87429 		ldr	r2, [r7, #2420]
 3441 079a 1346     		mov	r3, r2
 3442 079c 5B00     		lsls	r3, r3, #1
 3443 079e 1344     		add	r3, r3, r2
 3444 07a0 0B44     		add	r3, r3, r1
 3445 07a2 0233     		adds	r3, r3, #2
 3446 07a4 1B78     		ldrb	r3, [r3]	@ zero_extendqisi2
 3447 07a6 042B     		cmp	r3, #4
 3448 07a8 0BD1     		bne	.L91
 3449              		.loc 1 430 0 is_stmt 0 discriminator 1
 3450 07aa D7F87439 		ldr	r3, [r7, #2420]
 3451 07ae 5A1E     		subs	r2, r3, #1
 3452 07b0 391D     		adds	r1, r7, #4
 3453 07b2 1346     		mov	r3, r2
 3454 07b4 5B00     		lsls	r3, r3, #1
 3455 07b6 1344     		add	r3, r3, r2
 3456 07b8 0B44     		add	r3, r3, r1
 3457 07ba 0233     		adds	r3, r3, #2
 3458 07bc 1B78     		ldrb	r3, [r3]	@ zero_extendqisi2
 3459 07be 022B     		cmp	r3, #2
 3460 07c0 16D0     		beq	.L92
 3461              	.L91:
 3462              		.loc 1 430 0 discriminator 3
 3463 07c2 391D     		adds	r1, r7, #4
 3464 07c4 D7F87429 		ldr	r2, [r7, #2420]
 3465 07c8 1346     		mov	r3, r2
 3466 07ca 5B00     		lsls	r3, r3, #1
 3467 07cc 1344     		add	r3, r3, r2
 3468 07ce 0B44     		add	r3, r3, r1
 3469 07d0 0233     		adds	r3, r3, #2
 3470 07d2 1B78     		ldrb	r3, [r3]	@ zero_extendqisi2
 3471 07d4 022B     		cmp	r3, #2
 3472 07d6 15D1     		bne	.L77
 3473              		.loc 1 430 0 discriminator 4
 3474 07d8 D7F87439 		ldr	r3, [r7, #2420]
 3475 07dc 5A1E     		subs	r2, r3, #1
 3476 07de 391D     		adds	r1, r7, #4
ARM GAS  C:\Users\tant836\AppData\Local\Temp\ccXZYOJd.s 			page 70


 3477 07e0 1346     		mov	r3, r2
 3478 07e2 5B00     		lsls	r3, r3, #1
 3479 07e4 1344     		add	r3, r3, r2
 3480 07e6 0B44     		add	r3, r3, r1
 3481 07e8 0233     		adds	r3, r3, #2
 3482 07ea 1B78     		ldrb	r3, [r3]	@ zero_extendqisi2
 3483 07ec 042B     		cmp	r3, #4
 3484 07ee 09D1     		bne	.L77
 3485              	.L92:
 431:.\pathfinder.c ****                              //printf("U/D intersection found (%d) [direction = %d] -- TURN U-TURN\
 432:.\pathfinder.c ****                              instructions[counter] = UTURN;
 3486              		.loc 1 432 0 is_stmt 1
 3487 07f0 B7F87E39 		ldrh	r3, [r7, #2430]
 3488 07f4 B64A     		ldr	r2, .L136
 3489 07f6 5521     		movs	r1, #85
 3490 07f8 D154     		strb	r1, [r2, r3]
 433:.\pathfinder.c ****                              counter++;
 3491              		.loc 1 433 0
 3492 07fa B7F87E39 		ldrh	r3, [r7, #2430]
 3493 07fe 0133     		adds	r3, r3, #1
 3494 0800 A7F87E39 		strh	r3, [r7, #2430]	@ movhi
 3495              	.L77:
 369:.\pathfinder.c ****             printf("%d %d;", inter_path[j][Y] + 1, inter_path[j][X] + 1);
 3496              		.loc 1 369 0 discriminator 2
 3497 0804 D7F87439 		ldr	r3, [r7, #2420]
 3498 0808 013B     		subs	r3, r3, #1
 3499 080a C7F87439 		str	r3, [r7, #2420]
 3500              	.L58:
 369:.\pathfinder.c ****             printf("%d %d;", inter_path[j][Y] + 1, inter_path[j][X] + 1);
 3501              		.loc 1 369 0 is_stmt 0 discriminator 1
 3502 080e D7F87439 		ldr	r3, [r7, #2420]
 3503 0812 002B     		cmp	r3, #0
 3504 0814 3FF734AD 		bgt	.L93
 3505              	.L54:
 3506              	.LBE6:
 434:.\pathfinder.c ****                           }else{
 435:.\pathfinder.c ****                           //printf("[(%d), direction = %d]\n", end - j + 1, inter_path[j][DIR]);
 436:.\pathfinder.c ****                        }
 437:.\pathfinder.c ****                        }
 438:.\pathfinder.c ****                     }
 439:.\pathfinder.c ****          }
 440:.\pathfinder.c **** 
 441:.\pathfinder.c ****          //stuff
 442:.\pathfinder.c ****          //printf("Discontinuity found at %d \n", i + 1);
 443:.\pathfinder.c ****       }
 444:.\pathfinder.c **** 
 445:.\pathfinder.c ****       //printf("i: %d counter: %d\n", i, counter);
 446:.\pathfinder.c ****       if(path[i][DIR] == 1 || path[i][DIR] == 3){
 3507              		.loc 1 446 0 is_stmt 1
 3508 0818 AE49     		ldr	r1, .L136+4
 3509 081a D7F87829 		ldr	r2, [r7, #2424]
 3510 081e 1346     		mov	r3, r2
 3511 0820 5B00     		lsls	r3, r3, #1
 3512 0822 1344     		add	r3, r3, r2
 3513 0824 0B44     		add	r3, r3, r1
 3514 0826 0233     		adds	r3, r3, #2
 3515 0828 1B78     		ldrb	r3, [r3]	@ zero_extendqisi2
ARM GAS  C:\Users\tant836\AppData\Local\Temp\ccXZYOJd.s 			page 71


 3516 082a 012B     		cmp	r3, #1
 3517 082c 0BD0     		beq	.L94
 3518              		.loc 1 446 0 is_stmt 0 discriminator 1
 3519 082e A949     		ldr	r1, .L136+4
 3520 0830 D7F87829 		ldr	r2, [r7, #2424]
 3521 0834 1346     		mov	r3, r2
 3522 0836 5B00     		lsls	r3, r3, #1
 3523 0838 1344     		add	r3, r3, r2
 3524 083a 0B44     		add	r3, r3, r1
 3525 083c 0233     		adds	r3, r3, #2
 3526 083e 1B78     		ldrb	r3, [r3]	@ zero_extendqisi2
 3527 0840 032B     		cmp	r3, #3
 3528 0842 40F04B81 		bne	.L95
 3529              	.L94:
 447:.\pathfinder.c ****          //There should be a check that it is within the map
 448:.\pathfinder.c ****          if(map[path[i][Y]][path[i][X] - 1] == PATH || map[path[i][Y]][path[i][X] + 1] == PATH){
 3530              		.loc 1 448 0 is_stmt 1
 3531 0846 A349     		ldr	r1, .L136+4
 3532 0848 D7F87829 		ldr	r2, [r7, #2424]
 3533 084c 1346     		mov	r3, r2
 3534 084e 5B00     		lsls	r3, r3, #1
 3535 0850 1344     		add	r3, r3, r2
 3536 0852 0B44     		add	r3, r3, r1
 3537 0854 1B78     		ldrb	r3, [r3]	@ zero_extendqisi2
 3538 0856 1A46     		mov	r2, r3
 3539 0858 9E48     		ldr	r0, .L136+4
 3540 085a D7F87819 		ldr	r1, [r7, #2424]
 3541 085e 0B46     		mov	r3, r1
 3542 0860 5B00     		lsls	r3, r3, #1
 3543 0862 0B44     		add	r3, r3, r1
 3544 0864 0344     		add	r3, r3, r0
 3545 0866 0133     		adds	r3, r3, #1
 3546 0868 1B78     		ldrb	r3, [r3]	@ zero_extendqisi2
 3547 086a 591E     		subs	r1, r3, #1
 3548 086c 9A48     		ldr	r0, .L136+8
 3549 086e 1346     		mov	r3, r2
 3550 0870 DB00     		lsls	r3, r3, #3
 3551 0872 1344     		add	r3, r3, r2
 3552 0874 5B00     		lsls	r3, r3, #1
 3553 0876 1344     		add	r3, r3, r2
 3554 0878 0B44     		add	r3, r3, r1
 3555 087a 0344     		add	r3, r3, r0
 3556 087c 1B78     		ldrb	r3, [r3]	@ zero_extendqisi2
 3557 087e 002B     		cmp	r3, #0
 3558 0880 1ED0     		beq	.L96
 3559              		.loc 1 448 0 is_stmt 0 discriminator 1
 3560 0882 9449     		ldr	r1, .L136+4
 3561 0884 D7F87829 		ldr	r2, [r7, #2424]
 3562 0888 1346     		mov	r3, r2
 3563 088a 5B00     		lsls	r3, r3, #1
 3564 088c 1344     		add	r3, r3, r2
 3565 088e 0B44     		add	r3, r3, r1
 3566 0890 1B78     		ldrb	r3, [r3]	@ zero_extendqisi2
 3567 0892 1A46     		mov	r2, r3
 3568 0894 8F48     		ldr	r0, .L136+4
 3569 0896 D7F87819 		ldr	r1, [r7, #2424]
 3570 089a 0B46     		mov	r3, r1
ARM GAS  C:\Users\tant836\AppData\Local\Temp\ccXZYOJd.s 			page 72


 3571 089c 5B00     		lsls	r3, r3, #1
 3572 089e 0B44     		add	r3, r3, r1
 3573 08a0 0344     		add	r3, r3, r0
 3574 08a2 0133     		adds	r3, r3, #1
 3575 08a4 1B78     		ldrb	r3, [r3]	@ zero_extendqisi2
 3576 08a6 591C     		adds	r1, r3, #1
 3577 08a8 8B48     		ldr	r0, .L136+8
 3578 08aa 1346     		mov	r3, r2
 3579 08ac DB00     		lsls	r3, r3, #3
 3580 08ae 1344     		add	r3, r3, r2
 3581 08b0 5B00     		lsls	r3, r3, #1
 3582 08b2 1344     		add	r3, r3, r2
 3583 08b4 0B44     		add	r3, r3, r1
 3584 08b6 0344     		add	r3, r3, r0
 3585 08b8 1B78     		ldrb	r3, [r3]	@ zero_extendqisi2
 3586 08ba 002B     		cmp	r3, #0
 3587 08bc 40F0CE80 		bne	.L97
 3588              	.L96:
 449:.\pathfinder.c ****             if(path[i][DIR] != path[i + 1][DIR]){
 3589              		.loc 1 449 0 is_stmt 1
 3590 08c0 8449     		ldr	r1, .L136+4
 3591 08c2 D7F87829 		ldr	r2, [r7, #2424]
 3592 08c6 1346     		mov	r3, r2
 3593 08c8 5B00     		lsls	r3, r3, #1
 3594 08ca 1344     		add	r3, r3, r2
 3595 08cc 0B44     		add	r3, r3, r1
 3596 08ce 0233     		adds	r3, r3, #2
 3597 08d0 1978     		ldrb	r1, [r3]	@ zero_extendqisi2
 3598 08d2 D7F87839 		ldr	r3, [r7, #2424]
 3599 08d6 5A1C     		adds	r2, r3, #1
 3600 08d8 7E48     		ldr	r0, .L136+4
 3601 08da 1346     		mov	r3, r2
 3602 08dc 5B00     		lsls	r3, r3, #1
 3603 08de 1344     		add	r3, r3, r2
 3604 08e0 0344     		add	r3, r3, r0
 3605 08e2 0233     		adds	r3, r3, #2
 3606 08e4 1B78     		ldrb	r3, [r3]	@ zero_extendqisi2
 3607 08e6 9942     		cmp	r1, r3
 3608 08e8 00F0AC80 		beq	.L98
 450:.\pathfinder.c ****                //current direction , the next direction
 451:.\pathfinder.c ****                if((path[i][DIR] == 1 && path[i + 1][DIR] == 4) || (path[i][DIR] == 3 && path[i + 1]
 3609              		.loc 1 451 0
 3610 08ec 7949     		ldr	r1, .L136+4
 3611 08ee D7F87829 		ldr	r2, [r7, #2424]
 3612 08f2 1346     		mov	r3, r2
 3613 08f4 5B00     		lsls	r3, r3, #1
 3614 08f6 1344     		add	r3, r3, r2
 3615 08f8 0B44     		add	r3, r3, r1
 3616 08fa 0233     		adds	r3, r3, #2
 3617 08fc 1B78     		ldrb	r3, [r3]	@ zero_extendqisi2
 3618 08fe 012B     		cmp	r3, #1
 3619 0900 0BD1     		bne	.L99
 3620              		.loc 1 451 0 is_stmt 0 discriminator 1
 3621 0902 D7F87839 		ldr	r3, [r7, #2424]
 3622 0906 5A1C     		adds	r2, r3, #1
 3623 0908 7249     		ldr	r1, .L136+4
 3624 090a 1346     		mov	r3, r2
ARM GAS  C:\Users\tant836\AppData\Local\Temp\ccXZYOJd.s 			page 73


 3625 090c 5B00     		lsls	r3, r3, #1
 3626 090e 1344     		add	r3, r3, r2
 3627 0910 0B44     		add	r3, r3, r1
 3628 0912 0233     		adds	r3, r3, #2
 3629 0914 1B78     		ldrb	r3, [r3]	@ zero_extendqisi2
 3630 0916 042B     		cmp	r3, #4
 3631 0918 16D0     		beq	.L100
 3632              	.L99:
 3633              		.loc 1 451 0 discriminator 3
 3634 091a 6E49     		ldr	r1, .L136+4
 3635 091c D7F87829 		ldr	r2, [r7, #2424]
 3636 0920 1346     		mov	r3, r2
 3637 0922 5B00     		lsls	r3, r3, #1
 3638 0924 1344     		add	r3, r3, r2
 3639 0926 0B44     		add	r3, r3, r1
 3640 0928 0233     		adds	r3, r3, #2
 3641 092a 1B78     		ldrb	r3, [r3]	@ zero_extendqisi2
 3642 092c 032B     		cmp	r3, #3
 3643 092e 16D1     		bne	.L101
 3644              		.loc 1 451 0 discriminator 4
 3645 0930 D7F87839 		ldr	r3, [r7, #2424]
 3646 0934 5A1C     		adds	r2, r3, #1
 3647 0936 6749     		ldr	r1, .L136+4
 3648 0938 1346     		mov	r3, r2
 3649 093a 5B00     		lsls	r3, r3, #1
 3650 093c 1344     		add	r3, r3, r2
 3651 093e 0B44     		add	r3, r3, r1
 3652 0940 0233     		adds	r3, r3, #2
 3653 0942 1B78     		ldrb	r3, [r3]	@ zero_extendqisi2
 3654 0944 022B     		cmp	r3, #2
 3655 0946 0AD1     		bne	.L101
 3656              	.L100:
 452:.\pathfinder.c ****                   //printf("L/R intersection found (%d) [direction = %d] -- TURN LEFT\n", i, path[i
 453:.\pathfinder.c ****                   instructions[counter] = LEFT;
 3657              		.loc 1 453 0 is_stmt 1
 3658 0948 B7F87E39 		ldrh	r3, [r7, #2430]
 3659 094c 604A     		ldr	r2, .L136
 3660 094e 4C21     		movs	r1, #76
 3661 0950 D154     		strb	r1, [r2, r3]
 454:.\pathfinder.c ****                   counter++;
 3662              		.loc 1 454 0
 3663 0952 B7F87E39 		ldrh	r3, [r7, #2430]
 3664 0956 0133     		adds	r3, r3, #1
 3665 0958 A7F87E39 		strh	r3, [r7, #2430]	@ movhi
 3666 095c 71E0     		b	.L102
 3667              	.L101:
 455:.\pathfinder.c ****                }else if((path[i][DIR] == 1 && path[i + 1][DIR] == 2) || (path[i][DIR] == 3 && path[
 3668              		.loc 1 455 0
 3669 095e 5D49     		ldr	r1, .L136+4
 3670 0960 D7F87829 		ldr	r2, [r7, #2424]
 3671 0964 1346     		mov	r3, r2
 3672 0966 5B00     		lsls	r3, r3, #1
 3673 0968 1344     		add	r3, r3, r2
 3674 096a 0B44     		add	r3, r3, r1
 3675 096c 0233     		adds	r3, r3, #2
 3676 096e 1B78     		ldrb	r3, [r3]	@ zero_extendqisi2
 3677 0970 012B     		cmp	r3, #1
ARM GAS  C:\Users\tant836\AppData\Local\Temp\ccXZYOJd.s 			page 74


 3678 0972 0BD1     		bne	.L103
 3679              		.loc 1 455 0 is_stmt 0 discriminator 1
 3680 0974 D7F87839 		ldr	r3, [r7, #2424]
 3681 0978 5A1C     		adds	r2, r3, #1
 3682 097a 5649     		ldr	r1, .L136+4
 3683 097c 1346     		mov	r3, r2
 3684 097e 5B00     		lsls	r3, r3, #1
 3685 0980 1344     		add	r3, r3, r2
 3686 0982 0B44     		add	r3, r3, r1
 3687 0984 0233     		adds	r3, r3, #2
 3688 0986 1B78     		ldrb	r3, [r3]	@ zero_extendqisi2
 3689 0988 022B     		cmp	r3, #2
 3690 098a 16D0     		beq	.L104
 3691              	.L103:
 3692              		.loc 1 455 0 discriminator 3
 3693 098c 5149     		ldr	r1, .L136+4
 3694 098e D7F87829 		ldr	r2, [r7, #2424]
 3695 0992 1346     		mov	r3, r2
 3696 0994 5B00     		lsls	r3, r3, #1
 3697 0996 1344     		add	r3, r3, r2
 3698 0998 0B44     		add	r3, r3, r1
 3699 099a 0233     		adds	r3, r3, #2
 3700 099c 1B78     		ldrb	r3, [r3]	@ zero_extendqisi2
 3701 099e 032B     		cmp	r3, #3
 3702 09a0 16D1     		bne	.L105
 3703              		.loc 1 455 0 discriminator 4
 3704 09a2 D7F87839 		ldr	r3, [r7, #2424]
 3705 09a6 5A1C     		adds	r2, r3, #1
 3706 09a8 4A49     		ldr	r1, .L136+4
 3707 09aa 1346     		mov	r3, r2
 3708 09ac 5B00     		lsls	r3, r3, #1
 3709 09ae 1344     		add	r3, r3, r2
 3710 09b0 0B44     		add	r3, r3, r1
 3711 09b2 0233     		adds	r3, r3, #2
 3712 09b4 1B78     		ldrb	r3, [r3]	@ zero_extendqisi2
 3713 09b6 042B     		cmp	r3, #4
 3714 09b8 0AD1     		bne	.L105
 3715              	.L104:
 456:.\pathfinder.c ****                   //printf("L/R intersection found (%d) [direction = %d] -- TURN RIGHT\n", i, path[
 457:.\pathfinder.c ****                   instructions[counter] = RIGHT;
 3716              		.loc 1 457 0 is_stmt 1
 3717 09ba B7F87E39 		ldrh	r3, [r7, #2430]
 3718 09be 444A     		ldr	r2, .L136
 3719 09c0 5221     		movs	r1, #82
 3720 09c2 D154     		strb	r1, [r2, r3]
 458:.\pathfinder.c ****                   counter++;
 3721              		.loc 1 458 0
 3722 09c4 B7F87E39 		ldrh	r3, [r7, #2430]
 3723 09c8 0133     		adds	r3, r3, #1
 3724 09ca A7F87E39 		strh	r3, [r7, #2430]	@ movhi
 3725 09ce 38E0     		b	.L102
 3726              	.L105:
 459:.\pathfinder.c ****                }else if ((path[i][DIR] == 1 && path[i + 1][DIR] == 3) || (path[i][DIR] == 3 && path
 3727              		.loc 1 459 0
 3728 09d0 4049     		ldr	r1, .L136+4
 3729 09d2 D7F87829 		ldr	r2, [r7, #2424]
 3730 09d6 1346     		mov	r3, r2
ARM GAS  C:\Users\tant836\AppData\Local\Temp\ccXZYOJd.s 			page 75


 3731 09d8 5B00     		lsls	r3, r3, #1
 3732 09da 1344     		add	r3, r3, r2
 3733 09dc 0B44     		add	r3, r3, r1
 3734 09de 0233     		adds	r3, r3, #2
 3735 09e0 1B78     		ldrb	r3, [r3]	@ zero_extendqisi2
 3736 09e2 012B     		cmp	r3, #1
 3737 09e4 0BD1     		bne	.L106
 3738              		.loc 1 459 0 is_stmt 0 discriminator 1
 3739 09e6 D7F87839 		ldr	r3, [r7, #2424]
 3740 09ea 5A1C     		adds	r2, r3, #1
 3741 09ec 3949     		ldr	r1, .L136+4
 3742 09ee 1346     		mov	r3, r2
 3743 09f0 5B00     		lsls	r3, r3, #1
 3744 09f2 1344     		add	r3, r3, r2
 3745 09f4 0B44     		add	r3, r3, r1
 3746 09f6 0233     		adds	r3, r3, #2
 3747 09f8 1B78     		ldrb	r3, [r3]	@ zero_extendqisi2
 3748 09fa 032B     		cmp	r3, #3
 3749 09fc 16D0     		beq	.L107
 3750              	.L106:
 3751              		.loc 1 459 0 discriminator 3
 3752 09fe 3549     		ldr	r1, .L136+4
 3753 0a00 D7F87829 		ldr	r2, [r7, #2424]
 3754 0a04 1346     		mov	r3, r2
 3755 0a06 5B00     		lsls	r3, r3, #1
 3756 0a08 1344     		add	r3, r3, r2
 3757 0a0a 0B44     		add	r3, r3, r1
 3758 0a0c 0233     		adds	r3, r3, #2
 3759 0a0e 1B78     		ldrb	r3, [r3]	@ zero_extendqisi2
 3760 0a10 032B     		cmp	r3, #3
 3761 0a12 22D1     		bne	.L108
 3762              		.loc 1 459 0 discriminator 4
 3763 0a14 D7F87839 		ldr	r3, [r7, #2424]
 3764 0a18 5A1C     		adds	r2, r3, #1
 3765 0a1a 2E49     		ldr	r1, .L136+4
 3766 0a1c 1346     		mov	r3, r2
 3767 0a1e 5B00     		lsls	r3, r3, #1
 3768 0a20 1344     		add	r3, r3, r2
 3769 0a22 0B44     		add	r3, r3, r1
 3770 0a24 0233     		adds	r3, r3, #2
 3771 0a26 1B78     		ldrb	r3, [r3]	@ zero_extendqisi2
 3772 0a28 012B     		cmp	r3, #1
 3773 0a2a 16D1     		bne	.L108
 3774              	.L107:
 460:.\pathfinder.c ****                   //printf("L/R intersection found (%d) [direction = %d] -- TURN U-TURN\n", i, path
 461:.\pathfinder.c ****                   instructions[counter] = UTURN;
 3775              		.loc 1 461 0 is_stmt 1
 3776 0a2c B7F87E39 		ldrh	r3, [r7, #2430]
 3777 0a30 274A     		ldr	r2, .L136
 3778 0a32 5521     		movs	r1, #85
 3779 0a34 D154     		strb	r1, [r2, r3]
 462:.\pathfinder.c ****                   counter++;
 3780              		.loc 1 462 0
 3781 0a36 B7F87E39 		ldrh	r3, [r7, #2430]
 3782 0a3a 0133     		adds	r3, r3, #1
 3783 0a3c A7F87E39 		strh	r3, [r7, #2430]	@ movhi
 3784 0a40 0BE0     		b	.L108
ARM GAS  C:\Users\tant836\AppData\Local\Temp\ccXZYOJd.s 			page 76


 3785              	.L102:
 3786 0a42 0AE0     		b	.L108
 3787              	.L98:
 463:.\pathfinder.c ****                }else{
 464:.\pathfinder.c ****                   //printf("Prev %d, current %d\n",path[i + 1][DIR], path[i][DIR]);
 465:.\pathfinder.c ****                }
 466:.\pathfinder.c ****             }else{
 467:.\pathfinder.c ****                //printf("L/R intersection found (%d) [direction = %d]\n", i, path[i][DIR]);
 468:.\pathfinder.c ****                instructions[counter] = STRAIGHT;
 3788              		.loc 1 468 0
 3789 0a44 B7F87E39 		ldrh	r3, [r7, #2430]
 3790 0a48 214A     		ldr	r2, .L136
 3791 0a4a 5321     		movs	r1, #83
 3792 0a4c D154     		strb	r1, [r2, r3]
 469:.\pathfinder.c ****                counter++;
 3793              		.loc 1 469 0
 3794 0a4e B7F87E39 		ldrh	r3, [r7, #2430]
 3795 0a52 0133     		adds	r3, r3, #1
 3796 0a54 A7F87E39 		strh	r3, [r7, #2430]	@ movhi
 449:.\pathfinder.c ****                //current direction , the next direction
 3797              		.loc 1 449 0
 3798 0a58 39E0     		b	.L109
 3799              	.L108:
 449:.\pathfinder.c ****                //current direction , the next direction
 3800              		.loc 1 449 0 is_stmt 0 discriminator 4
 3801 0a5a 38E0     		b	.L109
 3802              	.L97:
 470:.\pathfinder.c ****             }
 471:.\pathfinder.c ****          }else{//not an intersection
 472:.\pathfinder.c ****             if ((path[i][DIR] == 1 && path[i + 1][DIR] == 3) || (path[i][DIR] == 3 && path[i + 1][D
 3803              		.loc 1 472 0 is_stmt 1
 3804 0a5c 1D49     		ldr	r1, .L136+4
 3805 0a5e D7F87829 		ldr	r2, [r7, #2424]
 3806 0a62 1346     		mov	r3, r2
 3807 0a64 5B00     		lsls	r3, r3, #1
 3808 0a66 1344     		add	r3, r3, r2
 3809 0a68 0B44     		add	r3, r3, r1
 3810 0a6a 0233     		adds	r3, r3, #2
 3811 0a6c 1B78     		ldrb	r3, [r3]	@ zero_extendqisi2
 3812 0a6e 012B     		cmp	r3, #1
 3813 0a70 0BD1     		bne	.L110
 3814              		.loc 1 472 0 is_stmt 0 discriminator 1
 3815 0a72 D7F87839 		ldr	r3, [r7, #2424]
 3816 0a76 5A1C     		adds	r2, r3, #1
 3817 0a78 1649     		ldr	r1, .L136+4
 3818 0a7a 1346     		mov	r3, r2
 3819 0a7c 5B00     		lsls	r3, r3, #1
 3820 0a7e 1344     		add	r3, r3, r2
 3821 0a80 0B44     		add	r3, r3, r1
 3822 0a82 0233     		adds	r3, r3, #2
 3823 0a84 1B78     		ldrb	r3, [r3]	@ zero_extendqisi2
 3824 0a86 032B     		cmp	r3, #3
 3825 0a88 16D0     		beq	.L111
 3826              	.L110:
 3827              		.loc 1 472 0 discriminator 3
 3828 0a8a 1249     		ldr	r1, .L136+4
 3829 0a8c D7F87829 		ldr	r2, [r7, #2424]
ARM GAS  C:\Users\tant836\AppData\Local\Temp\ccXZYOJd.s 			page 77


 3830 0a90 1346     		mov	r3, r2
 3831 0a92 5B00     		lsls	r3, r3, #1
 3832 0a94 1344     		add	r3, r3, r2
 3833 0a96 0B44     		add	r3, r3, r1
 3834 0a98 0233     		adds	r3, r3, #2
 3835 0a9a 1B78     		ldrb	r3, [r3]	@ zero_extendqisi2
 3836 0a9c 032B     		cmp	r3, #3
 3837 0a9e 16D1     		bne	.L109
 3838              		.loc 1 472 0 discriminator 4
 3839 0aa0 D7F87839 		ldr	r3, [r7, #2424]
 3840 0aa4 5A1C     		adds	r2, r3, #1
 3841 0aa6 0B49     		ldr	r1, .L136+4
 3842 0aa8 1346     		mov	r3, r2
 3843 0aaa 5B00     		lsls	r3, r3, #1
 3844 0aac 1344     		add	r3, r3, r2
 3845 0aae 0B44     		add	r3, r3, r1
 3846 0ab0 0233     		adds	r3, r3, #2
 3847 0ab2 1B78     		ldrb	r3, [r3]	@ zero_extendqisi2
 3848 0ab4 012B     		cmp	r3, #1
 3849 0ab6 0AD1     		bne	.L109
 3850              	.L111:
 473:.\pathfinder.c ****                //printf("L/R intersection found (%d) [direction = %d] -- TURN U-TURN\n", i, path[i]
 474:.\pathfinder.c ****                instructions[counter] = UTURN;
 3851              		.loc 1 474 0 is_stmt 1
 3852 0ab8 B7F87E39 		ldrh	r3, [r7, #2430]
 3853 0abc 044A     		ldr	r2, .L136
 3854 0abe 5521     		movs	r1, #85
 3855 0ac0 D154     		strb	r1, [r2, r3]
 475:.\pathfinder.c ****                counter++;
 3856              		.loc 1 475 0
 3857 0ac2 B7F87E39 		ldrh	r3, [r7, #2430]
 3858 0ac6 0133     		adds	r3, r3, #1
 3859 0ac8 A7F87E39 		strh	r3, [r7, #2430]	@ movhi
 448:.\pathfinder.c ****             if(path[i][DIR] != path[i + 1][DIR]){
 3860              		.loc 1 448 0
 3861 0acc 49E1     		b	.L112
 3862              	.L109:
 448:.\pathfinder.c ****             if(path[i][DIR] != path[i + 1][DIR]){
 3863              		.loc 1 448 0 is_stmt 0 discriminator 5
 3864 0ace 48E1     		b	.L112
 3865              	.L137:
 3866              		.align	2
 3867              	.L136:
 3868 0ad0 00000000 		.word	instructions
 3869 0ad4 00000000 		.word	path
 3870 0ad8 00000000 		.word	map
 3871              	.L95:
 476:.\pathfinder.c ****             }else{
 477:.\pathfinder.c ****             //printf("[(%d), direction = %d]\n", i, path[i][DIR]);
 478:.\pathfinder.c ****          }
 479:.\pathfinder.c ****          }
 480:.\pathfinder.c ****       }else{
 481:.\pathfinder.c ****          if(map[path[i][Y] - 1][path[i][X]] == PATH || map[path[i][Y] + 1][path[i][X]] == PATH){
 3872              		.loc 1 481 0 is_stmt 1
 3873 0adc AC49     		ldr	r1, .L138
 3874 0ade D7F87829 		ldr	r2, [r7, #2424]
 3875 0ae2 1346     		mov	r3, r2
ARM GAS  C:\Users\tant836\AppData\Local\Temp\ccXZYOJd.s 			page 78


 3876 0ae4 5B00     		lsls	r3, r3, #1
 3877 0ae6 1344     		add	r3, r3, r2
 3878 0ae8 0B44     		add	r3, r3, r1
 3879 0aea 1B78     		ldrb	r3, [r3]	@ zero_extendqisi2
 3880 0aec 5A1E     		subs	r2, r3, #1
 3881 0aee A848     		ldr	r0, .L138
 3882 0af0 D7F87819 		ldr	r1, [r7, #2424]
 3883 0af4 0B46     		mov	r3, r1
 3884 0af6 5B00     		lsls	r3, r3, #1
 3885 0af8 0B44     		add	r3, r3, r1
 3886 0afa 0344     		add	r3, r3, r0
 3887 0afc 0133     		adds	r3, r3, #1
 3888 0afe 1B78     		ldrb	r3, [r3]	@ zero_extendqisi2
 3889 0b00 1846     		mov	r0, r3
 3890 0b02 A449     		ldr	r1, .L138+4
 3891 0b04 1346     		mov	r3, r2
 3892 0b06 DB00     		lsls	r3, r3, #3
 3893 0b08 1344     		add	r3, r3, r2
 3894 0b0a 5B00     		lsls	r3, r3, #1
 3895 0b0c 1344     		add	r3, r3, r2
 3896 0b0e 0344     		add	r3, r3, r0
 3897 0b10 0B44     		add	r3, r3, r1
 3898 0b12 1B78     		ldrb	r3, [r3]	@ zero_extendqisi2
 3899 0b14 002B     		cmp	r3, #0
 3900 0b16 1ED0     		beq	.L113
 3901              		.loc 1 481 0 is_stmt 0 discriminator 1
 3902 0b18 9D49     		ldr	r1, .L138
 3903 0b1a D7F87829 		ldr	r2, [r7, #2424]
 3904 0b1e 1346     		mov	r3, r2
 3905 0b20 5B00     		lsls	r3, r3, #1
 3906 0b22 1344     		add	r3, r3, r2
 3907 0b24 0B44     		add	r3, r3, r1
 3908 0b26 1B78     		ldrb	r3, [r3]	@ zero_extendqisi2
 3909 0b28 5A1C     		adds	r2, r3, #1
 3910 0b2a 9948     		ldr	r0, .L138
 3911 0b2c D7F87819 		ldr	r1, [r7, #2424]
 3912 0b30 0B46     		mov	r3, r1
 3913 0b32 5B00     		lsls	r3, r3, #1
 3914 0b34 0B44     		add	r3, r3, r1
 3915 0b36 0344     		add	r3, r3, r0
 3916 0b38 0133     		adds	r3, r3, #1
 3917 0b3a 1B78     		ldrb	r3, [r3]	@ zero_extendqisi2
 3918 0b3c 1846     		mov	r0, r3
 3919 0b3e 9549     		ldr	r1, .L138+4
 3920 0b40 1346     		mov	r3, r2
 3921 0b42 DB00     		lsls	r3, r3, #3
 3922 0b44 1344     		add	r3, r3, r2
 3923 0b46 5B00     		lsls	r3, r3, #1
 3924 0b48 1344     		add	r3, r3, r2
 3925 0b4a 0344     		add	r3, r3, r0
 3926 0b4c 0B44     		add	r3, r3, r1
 3927 0b4e 1B78     		ldrb	r3, [r3]	@ zero_extendqisi2
 3928 0b50 002B     		cmp	r3, #0
 3929 0b52 40F0CE80 		bne	.L114
 3930              	.L113:
 482:.\pathfinder.c ****             if(path[i][DIR] != path[i + 1][DIR]){
 3931              		.loc 1 482 0 is_stmt 1
ARM GAS  C:\Users\tant836\AppData\Local\Temp\ccXZYOJd.s 			page 79


 3932 0b56 8E49     		ldr	r1, .L138
 3933 0b58 D7F87829 		ldr	r2, [r7, #2424]
 3934 0b5c 1346     		mov	r3, r2
 3935 0b5e 5B00     		lsls	r3, r3, #1
 3936 0b60 1344     		add	r3, r3, r2
 3937 0b62 0B44     		add	r3, r3, r1
 3938 0b64 0233     		adds	r3, r3, #2
 3939 0b66 1978     		ldrb	r1, [r3]	@ zero_extendqisi2
 3940 0b68 D7F87839 		ldr	r3, [r7, #2424]
 3941 0b6c 5A1C     		adds	r2, r3, #1
 3942 0b6e 8848     		ldr	r0, .L138
 3943 0b70 1346     		mov	r3, r2
 3944 0b72 5B00     		lsls	r3, r3, #1
 3945 0b74 1344     		add	r3, r3, r2
 3946 0b76 0344     		add	r3, r3, r0
 3947 0b78 0233     		adds	r3, r3, #2
 3948 0b7a 1B78     		ldrb	r3, [r3]	@ zero_extendqisi2
 3949 0b7c 9942     		cmp	r1, r3
 3950 0b7e 00F0AC80 		beq	.L115
 483:.\pathfinder.c ****                if((path[i][DIR] == 4 && path[i + 1][DIR] == 3) || (path[i][DIR] == 2 && path[i + 1]
 3951              		.loc 1 483 0
 3952 0b82 8349     		ldr	r1, .L138
 3953 0b84 D7F87829 		ldr	r2, [r7, #2424]
 3954 0b88 1346     		mov	r3, r2
 3955 0b8a 5B00     		lsls	r3, r3, #1
 3956 0b8c 1344     		add	r3, r3, r2
 3957 0b8e 0B44     		add	r3, r3, r1
 3958 0b90 0233     		adds	r3, r3, #2
 3959 0b92 1B78     		ldrb	r3, [r3]	@ zero_extendqisi2
 3960 0b94 042B     		cmp	r3, #4
 3961 0b96 0BD1     		bne	.L116
 3962              		.loc 1 483 0 is_stmt 0 discriminator 1
 3963 0b98 D7F87839 		ldr	r3, [r7, #2424]
 3964 0b9c 5A1C     		adds	r2, r3, #1
 3965 0b9e 7C49     		ldr	r1, .L138
 3966 0ba0 1346     		mov	r3, r2
 3967 0ba2 5B00     		lsls	r3, r3, #1
 3968 0ba4 1344     		add	r3, r3, r2
 3969 0ba6 0B44     		add	r3, r3, r1
 3970 0ba8 0233     		adds	r3, r3, #2
 3971 0baa 1B78     		ldrb	r3, [r3]	@ zero_extendqisi2
 3972 0bac 032B     		cmp	r3, #3
 3973 0bae 16D0     		beq	.L117
 3974              	.L116:
 3975              		.loc 1 483 0 discriminator 3
 3976 0bb0 7749     		ldr	r1, .L138
 3977 0bb2 D7F87829 		ldr	r2, [r7, #2424]
 3978 0bb6 1346     		mov	r3, r2
 3979 0bb8 5B00     		lsls	r3, r3, #1
 3980 0bba 1344     		add	r3, r3, r2
 3981 0bbc 0B44     		add	r3, r3, r1
 3982 0bbe 0233     		adds	r3, r3, #2
 3983 0bc0 1B78     		ldrb	r3, [r3]	@ zero_extendqisi2
 3984 0bc2 022B     		cmp	r3, #2
 3985 0bc4 16D1     		bne	.L118
 3986              		.loc 1 483 0 discriminator 4
 3987 0bc6 D7F87839 		ldr	r3, [r7, #2424]
ARM GAS  C:\Users\tant836\AppData\Local\Temp\ccXZYOJd.s 			page 80


 3988 0bca 5A1C     		adds	r2, r3, #1
 3989 0bcc 7049     		ldr	r1, .L138
 3990 0bce 1346     		mov	r3, r2
 3991 0bd0 5B00     		lsls	r3, r3, #1
 3992 0bd2 1344     		add	r3, r3, r2
 3993 0bd4 0B44     		add	r3, r3, r1
 3994 0bd6 0233     		adds	r3, r3, #2
 3995 0bd8 1B78     		ldrb	r3, [r3]	@ zero_extendqisi2
 3996 0bda 012B     		cmp	r3, #1
 3997 0bdc 0AD1     		bne	.L118
 3998              	.L117:
 484:.\pathfinder.c ****                   //printf("U/D intersection found (%d) [direction = %d] -- TURN LEFT\n", i, path[i
 485:.\pathfinder.c ****                   instructions[counter] = LEFT;
 3999              		.loc 1 485 0 is_stmt 1
 4000 0bde B7F87E39 		ldrh	r3, [r7, #2430]
 4001 0be2 6D4A     		ldr	r2, .L138+8
 4002 0be4 4C21     		movs	r1, #76
 4003 0be6 D154     		strb	r1, [r2, r3]
 486:.\pathfinder.c ****                   counter++;
 4004              		.loc 1 486 0
 4005 0be8 B7F87E39 		ldrh	r3, [r7, #2430]
 4006 0bec 0133     		adds	r3, r3, #1
 4007 0bee A7F87E39 		strh	r3, [r7, #2430]	@ movhi
 4008 0bf2 71E0     		b	.L119
 4009              	.L118:
 487:.\pathfinder.c ****                }else if((path[i][DIR] == 4 && path[i + 1][DIR] == 1) || (path[i][DIR] == 2 && path[
 4010              		.loc 1 487 0
 4011 0bf4 6649     		ldr	r1, .L138
 4012 0bf6 D7F87829 		ldr	r2, [r7, #2424]
 4013 0bfa 1346     		mov	r3, r2
 4014 0bfc 5B00     		lsls	r3, r3, #1
 4015 0bfe 1344     		add	r3, r3, r2
 4016 0c00 0B44     		add	r3, r3, r1
 4017 0c02 0233     		adds	r3, r3, #2
 4018 0c04 1B78     		ldrb	r3, [r3]	@ zero_extendqisi2
 4019 0c06 042B     		cmp	r3, #4
 4020 0c08 0BD1     		bne	.L120
 4021              		.loc 1 487 0 is_stmt 0 discriminator 1
 4022 0c0a D7F87839 		ldr	r3, [r7, #2424]
 4023 0c0e 5A1C     		adds	r2, r3, #1
 4024 0c10 5F49     		ldr	r1, .L138
 4025 0c12 1346     		mov	r3, r2
 4026 0c14 5B00     		lsls	r3, r3, #1
 4027 0c16 1344     		add	r3, r3, r2
 4028 0c18 0B44     		add	r3, r3, r1
 4029 0c1a 0233     		adds	r3, r3, #2
 4030 0c1c 1B78     		ldrb	r3, [r3]	@ zero_extendqisi2
 4031 0c1e 012B     		cmp	r3, #1
 4032 0c20 16D0     		beq	.L121
 4033              	.L120:
 4034              		.loc 1 487 0 discriminator 3
 4035 0c22 5B49     		ldr	r1, .L138
 4036 0c24 D7F87829 		ldr	r2, [r7, #2424]
 4037 0c28 1346     		mov	r3, r2
 4038 0c2a 5B00     		lsls	r3, r3, #1
 4039 0c2c 1344     		add	r3, r3, r2
 4040 0c2e 0B44     		add	r3, r3, r1
ARM GAS  C:\Users\tant836\AppData\Local\Temp\ccXZYOJd.s 			page 81


 4041 0c30 0233     		adds	r3, r3, #2
 4042 0c32 1B78     		ldrb	r3, [r3]	@ zero_extendqisi2
 4043 0c34 022B     		cmp	r3, #2
 4044 0c36 16D1     		bne	.L122
 4045              		.loc 1 487 0 discriminator 4
 4046 0c38 D7F87839 		ldr	r3, [r7, #2424]
 4047 0c3c 5A1C     		adds	r2, r3, #1
 4048 0c3e 5449     		ldr	r1, .L138
 4049 0c40 1346     		mov	r3, r2
 4050 0c42 5B00     		lsls	r3, r3, #1
 4051 0c44 1344     		add	r3, r3, r2
 4052 0c46 0B44     		add	r3, r3, r1
 4053 0c48 0233     		adds	r3, r3, #2
 4054 0c4a 1B78     		ldrb	r3, [r3]	@ zero_extendqisi2
 4055 0c4c 032B     		cmp	r3, #3
 4056 0c4e 0AD1     		bne	.L122
 4057              	.L121:
 488:.\pathfinder.c ****                   //printf("U/D intersection found (%d) [direction = %d] -- TURN RIGHT\n", i, path[
 489:.\pathfinder.c ****                   instructions[counter] = RIGHT;
 4058              		.loc 1 489 0 is_stmt 1
 4059 0c50 B7F87E39 		ldrh	r3, [r7, #2430]
 4060 0c54 504A     		ldr	r2, .L138+8
 4061 0c56 5221     		movs	r1, #82
 4062 0c58 D154     		strb	r1, [r2, r3]
 490:.\pathfinder.c ****                   counter++;
 4063              		.loc 1 490 0
 4064 0c5a B7F87E39 		ldrh	r3, [r7, #2430]
 4065 0c5e 0133     		adds	r3, r3, #1
 4066 0c60 A7F87E39 		strh	r3, [r7, #2430]	@ movhi
 4067 0c64 38E0     		b	.L119
 4068              	.L122:
 491:.\pathfinder.c ****                }else if ((path[i][DIR] == 4 && path[i + 1][DIR] == 2) || (path[i][DIR] == 2 && path
 4069              		.loc 1 491 0
 4070 0c66 4A49     		ldr	r1, .L138
 4071 0c68 D7F87829 		ldr	r2, [r7, #2424]
 4072 0c6c 1346     		mov	r3, r2
 4073 0c6e 5B00     		lsls	r3, r3, #1
 4074 0c70 1344     		add	r3, r3, r2
 4075 0c72 0B44     		add	r3, r3, r1
 4076 0c74 0233     		adds	r3, r3, #2
 4077 0c76 1B78     		ldrb	r3, [r3]	@ zero_extendqisi2
 4078 0c78 042B     		cmp	r3, #4
 4079 0c7a 0BD1     		bne	.L123
 4080              		.loc 1 491 0 is_stmt 0 discriminator 1
 4081 0c7c D7F87839 		ldr	r3, [r7, #2424]
 4082 0c80 5A1C     		adds	r2, r3, #1
 4083 0c82 4349     		ldr	r1, .L138
 4084 0c84 1346     		mov	r3, r2
 4085 0c86 5B00     		lsls	r3, r3, #1
 4086 0c88 1344     		add	r3, r3, r2
 4087 0c8a 0B44     		add	r3, r3, r1
 4088 0c8c 0233     		adds	r3, r3, #2
 4089 0c8e 1B78     		ldrb	r3, [r3]	@ zero_extendqisi2
 4090 0c90 022B     		cmp	r3, #2
 4091 0c92 16D0     		beq	.L124
 4092              	.L123:
 4093              		.loc 1 491 0 discriminator 3
ARM GAS  C:\Users\tant836\AppData\Local\Temp\ccXZYOJd.s 			page 82


 4094 0c94 3E49     		ldr	r1, .L138
 4095 0c96 D7F87829 		ldr	r2, [r7, #2424]
 4096 0c9a 1346     		mov	r3, r2
 4097 0c9c 5B00     		lsls	r3, r3, #1
 4098 0c9e 1344     		add	r3, r3, r2
 4099 0ca0 0B44     		add	r3, r3, r1
 4100 0ca2 0233     		adds	r3, r3, #2
 4101 0ca4 1B78     		ldrb	r3, [r3]	@ zero_extendqisi2
 4102 0ca6 022B     		cmp	r3, #2
 4103 0ca8 22D1     		bne	.L125
 4104              		.loc 1 491 0 discriminator 4
 4105 0caa D7F87839 		ldr	r3, [r7, #2424]
 4106 0cae 5A1C     		adds	r2, r3, #1
 4107 0cb0 3749     		ldr	r1, .L138
 4108 0cb2 1346     		mov	r3, r2
 4109 0cb4 5B00     		lsls	r3, r3, #1
 4110 0cb6 1344     		add	r3, r3, r2
 4111 0cb8 0B44     		add	r3, r3, r1
 4112 0cba 0233     		adds	r3, r3, #2
 4113 0cbc 1B78     		ldrb	r3, [r3]	@ zero_extendqisi2
 4114 0cbe 042B     		cmp	r3, #4
 4115 0cc0 16D1     		bne	.L125
 4116              	.L124:
 492:.\pathfinder.c ****                   //printf("U/D intersection found (%d) [direction = %d] -- TURN U-TURN\n", i, path
 493:.\pathfinder.c ****                   instructions[counter] = UTURN;
 4117              		.loc 1 493 0 is_stmt 1
 4118 0cc2 B7F87E39 		ldrh	r3, [r7, #2430]
 4119 0cc6 344A     		ldr	r2, .L138+8
 4120 0cc8 5521     		movs	r1, #85
 4121 0cca D154     		strb	r1, [r2, r3]
 494:.\pathfinder.c ****                   counter++;
 4122              		.loc 1 494 0
 4123 0ccc B7F87E39 		ldrh	r3, [r7, #2430]
 4124 0cd0 0133     		adds	r3, r3, #1
 4125 0cd2 A7F87E39 		strh	r3, [r7, #2430]	@ movhi
 4126 0cd6 0BE0     		b	.L125
 4127              	.L119:
 4128 0cd8 0AE0     		b	.L125
 4129              	.L115:
 495:.\pathfinder.c ****                }else{
 496:.\pathfinder.c ****                   //printf("Prev %d, current %d\n", path[i + 1][DIR], path[i][DIR]);
 497:.\pathfinder.c ****                }
 498:.\pathfinder.c ****             }else{
 499:.\pathfinder.c ****                //printf("U/D intersection found (%d) [direction = %d]\n", i, path[i][DIR]);
 500:.\pathfinder.c ****                instructions[counter] = STRAIGHT;
 4130              		.loc 1 500 0
 4131 0cda B7F87E39 		ldrh	r3, [r7, #2430]
 4132 0cde 2E4A     		ldr	r2, .L138+8
 4133 0ce0 5321     		movs	r1, #83
 4134 0ce2 D154     		strb	r1, [r2, r3]
 501:.\pathfinder.c ****                counter++;
 4135              		.loc 1 501 0
 4136 0ce4 B7F87E39 		ldrh	r3, [r7, #2430]
 4137 0ce8 0133     		adds	r3, r3, #1
 4138 0cea A7F87E39 		strh	r3, [r7, #2430]	@ movhi
 482:.\pathfinder.c ****                if((path[i][DIR] == 4 && path[i + 1][DIR] == 3) || (path[i][DIR] == 2 && path[i + 1]
 4139              		.loc 1 482 0
ARM GAS  C:\Users\tant836\AppData\Local\Temp\ccXZYOJd.s 			page 83


 4140 0cee 38E0     		b	.L112
 4141              	.L125:
 482:.\pathfinder.c ****                if((path[i][DIR] == 4 && path[i + 1][DIR] == 3) || (path[i][DIR] == 2 && path[i + 1]
 4142              		.loc 1 482 0 is_stmt 0 discriminator 6
 4143 0cf0 37E0     		b	.L112
 4144              	.L114:
 502:.\pathfinder.c ****             }
 503:.\pathfinder.c **** 
 504:.\pathfinder.c ****          }else{
 505:.\pathfinder.c ****             if ((path[i][DIR] == 4 && path[i + 1][DIR] == 2) || (path[i][DIR] == 2 && path[i + 1][D
 4145              		.loc 1 505 0 is_stmt 1
 4146 0cf2 2749     		ldr	r1, .L138
 4147 0cf4 D7F87829 		ldr	r2, [r7, #2424]
 4148 0cf8 1346     		mov	r3, r2
 4149 0cfa 5B00     		lsls	r3, r3, #1
 4150 0cfc 1344     		add	r3, r3, r2
 4151 0cfe 0B44     		add	r3, r3, r1
 4152 0d00 0233     		adds	r3, r3, #2
 4153 0d02 1B78     		ldrb	r3, [r3]	@ zero_extendqisi2
 4154 0d04 042B     		cmp	r3, #4
 4155 0d06 0BD1     		bne	.L126
 4156              		.loc 1 505 0 is_stmt 0 discriminator 1
 4157 0d08 D7F87839 		ldr	r3, [r7, #2424]
 4158 0d0c 5A1C     		adds	r2, r3, #1
 4159 0d0e 2049     		ldr	r1, .L138
 4160 0d10 1346     		mov	r3, r2
 4161 0d12 5B00     		lsls	r3, r3, #1
 4162 0d14 1344     		add	r3, r3, r2
 4163 0d16 0B44     		add	r3, r3, r1
 4164 0d18 0233     		adds	r3, r3, #2
 4165 0d1a 1B78     		ldrb	r3, [r3]	@ zero_extendqisi2
 4166 0d1c 022B     		cmp	r3, #2
 4167 0d1e 16D0     		beq	.L127
 4168              	.L126:
 4169              		.loc 1 505 0 discriminator 3
 4170 0d20 1B49     		ldr	r1, .L138
 4171 0d22 D7F87829 		ldr	r2, [r7, #2424]
 4172 0d26 1346     		mov	r3, r2
 4173 0d28 5B00     		lsls	r3, r3, #1
 4174 0d2a 1344     		add	r3, r3, r2
 4175 0d2c 0B44     		add	r3, r3, r1
 4176 0d2e 0233     		adds	r3, r3, #2
 4177 0d30 1B78     		ldrb	r3, [r3]	@ zero_extendqisi2
 4178 0d32 022B     		cmp	r3, #2
 4179 0d34 15D1     		bne	.L112
 4180              		.loc 1 505 0 discriminator 4
 4181 0d36 D7F87839 		ldr	r3, [r7, #2424]
 4182 0d3a 5A1C     		adds	r2, r3, #1
 4183 0d3c 1449     		ldr	r1, .L138
 4184 0d3e 1346     		mov	r3, r2
 4185 0d40 5B00     		lsls	r3, r3, #1
 4186 0d42 1344     		add	r3, r3, r2
 4187 0d44 0B44     		add	r3, r3, r1
 4188 0d46 0233     		adds	r3, r3, #2
 4189 0d48 1B78     		ldrb	r3, [r3]	@ zero_extendqisi2
 4190 0d4a 042B     		cmp	r3, #4
 4191 0d4c 09D1     		bne	.L112
ARM GAS  C:\Users\tant836\AppData\Local\Temp\ccXZYOJd.s 			page 84


 4192              	.L127:
 506:.\pathfinder.c ****                //printf("U/D intersection found (%d) [direction = %d] -- TURN U-TURN\n", i, path[i]
 507:.\pathfinder.c ****                instructions[counter] = UTURN;
 4193              		.loc 1 507 0 is_stmt 1
 4194 0d4e B7F87E39 		ldrh	r3, [r7, #2430]
 4195 0d52 114A     		ldr	r2, .L138+8
 4196 0d54 5521     		movs	r1, #85
 4197 0d56 D154     		strb	r1, [r2, r3]
 508:.\pathfinder.c ****                counter++;
 4198              		.loc 1 508 0
 4199 0d58 B7F87E39 		ldrh	r3, [r7, #2430]
 4200 0d5c 0133     		adds	r3, r3, #1
 4201 0d5e A7F87E39 		strh	r3, [r7, #2430]	@ movhi
 4202              	.L112:
 345:.\pathfinder.c ****       printf("%d %d;", path[i][Y] + 1, path[i][X] + 1);
 4203              		.loc 1 345 0 discriminator 2
 4204 0d62 D7F87839 		ldr	r3, [r7, #2424]
 4205 0d66 0133     		adds	r3, r3, #1
 4206 0d68 C7F87839 		str	r3, [r7, #2424]
 4207              	.L52:
 345:.\pathfinder.c ****       printf("%d %d;", path[i][Y] + 1, path[i][X] + 1);
 4208              		.loc 1 345 0 is_stmt 0 discriminator 1
 4209 0d6c D7F87829 		ldr	r2, [r7, #2424]
 4210 0d70 D7F87039 		ldr	r3, [r7, #2416]
 4211 0d74 9A42     		cmp	r2, r3
 4212 0d76 FFF65DA9 		blt	.L128
 509:.\pathfinder.c ****             }else{
 510:.\pathfinder.c ****             //printf("[(%d), direction = %d]\n", i, path[i][DIR]);
 511:.\pathfinder.c ****          }
 512:.\pathfinder.c ****          }
 513:.\pathfinder.c ****       }
 514:.\pathfinder.c ****    }
 515:.\pathfinder.c ****    instructions[counter] = '\0';
 4213              		.loc 1 515 0 is_stmt 1
 4214 0d7a B7F87E39 		ldrh	r3, [r7, #2430]
 4215 0d7e 064A     		ldr	r2, .L138+8
 4216 0d80 0021     		movs	r1, #0
 4217 0d82 D154     		strb	r1, [r2, r3]
 516:.\pathfinder.c ****    return 0;
 4218              		.loc 1 516 0
 4219 0d84 0023     		movs	r3, #0
 517:.\pathfinder.c **** }
 4220              		.loc 1 517 0
 4221 0d86 1846     		mov	r0, r3
 4222 0d88 07F68417 		addw	r7, r7, #2436
 4223              		.cfi_def_cfa_offset 12
 4224 0d8c BD46     		mov	sp, r7
 4225              		.cfi_def_cfa_register 13
 4226              		@ sp needed
 4227 0d8e 90BD     		pop	{r4, r7, pc}
 4228              	.L139:
 4229              		.align	2
 4230              	.L138:
 4231 0d90 00000000 		.word	path
 4232 0d94 00000000 		.word	map
 4233 0d98 00000000 		.word	instructions
 4234              		.cfi_endproc
ARM GAS  C:\Users\tant836\AppData\Local\Temp\ccXZYOJd.s 			page 85


 4235              	.LFE65:
 4236              		.size	generateEntireMapDirections, .-generateEntireMapDirections
 4237              		.section	.rodata
 4238 0007 00       		.align	2
 4239              	.LC1:
 4240 0008 70617468 		.ascii	"pathing from %d,%d to %d,%d from dir %d\015\012\000"
 4240      696E6720 
 4240      66726F6D 
 4240      2025642C 
 4240      25642074 
 4241 0032 0000     		.section	.text.generateDirections,"ax",%progbits
 4242              		.align	2
 4243              		.global	generateDirections
 4244              		.thumb
 4245              		.thumb_func
 4246              		.type	generateDirections, %function
 4247              	generateDirections:
 4248              	.LFB66:
 518:.\pathfinder.c **** 
 519:.\pathfinder.c **** 
 520:.\pathfinder.c **** int generateDirections(){
 4249              		.loc 1 520 0
 4250              		.cfi_startproc
 4251              		@ args = 0, pretend = 0, frame = 144
 4252              		@ frame_needed = 1, uses_anonymous_args = 0
 4253 0000 B0B5     		push	{r4, r5, r7, lr}
 4254              		.cfi_def_cfa_offset 16
 4255              		.cfi_offset 4, -16
 4256              		.cfi_offset 5, -12
 4257              		.cfi_offset 7, -8
 4258              		.cfi_offset 14, -4
 4259 0002 A8B0     		sub	sp, sp, #160
 4260              		.cfi_def_cfa_offset 176
 4261 0004 04AF     		add	r7, sp, #16
 4262              		.cfi_def_cfa 7, 160
 521:.\pathfinder.c ****    uint8 counter = 0;
 4263              		.loc 1 521 0
 4264 0006 0023     		movs	r3, #0
 4265 0008 87F88F30 		strb	r3, [r7, #143]
 522:.\pathfinder.c ****    int food_count;
 523:.\pathfinder.c ****     
 524:.\pathfinder.c ****    for(food_count = 0; food_count < food_length; food_count++)
 4266              		.loc 1 524 0
 4267 000c 0023     		movs	r3, #0
 4268 000e C7F88830 		str	r3, [r7, #136]
 4269 0012 21E3     		b	.L141
 4270              	.L183:
 4271              	.LBB7:
 525:.\pathfinder.c **** {   
 526:.\pathfinder.c ****     if(counter != 0)
 4272              		.loc 1 526 0
 4273 0014 97F88F30 		ldrb	r3, [r7, #143]	@ zero_extendqisi2
 4274 0018 002B     		cmp	r3, #0
 4275 001a 07D0     		beq	.L142
 527:.\pathfinder.c ****     {
 528:.\pathfinder.c ****         start[0] = destination[0];
 4276              		.loc 1 528 0
ARM GAS  C:\Users\tant836\AppData\Local\Temp\ccXZYOJd.s 			page 86


 4277 001c AA4B     		ldr	r3, .L185
 4278 001e 1A78     		ldrb	r2, [r3]	@ zero_extendqisi2
 4279 0020 AA4B     		ldr	r3, .L185+4
 4280 0022 1A70     		strb	r2, [r3]
 529:.\pathfinder.c ****         start[1] = destination[1];
 4281              		.loc 1 529 0
 4282 0024 A84B     		ldr	r3, .L185
 4283 0026 5A78     		ldrb	r2, [r3, #1]	@ zero_extendqisi2
 4284 0028 A84B     		ldr	r3, .L185+4
 4285 002a 5A70     		strb	r2, [r3, #1]
 4286              	.L142:
 530:.\pathfinder.c ****         
 531:.\pathfinder.c **** //        if(robot_direction != tracked_direction)
 532:.\pathfinder.c **** //        {
 533:.\pathfinder.c **** //            if((tracked_direction == (robot_direction - 1)) || ((tracked_direction == 3) && (robo
 534:.\pathfinder.c **** //            {
 535:.\pathfinder.c **** //                instructions[counter] = RIGHT;
 536:.\pathfinder.c **** //                counter++;
 537:.\pathfinder.c **** //            }
 538:.\pathfinder.c **** //            else if((tracked_direction == (robot_direction + 1)) || ((tracked_direction == 0) && 
 539:.\pathfinder.c **** //            {
 540:.\pathfinder.c **** //                instructions[counter] = LEFT;
 541:.\pathfinder.c **** //                counter++;
 542:.\pathfinder.c **** //            }
 543:.\pathfinder.c **** //        }
 544:.\pathfinder.c ****     }
 545:.\pathfinder.c ****     
 546:.\pathfinder.c ****     destination[0] = food_list[food_count][0];
 4287              		.loc 1 546 0
 4288 002c A84A     		ldr	r2, .L185+8
 4289 002e D7F88830 		ldr	r3, [r7, #136]
 4290 0032 12F81320 		ldrb	r2, [r2, r3, lsl #1]	@ zero_extendqisi2
 4291 0036 A44B     		ldr	r3, .L185
 4292 0038 1A70     		strb	r2, [r3]
 547:.\pathfinder.c ****     destination[1] = food_list[food_count][1];
 4293              		.loc 1 547 0
 4294 003a A54A     		ldr	r2, .L185+8
 4295 003c D7F88830 		ldr	r3, [r7, #136]
 4296 0040 5B00     		lsls	r3, r3, #1
 4297 0042 1344     		add	r3, r3, r2
 4298 0044 5A78     		ldrb	r2, [r3, #1]	@ zero_extendqisi2
 4299 0046 A04B     		ldr	r3, .L185
 4300 0048 5A70     		strb	r2, [r3, #1]
 548:.\pathfinder.c ****     
 549:.\pathfinder.c ****     char message[128];
 550:.\pathfinder.c ****     sprintf(message, "pathing from %d,%d to %d,%d from dir %d\r\n", start[0], start[1], destination
 4301              		.loc 1 550 0
 4302 004a A04B     		ldr	r3, .L185+4
 4303 004c 1B78     		ldrb	r3, [r3]	@ zero_extendqisi2
 4304 004e 1D46     		mov	r5, r3
 4305 0050 9E4B     		ldr	r3, .L185+4
 4306 0052 5B78     		ldrb	r3, [r3, #1]	@ zero_extendqisi2
 4307 0054 1C46     		mov	r4, r3
 4308 0056 9C4B     		ldr	r3, .L185
 4309 0058 1B78     		ldrb	r3, [r3]	@ zero_extendqisi2
 4310 005a 1846     		mov	r0, r3
 4311 005c 9A4B     		ldr	r3, .L185
ARM GAS  C:\Users\tant836\AppData\Local\Temp\ccXZYOJd.s 			page 87


 4312 005e 5B78     		ldrb	r3, [r3, #1]	@ zero_extendqisi2
 4313 0060 1946     		mov	r1, r3
 4314 0062 9C4B     		ldr	r3, .L185+12
 4315 0064 1B78     		ldrb	r3, [r3]	@ zero_extendqisi2
 4316 0066 1A46     		mov	r2, r3
 4317 0068 3B46     		mov	r3, r7
 4318 006a 0090     		str	r0, [sp]
 4319 006c 0191     		str	r1, [sp, #4]
 4320 006e 0292     		str	r2, [sp, #8]
 4321 0070 1846     		mov	r0, r3
 4322 0072 9949     		ldr	r1, .L185+16
 4323 0074 2A46     		mov	r2, r5
 4324 0076 2346     		mov	r3, r4
 4325 0078 FFF7FEFF 		bl	sprintf
 551:.\pathfinder.c ****     UART_PutString(message);
 4326              		.loc 1 551 0
 4327 007c 3B46     		mov	r3, r7
 4328 007e 1846     		mov	r0, r3
 4329 0080 FFF7FEFF 		bl	UART_PutString
 552:.\pathfinder.c ****     
 553:.\pathfinder.c ****    int end = djikstras(map, food_list, path, start, destination);
 4330              		.loc 1 553 0
 4331 0084 904B     		ldr	r3, .L185
 4332 0086 0093     		str	r3, [sp]
 4333 0088 9448     		ldr	r0, .L185+20
 4334 008a 9149     		ldr	r1, .L185+8
 4335 008c 944A     		ldr	r2, .L185+24
 4336 008e 8F4B     		ldr	r3, .L185+4
 4337 0090 FFF7FEFF 		bl	djikstras
 4338 0094 0346     		mov	r3, r0
 4339 0096 C7F88030 		str	r3, [r7, #128]
 554:.\pathfinder.c **** 
 555:.\pathfinder.c ****    int i;
 556:.\pathfinder.c ****    for(i = end; i >= 1; i--){
 4340              		.loc 1 556 0
 4341 009a D7F88030 		ldr	r3, [r7, #128]
 4342 009e C7F88430 		str	r3, [r7, #132]
 4343 00a2 CFE2     		b	.L143
 4344              	.L182:
 557:.\pathfinder.c ****       if(path[i][DIR] == 1 || path[i][DIR] == 3){
 4345              		.loc 1 557 0
 4346 00a4 8E49     		ldr	r1, .L185+24
 4347 00a6 D7F88420 		ldr	r2, [r7, #132]
 4348 00aa 1346     		mov	r3, r2
 4349 00ac 5B00     		lsls	r3, r3, #1
 4350 00ae 1344     		add	r3, r3, r2
 4351 00b0 0B44     		add	r3, r3, r1
 4352 00b2 0233     		adds	r3, r3, #2
 4353 00b4 1B78     		ldrb	r3, [r3]	@ zero_extendqisi2
 4354 00b6 012B     		cmp	r3, #1
 4355 00b8 0BD0     		beq	.L144
 4356              		.loc 1 557 0 is_stmt 0 discriminator 1
 4357 00ba 8949     		ldr	r1, .L185+24
 4358 00bc D7F88420 		ldr	r2, [r7, #132]
 4359 00c0 1346     		mov	r3, r2
 4360 00c2 5B00     		lsls	r3, r3, #1
 4361 00c4 1344     		add	r3, r3, r2
ARM GAS  C:\Users\tant836\AppData\Local\Temp\ccXZYOJd.s 			page 88


 4362 00c6 0B44     		add	r3, r3, r1
 4363 00c8 0233     		adds	r3, r3, #2
 4364 00ca 1B78     		ldrb	r3, [r3]	@ zero_extendqisi2
 4365 00cc 032B     		cmp	r3, #3
 4366 00ce 40F06081 		bne	.L145
 4367              	.L144:
 558:.\pathfinder.c ****          //There should be a check that it is within the map
 559:.\pathfinder.c ****          if(map[path[i][Y]][path[i][X] - 1] == PATH || map[path[i][Y]][path[i][X] + 1] == PATH){
 4368              		.loc 1 559 0 is_stmt 1
 4369 00d2 8349     		ldr	r1, .L185+24
 4370 00d4 D7F88420 		ldr	r2, [r7, #132]
 4371 00d8 1346     		mov	r3, r2
 4372 00da 5B00     		lsls	r3, r3, #1
 4373 00dc 1344     		add	r3, r3, r2
 4374 00de 0B44     		add	r3, r3, r1
 4375 00e0 1B78     		ldrb	r3, [r3]	@ zero_extendqisi2
 4376 00e2 1A46     		mov	r2, r3
 4377 00e4 7E48     		ldr	r0, .L185+24
 4378 00e6 D7F88410 		ldr	r1, [r7, #132]
 4379 00ea 0B46     		mov	r3, r1
 4380 00ec 5B00     		lsls	r3, r3, #1
 4381 00ee 0B44     		add	r3, r3, r1
 4382 00f0 0344     		add	r3, r3, r0
 4383 00f2 0133     		adds	r3, r3, #1
 4384 00f4 1B78     		ldrb	r3, [r3]	@ zero_extendqisi2
 4385 00f6 591E     		subs	r1, r3, #1
 4386 00f8 7848     		ldr	r0, .L185+20
 4387 00fa 1346     		mov	r3, r2
 4388 00fc DB00     		lsls	r3, r3, #3
 4389 00fe 1344     		add	r3, r3, r2
 4390 0100 5B00     		lsls	r3, r3, #1
 4391 0102 1344     		add	r3, r3, r2
 4392 0104 0B44     		add	r3, r3, r1
 4393 0106 0344     		add	r3, r3, r0
 4394 0108 1B78     		ldrb	r3, [r3]	@ zero_extendqisi2
 4395 010a 002B     		cmp	r3, #0
 4396 010c 1ED0     		beq	.L146
 4397              		.loc 1 559 0 is_stmt 0 discriminator 1
 4398 010e 7449     		ldr	r1, .L185+24
 4399 0110 D7F88420 		ldr	r2, [r7, #132]
 4400 0114 1346     		mov	r3, r2
 4401 0116 5B00     		lsls	r3, r3, #1
 4402 0118 1344     		add	r3, r3, r2
 4403 011a 0B44     		add	r3, r3, r1
 4404 011c 1B78     		ldrb	r3, [r3]	@ zero_extendqisi2
 4405 011e 1A46     		mov	r2, r3
 4406 0120 6F48     		ldr	r0, .L185+24
 4407 0122 D7F88410 		ldr	r1, [r7, #132]
 4408 0126 0B46     		mov	r3, r1
 4409 0128 5B00     		lsls	r3, r3, #1
 4410 012a 0B44     		add	r3, r3, r1
 4411 012c 0344     		add	r3, r3, r0
 4412 012e 0133     		adds	r3, r3, #1
 4413 0130 1B78     		ldrb	r3, [r3]	@ zero_extendqisi2
 4414 0132 591C     		adds	r1, r3, #1
 4415 0134 6948     		ldr	r0, .L185+20
 4416 0136 1346     		mov	r3, r2
ARM GAS  C:\Users\tant836\AppData\Local\Temp\ccXZYOJd.s 			page 89


 4417 0138 DB00     		lsls	r3, r3, #3
 4418 013a 1344     		add	r3, r3, r2
 4419 013c 5B00     		lsls	r3, r3, #1
 4420 013e 1344     		add	r3, r3, r2
 4421 0140 0B44     		add	r3, r3, r1
 4422 0142 0344     		add	r3, r3, r0
 4423 0144 1B78     		ldrb	r3, [r3]	@ zero_extendqisi2
 4424 0146 002B     		cmp	r3, #0
 4425 0148 40F0CE80 		bne	.L147
 4426              	.L146:
 560:.\pathfinder.c ****             if(path[i][DIR] != path[i - 1][DIR]){
 4427              		.loc 1 560 0 is_stmt 1
 4428 014c 6449     		ldr	r1, .L185+24
 4429 014e D7F88420 		ldr	r2, [r7, #132]
 4430 0152 1346     		mov	r3, r2
 4431 0154 5B00     		lsls	r3, r3, #1
 4432 0156 1344     		add	r3, r3, r2
 4433 0158 0B44     		add	r3, r3, r1
 4434 015a 0233     		adds	r3, r3, #2
 4435 015c 1978     		ldrb	r1, [r3]	@ zero_extendqisi2
 4436 015e D7F88430 		ldr	r3, [r7, #132]
 4437 0162 5A1E     		subs	r2, r3, #1
 4438 0164 5E48     		ldr	r0, .L185+24
 4439 0166 1346     		mov	r3, r2
 4440 0168 5B00     		lsls	r3, r3, #1
 4441 016a 1344     		add	r3, r3, r2
 4442 016c 0344     		add	r3, r3, r0
 4443 016e 0233     		adds	r3, r3, #2
 4444 0170 1B78     		ldrb	r3, [r3]	@ zero_extendqisi2
 4445 0172 9942     		cmp	r1, r3
 4446 0174 00F09D80 		beq	.L148
 561:.\pathfinder.c ****                if((path[i][DIR] == 1 && path[i-1][DIR] == 4)||(path[i][DIR] == 3 && path[i-1][DIR] 
 4447              		.loc 1 561 0
 4448 0178 5949     		ldr	r1, .L185+24
 4449 017a D7F88420 		ldr	r2, [r7, #132]
 4450 017e 1346     		mov	r3, r2
 4451 0180 5B00     		lsls	r3, r3, #1
 4452 0182 1344     		add	r3, r3, r2
 4453 0184 0B44     		add	r3, r3, r1
 4454 0186 0233     		adds	r3, r3, #2
 4455 0188 1B78     		ldrb	r3, [r3]	@ zero_extendqisi2
 4456 018a 012B     		cmp	r3, #1
 4457 018c 0BD1     		bne	.L149
 4458              		.loc 1 561 0 is_stmt 0 discriminator 1
 4459 018e D7F88430 		ldr	r3, [r7, #132]
 4460 0192 5A1E     		subs	r2, r3, #1
 4461 0194 5249     		ldr	r1, .L185+24
 4462 0196 1346     		mov	r3, r2
 4463 0198 5B00     		lsls	r3, r3, #1
 4464 019a 1344     		add	r3, r3, r2
 4465 019c 0B44     		add	r3, r3, r1
 4466 019e 0233     		adds	r3, r3, #2
 4467 01a0 1B78     		ldrb	r3, [r3]	@ zero_extendqisi2
 4468 01a2 042B     		cmp	r3, #4
 4469 01a4 16D0     		beq	.L150
 4470              	.L149:
 4471              		.loc 1 561 0 discriminator 3
ARM GAS  C:\Users\tant836\AppData\Local\Temp\ccXZYOJd.s 			page 90


 4472 01a6 4E49     		ldr	r1, .L185+24
 4473 01a8 D7F88420 		ldr	r2, [r7, #132]
 4474 01ac 1346     		mov	r3, r2
 4475 01ae 5B00     		lsls	r3, r3, #1
 4476 01b0 1344     		add	r3, r3, r2
 4477 01b2 0B44     		add	r3, r3, r1
 4478 01b4 0233     		adds	r3, r3, #2
 4479 01b6 1B78     		ldrb	r3, [r3]	@ zero_extendqisi2
 4480 01b8 032B     		cmp	r3, #3
 4481 01ba 11D1     		bne	.L151
 4482              		.loc 1 561 0 discriminator 4
 4483 01bc D7F88430 		ldr	r3, [r7, #132]
 4484 01c0 5A1E     		subs	r2, r3, #1
 4485 01c2 4749     		ldr	r1, .L185+24
 4486 01c4 1346     		mov	r3, r2
 4487 01c6 5B00     		lsls	r3, r3, #1
 4488 01c8 1344     		add	r3, r3, r2
 4489 01ca 0B44     		add	r3, r3, r1
 4490 01cc 0233     		adds	r3, r3, #2
 4491 01ce 1B78     		ldrb	r3, [r3]	@ zero_extendqisi2
 4492 01d0 022B     		cmp	r3, #2
 4493 01d2 05D1     		bne	.L151
 4494              	.L150:
 562:.\pathfinder.c ****                   instructions[counter] = LEFT;
 4495              		.loc 1 562 0 is_stmt 1
 4496 01d4 97F88F30 		ldrb	r3, [r7, #143]	@ zero_extendqisi2
 4497 01d8 424A     		ldr	r2, .L185+28
 4498 01da 4C21     		movs	r1, #76
 4499 01dc D154     		strb	r1, [r2, r3]
 4500 01de 67E0     		b	.L152
 4501              	.L151:
 563:.\pathfinder.c ****                }else if((path[i][DIR] == 1 && path[i-1][DIR] == 2)||(path[i][DIR] == 3 && path[i-1]
 4502              		.loc 1 563 0
 4503 01e0 3F49     		ldr	r1, .L185+24
 4504 01e2 D7F88420 		ldr	r2, [r7, #132]
 4505 01e6 1346     		mov	r3, r2
 4506 01e8 5B00     		lsls	r3, r3, #1
 4507 01ea 1344     		add	r3, r3, r2
 4508 01ec 0B44     		add	r3, r3, r1
 4509 01ee 0233     		adds	r3, r3, #2
 4510 01f0 1B78     		ldrb	r3, [r3]	@ zero_extendqisi2
 4511 01f2 012B     		cmp	r3, #1
 4512 01f4 0BD1     		bne	.L153
 4513              		.loc 1 563 0 is_stmt 0 discriminator 1
 4514 01f6 D7F88430 		ldr	r3, [r7, #132]
 4515 01fa 5A1E     		subs	r2, r3, #1
 4516 01fc 3849     		ldr	r1, .L185+24
 4517 01fe 1346     		mov	r3, r2
 4518 0200 5B00     		lsls	r3, r3, #1
 4519 0202 1344     		add	r3, r3, r2
 4520 0204 0B44     		add	r3, r3, r1
 4521 0206 0233     		adds	r3, r3, #2
 4522 0208 1B78     		ldrb	r3, [r3]	@ zero_extendqisi2
 4523 020a 022B     		cmp	r3, #2
 4524 020c 16D0     		beq	.L154
 4525              	.L153:
 4526              		.loc 1 563 0 discriminator 3
ARM GAS  C:\Users\tant836\AppData\Local\Temp\ccXZYOJd.s 			page 91


 4527 020e 3449     		ldr	r1, .L185+24
 4528 0210 D7F88420 		ldr	r2, [r7, #132]
 4529 0214 1346     		mov	r3, r2
 4530 0216 5B00     		lsls	r3, r3, #1
 4531 0218 1344     		add	r3, r3, r2
 4532 021a 0B44     		add	r3, r3, r1
 4533 021c 0233     		adds	r3, r3, #2
 4534 021e 1B78     		ldrb	r3, [r3]	@ zero_extendqisi2
 4535 0220 032B     		cmp	r3, #3
 4536 0222 11D1     		bne	.L155
 4537              		.loc 1 563 0 discriminator 4
 4538 0224 D7F88430 		ldr	r3, [r7, #132]
 4539 0228 5A1E     		subs	r2, r3, #1
 4540 022a 2D49     		ldr	r1, .L185+24
 4541 022c 1346     		mov	r3, r2
 4542 022e 5B00     		lsls	r3, r3, #1
 4543 0230 1344     		add	r3, r3, r2
 4544 0232 0B44     		add	r3, r3, r1
 4545 0234 0233     		adds	r3, r3, #2
 4546 0236 1B78     		ldrb	r3, [r3]	@ zero_extendqisi2
 4547 0238 042B     		cmp	r3, #4
 4548 023a 05D1     		bne	.L155
 4549              	.L154:
 564:.\pathfinder.c ****                   instructions[counter] = RIGHT;
 4550              		.loc 1 564 0 is_stmt 1
 4551 023c 97F88F30 		ldrb	r3, [r7, #143]	@ zero_extendqisi2
 4552 0240 284A     		ldr	r2, .L185+28
 4553 0242 5221     		movs	r1, #82
 4554 0244 D154     		strb	r1, [r2, r3]
 4555 0246 33E0     		b	.L152
 4556              	.L155:
 565:.\pathfinder.c ****                }else if((path[i][DIR] == 1 && path[i-1][DIR] == 3)||(path[i][DIR] == 3 && path[i-1]
 4557              		.loc 1 565 0
 4558 0248 2549     		ldr	r1, .L185+24
 4559 024a D7F88420 		ldr	r2, [r7, #132]
 4560 024e 1346     		mov	r3, r2
 4561 0250 5B00     		lsls	r3, r3, #1
 4562 0252 1344     		add	r3, r3, r2
 4563 0254 0B44     		add	r3, r3, r1
 4564 0256 0233     		adds	r3, r3, #2
 4565 0258 1B78     		ldrb	r3, [r3]	@ zero_extendqisi2
 4566 025a 012B     		cmp	r3, #1
 4567 025c 0BD1     		bne	.L156
 4568              		.loc 1 565 0 is_stmt 0 discriminator 1
 4569 025e D7F88430 		ldr	r3, [r7, #132]
 4570 0262 5A1E     		subs	r2, r3, #1
 4571 0264 1E49     		ldr	r1, .L185+24
 4572 0266 1346     		mov	r3, r2
 4573 0268 5B00     		lsls	r3, r3, #1
 4574 026a 1344     		add	r3, r3, r2
 4575 026c 0B44     		add	r3, r3, r1
 4576 026e 0233     		adds	r3, r3, #2
 4577 0270 1B78     		ldrb	r3, [r3]	@ zero_extendqisi2
 4578 0272 032B     		cmp	r3, #3
 4579 0274 16D0     		beq	.L157
 4580              	.L156:
 4581              		.loc 1 565 0 discriminator 3
ARM GAS  C:\Users\tant836\AppData\Local\Temp\ccXZYOJd.s 			page 92


 4582 0276 1A49     		ldr	r1, .L185+24
 4583 0278 D7F88420 		ldr	r2, [r7, #132]
 4584 027c 1346     		mov	r3, r2
 4585 027e 5B00     		lsls	r3, r3, #1
 4586 0280 1344     		add	r3, r3, r2
 4587 0282 0B44     		add	r3, r3, r1
 4588 0284 0233     		adds	r3, r3, #2
 4589 0286 1B78     		ldrb	r3, [r3]	@ zero_extendqisi2
 4590 0288 032B     		cmp	r3, #3
 4591 028a 17D1     		bne	.L158
 4592              		.loc 1 565 0 discriminator 4
 4593 028c D7F88430 		ldr	r3, [r7, #132]
 4594 0290 5A1E     		subs	r2, r3, #1
 4595 0292 1349     		ldr	r1, .L185+24
 4596 0294 1346     		mov	r3, r2
 4597 0296 5B00     		lsls	r3, r3, #1
 4598 0298 1344     		add	r3, r3, r2
 4599 029a 0B44     		add	r3, r3, r1
 4600 029c 0233     		adds	r3, r3, #2
 4601 029e 1B78     		ldrb	r3, [r3]	@ zero_extendqisi2
 4602 02a0 012B     		cmp	r3, #1
 4603 02a2 0BD1     		bne	.L158
 4604              	.L157:
 566:.\pathfinder.c ****                   instructions[counter] = UTURN;
 4605              		.loc 1 566 0 is_stmt 1
 4606 02a4 97F88F30 		ldrb	r3, [r7, #143]	@ zero_extendqisi2
 4607 02a8 0E4A     		ldr	r2, .L185+28
 4608 02aa 5521     		movs	r1, #85
 4609 02ac D154     		strb	r1, [r2, r3]
 4610 02ae 05E0     		b	.L158
 4611              	.L152:
 4612 02b0 04E0     		b	.L158
 4613              	.L148:
 567:.\pathfinder.c ****                }
 568:.\pathfinder.c ****             }else{
 569:.\pathfinder.c ****                instructions[counter] = STRAIGHT;
 4614              		.loc 1 569 0
 4615 02b2 97F88F30 		ldrb	r3, [r7, #143]	@ zero_extendqisi2
 4616 02b6 0B4A     		ldr	r2, .L185+28
 4617 02b8 5321     		movs	r1, #83
 4618 02ba D154     		strb	r1, [r2, r3]
 4619              	.L158:
 570:.\pathfinder.c ****             }
 571:.\pathfinder.c ****             counter++;
 4620              		.loc 1 571 0
 4621 02bc 97F88F30 		ldrb	r3, [r7, #143]	@ zero_extendqisi2
 4622 02c0 0133     		adds	r3, r3, #1
 4623 02c2 87F88F30 		strb	r3, [r7, #143]
 4624 02c6 63E0     		b	.L159
 4625              	.L186:
 4626              		.align	2
 4627              	.L185:
 4628 02c8 00000000 		.word	destination
 4629 02cc 00000000 		.word	start
 4630 02d0 00000000 		.word	food_list
 4631 02d4 00000000 		.word	robot_direction
 4632 02d8 08000000 		.word	.LC1
ARM GAS  C:\Users\tant836\AppData\Local\Temp\ccXZYOJd.s 			page 93


 4633 02dc 00000000 		.word	map
 4634 02e0 00000000 		.word	path
 4635 02e4 00000000 		.word	instructions
 4636              	.L147:
 572:.\pathfinder.c ****         }else{
 573:.\pathfinder.c ****             if(path[i][DIR] != path[i - 1][DIR]){
 4637              		.loc 1 573 0
 4638 02e8 A749     		ldr	r1, .L187
 4639 02ea D7F88420 		ldr	r2, [r7, #132]
 4640 02ee 1346     		mov	r3, r2
 4641 02f0 5B00     		lsls	r3, r3, #1
 4642 02f2 1344     		add	r3, r3, r2
 4643 02f4 0B44     		add	r3, r3, r1
 4644 02f6 0233     		adds	r3, r3, #2
 4645 02f8 1978     		ldrb	r1, [r3]	@ zero_extendqisi2
 4646 02fa D7F88430 		ldr	r3, [r7, #132]
 4647 02fe 5A1E     		subs	r2, r3, #1
 4648 0300 A148     		ldr	r0, .L187
 4649 0302 1346     		mov	r3, r2
 4650 0304 5B00     		lsls	r3, r3, #1
 4651 0306 1344     		add	r3, r3, r2
 4652 0308 0344     		add	r3, r3, r0
 4653 030a 0233     		adds	r3, r3, #2
 4654 030c 1B78     		ldrb	r3, [r3]	@ zero_extendqisi2
 4655 030e 9942     		cmp	r1, r3
 4656 0310 38D0     		beq	.L160
 574:.\pathfinder.c ****                if((path[i][DIR] == 1 && path[i-1][DIR] == 3)||(path[i][DIR] == 3 && path[i-1][DIR] 
 4657              		.loc 1 574 0
 4658 0312 9D49     		ldr	r1, .L187
 4659 0314 D7F88420 		ldr	r2, [r7, #132]
 4660 0318 1346     		mov	r3, r2
 4661 031a 5B00     		lsls	r3, r3, #1
 4662 031c 1344     		add	r3, r3, r2
 4663 031e 0B44     		add	r3, r3, r1
 4664 0320 0233     		adds	r3, r3, #2
 4665 0322 1B78     		ldrb	r3, [r3]	@ zero_extendqisi2
 4666 0324 012B     		cmp	r3, #1
 4667 0326 0BD1     		bne	.L161
 4668              		.loc 1 574 0 is_stmt 0 discriminator 1
 4669 0328 D7F88430 		ldr	r3, [r7, #132]
 4670 032c 5A1E     		subs	r2, r3, #1
 4671 032e 9649     		ldr	r1, .L187
 4672 0330 1346     		mov	r3, r2
 4673 0332 5B00     		lsls	r3, r3, #1
 4674 0334 1344     		add	r3, r3, r2
 4675 0336 0B44     		add	r3, r3, r1
 4676 0338 0233     		adds	r3, r3, #2
 4677 033a 1B78     		ldrb	r3, [r3]	@ zero_extendqisi2
 4678 033c 032B     		cmp	r3, #3
 4679 033e 16D0     		beq	.L162
 4680              	.L161:
 4681              		.loc 1 574 0 discriminator 3
 4682 0340 9149     		ldr	r1, .L187
 4683 0342 D7F88420 		ldr	r2, [r7, #132]
 4684 0346 1346     		mov	r3, r2
 4685 0348 5B00     		lsls	r3, r3, #1
 4686 034a 1344     		add	r3, r3, r2
ARM GAS  C:\Users\tant836\AppData\Local\Temp\ccXZYOJd.s 			page 94


 4687 034c 0B44     		add	r3, r3, r1
 4688 034e 0233     		adds	r3, r3, #2
 4689 0350 1B78     		ldrb	r3, [r3]	@ zero_extendqisi2
 4690 0352 032B     		cmp	r3, #3
 4691 0354 1CD1     		bne	.L159
 4692              		.loc 1 574 0 discriminator 4
 4693 0356 D7F88430 		ldr	r3, [r7, #132]
 4694 035a 5A1E     		subs	r2, r3, #1
 4695 035c 8A49     		ldr	r1, .L187
 4696 035e 1346     		mov	r3, r2
 4697 0360 5B00     		lsls	r3, r3, #1
 4698 0362 1344     		add	r3, r3, r2
 4699 0364 0B44     		add	r3, r3, r1
 4700 0366 0233     		adds	r3, r3, #2
 4701 0368 1B78     		ldrb	r3, [r3]	@ zero_extendqisi2
 4702 036a 012B     		cmp	r3, #1
 4703 036c 10D1     		bne	.L159
 4704              	.L162:
 575:.\pathfinder.c ****                   instructions[counter] = UTURN;
 4705              		.loc 1 575 0 is_stmt 1
 4706 036e 97F88F30 		ldrb	r3, [r7, #143]	@ zero_extendqisi2
 4707 0372 864A     		ldr	r2, .L187+4
 4708 0374 5521     		movs	r1, #85
 4709 0376 D154     		strb	r1, [r2, r3]
 576:.\pathfinder.c ****                 counter++;
 4710              		.loc 1 576 0
 4711 0378 97F88F30 		ldrb	r3, [r7, #143]	@ zero_extendqisi2
 4712 037c 0133     		adds	r3, r3, #1
 4713 037e 87F88F30 		strb	r3, [r7, #143]
 559:.\pathfinder.c ****             if(path[i][DIR] != path[i - 1][DIR]){
 4714              		.loc 1 559 0
 4715 0382 5AE1     		b	.L164
 4716              	.L160:
 577:.\pathfinder.c ****                }
 578:.\pathfinder.c ****             }else{
 579:.\pathfinder.c ****                instructions[counter] = STRAIGHT;
 4717              		.loc 1 579 0
 4718 0384 97F88F30 		ldrb	r3, [r7, #143]	@ zero_extendqisi2
 4719 0388 804A     		ldr	r2, .L187+4
 4720 038a 5321     		movs	r1, #83
 4721 038c D154     		strb	r1, [r2, r3]
 559:.\pathfinder.c ****             if(path[i][DIR] != path[i - 1][DIR]){
 4722              		.loc 1 559 0
 4723 038e 54E1     		b	.L164
 4724              	.L159:
 559:.\pathfinder.c ****             if(path[i][DIR] != path[i - 1][DIR]){
 4725              		.loc 1 559 0 is_stmt 0 discriminator 1
 4726 0390 53E1     		b	.L164
 4727              	.L145:
 580:.\pathfinder.c ****             }
 581:.\pathfinder.c ****         } 
 582:.\pathfinder.c ****         
 583:.\pathfinder.c ****       }else{
 584:.\pathfinder.c ****          if(map[path[i][Y] - 1][path[i][X]] == PATH || map[path[i][Y] + 1][path[i][X]] == PATH){
 4728              		.loc 1 584 0 is_stmt 1
 4729 0392 7D49     		ldr	r1, .L187
 4730 0394 D7F88420 		ldr	r2, [r7, #132]
ARM GAS  C:\Users\tant836\AppData\Local\Temp\ccXZYOJd.s 			page 95


 4731 0398 1346     		mov	r3, r2
 4732 039a 5B00     		lsls	r3, r3, #1
 4733 039c 1344     		add	r3, r3, r2
 4734 039e 0B44     		add	r3, r3, r1
 4735 03a0 1B78     		ldrb	r3, [r3]	@ zero_extendqisi2
 4736 03a2 5A1E     		subs	r2, r3, #1
 4737 03a4 7848     		ldr	r0, .L187
 4738 03a6 D7F88410 		ldr	r1, [r7, #132]
 4739 03aa 0B46     		mov	r3, r1
 4740 03ac 5B00     		lsls	r3, r3, #1
 4741 03ae 0B44     		add	r3, r3, r1
 4742 03b0 0344     		add	r3, r3, r0
 4743 03b2 0133     		adds	r3, r3, #1
 4744 03b4 1B78     		ldrb	r3, [r3]	@ zero_extendqisi2
 4745 03b6 1846     		mov	r0, r3
 4746 03b8 7549     		ldr	r1, .L187+8
 4747 03ba 1346     		mov	r3, r2
 4748 03bc DB00     		lsls	r3, r3, #3
 4749 03be 1344     		add	r3, r3, r2
 4750 03c0 5B00     		lsls	r3, r3, #1
 4751 03c2 1344     		add	r3, r3, r2
 4752 03c4 0344     		add	r3, r3, r0
 4753 03c6 0B44     		add	r3, r3, r1
 4754 03c8 1B78     		ldrb	r3, [r3]	@ zero_extendqisi2
 4755 03ca 002B     		cmp	r3, #0
 4756 03cc 1ED0     		beq	.L165
 4757              		.loc 1 584 0 is_stmt 0 discriminator 1
 4758 03ce 6E49     		ldr	r1, .L187
 4759 03d0 D7F88420 		ldr	r2, [r7, #132]
 4760 03d4 1346     		mov	r3, r2
 4761 03d6 5B00     		lsls	r3, r3, #1
 4762 03d8 1344     		add	r3, r3, r2
 4763 03da 0B44     		add	r3, r3, r1
 4764 03dc 1B78     		ldrb	r3, [r3]	@ zero_extendqisi2
 4765 03de 5A1C     		adds	r2, r3, #1
 4766 03e0 6948     		ldr	r0, .L187
 4767 03e2 D7F88410 		ldr	r1, [r7, #132]
 4768 03e6 0B46     		mov	r3, r1
 4769 03e8 5B00     		lsls	r3, r3, #1
 4770 03ea 0B44     		add	r3, r3, r1
 4771 03ec 0344     		add	r3, r3, r0
 4772 03ee 0133     		adds	r3, r3, #1
 4773 03f0 1B78     		ldrb	r3, [r3]	@ zero_extendqisi2
 4774 03f2 1846     		mov	r0, r3
 4775 03f4 6649     		ldr	r1, .L187+8
 4776 03f6 1346     		mov	r3, r2
 4777 03f8 DB00     		lsls	r3, r3, #3
 4778 03fa 1344     		add	r3, r3, r2
 4779 03fc 5B00     		lsls	r3, r3, #1
 4780 03fe 1344     		add	r3, r3, r2
 4781 0400 0344     		add	r3, r3, r0
 4782 0402 0B44     		add	r3, r3, r1
 4783 0404 1B78     		ldrb	r3, [r3]	@ zero_extendqisi2
 4784 0406 002B     		cmp	r3, #0
 4785 0408 40F0C480 		bne	.L166
 4786              	.L165:
 585:.\pathfinder.c ****             if(path[i][DIR] != path[i - 1][DIR]){
ARM GAS  C:\Users\tant836\AppData\Local\Temp\ccXZYOJd.s 			page 96


 4787              		.loc 1 585 0 is_stmt 1
 4788 040c 5E49     		ldr	r1, .L187
 4789 040e D7F88420 		ldr	r2, [r7, #132]
 4790 0412 1346     		mov	r3, r2
 4791 0414 5B00     		lsls	r3, r3, #1
 4792 0416 1344     		add	r3, r3, r2
 4793 0418 0B44     		add	r3, r3, r1
 4794 041a 0233     		adds	r3, r3, #2
 4795 041c 1978     		ldrb	r1, [r3]	@ zero_extendqisi2
 4796 041e D7F88430 		ldr	r3, [r7, #132]
 4797 0422 5A1E     		subs	r2, r3, #1
 4798 0424 5848     		ldr	r0, .L187
 4799 0426 1346     		mov	r3, r2
 4800 0428 5B00     		lsls	r3, r3, #1
 4801 042a 1344     		add	r3, r3, r2
 4802 042c 0344     		add	r3, r3, r0
 4803 042e 0233     		adds	r3, r3, #2
 4804 0430 1B78     		ldrb	r3, [r3]	@ zero_extendqisi2
 4805 0432 9942     		cmp	r1, r3
 4806 0434 00F09D80 		beq	.L167
 586:.\pathfinder.c ****                if((path[i][DIR] == 4 && path[i-1][DIR] == 3)||(path[i][DIR] == 2 && path[i-1][DIR] 
 4807              		.loc 1 586 0
 4808 0438 5349     		ldr	r1, .L187
 4809 043a D7F88420 		ldr	r2, [r7, #132]
 4810 043e 1346     		mov	r3, r2
 4811 0440 5B00     		lsls	r3, r3, #1
 4812 0442 1344     		add	r3, r3, r2
 4813 0444 0B44     		add	r3, r3, r1
 4814 0446 0233     		adds	r3, r3, #2
 4815 0448 1B78     		ldrb	r3, [r3]	@ zero_extendqisi2
 4816 044a 042B     		cmp	r3, #4
 4817 044c 0BD1     		bne	.L168
 4818              		.loc 1 586 0 is_stmt 0 discriminator 1
 4819 044e D7F88430 		ldr	r3, [r7, #132]
 4820 0452 5A1E     		subs	r2, r3, #1
 4821 0454 4C49     		ldr	r1, .L187
 4822 0456 1346     		mov	r3, r2
 4823 0458 5B00     		lsls	r3, r3, #1
 4824 045a 1344     		add	r3, r3, r2
 4825 045c 0B44     		add	r3, r3, r1
 4826 045e 0233     		adds	r3, r3, #2
 4827 0460 1B78     		ldrb	r3, [r3]	@ zero_extendqisi2
 4828 0462 032B     		cmp	r3, #3
 4829 0464 16D0     		beq	.L169
 4830              	.L168:
 4831              		.loc 1 586 0 discriminator 3
 4832 0466 4849     		ldr	r1, .L187
 4833 0468 D7F88420 		ldr	r2, [r7, #132]
 4834 046c 1346     		mov	r3, r2
 4835 046e 5B00     		lsls	r3, r3, #1
 4836 0470 1344     		add	r3, r3, r2
 4837 0472 0B44     		add	r3, r3, r1
 4838 0474 0233     		adds	r3, r3, #2
 4839 0476 1B78     		ldrb	r3, [r3]	@ zero_extendqisi2
 4840 0478 022B     		cmp	r3, #2
 4841 047a 11D1     		bne	.L170
 4842              		.loc 1 586 0 discriminator 4
ARM GAS  C:\Users\tant836\AppData\Local\Temp\ccXZYOJd.s 			page 97


 4843 047c D7F88430 		ldr	r3, [r7, #132]
 4844 0480 5A1E     		subs	r2, r3, #1
 4845 0482 4149     		ldr	r1, .L187
 4846 0484 1346     		mov	r3, r2
 4847 0486 5B00     		lsls	r3, r3, #1
 4848 0488 1344     		add	r3, r3, r2
 4849 048a 0B44     		add	r3, r3, r1
 4850 048c 0233     		adds	r3, r3, #2
 4851 048e 1B78     		ldrb	r3, [r3]	@ zero_extendqisi2
 4852 0490 012B     		cmp	r3, #1
 4853 0492 05D1     		bne	.L170
 4854              	.L169:
 587:.\pathfinder.c ****                   instructions[counter] = LEFT;
 4855              		.loc 1 587 0 is_stmt 1
 4856 0494 97F88F30 		ldrb	r3, [r7, #143]	@ zero_extendqisi2
 4857 0498 3C4A     		ldr	r2, .L187+4
 4858 049a 4C21     		movs	r1, #76
 4859 049c D154     		strb	r1, [r2, r3]
 4860 049e 67E0     		b	.L171
 4861              	.L170:
 588:.\pathfinder.c ****                }else if((path[i][DIR] == 4 && path[i-1][DIR] == 1)||(path[i][DIR] == 2 && path[i-1]
 4862              		.loc 1 588 0
 4863 04a0 3949     		ldr	r1, .L187
 4864 04a2 D7F88420 		ldr	r2, [r7, #132]
 4865 04a6 1346     		mov	r3, r2
 4866 04a8 5B00     		lsls	r3, r3, #1
 4867 04aa 1344     		add	r3, r3, r2
 4868 04ac 0B44     		add	r3, r3, r1
 4869 04ae 0233     		adds	r3, r3, #2
 4870 04b0 1B78     		ldrb	r3, [r3]	@ zero_extendqisi2
 4871 04b2 042B     		cmp	r3, #4
 4872 04b4 0BD1     		bne	.L172
 4873              		.loc 1 588 0 is_stmt 0 discriminator 1
 4874 04b6 D7F88430 		ldr	r3, [r7, #132]
 4875 04ba 5A1E     		subs	r2, r3, #1
 4876 04bc 3249     		ldr	r1, .L187
 4877 04be 1346     		mov	r3, r2
 4878 04c0 5B00     		lsls	r3, r3, #1
 4879 04c2 1344     		add	r3, r3, r2
 4880 04c4 0B44     		add	r3, r3, r1
 4881 04c6 0233     		adds	r3, r3, #2
 4882 04c8 1B78     		ldrb	r3, [r3]	@ zero_extendqisi2
 4883 04ca 012B     		cmp	r3, #1
 4884 04cc 16D0     		beq	.L173
 4885              	.L172:
 4886              		.loc 1 588 0 discriminator 3
 4887 04ce 2E49     		ldr	r1, .L187
 4888 04d0 D7F88420 		ldr	r2, [r7, #132]
 4889 04d4 1346     		mov	r3, r2
 4890 04d6 5B00     		lsls	r3, r3, #1
 4891 04d8 1344     		add	r3, r3, r2
 4892 04da 0B44     		add	r3, r3, r1
 4893 04dc 0233     		adds	r3, r3, #2
 4894 04de 1B78     		ldrb	r3, [r3]	@ zero_extendqisi2
 4895 04e0 022B     		cmp	r3, #2
 4896 04e2 11D1     		bne	.L174
 4897              		.loc 1 588 0 discriminator 4
ARM GAS  C:\Users\tant836\AppData\Local\Temp\ccXZYOJd.s 			page 98


 4898 04e4 D7F88430 		ldr	r3, [r7, #132]
 4899 04e8 5A1E     		subs	r2, r3, #1
 4900 04ea 2749     		ldr	r1, .L187
 4901 04ec 1346     		mov	r3, r2
 4902 04ee 5B00     		lsls	r3, r3, #1
 4903 04f0 1344     		add	r3, r3, r2
 4904 04f2 0B44     		add	r3, r3, r1
 4905 04f4 0233     		adds	r3, r3, #2
 4906 04f6 1B78     		ldrb	r3, [r3]	@ zero_extendqisi2
 4907 04f8 032B     		cmp	r3, #3
 4908 04fa 05D1     		bne	.L174
 4909              	.L173:
 589:.\pathfinder.c ****                   instructions[counter] = RIGHT;
 4910              		.loc 1 589 0 is_stmt 1
 4911 04fc 97F88F30 		ldrb	r3, [r7, #143]	@ zero_extendqisi2
 4912 0500 224A     		ldr	r2, .L187+4
 4913 0502 5221     		movs	r1, #82
 4914 0504 D154     		strb	r1, [r2, r3]
 4915 0506 33E0     		b	.L171
 4916              	.L174:
 590:.\pathfinder.c ****                }else if((path[i][DIR] == 4 && path[i-1][DIR] == 2)||(path[i][DIR] == 2 && path[i-1]
 4917              		.loc 1 590 0
 4918 0508 1F49     		ldr	r1, .L187
 4919 050a D7F88420 		ldr	r2, [r7, #132]
 4920 050e 1346     		mov	r3, r2
 4921 0510 5B00     		lsls	r3, r3, #1
 4922 0512 1344     		add	r3, r3, r2
 4923 0514 0B44     		add	r3, r3, r1
 4924 0516 0233     		adds	r3, r3, #2
 4925 0518 1B78     		ldrb	r3, [r3]	@ zero_extendqisi2
 4926 051a 042B     		cmp	r3, #4
 4927 051c 0BD1     		bne	.L175
 4928              		.loc 1 590 0 is_stmt 0 discriminator 1
 4929 051e D7F88430 		ldr	r3, [r7, #132]
 4930 0522 5A1E     		subs	r2, r3, #1
 4931 0524 1849     		ldr	r1, .L187
 4932 0526 1346     		mov	r3, r2
 4933 0528 5B00     		lsls	r3, r3, #1
 4934 052a 1344     		add	r3, r3, r2
 4935 052c 0B44     		add	r3, r3, r1
 4936 052e 0233     		adds	r3, r3, #2
 4937 0530 1B78     		ldrb	r3, [r3]	@ zero_extendqisi2
 4938 0532 022B     		cmp	r3, #2
 4939 0534 16D0     		beq	.L176
 4940              	.L175:
 4941              		.loc 1 590 0 discriminator 3
 4942 0536 1449     		ldr	r1, .L187
 4943 0538 D7F88420 		ldr	r2, [r7, #132]
 4944 053c 1346     		mov	r3, r2
 4945 053e 5B00     		lsls	r3, r3, #1
 4946 0540 1344     		add	r3, r3, r2
 4947 0542 0B44     		add	r3, r3, r1
 4948 0544 0233     		adds	r3, r3, #2
 4949 0546 1B78     		ldrb	r3, [r3]	@ zero_extendqisi2
 4950 0548 022B     		cmp	r3, #2
 4951 054a 17D1     		bne	.L177
 4952              		.loc 1 590 0 discriminator 4
ARM GAS  C:\Users\tant836\AppData\Local\Temp\ccXZYOJd.s 			page 99


 4953 054c D7F88430 		ldr	r3, [r7, #132]
 4954 0550 5A1E     		subs	r2, r3, #1
 4955 0552 0D49     		ldr	r1, .L187
 4956 0554 1346     		mov	r3, r2
 4957 0556 5B00     		lsls	r3, r3, #1
 4958 0558 1344     		add	r3, r3, r2
 4959 055a 0B44     		add	r3, r3, r1
 4960 055c 0233     		adds	r3, r3, #2
 4961 055e 1B78     		ldrb	r3, [r3]	@ zero_extendqisi2
 4962 0560 042B     		cmp	r3, #4
 4963 0562 0BD1     		bne	.L177
 4964              	.L176:
 591:.\pathfinder.c ****                   instructions[counter] = UTURN;
 4965              		.loc 1 591 0 is_stmt 1
 4966 0564 97F88F30 		ldrb	r3, [r7, #143]	@ zero_extendqisi2
 4967 0568 084A     		ldr	r2, .L187+4
 4968 056a 5521     		movs	r1, #85
 4969 056c D154     		strb	r1, [r2, r3]
 4970 056e 05E0     		b	.L177
 4971              	.L171:
 4972 0570 04E0     		b	.L177
 4973              	.L167:
 592:.\pathfinder.c ****                }
 593:.\pathfinder.c ****             }else{
 594:.\pathfinder.c ****                instructions[counter] = STRAIGHT;
 4974              		.loc 1 594 0
 4975 0572 97F88F30 		ldrb	r3, [r7, #143]	@ zero_extendqisi2
 4976 0576 054A     		ldr	r2, .L187+4
 4977 0578 5321     		movs	r1, #83
 4978 057a D154     		strb	r1, [r2, r3]
 4979              	.L177:
 595:.\pathfinder.c ****             }
 596:.\pathfinder.c ****             counter++;
 4980              		.loc 1 596 0
 4981 057c 97F88F30 		ldrb	r3, [r7, #143]	@ zero_extendqisi2
 4982 0580 0133     		adds	r3, r3, #1
 4983 0582 87F88F30 		strb	r3, [r7, #143]
 4984 0586 58E0     		b	.L164
 4985              	.L188:
 4986              		.align	2
 4987              	.L187:
 4988 0588 00000000 		.word	path
 4989 058c 00000000 		.word	instructions
 4990 0590 00000000 		.word	map
 4991              	.L166:
 597:.\pathfinder.c ****          }else{
 598:.\pathfinder.c ****             if(path[i][DIR] != path[i - 1][DIR]){
 4992              		.loc 1 598 0
 4993 0594 3749     		ldr	r1, .L189
 4994 0596 D7F88420 		ldr	r2, [r7, #132]
 4995 059a 1346     		mov	r3, r2
 4996 059c 5B00     		lsls	r3, r3, #1
 4997 059e 1344     		add	r3, r3, r2
 4998 05a0 0B44     		add	r3, r3, r1
 4999 05a2 0233     		adds	r3, r3, #2
 5000 05a4 1978     		ldrb	r1, [r3]	@ zero_extendqisi2
 5001 05a6 D7F88430 		ldr	r3, [r7, #132]
ARM GAS  C:\Users\tant836\AppData\Local\Temp\ccXZYOJd.s 			page 100


 5002 05aa 5A1E     		subs	r2, r3, #1
 5003 05ac 3148     		ldr	r0, .L189
 5004 05ae 1346     		mov	r3, r2
 5005 05b0 5B00     		lsls	r3, r3, #1
 5006 05b2 1344     		add	r3, r3, r2
 5007 05b4 0344     		add	r3, r3, r0
 5008 05b6 0233     		adds	r3, r3, #2
 5009 05b8 1B78     		ldrb	r3, [r3]	@ zero_extendqisi2
 5010 05ba 9942     		cmp	r1, r3
 5011 05bc 38D0     		beq	.L178
 599:.\pathfinder.c ****                if((path[i][DIR] == 4 && path[i-1][DIR] == 2)||(path[i][DIR] == 2 && path[i-1][DIR] 
 5012              		.loc 1 599 0
 5013 05be 2D49     		ldr	r1, .L189
 5014 05c0 D7F88420 		ldr	r2, [r7, #132]
 5015 05c4 1346     		mov	r3, r2
 5016 05c6 5B00     		lsls	r3, r3, #1
 5017 05c8 1344     		add	r3, r3, r2
 5018 05ca 0B44     		add	r3, r3, r1
 5019 05cc 0233     		adds	r3, r3, #2
 5020 05ce 1B78     		ldrb	r3, [r3]	@ zero_extendqisi2
 5021 05d0 042B     		cmp	r3, #4
 5022 05d2 0BD1     		bne	.L179
 5023              		.loc 1 599 0 is_stmt 0 discriminator 1
 5024 05d4 D7F88430 		ldr	r3, [r7, #132]
 5025 05d8 5A1E     		subs	r2, r3, #1
 5026 05da 2649     		ldr	r1, .L189
 5027 05dc 1346     		mov	r3, r2
 5028 05de 5B00     		lsls	r3, r3, #1
 5029 05e0 1344     		add	r3, r3, r2
 5030 05e2 0B44     		add	r3, r3, r1
 5031 05e4 0233     		adds	r3, r3, #2
 5032 05e6 1B78     		ldrb	r3, [r3]	@ zero_extendqisi2
 5033 05e8 022B     		cmp	r3, #2
 5034 05ea 16D0     		beq	.L180
 5035              	.L179:
 5036              		.loc 1 599 0 discriminator 3
 5037 05ec 2149     		ldr	r1, .L189
 5038 05ee D7F88420 		ldr	r2, [r7, #132]
 5039 05f2 1346     		mov	r3, r2
 5040 05f4 5B00     		lsls	r3, r3, #1
 5041 05f6 1344     		add	r3, r3, r2
 5042 05f8 0B44     		add	r3, r3, r1
 5043 05fa 0233     		adds	r3, r3, #2
 5044 05fc 1B78     		ldrb	r3, [r3]	@ zero_extendqisi2
 5045 05fe 022B     		cmp	r3, #2
 5046 0600 1BD1     		bne	.L164
 5047              		.loc 1 599 0 discriminator 4
 5048 0602 D7F88430 		ldr	r3, [r7, #132]
 5049 0606 5A1E     		subs	r2, r3, #1
 5050 0608 1A49     		ldr	r1, .L189
 5051 060a 1346     		mov	r3, r2
 5052 060c 5B00     		lsls	r3, r3, #1
 5053 060e 1344     		add	r3, r3, r2
 5054 0610 0B44     		add	r3, r3, r1
 5055 0612 0233     		adds	r3, r3, #2
 5056 0614 1B78     		ldrb	r3, [r3]	@ zero_extendqisi2
 5057 0616 042B     		cmp	r3, #4
ARM GAS  C:\Users\tant836\AppData\Local\Temp\ccXZYOJd.s 			page 101


 5058 0618 0FD1     		bne	.L164
 5059              	.L180:
 600:.\pathfinder.c ****                   instructions[counter] = UTURN;
 5060              		.loc 1 600 0 is_stmt 1
 5061 061a 97F88F30 		ldrb	r3, [r7, #143]	@ zero_extendqisi2
 5062 061e 164A     		ldr	r2, .L189+4
 5063 0620 5521     		movs	r1, #85
 5064 0622 D154     		strb	r1, [r2, r3]
 601:.\pathfinder.c ****                 counter++;
 5065              		.loc 1 601 0
 5066 0624 97F88F30 		ldrb	r3, [r7, #143]	@ zero_extendqisi2
 5067 0628 0133     		adds	r3, r3, #1
 5068 062a 87F88F30 		strb	r3, [r7, #143]
 5069 062e 04E0     		b	.L164
 5070              	.L178:
 602:.\pathfinder.c ****                }
 603:.\pathfinder.c ****             }else{
 604:.\pathfinder.c ****                instructions[counter] = STRAIGHT;
 5071              		.loc 1 604 0
 5072 0630 97F88F30 		ldrb	r3, [r7, #143]	@ zero_extendqisi2
 5073 0634 104A     		ldr	r2, .L189+4
 5074 0636 5321     		movs	r1, #83
 5075 0638 D154     		strb	r1, [r2, r3]
 5076              	.L164:
 556:.\pathfinder.c ****       if(path[i][DIR] == 1 || path[i][DIR] == 3){
 5077              		.loc 1 556 0 discriminator 2
 5078 063a D7F88430 		ldr	r3, [r7, #132]
 5079 063e 013B     		subs	r3, r3, #1
 5080 0640 C7F88430 		str	r3, [r7, #132]
 5081              	.L143:
 556:.\pathfinder.c ****       if(path[i][DIR] == 1 || path[i][DIR] == 3){
 5082              		.loc 1 556 0 is_stmt 0 discriminator 1
 5083 0644 D7F88430 		ldr	r3, [r7, #132]
 5084 0648 002B     		cmp	r3, #0
 5085 064a 3FF72BAD 		bgt	.L182
 5086              	.LBE7:
 524:.\pathfinder.c **** {   
 5087              		.loc 1 524 0 is_stmt 1 discriminator 2
 5088 064e D7F88830 		ldr	r3, [r7, #136]
 5089 0652 0133     		adds	r3, r3, #1
 5090 0654 C7F88830 		str	r3, [r7, #136]
 5091              	.L141:
 524:.\pathfinder.c **** {   
 5092              		.loc 1 524 0 is_stmt 0 discriminator 1
 5093 0658 084B     		ldr	r3, .L189+8
 5094 065a 1B78     		ldrb	r3, [r3]	@ zero_extendqisi2
 5095 065c 1A46     		mov	r2, r3
 5096 065e D7F88830 		ldr	r3, [r7, #136]
 5097 0662 9A42     		cmp	r2, r3
 5098 0664 3FF7D6AC 		bgt	.L183
 605:.\pathfinder.c ****             }
 606:.\pathfinder.c ****          }
 607:.\pathfinder.c ****       }
 608:.\pathfinder.c ****    }
 609:.\pathfinder.c ****    //instructions[counter] = '\0';
 610:.\pathfinder.c **** }
 611:.\pathfinder.c ****    return 0;
ARM GAS  C:\Users\tant836\AppData\Local\Temp\ccXZYOJd.s 			page 102


 5099              		.loc 1 611 0 is_stmt 1
 5100 0668 0023     		movs	r3, #0
 612:.\pathfinder.c **** }
 5101              		.loc 1 612 0
 5102 066a 1846     		mov	r0, r3
 5103 066c 9037     		adds	r7, r7, #144
 5104              		.cfi_def_cfa_offset 16
 5105 066e BD46     		mov	sp, r7
 5106              		.cfi_def_cfa_register 13
 5107              		@ sp needed
 5108 0670 B0BD     		pop	{r4, r5, r7, pc}
 5109              	.L190:
 5110 0672 00BF     		.align	2
 5111              	.L189:
 5112 0674 00000000 		.word	path
 5113 0678 00000000 		.word	instructions
 5114 067c 00000000 		.word	food_length
 5115              		.cfi_endproc
 5116              	.LFE66:
 5117              		.size	generateDirections, .-generateDirections
 5118              		.text
 5119              	.Letext0:
 5120              		.file 2 "c:\\program files (x86)\\cypress\\psoc creator\\3.3\\psoc creator\\import\\gnu\\arm\\4.9.
 5121              		.file 3 "c:\\program files (x86)\\cypress\\psoc creator\\3.3\\psoc creator\\import\\gnu\\arm\\4.9.
 5122              		.file 4 "Generated_Source\\PSoC5/cytypes.h"
 5123              		.file 5 "Generated_Source\\PSoC5/core_cm3.h"
 5124              		.file 6 ".\\pathfinder.h"
 5125              		.section	.debug_info,"",%progbits
 5126              	.Ldebug_info0:
 5127 0000 94060000 		.4byte	0x694
 5128 0004 0400     		.2byte	0x4
 5129 0006 00000000 		.4byte	.Ldebug_abbrev0
 5130 000a 04       		.byte	0x4
 5131 000b 01       		.uleb128 0x1
 5132 000c CB000000 		.4byte	.LASF59
 5133 0010 01       		.byte	0x1
 5134 0011 70020000 		.4byte	.LASF60
 5135 0015 F5010000 		.4byte	.LASF61
 5136 0019 00000000 		.4byte	.Ldebug_ranges0+0
 5137 001d 00000000 		.4byte	0
 5138 0021 00000000 		.4byte	.Ldebug_line0
 5139 0025 02       		.uleb128 0x2
 5140 0026 01       		.byte	0x1
 5141 0027 06       		.byte	0x6
 5142 0028 B9010000 		.4byte	.LASF0
 5143 002c 02       		.uleb128 0x2
 5144 002d 01       		.byte	0x1
 5145 002e 08       		.byte	0x8
 5146 002f A3010000 		.4byte	.LASF1
 5147 0033 02       		.uleb128 0x2
 5148 0034 02       		.byte	0x2
 5149 0035 05       		.byte	0x5
 5150 0036 1F000000 		.4byte	.LASF2
 5151 003a 02       		.uleb128 0x2
 5152 003b 02       		.byte	0x2
 5153 003c 07       		.byte	0x7
 5154 003d 9A020000 		.4byte	.LASF3
ARM GAS  C:\Users\tant836\AppData\Local\Temp\ccXZYOJd.s 			page 103


 5155 0041 03       		.uleb128 0x3
 5156 0042 1C030000 		.4byte	.LASF14
 5157 0046 02       		.byte	0x2
 5158 0047 3F       		.byte	0x3f
 5159 0048 4C000000 		.4byte	0x4c
 5160 004c 02       		.uleb128 0x2
 5161 004d 04       		.byte	0x4
 5162 004e 05       		.byte	0x5
 5163 004f 89020000 		.4byte	.LASF4
 5164 0053 02       		.uleb128 0x2
 5165 0054 04       		.byte	0x4
 5166 0055 07       		.byte	0x7
 5167 0056 1E020000 		.4byte	.LASF5
 5168 005a 02       		.uleb128 0x2
 5169 005b 08       		.byte	0x8
 5170 005c 05       		.byte	0x5
 5171 005d 8F000000 		.4byte	.LASF6
 5172 0061 02       		.uleb128 0x2
 5173 0062 08       		.byte	0x8
 5174 0063 07       		.byte	0x7
 5175 0064 C5010000 		.4byte	.LASF7
 5176 0068 04       		.uleb128 0x4
 5177 0069 04       		.byte	0x4
 5178 006a 05       		.byte	0x5
 5179 006b 696E7400 		.ascii	"int\000"
 5180 006f 02       		.uleb128 0x2
 5181 0070 04       		.byte	0x4
 5182 0071 07       		.byte	0x7
 5183 0072 E8010000 		.4byte	.LASF8
 5184 0076 02       		.uleb128 0x2
 5185 0077 04       		.byte	0x4
 5186 0078 07       		.byte	0x7
 5187 0079 2B030000 		.4byte	.LASF9
 5188 007d 02       		.uleb128 0x2
 5189 007e 01       		.byte	0x1
 5190 007f 08       		.byte	0x8
 5191 0080 7F020000 		.4byte	.LASF10
 5192 0084 02       		.uleb128 0x2
 5193 0085 08       		.byte	0x8
 5194 0086 04       		.byte	0x4
 5195 0087 E1020000 		.4byte	.LASF11
 5196 008b 02       		.uleb128 0x2
 5197 008c 04       		.byte	0x4
 5198 008d 04       		.byte	0x4
 5199 008e 89000000 		.4byte	.LASF12
 5200 0092 02       		.uleb128 0x2
 5201 0093 08       		.byte	0x8
 5202 0094 04       		.byte	0x4
 5203 0095 84010000 		.4byte	.LASF13
 5204 0099 03       		.uleb128 0x3
 5205 009a 92020000 		.4byte	.LASF15
 5206 009e 03       		.byte	0x3
 5207 009f 2C       		.byte	0x2c
 5208 00a0 41000000 		.4byte	0x41
 5209 00a4 05       		.uleb128 0x5
 5210 00a5 7B000000 		.4byte	.LASF16
 5211 00a9 04       		.byte	0x4
ARM GAS  C:\Users\tant836\AppData\Local\Temp\ccXZYOJd.s 			page 104


 5212 00aa 9201     		.2byte	0x192
 5213 00ac 2C000000 		.4byte	0x2c
 5214 00b0 05       		.uleb128 0x5
 5215 00b1 74000000 		.4byte	.LASF17
 5216 00b5 04       		.byte	0x4
 5217 00b6 9301     		.2byte	0x193
 5218 00b8 3A000000 		.4byte	0x3a
 5219 00bc 06       		.uleb128 0x6
 5220 00bd 7F010000 		.4byte	.LASF24
 5221 00c1 10       		.byte	0x10
 5222 00c2 01       		.byte	0x1
 5223 00c3 19       		.byte	0x19
 5224 00c4 25010000 		.4byte	0x125
 5225 00c8 07       		.uleb128 0x7
 5226 00c9 26030000 		.4byte	.LASF18
 5227 00cd 01       		.byte	0x1
 5228 00ce 1A       		.byte	0x1a
 5229 00cf A4000000 		.4byte	0xa4
 5230 00d3 00       		.byte	0
 5231 00d4 07       		.uleb128 0x7
 5232 00d5 81000000 		.4byte	.LASF19
 5233 00d9 01       		.byte	0x1
 5234 00da 1B       		.byte	0x1b
 5235 00db A4000000 		.4byte	0xa4
 5236 00df 01       		.byte	0x1
 5237 00e0 07       		.uleb128 0x7
 5238 00e1 84020000 		.4byte	.LASF20
 5239 00e5 01       		.byte	0x1
 5240 00e6 1C       		.byte	0x1c
 5241 00e7 B0000000 		.4byte	0xb0
 5242 00eb 02       		.byte	0x2
 5243 00ec 08       		.uleb128 0x8
 5244 00ed 7800     		.ascii	"x\000"
 5245 00ef 01       		.byte	0x1
 5246 00f0 1D       		.byte	0x1d
 5247 00f1 A4000000 		.4byte	0xa4
 5248 00f5 04       		.byte	0x4
 5249 00f6 08       		.uleb128 0x8
 5250 00f7 7900     		.ascii	"y\000"
 5251 00f9 01       		.byte	0x1
 5252 00fa 1E       		.byte	0x1e
 5253 00fb A4000000 		.4byte	0xa4
 5254 00ff 05       		.byte	0x5
 5255 0100 07       		.uleb128 0x7
 5256 0101 B9020000 		.4byte	.LASF21
 5257 0105 01       		.byte	0x1
 5258 0106 1F       		.byte	0x1f
 5259 0107 25010000 		.4byte	0x125
 5260 010b 08       		.byte	0x8
 5261 010c 07       		.uleb128 0x7
 5262 010d 06000000 		.4byte	.LASF22
 5263 0111 01       		.byte	0x1
 5264 0112 22       		.byte	0x22
 5265 0113 B0000000 		.4byte	0xb0
 5266 0117 0C       		.byte	0xc
 5267 0118 07       		.uleb128 0x7
 5268 0119 57000000 		.4byte	.LASF23
ARM GAS  C:\Users\tant836\AppData\Local\Temp\ccXZYOJd.s 			page 105


 5269 011d 01       		.byte	0x1
 5270 011e 23       		.byte	0x23
 5271 011f A4000000 		.4byte	0xa4
 5272 0123 0E       		.byte	0xe
 5273 0124 00       		.byte	0
 5274 0125 09       		.uleb128 0x9
 5275 0126 04       		.byte	0x4
 5276 0127 BC000000 		.4byte	0xbc
 5277 012b 03       		.uleb128 0x3
 5278 012c 7F010000 		.4byte	.LASF24
 5279 0130 01       		.byte	0x1
 5280 0131 24       		.byte	0x24
 5281 0132 BC000000 		.4byte	0xbc
 5282 0136 0A       		.uleb128 0xa
 5283 0137 3C030000 		.4byte	.LASF43
 5284 013b 01       		.byte	0x1
 5285 013c 2F       		.byte	0x2f
 5286 013d B0000000 		.4byte	0xb0
 5287 0141 00000000 		.4byte	.LFB63
 5288 0145 C80B0000 		.4byte	.LFE63-.LFB63
 5289 0149 01       		.uleb128 0x1
 5290 014a 9C       		.byte	0x9c
 5291 014b BC020000 		.4byte	0x2bc
 5292 014f 0B       		.uleb128 0xb
 5293 0150 6D617000 		.ascii	"map\000"
 5294 0154 01       		.byte	0x1
 5295 0155 2F       		.byte	0x2f
 5296 0156 CC020000 		.4byte	0x2cc
 5297 015a 03       		.uleb128 0x3
 5298 015b 91       		.byte	0x91
 5299 015c B44F     		.sleb128 -6220
 5300 015e 0C       		.uleb128 0xc
 5301 015f E8020000 		.4byte	.LASF25
 5302 0163 01       		.byte	0x1
 5303 0164 2F       		.byte	0x2f
 5304 0165 E2020000 		.4byte	0x2e2
 5305 0169 03       		.uleb128 0x3
 5306 016a 91       		.byte	0x91
 5307 016b B04F     		.sleb128 -6224
 5308 016d 0C       		.uleb128 0xc
 5309 016e 26030000 		.4byte	.LASF18
 5310 0172 01       		.byte	0x1
 5311 0173 2F       		.byte	0x2f
 5312 0174 F8020000 		.4byte	0x2f8
 5313 0178 03       		.uleb128 0x3
 5314 0179 91       		.byte	0x91
 5315 017a AC4F     		.sleb128 -6228
 5316 017c 0C       		.uleb128 0xc
 5317 017d 46020000 		.4byte	.LASF26
 5318 0181 01       		.byte	0x1
 5319 0182 2F       		.byte	0x2f
 5320 0183 FE020000 		.4byte	0x2fe
 5321 0187 03       		.uleb128 0x3
 5322 0188 91       		.byte	0x91
 5323 0189 A84F     		.sleb128 -6232
 5324 018b 0C       		.uleb128 0xc
 5325 018c D5020000 		.4byte	.LASF27
ARM GAS  C:\Users\tant836\AppData\Local\Temp\ccXZYOJd.s 			page 106


 5326 0190 01       		.byte	0x1
 5327 0191 2F       		.byte	0x2f
 5328 0192 FE020000 		.4byte	0x2fe
 5329 0196 02       		.uleb128 0x2
 5330 0197 91       		.byte	0x91
 5331 0198 00       		.sleb128 0
 5332 0199 0D       		.uleb128 0xd
 5333 019a 00000000 		.4byte	.LASF28
 5334 019e 01       		.byte	0x1
 5335 019f 30       		.byte	0x30
 5336 01a0 04030000 		.4byte	0x304
 5337 01a4 03       		.uleb128 0x3
 5338 01a5 91       		.byte	0x91
 5339 01a6 885C     		.sleb128 -4600
 5340 01a8 0E       		.uleb128 0xe
 5341 01a9 6900     		.ascii	"i\000"
 5342 01ab 01       		.byte	0x1
 5343 01ac 32       		.byte	0x32
 5344 01ad A4000000 		.4byte	0xa4
 5345 01b1 02       		.uleb128 0x2
 5346 01b2 91       		.byte	0x91
 5347 01b3 6F       		.sleb128 -17
 5348 01b4 0D       		.uleb128 0xd
 5349 01b5 34030000 		.4byte	.LASF29
 5350 01b9 01       		.byte	0x1
 5351 01ba 43       		.byte	0x43
 5352 01bb D2020000 		.4byte	0x2d2
 5353 01bf 03       		.uleb128 0x3
 5354 01c0 91       		.byte	0x91
 5355 01c1 845C     		.sleb128 -4604
 5356 01c3 0D       		.uleb128 0xd
 5357 01c4 29000000 		.4byte	.LASF30
 5358 01c8 01       		.byte	0x1
 5359 01c9 47       		.byte	0x47
 5360 01ca A4000000 		.4byte	0xa4
 5361 01ce 02       		.uleb128 0x2
 5362 01cf 91       		.byte	0x91
 5363 01d0 6D       		.sleb128 -19
 5364 01d1 0D       		.uleb128 0xd
 5365 01d2 15000000 		.4byte	.LASF31
 5366 01d6 01       		.byte	0x1
 5367 01d7 48       		.byte	0x48
 5368 01d8 1A030000 		.4byte	0x31a
 5369 01dc 03       		.uleb128 0x3
 5370 01dd 91       		.byte	0x91
 5371 01de C44F     		.sleb128 -6204
 5372 01e0 0D       		.uleb128 0xd
 5373 01e1 59010000 		.4byte	.LASF32
 5374 01e5 01       		.byte	0x1
 5375 01e6 4A       		.byte	0x4a
 5376 01e7 D2020000 		.4byte	0x2d2
 5377 01eb 03       		.uleb128 0x3
 5378 01ec 91       		.byte	0x91
 5379 01ed C04F     		.sleb128 -6208
 5380 01ef 0D       		.uleb128 0xd
 5381 01f0 67010000 		.4byte	.LASF33
 5382 01f4 01       		.byte	0x1
ARM GAS  C:\Users\tant836\AppData\Local\Temp\ccXZYOJd.s 			page 107


 5383 01f5 4B       		.byte	0x4b
 5384 01f6 A4000000 		.4byte	0xa4
 5385 01fa 02       		.uleb128 0x2
 5386 01fb 91       		.byte	0x91
 5387 01fc 5B       		.sleb128 -37
 5388 01fd 0D       		.uleb128 0xd
 5389 01fe 4C020000 		.4byte	.LASF34
 5390 0202 01       		.byte	0x1
 5391 0203 4C       		.byte	0x4c
 5392 0204 A4000000 		.4byte	0xa4
 5393 0208 02       		.uleb128 0x2
 5394 0209 91       		.byte	0x91
 5395 020a 6C       		.sleb128 -20
 5396 020b 0D       		.uleb128 0xd
 5397 020c B1010000 		.4byte	.LASF35
 5398 0210 01       		.byte	0x1
 5399 0211 4D       		.byte	0x4d
 5400 0212 A4000000 		.4byte	0xa4
 5401 0216 02       		.uleb128 0x2
 5402 0217 91       		.byte	0x91
 5403 0218 6B       		.sleb128 -21
 5404 0219 0D       		.uleb128 0xd
 5405 021a 61000000 		.4byte	.LASF36
 5406 021e 01       		.byte	0x1
 5407 021f 4E       		.byte	0x4e
 5408 0220 B0000000 		.4byte	0xb0
 5409 0224 02       		.uleb128 0x2
 5410 0225 91       		.byte	0x91
 5411 0226 58       		.sleb128 -40
 5412 0227 0D       		.uleb128 0xd
 5413 0228 30020000 		.4byte	.LASF37
 5414 022c 01       		.byte	0x1
 5415 022d 4F       		.byte	0x4f
 5416 022e D2020000 		.4byte	0x2d2
 5417 0232 03       		.uleb128 0x3
 5418 0233 91       		.byte	0x91
 5419 0234 BC4F     		.sleb128 -6212
 5420 0236 0D       		.uleb128 0xd
 5421 0237 53030000 		.4byte	.LASF38
 5422 023b 01       		.byte	0x1
 5423 023c 50       		.byte	0x50
 5424 023d A4000000 		.4byte	0xa4
 5425 0241 02       		.uleb128 0x2
 5426 0242 91       		.byte	0x91
 5427 0243 6A       		.sleb128 -22
 5428 0244 0D       		.uleb128 0xd
 5429 0245 AD020000 		.4byte	.LASF39
 5430 0249 01       		.byte	0x1
 5431 024a 51       		.byte	0x51
 5432 024b D2020000 		.4byte	0x2d2
 5433 024f 03       		.uleb128 0x3
 5434 0250 91       		.byte	0x91
 5435 0251 B84F     		.sleb128 -6216
 5436 0253 0D       		.uleb128 0xd
 5437 0254 39020000 		.4byte	.LASF40
 5438 0258 01       		.byte	0x1
 5439 0259 52       		.byte	0x52
ARM GAS  C:\Users\tant836\AppData\Local\Temp\ccXZYOJd.s 			page 108


 5440 025a B0000000 		.4byte	0xb0
 5441 025e 02       		.uleb128 0x2
 5442 025f 91       		.byte	0x91
 5443 0260 68       		.sleb128 -24
 5444 0261 0D       		.uleb128 0xd
 5445 0262 4F000000 		.4byte	.LASF41
 5446 0266 01       		.byte	0x1
 5447 0267 53       		.byte	0x53
 5448 0268 A4000000 		.4byte	0xa4
 5449 026c 02       		.uleb128 0x2
 5450 026d 91       		.byte	0x91
 5451 026e 67       		.sleb128 -25
 5452 026f 0F       		.uleb128 0xf
 5453 0270 36000000 		.4byte	.LBB2
 5454 0274 E6010000 		.4byte	.LBE2-.LBB2
 5455 0278 89020000 		.4byte	0x289
 5456 027c 0E       		.uleb128 0xe
 5457 027d 6A00     		.ascii	"j\000"
 5458 027f 01       		.byte	0x1
 5459 0280 34       		.byte	0x34
 5460 0281 A4000000 		.4byte	0xa4
 5461 0285 02       		.uleb128 0x2
 5462 0286 91       		.byte	0x91
 5463 0287 6E       		.sleb128 -18
 5464 0288 00       		.byte	0
 5465 0289 0F       		.uleb128 0xf
 5466 028a BE030000 		.4byte	.LBB3
 5467 028e 86050000 		.4byte	.LBE3-.LBB3
 5468 0292 A3020000 		.4byte	0x2a3
 5469 0296 0E       		.uleb128 0xe
 5470 0297 6900     		.ascii	"i\000"
 5471 0299 01       		.byte	0x1
 5472 029a 8D       		.byte	0x8d
 5473 029b 68000000 		.4byte	0x68
 5474 029f 02       		.uleb128 0x2
 5475 02a0 91       		.byte	0x91
 5476 02a1 60       		.sleb128 -32
 5477 02a2 00       		.byte	0
 5478 02a3 10       		.uleb128 0x10
 5479 02a4 C8090000 		.4byte	.LBB4
 5480 02a8 EC010000 		.4byte	.LBE4-.LBB4
 5481 02ac 0D       		.uleb128 0xd
 5482 02ad DC010000 		.4byte	.LASF42
 5483 02b1 01       		.byte	0x1
 5484 02b2 AA       		.byte	0xaa
 5485 02b3 31030000 		.4byte	0x331
 5486 02b7 02       		.uleb128 0x2
 5487 02b8 91       		.byte	0x91
 5488 02b9 5C       		.sleb128 -36
 5489 02ba 00       		.byte	0
 5490 02bb 00       		.byte	0
 5491 02bc 11       		.uleb128 0x11
 5492 02bd A4000000 		.4byte	0xa4
 5493 02c1 CC020000 		.4byte	0x2cc
 5494 02c5 12       		.uleb128 0x12
 5495 02c6 76000000 		.4byte	0x76
 5496 02ca 12       		.byte	0x12
ARM GAS  C:\Users\tant836\AppData\Local\Temp\ccXZYOJd.s 			page 109


 5497 02cb 00       		.byte	0
 5498 02cc 09       		.uleb128 0x9
 5499 02cd 04       		.byte	0x4
 5500 02ce BC020000 		.4byte	0x2bc
 5501 02d2 11       		.uleb128 0x11
 5502 02d3 A4000000 		.4byte	0xa4
 5503 02d7 E2020000 		.4byte	0x2e2
 5504 02db 12       		.uleb128 0x12
 5505 02dc 76000000 		.4byte	0x76
 5506 02e0 01       		.byte	0x1
 5507 02e1 00       		.byte	0
 5508 02e2 09       		.uleb128 0x9
 5509 02e3 04       		.byte	0x4
 5510 02e4 D2020000 		.4byte	0x2d2
 5511 02e8 11       		.uleb128 0x11
 5512 02e9 A4000000 		.4byte	0xa4
 5513 02ed F8020000 		.4byte	0x2f8
 5514 02f1 12       		.uleb128 0x12
 5515 02f2 76000000 		.4byte	0x76
 5516 02f6 02       		.byte	0x2
 5517 02f7 00       		.byte	0
 5518 02f8 09       		.uleb128 0x9
 5519 02f9 04       		.byte	0x4
 5520 02fa E8020000 		.4byte	0x2e8
 5521 02fe 09       		.uleb128 0x9
 5522 02ff 04       		.byte	0x4
 5523 0300 A4000000 		.4byte	0xa4
 5524 0304 11       		.uleb128 0x11
 5525 0305 2B010000 		.4byte	0x12b
 5526 0309 1A030000 		.4byte	0x31a
 5527 030d 12       		.uleb128 0x12
 5528 030e 76000000 		.4byte	0x76
 5529 0312 0E       		.byte	0xe
 5530 0313 12       		.uleb128 0x12
 5531 0314 76000000 		.4byte	0x76
 5532 0318 12       		.byte	0x12
 5533 0319 00       		.byte	0
 5534 031a 11       		.uleb128 0x11
 5535 031b A4000000 		.4byte	0xa4
 5536 031f 31030000 		.4byte	0x331
 5537 0323 13       		.uleb128 0x13
 5538 0324 76000000 		.4byte	0x76
 5539 0328 1F03     		.2byte	0x31f
 5540 032a 12       		.uleb128 0x12
 5541 032b 76000000 		.4byte	0x76
 5542 032f 01       		.byte	0x1
 5543 0330 00       		.byte	0
 5544 0331 09       		.uleb128 0x9
 5545 0332 04       		.byte	0x4
 5546 0333 2B010000 		.4byte	0x12b
 5547 0337 0A       		.uleb128 0xa
 5548 0338 65020000 		.4byte	.LASF44
 5549 033c 01       		.byte	0x1
 5550 033d C1       		.byte	0xc1
 5551 033e B0000000 		.4byte	0xb0
 5552 0342 00000000 		.4byte	.LFB64
 5553 0346 220A0000 		.4byte	.LFE64-.LFB64
ARM GAS  C:\Users\tant836\AppData\Local\Temp\ccXZYOJd.s 			page 110


 5554 034a 01       		.uleb128 0x1
 5555 034b 9C       		.byte	0x9c
 5556 034c B0040000 		.4byte	0x4b0
 5557 0350 0B       		.uleb128 0xb
 5558 0351 6D617000 		.ascii	"map\000"
 5559 0355 01       		.byte	0x1
 5560 0356 C1       		.byte	0xc1
 5561 0357 CC020000 		.4byte	0x2cc
 5562 035b 03       		.uleb128 0x3
 5563 035c 91       		.byte	0x91
 5564 035d B44F     		.sleb128 -6220
 5565 035f 0C       		.uleb128 0xc
 5566 0360 E8020000 		.4byte	.LASF25
 5567 0364 01       		.byte	0x1
 5568 0365 C1       		.byte	0xc1
 5569 0366 E2020000 		.4byte	0x2e2
 5570 036a 03       		.uleb128 0x3
 5571 036b 91       		.byte	0x91
 5572 036c B04F     		.sleb128 -6224
 5573 036e 0C       		.uleb128 0xc
 5574 036f 26030000 		.4byte	.LASF18
 5575 0373 01       		.byte	0x1
 5576 0374 C1       		.byte	0xc1
 5577 0375 F8020000 		.4byte	0x2f8
 5578 0379 03       		.uleb128 0x3
 5579 037a 91       		.byte	0x91
 5580 037b AC4F     		.sleb128 -6228
 5581 037d 0C       		.uleb128 0xc
 5582 037e 46020000 		.4byte	.LASF26
 5583 0382 01       		.byte	0x1
 5584 0383 C1       		.byte	0xc1
 5585 0384 FE020000 		.4byte	0x2fe
 5586 0388 03       		.uleb128 0x3
 5587 0389 91       		.byte	0x91
 5588 038a A84F     		.sleb128 -6232
 5589 038c 0C       		.uleb128 0xc
 5590 038d D5020000 		.4byte	.LASF27
 5591 0391 01       		.byte	0x1
 5592 0392 C1       		.byte	0xc1
 5593 0393 FE020000 		.4byte	0x2fe
 5594 0397 02       		.uleb128 0x2
 5595 0398 91       		.byte	0x91
 5596 0399 00       		.sleb128 0
 5597 039a 0C       		.uleb128 0xc
 5598 039b 57000000 		.4byte	.LASF23
 5599 039f 01       		.byte	0x1
 5600 03a0 C1       		.byte	0xc1
 5601 03a1 A4000000 		.4byte	0xa4
 5602 03a5 02       		.uleb128 0x2
 5603 03a6 91       		.byte	0x91
 5604 03a7 04       		.sleb128 4
 5605 03a8 0D       		.uleb128 0xd
 5606 03a9 00000000 		.4byte	.LASF28
 5607 03ad 01       		.byte	0x1
 5608 03ae C3       		.byte	0xc3
 5609 03af 04030000 		.4byte	0x304
 5610 03b3 03       		.uleb128 0x3
ARM GAS  C:\Users\tant836\AppData\Local\Temp\ccXZYOJd.s 			page 111


 5611 03b4 91       		.byte	0x91
 5612 03b5 8C5C     		.sleb128 -4596
 5613 03b7 0E       		.uleb128 0xe
 5614 03b8 6900     		.ascii	"i\000"
 5615 03ba 01       		.byte	0x1
 5616 03bb C5       		.byte	0xc5
 5617 03bc A4000000 		.4byte	0xa4
 5618 03c0 02       		.uleb128 0x2
 5619 03c1 91       		.byte	0x91
 5620 03c2 6F       		.sleb128 -17
 5621 03c3 0E       		.uleb128 0xe
 5622 03c4 6A00     		.ascii	"j\000"
 5623 03c6 01       		.byte	0x1
 5624 03c7 C5       		.byte	0xc5
 5625 03c8 A4000000 		.4byte	0xa4
 5626 03cc 02       		.uleb128 0x2
 5627 03cd 91       		.byte	0x91
 5628 03ce 6E       		.sleb128 -18
 5629 03cf 0D       		.uleb128 0xd
 5630 03d0 34030000 		.4byte	.LASF29
 5631 03d4 01       		.byte	0x1
 5632 03d5 D5       		.byte	0xd5
 5633 03d6 D2020000 		.4byte	0x2d2
 5634 03da 03       		.uleb128 0x3
 5635 03db 91       		.byte	0x91
 5636 03dc 885C     		.sleb128 -4600
 5637 03de 0D       		.uleb128 0xd
 5638 03df 29000000 		.4byte	.LASF30
 5639 03e3 01       		.byte	0x1
 5640 03e4 D9       		.byte	0xd9
 5641 03e5 A4000000 		.4byte	0xa4
 5642 03e9 02       		.uleb128 0x2
 5643 03ea 91       		.byte	0x91
 5644 03eb 6D       		.sleb128 -19
 5645 03ec 0D       		.uleb128 0xd
 5646 03ed 15000000 		.4byte	.LASF31
 5647 03f1 01       		.byte	0x1
 5648 03f2 DA       		.byte	0xda
 5649 03f3 1A030000 		.4byte	0x31a
 5650 03f7 03       		.uleb128 0x3
 5651 03f8 91       		.byte	0x91
 5652 03f9 C84F     		.sleb128 -6200
 5653 03fb 0D       		.uleb128 0xd
 5654 03fc 59010000 		.4byte	.LASF32
 5655 0400 01       		.byte	0x1
 5656 0401 DC       		.byte	0xdc
 5657 0402 D2020000 		.4byte	0x2d2
 5658 0406 03       		.uleb128 0x3
 5659 0407 91       		.byte	0x91
 5660 0408 C44F     		.sleb128 -6204
 5661 040a 0D       		.uleb128 0xd
 5662 040b 67010000 		.4byte	.LASF33
 5663 040f 01       		.byte	0x1
 5664 0410 DD       		.byte	0xdd
 5665 0411 A4000000 		.4byte	0xa4
 5666 0415 02       		.uleb128 0x2
 5667 0416 91       		.byte	0x91
ARM GAS  C:\Users\tant836\AppData\Local\Temp\ccXZYOJd.s 			page 112


 5668 0417 5F       		.sleb128 -33
 5669 0418 0D       		.uleb128 0xd
 5670 0419 4C020000 		.4byte	.LASF34
 5671 041d 01       		.byte	0x1
 5672 041e DE       		.byte	0xde
 5673 041f A4000000 		.4byte	0xa4
 5674 0423 02       		.uleb128 0x2
 5675 0424 91       		.byte	0x91
 5676 0425 6C       		.sleb128 -20
 5677 0426 0D       		.uleb128 0xd
 5678 0427 B1010000 		.4byte	.LASF35
 5679 042b 01       		.byte	0x1
 5680 042c DF       		.byte	0xdf
 5681 042d A4000000 		.4byte	0xa4
 5682 0431 02       		.uleb128 0x2
 5683 0432 91       		.byte	0x91
 5684 0433 6B       		.sleb128 -21
 5685 0434 0D       		.uleb128 0xd
 5686 0435 61000000 		.4byte	.LASF36
 5687 0439 01       		.byte	0x1
 5688 043a E0       		.byte	0xe0
 5689 043b B0000000 		.4byte	0xb0
 5690 043f 02       		.uleb128 0x2
 5691 0440 91       		.byte	0x91
 5692 0441 5C       		.sleb128 -36
 5693 0442 0D       		.uleb128 0xd
 5694 0443 30020000 		.4byte	.LASF37
 5695 0447 01       		.byte	0x1
 5696 0448 E1       		.byte	0xe1
 5697 0449 D2020000 		.4byte	0x2d2
 5698 044d 03       		.uleb128 0x3
 5699 044e 91       		.byte	0x91
 5700 044f C04F     		.sleb128 -6208
 5701 0451 0D       		.uleb128 0xd
 5702 0452 53030000 		.4byte	.LASF38
 5703 0456 01       		.byte	0x1
 5704 0457 E2       		.byte	0xe2
 5705 0458 A4000000 		.4byte	0xa4
 5706 045c 02       		.uleb128 0x2
 5707 045d 91       		.byte	0x91
 5708 045e 6A       		.sleb128 -22
 5709 045f 0D       		.uleb128 0xd
 5710 0460 AD020000 		.4byte	.LASF39
 5711 0464 01       		.byte	0x1
 5712 0465 E3       		.byte	0xe3
 5713 0466 D2020000 		.4byte	0x2d2
 5714 046a 03       		.uleb128 0x3
 5715 046b 91       		.byte	0x91
 5716 046c BC4F     		.sleb128 -6212
 5717 046e 0D       		.uleb128 0xd
 5718 046f 39020000 		.4byte	.LASF40
 5719 0473 01       		.byte	0x1
 5720 0474 E4       		.byte	0xe4
 5721 0475 A4000000 		.4byte	0xa4
 5722 0479 02       		.uleb128 0x2
 5723 047a 91       		.byte	0x91
 5724 047b 69       		.sleb128 -23
ARM GAS  C:\Users\tant836\AppData\Local\Temp\ccXZYOJd.s 			page 113


 5725 047c 0D       		.uleb128 0xd
 5726 047d 4F000000 		.4byte	.LASF41
 5727 0481 01       		.byte	0x1
 5728 0482 E5       		.byte	0xe5
 5729 0483 A4000000 		.4byte	0xa4
 5730 0487 02       		.uleb128 0x2
 5731 0488 91       		.byte	0x91
 5732 0489 68       		.sleb128 -24
 5733 048a 0D       		.uleb128 0xd
 5734 048b F2020000 		.4byte	.LASF45
 5735 048f 01       		.byte	0x1
 5736 0490 EB       		.byte	0xeb
 5737 0491 68000000 		.4byte	0x68
 5738 0495 02       		.uleb128 0x2
 5739 0496 91       		.byte	0x91
 5740 0497 64       		.sleb128 -28
 5741 0498 10       		.uleb128 0x10
 5742 0499 CC030000 		.4byte	.LBB5
 5743 049d 32060000 		.4byte	.LBE5-.LBB5
 5744 04a1 14       		.uleb128 0x14
 5745 04a2 6900     		.ascii	"i\000"
 5746 04a4 01       		.byte	0x1
 5747 04a5 2101     		.2byte	0x121
 5748 04a7 68000000 		.4byte	0x68
 5749 04ab 02       		.uleb128 0x2
 5750 04ac 91       		.byte	0x91
 5751 04ad 60       		.sleb128 -32
 5752 04ae 00       		.byte	0
 5753 04af 00       		.byte	0
 5754 04b0 15       		.uleb128 0x15
 5755 04b1 AF000000 		.4byte	.LASF50
 5756 04b5 01       		.byte	0x1
 5757 04b6 4701     		.2byte	0x147
 5758 04b8 68000000 		.4byte	0x68
 5759 04bc 00000000 		.4byte	.LFB65
 5760 04c0 9C0D0000 		.4byte	.LFE65-.LFB65
 5761 04c4 01       		.uleb128 0x1
 5762 04c5 9C       		.byte	0x9c
 5763 04c6 4A050000 		.4byte	0x54a
 5764 04ca 14       		.uleb128 0x14
 5765 04cb 656E6400 		.ascii	"end\000"
 5766 04cf 01       		.byte	0x1
 5767 04d0 4801     		.2byte	0x148
 5768 04d2 68000000 		.4byte	0x68
 5769 04d6 02       		.uleb128 0x2
 5770 04d7 91       		.byte	0x91
 5771 04d8 60       		.sleb128 -32
 5772 04d9 16       		.uleb128 0x16
 5773 04da B1010000 		.4byte	.LASF35
 5774 04de 01       		.byte	0x1
 5775 04df 5401     		.2byte	0x154
 5776 04e1 B0000000 		.4byte	0xb0
 5777 04e5 02       		.uleb128 0x2
 5778 04e6 91       		.byte	0x91
 5779 04e7 6E       		.sleb128 -18
 5780 04e8 14       		.uleb128 0x14
 5781 04e9 6900     		.ascii	"i\000"
ARM GAS  C:\Users\tant836\AppData\Local\Temp\ccXZYOJd.s 			page 114


 5782 04eb 01       		.byte	0x1
 5783 04ec 5801     		.2byte	0x158
 5784 04ee 68000000 		.4byte	0x68
 5785 04f2 02       		.uleb128 0x2
 5786 04f3 91       		.byte	0x91
 5787 04f4 68       		.sleb128 -24
 5788 04f5 10       		.uleb128 0x10
 5789 04f6 BC010000 		.4byte	.LBB6
 5790 04fa 5C060000 		.4byte	.LBE6-.LBB6
 5791 04fe 16       		.uleb128 0x16
 5792 04ff C2020000 		.4byte	.LASF46
 5793 0503 01       		.byte	0x1
 5794 0504 5D01     		.2byte	0x15d
 5795 0506 4A050000 		.4byte	0x54a
 5796 050a 03       		.uleb128 0x3
 5797 050b 91       		.byte	0x91
 5798 050c F46C     		.sleb128 -2444
 5799 050e 16       		.uleb128 0x16
 5800 050f 10030000 		.4byte	.LASF47
 5801 0513 01       		.byte	0x1
 5802 0514 5E01     		.2byte	0x15e
 5803 0516 D2020000 		.4byte	0x2d2
 5804 051a 02       		.uleb128 0x2
 5805 051b 91       		.byte	0x91
 5806 051c 58       		.sleb128 -40
 5807 051d 16       		.uleb128 0x16
 5808 051e FE020000 		.4byte	.LASF48
 5809 0522 01       		.byte	0x1
 5810 0523 5F01     		.2byte	0x15f
 5811 0525 D2020000 		.4byte	0x2d2
 5812 0529 02       		.uleb128 0x2
 5813 052a 91       		.byte	0x91
 5814 052b 54       		.sleb128 -44
 5815 052c 16       		.uleb128 0x16
 5816 052d 5B020000 		.4byte	.LASF49
 5817 0531 01       		.byte	0x1
 5818 0532 6301     		.2byte	0x163
 5819 0534 68000000 		.4byte	0x68
 5820 0538 02       		.uleb128 0x2
 5821 0539 91       		.byte	0x91
 5822 053a 5C       		.sleb128 -36
 5823 053b 14       		.uleb128 0x14
 5824 053c 6A00     		.ascii	"j\000"
 5825 053e 01       		.byte	0x1
 5826 053f 7001     		.2byte	0x170
 5827 0541 68000000 		.4byte	0x68
 5828 0545 02       		.uleb128 0x2
 5829 0546 91       		.byte	0x91
 5830 0547 64       		.sleb128 -28
 5831 0548 00       		.byte	0
 5832 0549 00       		.byte	0
 5833 054a 11       		.uleb128 0x11
 5834 054b A4000000 		.4byte	0xa4
 5835 054f 61050000 		.4byte	0x561
 5836 0553 13       		.uleb128 0x13
 5837 0554 76000000 		.4byte	0x76
 5838 0558 1F03     		.2byte	0x31f
ARM GAS  C:\Users\tant836\AppData\Local\Temp\ccXZYOJd.s 			page 115


 5839 055a 12       		.uleb128 0x12
 5840 055b 76000000 		.4byte	0x76
 5841 055f 02       		.byte	0x2
 5842 0560 00       		.byte	0
 5843 0561 15       		.uleb128 0x15
 5844 0562 90010000 		.4byte	.LASF51
 5845 0566 01       		.byte	0x1
 5846 0567 0802     		.2byte	0x208
 5847 0569 68000000 		.4byte	0x68
 5848 056d 00000000 		.4byte	.LFB66
 5849 0571 80060000 		.4byte	.LFE66-.LFB66
 5850 0575 01       		.uleb128 0x1
 5851 0576 9C       		.byte	0x9c
 5852 0577 D0050000 		.4byte	0x5d0
 5853 057b 16       		.uleb128 0x16
 5854 057c B1010000 		.4byte	.LASF35
 5855 0580 01       		.byte	0x1
 5856 0581 0902     		.2byte	0x209
 5857 0583 A4000000 		.4byte	0xa4
 5858 0587 02       		.uleb128 0x2
 5859 0588 91       		.byte	0x91
 5860 0589 6F       		.sleb128 -17
 5861 058a 16       		.uleb128 0x16
 5862 058b 69000000 		.4byte	.LASF52
 5863 058f 01       		.byte	0x1
 5864 0590 0A02     		.2byte	0x20a
 5865 0592 68000000 		.4byte	0x68
 5866 0596 02       		.uleb128 0x2
 5867 0597 91       		.byte	0x91
 5868 0598 68       		.sleb128 -24
 5869 0599 10       		.uleb128 0x10
 5870 059a 14000000 		.4byte	.LBB7
 5871 059e 3A060000 		.4byte	.LBE7-.LBB7
 5872 05a2 16       		.uleb128 0x16
 5873 05a3 CD020000 		.4byte	.LASF53
 5874 05a7 01       		.byte	0x1
 5875 05a8 2502     		.2byte	0x225
 5876 05aa D0050000 		.4byte	0x5d0
 5877 05ae 03       		.uleb128 0x3
 5878 05af 91       		.byte	0x91
 5879 05b0 E07E     		.sleb128 -160
 5880 05b2 14       		.uleb128 0x14
 5881 05b3 656E6400 		.ascii	"end\000"
 5882 05b7 01       		.byte	0x1
 5883 05b8 2902     		.2byte	0x229
 5884 05ba 68000000 		.4byte	0x68
 5885 05be 02       		.uleb128 0x2
 5886 05bf 91       		.byte	0x91
 5887 05c0 60       		.sleb128 -32
 5888 05c1 14       		.uleb128 0x14
 5889 05c2 6900     		.ascii	"i\000"
 5890 05c4 01       		.byte	0x1
 5891 05c5 2B02     		.2byte	0x22b
 5892 05c7 68000000 		.4byte	0x68
 5893 05cb 02       		.uleb128 0x2
 5894 05cc 91       		.byte	0x91
 5895 05cd 64       		.sleb128 -28
ARM GAS  C:\Users\tant836\AppData\Local\Temp\ccXZYOJd.s 			page 116


 5896 05ce 00       		.byte	0
 5897 05cf 00       		.byte	0
 5898 05d0 11       		.uleb128 0x11
 5899 05d1 7D000000 		.4byte	0x7d
 5900 05d5 E0050000 		.4byte	0x5e0
 5901 05d9 12       		.uleb128 0x12
 5902 05da 76000000 		.4byte	0x76
 5903 05de 7F       		.byte	0x7f
 5904 05df 00       		.byte	0
 5905 05e0 17       		.uleb128 0x17
 5906 05e1 46030000 		.4byte	.LASF54
 5907 05e5 05       		.byte	0x5
 5908 05e6 9606     		.2byte	0x696
 5909 05e8 EC050000 		.4byte	0x5ec
 5910 05ec 18       		.uleb128 0x18
 5911 05ed 99000000 		.4byte	0x99
 5912 05f1 11       		.uleb128 0x11
 5913 05f2 A4000000 		.4byte	0xa4
 5914 05f6 07060000 		.4byte	0x607
 5915 05fa 12       		.uleb128 0x12
 5916 05fb 76000000 		.4byte	0x76
 5917 05ff 0E       		.byte	0xe
 5918 0600 12       		.uleb128 0x12
 5919 0601 76000000 		.4byte	0x76
 5920 0605 12       		.byte	0x12
 5921 0606 00       		.byte	0
 5922 0607 19       		.uleb128 0x19
 5923 0608 6D617000 		.ascii	"map\000"
 5924 060c 06       		.byte	0x6
 5925 060d 1B       		.byte	0x1b
 5926 060e F1050000 		.4byte	0x5f1
 5927 0612 11       		.uleb128 0x11
 5928 0613 A4000000 		.4byte	0xa4
 5929 0617 28060000 		.4byte	0x628
 5930 061b 12       		.uleb128 0x12
 5931 061c 76000000 		.4byte	0x76
 5932 0620 05       		.byte	0x5
 5933 0621 12       		.uleb128 0x12
 5934 0622 76000000 		.4byte	0x76
 5935 0626 01       		.byte	0x1
 5936 0627 00       		.byte	0
 5937 0628 1A       		.uleb128 0x1a
 5938 0629 E8020000 		.4byte	.LASF25
 5939 062d 06       		.byte	0x6
 5940 062e 1D       		.byte	0x1d
 5941 062f 12060000 		.4byte	0x612
 5942 0633 1A       		.uleb128 0x1a
 5943 0634 26030000 		.4byte	.LASF18
 5944 0638 06       		.byte	0x6
 5945 0639 1E       		.byte	0x1e
 5946 063a 4A050000 		.4byte	0x54a
 5947 063e 1A       		.uleb128 0x1a
 5948 063f 46020000 		.4byte	.LASF26
 5949 0643 06       		.byte	0x6
 5950 0644 1F       		.byte	0x1f
 5951 0645 D2020000 		.4byte	0x2d2
 5952 0649 1A       		.uleb128 0x1a
ARM GAS  C:\Users\tant836\AppData\Local\Temp\ccXZYOJd.s 			page 117


 5953 064a D5020000 		.4byte	.LASF27
 5954 064e 06       		.byte	0x6
 5955 064f 20       		.byte	0x20
 5956 0650 D2020000 		.4byte	0x2d2
 5957 0654 1A       		.uleb128 0x1a
 5958 0655 3F000000 		.4byte	.LASF55
 5959 0659 06       		.byte	0x6
 5960 065a 21       		.byte	0x21
 5961 065b A4000000 		.4byte	0xa4
 5962 065f 1B       		.uleb128 0x1b
 5963 0660 9D000000 		.4byte	.LASF56
 5964 0664 06       		.byte	0x6
 5965 0665 22       		.byte	0x22
 5966 0666 A4000000 		.4byte	0xa4
 5967 066a 05       		.uleb128 0x5
 5968 066b 03       		.byte	0x3
 5969 066c 00000000 		.4byte	tracked_direction
 5970 0670 1A       		.uleb128 0x1a
 5971 0671 73010000 		.4byte	.LASF57
 5972 0675 06       		.byte	0x6
 5973 0676 23       		.byte	0x23
 5974 0677 A4000000 		.4byte	0xa4
 5975 067b 11       		.uleb128 0x11
 5976 067c 7D000000 		.4byte	0x7d
 5977 0680 8C060000 		.4byte	0x68c
 5978 0684 13       		.uleb128 0x13
 5979 0685 76000000 		.4byte	0x76
 5980 0689 1F03     		.2byte	0x31f
 5981 068b 00       		.byte	0
 5982 068c 1A       		.uleb128 0x1a
 5983 068d 61030000 		.4byte	.LASF58
 5984 0691 06       		.byte	0x6
 5985 0692 24       		.byte	0x24
 5986 0693 7B060000 		.4byte	0x67b
 5987 0697 00       		.byte	0
 5988              		.section	.debug_abbrev,"",%progbits
 5989              	.Ldebug_abbrev0:
 5990 0000 01       		.uleb128 0x1
 5991 0001 11       		.uleb128 0x11
 5992 0002 01       		.byte	0x1
 5993 0003 25       		.uleb128 0x25
 5994 0004 0E       		.uleb128 0xe
 5995 0005 13       		.uleb128 0x13
 5996 0006 0B       		.uleb128 0xb
 5997 0007 03       		.uleb128 0x3
 5998 0008 0E       		.uleb128 0xe
 5999 0009 1B       		.uleb128 0x1b
 6000 000a 0E       		.uleb128 0xe
 6001 000b 55       		.uleb128 0x55
 6002 000c 17       		.uleb128 0x17
 6003 000d 11       		.uleb128 0x11
 6004 000e 01       		.uleb128 0x1
 6005 000f 10       		.uleb128 0x10
 6006 0010 17       		.uleb128 0x17
 6007 0011 00       		.byte	0
 6008 0012 00       		.byte	0
 6009 0013 02       		.uleb128 0x2
ARM GAS  C:\Users\tant836\AppData\Local\Temp\ccXZYOJd.s 			page 118


 6010 0014 24       		.uleb128 0x24
 6011 0015 00       		.byte	0
 6012 0016 0B       		.uleb128 0xb
 6013 0017 0B       		.uleb128 0xb
 6014 0018 3E       		.uleb128 0x3e
 6015 0019 0B       		.uleb128 0xb
 6016 001a 03       		.uleb128 0x3
 6017 001b 0E       		.uleb128 0xe
 6018 001c 00       		.byte	0
 6019 001d 00       		.byte	0
 6020 001e 03       		.uleb128 0x3
 6021 001f 16       		.uleb128 0x16
 6022 0020 00       		.byte	0
 6023 0021 03       		.uleb128 0x3
 6024 0022 0E       		.uleb128 0xe
 6025 0023 3A       		.uleb128 0x3a
 6026 0024 0B       		.uleb128 0xb
 6027 0025 3B       		.uleb128 0x3b
 6028 0026 0B       		.uleb128 0xb
 6029 0027 49       		.uleb128 0x49
 6030 0028 13       		.uleb128 0x13
 6031 0029 00       		.byte	0
 6032 002a 00       		.byte	0
 6033 002b 04       		.uleb128 0x4
 6034 002c 24       		.uleb128 0x24
 6035 002d 00       		.byte	0
 6036 002e 0B       		.uleb128 0xb
 6037 002f 0B       		.uleb128 0xb
 6038 0030 3E       		.uleb128 0x3e
 6039 0031 0B       		.uleb128 0xb
 6040 0032 03       		.uleb128 0x3
 6041 0033 08       		.uleb128 0x8
 6042 0034 00       		.byte	0
 6043 0035 00       		.byte	0
 6044 0036 05       		.uleb128 0x5
 6045 0037 16       		.uleb128 0x16
 6046 0038 00       		.byte	0
 6047 0039 03       		.uleb128 0x3
 6048 003a 0E       		.uleb128 0xe
 6049 003b 3A       		.uleb128 0x3a
 6050 003c 0B       		.uleb128 0xb
 6051 003d 3B       		.uleb128 0x3b
 6052 003e 05       		.uleb128 0x5
 6053 003f 49       		.uleb128 0x49
 6054 0040 13       		.uleb128 0x13
 6055 0041 00       		.byte	0
 6056 0042 00       		.byte	0
 6057 0043 06       		.uleb128 0x6
 6058 0044 13       		.uleb128 0x13
 6059 0045 01       		.byte	0x1
 6060 0046 03       		.uleb128 0x3
 6061 0047 0E       		.uleb128 0xe
 6062 0048 0B       		.uleb128 0xb
 6063 0049 0B       		.uleb128 0xb
 6064 004a 3A       		.uleb128 0x3a
 6065 004b 0B       		.uleb128 0xb
 6066 004c 3B       		.uleb128 0x3b
ARM GAS  C:\Users\tant836\AppData\Local\Temp\ccXZYOJd.s 			page 119


 6067 004d 0B       		.uleb128 0xb
 6068 004e 01       		.uleb128 0x1
 6069 004f 13       		.uleb128 0x13
 6070 0050 00       		.byte	0
 6071 0051 00       		.byte	0
 6072 0052 07       		.uleb128 0x7
 6073 0053 0D       		.uleb128 0xd
 6074 0054 00       		.byte	0
 6075 0055 03       		.uleb128 0x3
 6076 0056 0E       		.uleb128 0xe
 6077 0057 3A       		.uleb128 0x3a
 6078 0058 0B       		.uleb128 0xb
 6079 0059 3B       		.uleb128 0x3b
 6080 005a 0B       		.uleb128 0xb
 6081 005b 49       		.uleb128 0x49
 6082 005c 13       		.uleb128 0x13
 6083 005d 38       		.uleb128 0x38
 6084 005e 0B       		.uleb128 0xb
 6085 005f 00       		.byte	0
 6086 0060 00       		.byte	0
 6087 0061 08       		.uleb128 0x8
 6088 0062 0D       		.uleb128 0xd
 6089 0063 00       		.byte	0
 6090 0064 03       		.uleb128 0x3
 6091 0065 08       		.uleb128 0x8
 6092 0066 3A       		.uleb128 0x3a
 6093 0067 0B       		.uleb128 0xb
 6094 0068 3B       		.uleb128 0x3b
 6095 0069 0B       		.uleb128 0xb
 6096 006a 49       		.uleb128 0x49
 6097 006b 13       		.uleb128 0x13
 6098 006c 38       		.uleb128 0x38
 6099 006d 0B       		.uleb128 0xb
 6100 006e 00       		.byte	0
 6101 006f 00       		.byte	0
 6102 0070 09       		.uleb128 0x9
 6103 0071 0F       		.uleb128 0xf
 6104 0072 00       		.byte	0
 6105 0073 0B       		.uleb128 0xb
 6106 0074 0B       		.uleb128 0xb
 6107 0075 49       		.uleb128 0x49
 6108 0076 13       		.uleb128 0x13
 6109 0077 00       		.byte	0
 6110 0078 00       		.byte	0
 6111 0079 0A       		.uleb128 0xa
 6112 007a 2E       		.uleb128 0x2e
 6113 007b 01       		.byte	0x1
 6114 007c 3F       		.uleb128 0x3f
 6115 007d 19       		.uleb128 0x19
 6116 007e 03       		.uleb128 0x3
 6117 007f 0E       		.uleb128 0xe
 6118 0080 3A       		.uleb128 0x3a
 6119 0081 0B       		.uleb128 0xb
 6120 0082 3B       		.uleb128 0x3b
 6121 0083 0B       		.uleb128 0xb
 6122 0084 27       		.uleb128 0x27
 6123 0085 19       		.uleb128 0x19
ARM GAS  C:\Users\tant836\AppData\Local\Temp\ccXZYOJd.s 			page 120


 6124 0086 49       		.uleb128 0x49
 6125 0087 13       		.uleb128 0x13
 6126 0088 11       		.uleb128 0x11
 6127 0089 01       		.uleb128 0x1
 6128 008a 12       		.uleb128 0x12
 6129 008b 06       		.uleb128 0x6
 6130 008c 40       		.uleb128 0x40
 6131 008d 18       		.uleb128 0x18
 6132 008e 9642     		.uleb128 0x2116
 6133 0090 19       		.uleb128 0x19
 6134 0091 01       		.uleb128 0x1
 6135 0092 13       		.uleb128 0x13
 6136 0093 00       		.byte	0
 6137 0094 00       		.byte	0
 6138 0095 0B       		.uleb128 0xb
 6139 0096 05       		.uleb128 0x5
 6140 0097 00       		.byte	0
 6141 0098 03       		.uleb128 0x3
 6142 0099 08       		.uleb128 0x8
 6143 009a 3A       		.uleb128 0x3a
 6144 009b 0B       		.uleb128 0xb
 6145 009c 3B       		.uleb128 0x3b
 6146 009d 0B       		.uleb128 0xb
 6147 009e 49       		.uleb128 0x49
 6148 009f 13       		.uleb128 0x13
 6149 00a0 02       		.uleb128 0x2
 6150 00a1 18       		.uleb128 0x18
 6151 00a2 00       		.byte	0
 6152 00a3 00       		.byte	0
 6153 00a4 0C       		.uleb128 0xc
 6154 00a5 05       		.uleb128 0x5
 6155 00a6 00       		.byte	0
 6156 00a7 03       		.uleb128 0x3
 6157 00a8 0E       		.uleb128 0xe
 6158 00a9 3A       		.uleb128 0x3a
 6159 00aa 0B       		.uleb128 0xb
 6160 00ab 3B       		.uleb128 0x3b
 6161 00ac 0B       		.uleb128 0xb
 6162 00ad 49       		.uleb128 0x49
 6163 00ae 13       		.uleb128 0x13
 6164 00af 02       		.uleb128 0x2
 6165 00b0 18       		.uleb128 0x18
 6166 00b1 00       		.byte	0
 6167 00b2 00       		.byte	0
 6168 00b3 0D       		.uleb128 0xd
 6169 00b4 34       		.uleb128 0x34
 6170 00b5 00       		.byte	0
 6171 00b6 03       		.uleb128 0x3
 6172 00b7 0E       		.uleb128 0xe
 6173 00b8 3A       		.uleb128 0x3a
 6174 00b9 0B       		.uleb128 0xb
 6175 00ba 3B       		.uleb128 0x3b
 6176 00bb 0B       		.uleb128 0xb
 6177 00bc 49       		.uleb128 0x49
 6178 00bd 13       		.uleb128 0x13
 6179 00be 02       		.uleb128 0x2
 6180 00bf 18       		.uleb128 0x18
ARM GAS  C:\Users\tant836\AppData\Local\Temp\ccXZYOJd.s 			page 121


 6181 00c0 00       		.byte	0
 6182 00c1 00       		.byte	0
 6183 00c2 0E       		.uleb128 0xe
 6184 00c3 34       		.uleb128 0x34
 6185 00c4 00       		.byte	0
 6186 00c5 03       		.uleb128 0x3
 6187 00c6 08       		.uleb128 0x8
 6188 00c7 3A       		.uleb128 0x3a
 6189 00c8 0B       		.uleb128 0xb
 6190 00c9 3B       		.uleb128 0x3b
 6191 00ca 0B       		.uleb128 0xb
 6192 00cb 49       		.uleb128 0x49
 6193 00cc 13       		.uleb128 0x13
 6194 00cd 02       		.uleb128 0x2
 6195 00ce 18       		.uleb128 0x18
 6196 00cf 00       		.byte	0
 6197 00d0 00       		.byte	0
 6198 00d1 0F       		.uleb128 0xf
 6199 00d2 0B       		.uleb128 0xb
 6200 00d3 01       		.byte	0x1
 6201 00d4 11       		.uleb128 0x11
 6202 00d5 01       		.uleb128 0x1
 6203 00d6 12       		.uleb128 0x12
 6204 00d7 06       		.uleb128 0x6
 6205 00d8 01       		.uleb128 0x1
 6206 00d9 13       		.uleb128 0x13
 6207 00da 00       		.byte	0
 6208 00db 00       		.byte	0
 6209 00dc 10       		.uleb128 0x10
 6210 00dd 0B       		.uleb128 0xb
 6211 00de 01       		.byte	0x1
 6212 00df 11       		.uleb128 0x11
 6213 00e0 01       		.uleb128 0x1
 6214 00e1 12       		.uleb128 0x12
 6215 00e2 06       		.uleb128 0x6
 6216 00e3 00       		.byte	0
 6217 00e4 00       		.byte	0
 6218 00e5 11       		.uleb128 0x11
 6219 00e6 01       		.uleb128 0x1
 6220 00e7 01       		.byte	0x1
 6221 00e8 49       		.uleb128 0x49
 6222 00e9 13       		.uleb128 0x13
 6223 00ea 01       		.uleb128 0x1
 6224 00eb 13       		.uleb128 0x13
 6225 00ec 00       		.byte	0
 6226 00ed 00       		.byte	0
 6227 00ee 12       		.uleb128 0x12
 6228 00ef 21       		.uleb128 0x21
 6229 00f0 00       		.byte	0
 6230 00f1 49       		.uleb128 0x49
 6231 00f2 13       		.uleb128 0x13
 6232 00f3 2F       		.uleb128 0x2f
 6233 00f4 0B       		.uleb128 0xb
 6234 00f5 00       		.byte	0
 6235 00f6 00       		.byte	0
 6236 00f7 13       		.uleb128 0x13
 6237 00f8 21       		.uleb128 0x21
ARM GAS  C:\Users\tant836\AppData\Local\Temp\ccXZYOJd.s 			page 122


 6238 00f9 00       		.byte	0
 6239 00fa 49       		.uleb128 0x49
 6240 00fb 13       		.uleb128 0x13
 6241 00fc 2F       		.uleb128 0x2f
 6242 00fd 05       		.uleb128 0x5
 6243 00fe 00       		.byte	0
 6244 00ff 00       		.byte	0
 6245 0100 14       		.uleb128 0x14
 6246 0101 34       		.uleb128 0x34
 6247 0102 00       		.byte	0
 6248 0103 03       		.uleb128 0x3
 6249 0104 08       		.uleb128 0x8
 6250 0105 3A       		.uleb128 0x3a
 6251 0106 0B       		.uleb128 0xb
 6252 0107 3B       		.uleb128 0x3b
 6253 0108 05       		.uleb128 0x5
 6254 0109 49       		.uleb128 0x49
 6255 010a 13       		.uleb128 0x13
 6256 010b 02       		.uleb128 0x2
 6257 010c 18       		.uleb128 0x18
 6258 010d 00       		.byte	0
 6259 010e 00       		.byte	0
 6260 010f 15       		.uleb128 0x15
 6261 0110 2E       		.uleb128 0x2e
 6262 0111 01       		.byte	0x1
 6263 0112 3F       		.uleb128 0x3f
 6264 0113 19       		.uleb128 0x19
 6265 0114 03       		.uleb128 0x3
 6266 0115 0E       		.uleb128 0xe
 6267 0116 3A       		.uleb128 0x3a
 6268 0117 0B       		.uleb128 0xb
 6269 0118 3B       		.uleb128 0x3b
 6270 0119 05       		.uleb128 0x5
 6271 011a 49       		.uleb128 0x49
 6272 011b 13       		.uleb128 0x13
 6273 011c 11       		.uleb128 0x11
 6274 011d 01       		.uleb128 0x1
 6275 011e 12       		.uleb128 0x12
 6276 011f 06       		.uleb128 0x6
 6277 0120 40       		.uleb128 0x40
 6278 0121 18       		.uleb128 0x18
 6279 0122 9642     		.uleb128 0x2116
 6280 0124 19       		.uleb128 0x19
 6281 0125 01       		.uleb128 0x1
 6282 0126 13       		.uleb128 0x13
 6283 0127 00       		.byte	0
 6284 0128 00       		.byte	0
 6285 0129 16       		.uleb128 0x16
 6286 012a 34       		.uleb128 0x34
 6287 012b 00       		.byte	0
 6288 012c 03       		.uleb128 0x3
 6289 012d 0E       		.uleb128 0xe
 6290 012e 3A       		.uleb128 0x3a
 6291 012f 0B       		.uleb128 0xb
 6292 0130 3B       		.uleb128 0x3b
 6293 0131 05       		.uleb128 0x5
 6294 0132 49       		.uleb128 0x49
ARM GAS  C:\Users\tant836\AppData\Local\Temp\ccXZYOJd.s 			page 123


 6295 0133 13       		.uleb128 0x13
 6296 0134 02       		.uleb128 0x2
 6297 0135 18       		.uleb128 0x18
 6298 0136 00       		.byte	0
 6299 0137 00       		.byte	0
 6300 0138 17       		.uleb128 0x17
 6301 0139 34       		.uleb128 0x34
 6302 013a 00       		.byte	0
 6303 013b 03       		.uleb128 0x3
 6304 013c 0E       		.uleb128 0xe
 6305 013d 3A       		.uleb128 0x3a
 6306 013e 0B       		.uleb128 0xb
 6307 013f 3B       		.uleb128 0x3b
 6308 0140 05       		.uleb128 0x5
 6309 0141 49       		.uleb128 0x49
 6310 0142 13       		.uleb128 0x13
 6311 0143 3F       		.uleb128 0x3f
 6312 0144 19       		.uleb128 0x19
 6313 0145 3C       		.uleb128 0x3c
 6314 0146 19       		.uleb128 0x19
 6315 0147 00       		.byte	0
 6316 0148 00       		.byte	0
 6317 0149 18       		.uleb128 0x18
 6318 014a 35       		.uleb128 0x35
 6319 014b 00       		.byte	0
 6320 014c 49       		.uleb128 0x49
 6321 014d 13       		.uleb128 0x13
 6322 014e 00       		.byte	0
 6323 014f 00       		.byte	0
 6324 0150 19       		.uleb128 0x19
 6325 0151 34       		.uleb128 0x34
 6326 0152 00       		.byte	0
 6327 0153 03       		.uleb128 0x3
 6328 0154 08       		.uleb128 0x8
 6329 0155 3A       		.uleb128 0x3a
 6330 0156 0B       		.uleb128 0xb
 6331 0157 3B       		.uleb128 0x3b
 6332 0158 0B       		.uleb128 0xb
 6333 0159 49       		.uleb128 0x49
 6334 015a 13       		.uleb128 0x13
 6335 015b 3F       		.uleb128 0x3f
 6336 015c 19       		.uleb128 0x19
 6337 015d 3C       		.uleb128 0x3c
 6338 015e 19       		.uleb128 0x19
 6339 015f 00       		.byte	0
 6340 0160 00       		.byte	0
 6341 0161 1A       		.uleb128 0x1a
 6342 0162 34       		.uleb128 0x34
 6343 0163 00       		.byte	0
 6344 0164 03       		.uleb128 0x3
 6345 0165 0E       		.uleb128 0xe
 6346 0166 3A       		.uleb128 0x3a
 6347 0167 0B       		.uleb128 0xb
 6348 0168 3B       		.uleb128 0x3b
 6349 0169 0B       		.uleb128 0xb
 6350 016a 49       		.uleb128 0x49
 6351 016b 13       		.uleb128 0x13
ARM GAS  C:\Users\tant836\AppData\Local\Temp\ccXZYOJd.s 			page 124


 6352 016c 3F       		.uleb128 0x3f
 6353 016d 19       		.uleb128 0x19
 6354 016e 3C       		.uleb128 0x3c
 6355 016f 19       		.uleb128 0x19
 6356 0170 00       		.byte	0
 6357 0171 00       		.byte	0
 6358 0172 1B       		.uleb128 0x1b
 6359 0173 34       		.uleb128 0x34
 6360 0174 00       		.byte	0
 6361 0175 03       		.uleb128 0x3
 6362 0176 0E       		.uleb128 0xe
 6363 0177 3A       		.uleb128 0x3a
 6364 0178 0B       		.uleb128 0xb
 6365 0179 3B       		.uleb128 0x3b
 6366 017a 0B       		.uleb128 0xb
 6367 017b 49       		.uleb128 0x49
 6368 017c 13       		.uleb128 0x13
 6369 017d 3F       		.uleb128 0x3f
 6370 017e 19       		.uleb128 0x19
 6371 017f 02       		.uleb128 0x2
 6372 0180 18       		.uleb128 0x18
 6373 0181 00       		.byte	0
 6374 0182 00       		.byte	0
 6375 0183 00       		.byte	0
 6376              		.section	.debug_aranges,"",%progbits
 6377 0000 34000000 		.4byte	0x34
 6378 0004 0200     		.2byte	0x2
 6379 0006 00000000 		.4byte	.Ldebug_info0
 6380 000a 04       		.byte	0x4
 6381 000b 00       		.byte	0
 6382 000c 0000     		.2byte	0
 6383 000e 0000     		.2byte	0
 6384 0010 00000000 		.4byte	.LFB63
 6385 0014 C80B0000 		.4byte	.LFE63-.LFB63
 6386 0018 00000000 		.4byte	.LFB64
 6387 001c 220A0000 		.4byte	.LFE64-.LFB64
 6388 0020 00000000 		.4byte	.LFB65
 6389 0024 9C0D0000 		.4byte	.LFE65-.LFB65
 6390 0028 00000000 		.4byte	.LFB66
 6391 002c 80060000 		.4byte	.LFE66-.LFB66
 6392 0030 00000000 		.4byte	0
 6393 0034 00000000 		.4byte	0
 6394              		.section	.debug_ranges,"",%progbits
 6395              	.Ldebug_ranges0:
 6396 0000 00000000 		.4byte	.LFB63
 6397 0004 C80B0000 		.4byte	.LFE63
 6398 0008 00000000 		.4byte	.LFB64
 6399 000c 220A0000 		.4byte	.LFE64
 6400 0010 00000000 		.4byte	.LFB65
 6401 0014 9C0D0000 		.4byte	.LFE65
 6402 0018 00000000 		.4byte	.LFB66
 6403 001c 80060000 		.4byte	.LFE66
 6404 0020 00000000 		.4byte	0
 6405 0024 00000000 		.4byte	0
 6406              		.section	.debug_line,"",%progbits
 6407              	.Ldebug_line0:
 6408 0000 AF060000 		.section	.debug_str,"MS",%progbits,1
ARM GAS  C:\Users\tant836\AppData\Local\Temp\ccXZYOJd.s 			page 125


 6408      02006101 
 6408      00000201 
 6408      FB0E0D00 
 6408      01010101 
 6409              	.LASF28:
 6410 0000 4E6F6465 		.ascii	"Nodes\000"
 6410      7300
 6411              	.LASF22:
 6412 0006 74656E74 		.ascii	"tentative_cost\000"
 6412      61746976 
 6412      655F636F 
 6412      737400
 6413              	.LASF31:
 6414 0015 6E657874 		.ascii	"nextNodes\000"
 6414      4E6F6465 
 6414      7300
 6415              	.LASF2:
 6416 001f 73686F72 		.ascii	"short int\000"
 6416      7420696E 
 6416      7400
 6417              	.LASF30:
 6418 0029 746F7461 		.ascii	"totalIterationCounter\000"
 6418      6C497465 
 6418      72617469 
 6418      6F6E436F 
 6418      756E7465 
 6419              	.LASF55:
 6420 003f 726F626F 		.ascii	"robot_direction\000"
 6420      745F6469 
 6420      72656374 
 6420      696F6E00 
 6421              	.LASF41:
 6422 004f 6861734E 		.ascii	"hasNext\000"
 6422      65787400 
 6423              	.LASF23:
 6424 0057 64697265 		.ascii	"direction\000"
 6424      6374696F 
 6424      6E00
 6425              	.LASF36:
 6426 0061 746D7043 		.ascii	"tmpCost\000"
 6426      6F737400 
 6427              	.LASF52:
 6428 0069 666F6F64 		.ascii	"food_count\000"
 6428      5F636F75 
 6428      6E7400
 6429              	.LASF17:
 6430 0074 75696E74 		.ascii	"uint16\000"
 6430      313600
 6431              	.LASF16:
 6432 007b 75696E74 		.ascii	"uint8\000"
 6432      3800
 6433              	.LASF19:
 6434 0081 76697369 		.ascii	"visited\000"
 6434      74656400 
 6435              	.LASF12:
 6436 0089 666C6F61 		.ascii	"float\000"
 6436      7400
ARM GAS  C:\Users\tant836\AppData\Local\Temp\ccXZYOJd.s 			page 126


 6437              	.LASF6:
 6438 008f 6C6F6E67 		.ascii	"long long int\000"
 6438      206C6F6E 
 6438      6720696E 
 6438      7400
 6439              	.LASF56:
 6440 009d 74726163 		.ascii	"tracked_direction\000"
 6440      6B65645F 
 6440      64697265 
 6440      6374696F 
 6440      6E00
 6441              	.LASF50:
 6442 00af 67656E65 		.ascii	"generateEntireMapDirections\000"
 6442      72617465 
 6442      456E7469 
 6442      72654D61 
 6442      70446972 
 6443              	.LASF59:
 6444 00cb 474E5520 		.ascii	"GNU C 4.9.3 20150303 (release) [ARM/embedded-4_9-br"
 6444      4320342E 
 6444      392E3320 
 6444      32303135 
 6444      30333033 
 6445 00fe 616E6368 		.ascii	"anch revision 221220] -mcpu=cortex-m3 -mthumb -g -O"
 6445      20726576 
 6445      6973696F 
 6445      6E203232 
 6445      31323230 
 6446 0131 30202D66 		.ascii	"0 -ffunction-sections -ffat-lto-objects\000"
 6446      66756E63 
 6446      74696F6E 
 6446      2D736563 
 6446      74696F6E 
 6447              	.LASF32:
 6448 0159 74656E74 		.ascii	"tentativeNode\000"
 6448      61746976 
 6448      654E6F64 
 6448      6500
 6449              	.LASF33:
 6450 0167 756E7265 		.ascii	"unreachable\000"
 6450      61636861 
 6450      626C6500 
 6451              	.LASF57:
 6452 0173 666F6F64 		.ascii	"food_length\000"
 6452      5F6C656E 
 6452      67746800 
 6453              	.LASF24:
 6454 017f 6E6F6465 		.ascii	"node\000"
 6454      00
 6455              	.LASF13:
 6456 0184 6C6F6E67 		.ascii	"long double\000"
 6456      20646F75 
 6456      626C6500 
 6457              	.LASF51:
 6458 0190 67656E65 		.ascii	"generateDirections\000"
 6458      72617465 
 6458      44697265 
ARM GAS  C:\Users\tant836\AppData\Local\Temp\ccXZYOJd.s 			page 127


 6458      6374696F 
 6458      6E7300
 6459              	.LASF1:
 6460 01a3 756E7369 		.ascii	"unsigned char\000"
 6460      676E6564 
 6460      20636861 
 6460      7200
 6461              	.LASF35:
 6462 01b1 636F756E 		.ascii	"counter\000"
 6462      74657200 
 6463              	.LASF0:
 6464 01b9 7369676E 		.ascii	"signed char\000"
 6464      65642063 
 6464      68617200 
 6465              	.LASF7:
 6466 01c5 6C6F6E67 		.ascii	"long long unsigned int\000"
 6466      206C6F6E 
 6466      6720756E 
 6466      7369676E 
 6466      65642069 
 6467              	.LASF42:
 6468 01dc 63757272 		.ascii	"currentNode\000"
 6468      656E744E 
 6468      6F646500 
 6469              	.LASF8:
 6470 01e8 756E7369 		.ascii	"unsigned int\000"
 6470      676E6564 
 6470      20696E74 
 6470      00
 6471              	.LASF61:
 6472 01f5 443A5C67 		.ascii	"D:\\gp1\\CS301-Team-Repo\\CS301_Class.cydsn\000"
 6472      70315C43 
 6472      53333031 
 6472      2D546561 
 6472      6D2D5265 
 6473              	.LASF5:
 6474 021e 6C6F6E67 		.ascii	"long unsigned int\000"
 6474      20756E73 
 6474      69676E65 
 6474      6420696E 
 6474      7400
 6475              	.LASF37:
 6476 0230 6E657874 		.ascii	"nextNode\000"
 6476      4E6F6465 
 6476      00
 6477              	.LASF40:
 6478 0239 6E657874 		.ascii	"nextNodeCost\000"
 6478      4E6F6465 
 6478      436F7374 
 6478      00
 6479              	.LASF26:
 6480 0246 73746172 		.ascii	"start\000"
 6480      7400
 6481              	.LASF34:
 6482 024c 636F726E 		.ascii	"corner_penalty\000"
 6482      65725F70 
 6482      656E616C 
ARM GAS  C:\Users\tant836\AppData\Local\Temp\ccXZYOJd.s 			page 128


 6482      747900
 6483              	.LASF49:
 6484 025b 696E7465 		.ascii	"inter_end\000"
 6484      725F656E 
 6484      6400
 6485              	.LASF44:
 6486 0265 44657074 		.ascii	"DepthFirst\000"
 6486      68466972 
 6486      737400
 6487              	.LASF60:
 6488 0270 2E5C7061 		.ascii	".\\pathfinder.c\000"
 6488      74686669 
 6488      6E646572 
 6488      2E6300
 6489              	.LASF10:
 6490 027f 63686172 		.ascii	"char\000"
 6490      00
 6491              	.LASF20:
 6492 0284 636F7374 		.ascii	"cost\000"
 6492      00
 6493              	.LASF4:
 6494 0289 6C6F6E67 		.ascii	"long int\000"
 6494      20696E74 
 6494      00
 6495              	.LASF15:
 6496 0292 696E7433 		.ascii	"int32_t\000"
 6496      325F7400 
 6497              	.LASF3:
 6498 029a 73686F72 		.ascii	"short unsigned int\000"
 6498      7420756E 
 6498      7369676E 
 6498      65642069 
 6498      6E7400
 6499              	.LASF39:
 6500 02ad 746D704E 		.ascii	"tmpNextNode\000"
 6500      6578744E 
 6500      6F646500 
 6501              	.LASF21:
 6502 02b9 70726576 		.ascii	"prevNode\000"
 6502      4E6F6465 
 6502      00
 6503              	.LASF46:
 6504 02c2 696E7465 		.ascii	"inter_path\000"
 6504      725F7061 
 6504      746800
 6505              	.LASF53:
 6506 02cd 6D657373 		.ascii	"message\000"
 6506      61676500 
 6507              	.LASF27:
 6508 02d5 64657374 		.ascii	"destination\000"
 6508      696E6174 
 6508      696F6E00 
 6509              	.LASF11:
 6510 02e1 646F7562 		.ascii	"double\000"
 6510      6C6500
 6511              	.LASF25:
 6512 02e8 666F6F64 		.ascii	"food_list\000"
ARM GAS  C:\Users\tant836\AppData\Local\Temp\ccXZYOJd.s 			page 129


 6512      5F6C6973 
 6512      7400
 6513              	.LASF45:
 6514 02f2 70617468 		.ascii	"path_couter\000"
 6514      5F636F75 
 6514      74657200 
 6515              	.LASF48:
 6516 02fe 696E7465 		.ascii	"inter_destination\000"
 6516      725F6465 
 6516      7374696E 
 6516      6174696F 
 6516      6E00
 6517              	.LASF47:
 6518 0310 696E7465 		.ascii	"inter_start\000"
 6518      725F7374 
 6518      61727400 
 6519              	.LASF14:
 6520 031c 5F5F696E 		.ascii	"__int32_t\000"
 6520      7433325F 
 6520      7400
 6521              	.LASF18:
 6522 0326 70617468 		.ascii	"path\000"
 6522      00
 6523              	.LASF9:
 6524 032b 73697A65 		.ascii	"sizetype\000"
 6524      74797065 
 6524      00
 6525              	.LASF29:
 6526 0334 63757272 		.ascii	"current\000"
 6526      656E7400 
 6527              	.LASF43:
 6528 033c 646A696B 		.ascii	"djikstras\000"
 6528      73747261 
 6528      7300
 6529              	.LASF54:
 6530 0346 49544D5F 		.ascii	"ITM_RxBuffer\000"
 6530      52784275 
 6530      66666572 
 6530      00
 6531              	.LASF38:
 6532 0353 6E657874 		.ascii	"nextNodeIndex\000"
 6532      4E6F6465 
 6532      496E6465 
 6532      7800
 6533              	.LASF58:
 6534 0361 696E7374 		.ascii	"instructions\000"
 6534      72756374 
 6534      696F6E73 
 6534      00
 6535              		.ident	"GCC: (GNU Tools for ARM Embedded Processors) 4.9.3 20150303 (release) [ARM/embedded-4_9-br
