ARM GAS  C:\Users\Logan\AppData\Local\Temp\ccWP3ZaE.s 			page 1


   1              		.syntax unified
   2              		.cpu cortex-m3
   3              		.fpu softvfp
   4              		.eabi_attribute 20, 1
   5              		.eabi_attribute 21, 1
   6              		.eabi_attribute 23, 3
   7              		.eabi_attribute 24, 1
   8              		.eabi_attribute 25, 1
   9              		.eabi_attribute 26, 1
  10              		.eabi_attribute 30, 6
  11              		.eabi_attribute 34, 1
  12              		.eabi_attribute 18, 4
  13              		.thumb
  14              		.file	"pathfinder.c"
  15              		.text
  16              	.Ltext0:
  17              		.cfi_sections	.debug_frame
  18              		.comm	tracked_direction,4,4
  19              		.section	.text.djikstras,"ax",%progbits
  20              		.align	2
  21              		.global	djikstras
  22              		.thumb
  23              		.thumb_func
  24              		.type	djikstras, %function
  25              	djikstras:
  26              	.LFB63:
  27              		.file 1 ".\\pathfinder.c"
   1:.\pathfinder.c **** #include "pathfinder.h"
   2:.\pathfinder.c **** //define the variables
   3:.\pathfinder.c **** #define VALUE_OF_FOOD 0 //penalty for going over food pellets.
   4:.\pathfinder.c **** #define DEFAULT_NODE_COST 10 //the cost of moving to a normal node.
   5:.\pathfinder.c **** #define CORNER_PENALTY 0 //penalty for changing direction.
   6:.\pathfinder.c **** #define PATH 0 //idicates weather the path is the 1s or the 0s.
   7:.\pathfinder.c **** 
   8:.\pathfinder.c **** 
   9:.\pathfinder.c **** 
  10:.\pathfinder.c **** #define STRAIGHT 'S'
  11:.\pathfinder.c **** #define LEFT 'L'
  12:.\pathfinder.c **** #define RIGHT 'R'
  13:.\pathfinder.c **** #define UTURN 'U'
  14:.\pathfinder.c **** #define DRIVE 'D'
  15:.\pathfinder.c **** 
  16:.\pathfinder.c **** #define INF_16 65535
  17:.\pathfinder.c **** 
  18:.\pathfinder.c **** #define VISITED 1
  19:.\pathfinder.c **** #define UNVISITED 0
  20:.\pathfinder.c **** 
  21:.\pathfinder.c **** #define X 1
  22:.\pathfinder.c **** #define Y 0
  23:.\pathfinder.c **** #define DIR 2
  24:.\pathfinder.c **** 
  25:.\pathfinder.c **** //struct for nodes
  26:.\pathfinder.c **** typedef struct node{
  27:.\pathfinder.c ****    uint32_t path;// 1
  28:.\pathfinder.c ****    uint32_t visited;// 2
  29:.\pathfinder.c ****    uint16 cost;// 6
  30:.\pathfinder.c ****    uint32_t x;
ARM GAS  C:\Users\Logan\AppData\Local\Temp\ccWP3ZaE.s 			page 2


  31:.\pathfinder.c ****    uint32_t y;
  32:.\pathfinder.c ****    struct node* prevNode;
  33:.\pathfinder.c ****    //uint32_t previous_y;// 4
  34:.\pathfinder.c ****    //uint32_t previous_x; // 5
  35:.\pathfinder.c ****    uint16 tentative_cost; // 3
  36:.\pathfinder.c ****    uint32_t direction;
  37:.\pathfinder.c **** } node;
  38:.\pathfinder.c **** 
  39:.\pathfinder.c **** /**pathfinding algorithm
  40:.\pathfinder.c **** * returns the length of the path array 0 if no path is found
  41:.\pathfinder.c **** * map - map to be searched through (needs size)
  42:.\pathfinder.c **** * food_list - list of food (needs size)
  43:.\pathfinder.c **** * path - will be filled with the path found by the algorithm
  44:.\pathfinder.c **** * start - is the start node duh
  45:.\pathfinder.c **** * destination - end node
  46:.\pathfinder.c **** * direction - the initial direction of the robot
  47:.\pathfinder.c **** */
  48:.\pathfinder.c **** uint32_t djikstras(uint32_t map[Y_SIZE][X_SIZE], uint32_t food_list[6][2], uint32_t path[DEFAULT_AR
  28              		.loc 1 48 0
  29              		.cfi_startproc
  30              		@ args = 4, pretend = 0, frame = 15616
  31              		@ frame_needed = 1, uses_anonymous_args = 0
  32 0000 B0B5     		push	{r4, r5, r7, lr}
  33              		.cfi_def_cfa_offset 16
  34              		.cfi_offset 4, -16
  35              		.cfi_offset 5, -12
  36              		.cfi_offset 7, -8
  37              		.cfi_offset 14, -4
  38 0002 ADF5745D 		sub	sp, sp, #15616
  39              		.cfi_def_cfa_offset 15632
  40 0006 00AF     		add	r7, sp, #0
  41              		.cfi_def_cfa_register 7
  42 0008 07F14004 		add	r4, r7, #64
  43 000c 343C     		subs	r4, r4, #52
  44 000e 2060     		str	r0, [r4]
  45 0010 07F14000 		add	r0, r7, #64
  46 0014 3838     		subs	r0, r0, #56
  47 0016 0160     		str	r1, [r0]
  48 0018 07F14001 		add	r1, r7, #64
  49 001c 3C39     		subs	r1, r1, #60
  50 001e 0A60     		str	r2, [r1]
  51 0020 3A46     		mov	r2, r7
  52 0022 1360     		str	r3, [r2]
  49:.\pathfinder.c ****    node Nodes[Y_SIZE][X_SIZE];
  50:.\pathfinder.c ****    //fill up the default information for each node
  51:.\pathfinder.c ****     uint32_t i;
  52:.\pathfinder.c ****    for(i = 0; i < Y_SIZE; i++){
  53              		.loc 1 52 0
  54 0024 0023     		movs	r3, #0
  55 0026 07F57352 		add	r2, r7, #15552
  56 002a 02F13C02 		add	r2, r2, #60
  57 002e 1360     		str	r3, [r2]
  58 0030 FEE0     		b	.L2
  59              	.L5:
  60              	.LBB2:
  53:.\pathfinder.c ****       uint32_t j;
  54:.\pathfinder.c ****       for(j = 0; j < X_SIZE; j++){
ARM GAS  C:\Users\Logan\AppData\Local\Temp\ccWP3ZaE.s 			page 3


  61              		.loc 1 54 0
  62 0032 0023     		movs	r3, #0
  63 0034 07F57352 		add	r2, r7, #15552
  64 0038 02F13802 		add	r2, r2, #56
  65 003c 1360     		str	r3, [r2]
  66 003e E4E0     		b	.L3
  67              	.L4:
  55:.\pathfinder.c ****             Nodes[i][j].path = map[i][j];//map information
  68              		.loc 1 55 0 discriminator 3
  69 0040 07F57353 		add	r3, r7, #15552
  70 0044 03F13C03 		add	r3, r3, #60
  71 0048 1B68     		ldr	r3, [r3]
  72 004a 4C22     		movs	r2, #76
  73 004c 02FB03F2 		mul	r2, r2, r3
  74 0050 07F14003 		add	r3, r7, #64
  75 0054 343B     		subs	r3, r3, #52
  76 0056 1B68     		ldr	r3, [r3]
  77 0058 1344     		add	r3, r3, r2
  78 005a 07F57352 		add	r2, r7, #15552
  79 005e 02F13802 		add	r2, r2, #56
  80 0062 1268     		ldr	r2, [r2]
  81 0064 53F82200 		ldr	r0, [r3, r2, lsl #2]
  82 0068 07F5CA52 		add	r2, r7, #6464
  83 006c 103A     		subs	r2, r2, #16
  84 006e 07F57353 		add	r3, r7, #15552
  85 0072 03F13C03 		add	r3, r3, #60
  86 0076 1968     		ldr	r1, [r3]
  87 0078 0B46     		mov	r3, r1
  88 007a DB00     		lsls	r3, r3, #3
  89 007c 0B44     		add	r3, r3, r1
  90 007e 5B00     		lsls	r3, r3, #1
  91 0080 0B44     		add	r3, r3, r1
  92 0082 07F57351 		add	r1, r7, #15552
  93 0086 01F13801 		add	r1, r1, #56
  94 008a 0968     		ldr	r1, [r1]
  95 008c 0B44     		add	r3, r3, r1
  96 008e 5B01     		lsls	r3, r3, #5
  97 0090 1344     		add	r3, r3, r2
  98 0092 1860     		str	r0, [r3]
  56:.\pathfinder.c ****             //printf("%d\n", map[i][j]);
  57:.\pathfinder.c ****             Nodes[i][j].visited = UNVISITED; //set all unvisited
  99              		.loc 1 57 0 discriminator 3
 100 0094 07F5CA52 		add	r2, r7, #6464
 101 0098 103A     		subs	r2, r2, #16
 102 009a 07F57353 		add	r3, r7, #15552
 103 009e 03F13C03 		add	r3, r3, #60
 104 00a2 1968     		ldr	r1, [r3]
 105 00a4 0B46     		mov	r3, r1
 106 00a6 DB00     		lsls	r3, r3, #3
 107 00a8 0B44     		add	r3, r3, r1
 108 00aa 5B00     		lsls	r3, r3, #1
 109 00ac 0B44     		add	r3, r3, r1
 110 00ae 07F57351 		add	r1, r7, #15552
 111 00b2 01F13801 		add	r1, r1, #56
 112 00b6 0968     		ldr	r1, [r1]
 113 00b8 0B44     		add	r3, r3, r1
 114 00ba 5B01     		lsls	r3, r3, #5
ARM GAS  C:\Users\Logan\AppData\Local\Temp\ccWP3ZaE.s 			page 4


 115 00bc 1344     		add	r3, r3, r2
 116 00be 0022     		movs	r2, #0
 117 00c0 5A60     		str	r2, [r3, #4]
  58:.\pathfinder.c ****             Nodes[i][j].cost = DEFAULT_NODE_COST; // seet the cost of going to this node to the def
 118              		.loc 1 58 0 discriminator 3
 119 00c2 07F5CA52 		add	r2, r7, #6464
 120 00c6 103A     		subs	r2, r2, #16
 121 00c8 07F57353 		add	r3, r7, #15552
 122 00cc 03F13C03 		add	r3, r3, #60
 123 00d0 1968     		ldr	r1, [r3]
 124 00d2 0B46     		mov	r3, r1
 125 00d4 DB00     		lsls	r3, r3, #3
 126 00d6 0B44     		add	r3, r3, r1
 127 00d8 5B00     		lsls	r3, r3, #1
 128 00da 0B44     		add	r3, r3, r1
 129 00dc 07F57351 		add	r1, r7, #15552
 130 00e0 01F13801 		add	r1, r1, #56
 131 00e4 0968     		ldr	r1, [r1]
 132 00e6 0B44     		add	r3, r3, r1
 133 00e8 5B01     		lsls	r3, r3, #5
 134 00ea 1344     		add	r3, r3, r2
 135 00ec 0833     		adds	r3, r3, #8
 136 00ee 0A22     		movs	r2, #10
 137 00f0 1A80     		strh	r2, [r3]	@ movhi
  59:.\pathfinder.c ****             Nodes[i][j].y = i;
 138              		.loc 1 59 0 discriminator 3
 139 00f2 07F5CA52 		add	r2, r7, #6464
 140 00f6 103A     		subs	r2, r2, #16
 141 00f8 07F57353 		add	r3, r7, #15552
 142 00fc 03F13C03 		add	r3, r3, #60
 143 0100 1968     		ldr	r1, [r3]
 144 0102 0B46     		mov	r3, r1
 145 0104 DB00     		lsls	r3, r3, #3
 146 0106 0B44     		add	r3, r3, r1
 147 0108 5B00     		lsls	r3, r3, #1
 148 010a 0B44     		add	r3, r3, r1
 149 010c 07F57351 		add	r1, r7, #15552
 150 0110 01F13801 		add	r1, r1, #56
 151 0114 0968     		ldr	r1, [r1]
 152 0116 0B44     		add	r3, r3, r1
 153 0118 5B01     		lsls	r3, r3, #5
 154 011a 1344     		add	r3, r3, r2
 155 011c 1033     		adds	r3, r3, #16
 156 011e 07F57352 		add	r2, r7, #15552
 157 0122 02F13C02 		add	r2, r2, #60
 158 0126 1268     		ldr	r2, [r2]
 159 0128 1A60     		str	r2, [r3]
  60:.\pathfinder.c ****             Nodes[i][j].x = j;
 160              		.loc 1 60 0 discriminator 3
 161 012a 07F5CA52 		add	r2, r7, #6464
 162 012e 103A     		subs	r2, r2, #16
 163 0130 07F57353 		add	r3, r7, #15552
 164 0134 03F13C03 		add	r3, r3, #60
 165 0138 1968     		ldr	r1, [r3]
 166 013a 0B46     		mov	r3, r1
 167 013c DB00     		lsls	r3, r3, #3
 168 013e 0B44     		add	r3, r3, r1
ARM GAS  C:\Users\Logan\AppData\Local\Temp\ccWP3ZaE.s 			page 5


 169 0140 5B00     		lsls	r3, r3, #1
 170 0142 0B44     		add	r3, r3, r1
 171 0144 07F57351 		add	r1, r7, #15552
 172 0148 01F13801 		add	r1, r1, #56
 173 014c 0968     		ldr	r1, [r1]
 174 014e 0B44     		add	r3, r3, r1
 175 0150 5B01     		lsls	r3, r3, #5
 176 0152 1344     		add	r3, r3, r2
 177 0154 0833     		adds	r3, r3, #8
 178 0156 07F57352 		add	r2, r7, #15552
 179 015a 02F13802 		add	r2, r2, #56
 180 015e 1268     		ldr	r2, [r2]
 181 0160 5A60     		str	r2, [r3, #4]
  61:.\pathfinder.c ****             Nodes[i][j].prevNode = 0;
 182              		.loc 1 61 0 discriminator 3
 183 0162 07F5CA52 		add	r2, r7, #6464
 184 0166 103A     		subs	r2, r2, #16
 185 0168 07F57353 		add	r3, r7, #15552
 186 016c 03F13C03 		add	r3, r3, #60
 187 0170 1968     		ldr	r1, [r3]
 188 0172 0B46     		mov	r3, r1
 189 0174 DB00     		lsls	r3, r3, #3
 190 0176 0B44     		add	r3, r3, r1
 191 0178 5B00     		lsls	r3, r3, #1
 192 017a 0B44     		add	r3, r3, r1
 193 017c 07F57351 		add	r1, r7, #15552
 194 0180 01F13801 		add	r1, r1, #56
 195 0184 0968     		ldr	r1, [r1]
 196 0186 0B44     		add	r3, r3, r1
 197 0188 5B01     		lsls	r3, r3, #5
 198 018a 1344     		add	r3, r3, r2
 199 018c 1033     		adds	r3, r3, #16
 200 018e 0022     		movs	r2, #0
 201 0190 5A60     		str	r2, [r3, #4]
  62:.\pathfinder.c ****             Nodes[i][j].tentative_cost = INF_16;// set the current cost to infinity
 202              		.loc 1 62 0 discriminator 3
 203 0192 07F5CA52 		add	r2, r7, #6464
 204 0196 103A     		subs	r2, r2, #16
 205 0198 07F57353 		add	r3, r7, #15552
 206 019c 03F13C03 		add	r3, r3, #60
 207 01a0 1968     		ldr	r1, [r3]
 208 01a2 0B46     		mov	r3, r1
 209 01a4 DB00     		lsls	r3, r3, #3
 210 01a6 0B44     		add	r3, r3, r1
 211 01a8 5B00     		lsls	r3, r3, #1
 212 01aa 0B44     		add	r3, r3, r1
 213 01ac 07F57351 		add	r1, r7, #15552
 214 01b0 01F13801 		add	r1, r1, #56
 215 01b4 0968     		ldr	r1, [r1]
 216 01b6 0B44     		add	r3, r3, r1
 217 01b8 5B01     		lsls	r3, r3, #5
 218 01ba 1344     		add	r3, r3, r2
 219 01bc 1833     		adds	r3, r3, #24
 220 01be 4FF6FF72 		movw	r2, #65535
 221 01c2 1A80     		strh	r2, [r3]	@ movhi
  63:.\pathfinder.c ****             Nodes[i][j].direction = 0;
 222              		.loc 1 63 0 discriminator 3
ARM GAS  C:\Users\Logan\AppData\Local\Temp\ccWP3ZaE.s 			page 6


 223 01c4 07F5CA52 		add	r2, r7, #6464
 224 01c8 103A     		subs	r2, r2, #16
 225 01ca 07F57353 		add	r3, r7, #15552
 226 01ce 03F13C03 		add	r3, r3, #60
 227 01d2 1968     		ldr	r1, [r3]
 228 01d4 0B46     		mov	r3, r1
 229 01d6 DB00     		lsls	r3, r3, #3
 230 01d8 0B44     		add	r3, r3, r1
 231 01da 5B00     		lsls	r3, r3, #1
 232 01dc 0B44     		add	r3, r3, r1
 233 01de 07F57351 		add	r1, r7, #15552
 234 01e2 01F13801 		add	r1, r1, #56
 235 01e6 0968     		ldr	r1, [r1]
 236 01e8 0B44     		add	r3, r3, r1
 237 01ea 5B01     		lsls	r3, r3, #5
 238 01ec 1344     		add	r3, r3, r2
 239 01ee 1833     		adds	r3, r3, #24
 240 01f0 0022     		movs	r2, #0
 241 01f2 5A60     		str	r2, [r3, #4]
  54:.\pathfinder.c ****             Nodes[i][j].path = map[i][j];//map information
 242              		.loc 1 54 0 discriminator 3
 243 01f4 07F57353 		add	r3, r7, #15552
 244 01f8 03F13803 		add	r3, r3, #56
 245 01fc 1B68     		ldr	r3, [r3]
 246 01fe 0133     		adds	r3, r3, #1
 247 0200 07F57352 		add	r2, r7, #15552
 248 0204 02F13802 		add	r2, r2, #56
 249 0208 1360     		str	r3, [r2]
 250              	.L3:
  54:.\pathfinder.c ****             Nodes[i][j].path = map[i][j];//map information
 251              		.loc 1 54 0 is_stmt 0 discriminator 1
 252 020a 07F57353 		add	r3, r7, #15552
 253 020e 03F13803 		add	r3, r3, #56
 254 0212 1B68     		ldr	r3, [r3]
 255 0214 122B     		cmp	r3, #18
 256 0216 7FF613AF 		bls	.L4
 257              	.LBE2:
  52:.\pathfinder.c ****       uint32_t j;
 258              		.loc 1 52 0 is_stmt 1 discriminator 2
 259 021a 07F57353 		add	r3, r7, #15552
 260 021e 03F13C03 		add	r3, r3, #60
 261 0222 1B68     		ldr	r3, [r3]
 262 0224 0133     		adds	r3, r3, #1
 263 0226 07F57352 		add	r2, r7, #15552
 264 022a 02F13C02 		add	r2, r2, #60
 265 022e 1360     		str	r3, [r2]
 266              	.L2:
  52:.\pathfinder.c ****       uint32_t j;
 267              		.loc 1 52 0 is_stmt 0 discriminator 1
 268 0230 07F57353 		add	r3, r7, #15552
 269 0234 03F13C03 		add	r3, r3, #60
 270 0238 1B68     		ldr	r3, [r3]
 271 023a 0E2B     		cmp	r3, #14
 272 023c 7FF6F9AE 		bls	.L5
  64:.\pathfinder.c ****       }
  65:.\pathfinder.c ****    }
  66:.\pathfinder.c **** 
ARM GAS  C:\Users\Logan\AppData\Local\Temp\ccWP3ZaE.s 			page 7


  67:.\pathfinder.c **** 
  68:.\pathfinder.c ****    uint32_t current[2];
  69:.\pathfinder.c ****    //memcpy(current, start, sizeof(current));//because nothing works in c the way you want it to
  70:.\pathfinder.c ****    current[Y] = start[Y];
 273              		.loc 1 70 0 is_stmt 1
 274 0240 3B46     		mov	r3, r7
 275 0242 1B68     		ldr	r3, [r3]
 276 0244 1A68     		ldr	r2, [r3]
 277 0246 07F5CA53 		add	r3, r7, #6464
 278 024a 183B     		subs	r3, r3, #24
 279 024c 1A60     		str	r2, [r3]
  71:.\pathfinder.c ****    current[X] = start[X];
 280              		.loc 1 71 0
 281 024e 3B46     		mov	r3, r7
 282 0250 1B68     		ldr	r3, [r3]
 283 0252 5A68     		ldr	r2, [r3, #4]
 284 0254 07F5CA53 		add	r3, r7, #6464
 285 0258 183B     		subs	r3, r3, #24
 286 025a 5A60     		str	r2, [r3, #4]
  72:.\pathfinder.c ****    uint32_t totalIterationCounter = 0;
 287              		.loc 1 72 0
 288 025c 0023     		movs	r3, #0
 289 025e 07F57352 		add	r2, r7, #15552
 290 0262 02F13402 		add	r2, r2, #52
 291 0266 1360     		str	r3, [r2]
  73:.\pathfinder.c ****    uint32_t nextNodes[DEFAULT_ARRAY_SIZE][2] = {0};
 292              		.loc 1 73 0
 293 0268 07F14003 		add	r3, r7, #64
 294 026c 183B     		subs	r3, r3, #24
 295 026e 1A46     		mov	r2, r3
 296 0270 4FF4C853 		mov	r3, #6400
 297 0274 1046     		mov	r0, r2
 298 0276 0021     		movs	r1, #0
 299 0278 1A46     		mov	r2, r3
 300 027a FFF7FEFF 		bl	memset
  74:.\pathfinder.c ****    //uint32_t nextNodesDirection[DEFAULT_ARRAY_SIZE] = {0};
  75:.\pathfinder.c ****    uint32_t tentativeNode[2] = {0};//x and y coordinate of the next node
 301              		.loc 1 75 0
 302 027e 07F14003 		add	r3, r7, #64
 303 0282 203B     		subs	r3, r3, #32
 304 0284 0022     		movs	r2, #0
 305 0286 1A60     		str	r2, [r3]
 306 0288 0022     		movs	r2, #0
 307 028a 5A60     		str	r2, [r3, #4]
  76:.\pathfinder.c ****    uint32_t unreachable = 0;
 308              		.loc 1 76 0
 309 028c 0023     		movs	r3, #0
 310 028e 07F57352 		add	r2, r7, #15552
 311 0292 02F11402 		add	r2, r2, #20
 312 0296 1360     		str	r3, [r2]
  77:.\pathfinder.c ****    uint32_t corner_penalty = 0;
 313              		.loc 1 77 0
 314 0298 0023     		movs	r3, #0
 315 029a 07F57352 		add	r2, r7, #15552
 316 029e 02F13002 		add	r2, r2, #48
 317 02a2 1360     		str	r3, [r2]
  78:.\pathfinder.c ****    uint32_t counter = 0;
ARM GAS  C:\Users\Logan\AppData\Local\Temp\ccWP3ZaE.s 			page 8


 318              		.loc 1 78 0
 319 02a4 0023     		movs	r3, #0
 320 02a6 07F57352 		add	r2, r7, #15552
 321 02aa 02F12C02 		add	r2, r2, #44
 322 02ae 1360     		str	r3, [r2]
  79:.\pathfinder.c ****    uint16 tmpCost = 0;
 323              		.loc 1 79 0
 324 02b0 0023     		movs	r3, #0
 325 02b2 07F57352 		add	r2, r7, #15552
 326 02b6 02F11202 		add	r2, r2, #18
 327 02ba 1380     		strh	r3, [r2]	@ movhi
  80:.\pathfinder.c ****    uint32_t nextNode[2] = {0, 0};
 328              		.loc 1 80 0
 329 02bc 07F14003 		add	r3, r7, #64
 330 02c0 283B     		subs	r3, r3, #40
 331 02c2 0022     		movs	r2, #0
 332 02c4 1A60     		str	r2, [r3]
 333 02c6 07F14003 		add	r3, r7, #64
 334 02ca 283B     		subs	r3, r3, #40
 335 02cc 0022     		movs	r2, #0
 336 02ce 5A60     		str	r2, [r3, #4]
  81:.\pathfinder.c ****    uint32_t nextNodeIndex = 0;
 337              		.loc 1 81 0
 338 02d0 0023     		movs	r3, #0
 339 02d2 07F57352 		add	r2, r7, #15552
 340 02d6 02F12802 		add	r2, r2, #40
 341 02da 1360     		str	r3, [r2]
  82:.\pathfinder.c ****    uint32_t tmpNextNode[2] = {0};
 342              		.loc 1 82 0
 343 02dc 07F14003 		add	r3, r7, #64
 344 02e0 303B     		subs	r3, r3, #48
 345 02e2 0022     		movs	r2, #0
 346 02e4 1A60     		str	r2, [r3]
 347 02e6 0022     		movs	r2, #0
 348 02e8 5A60     		str	r2, [r3, #4]
  83:.\pathfinder.c ****    uint16 nextNodeCost = 0;
 349              		.loc 1 83 0
 350 02ea 0023     		movs	r3, #0
 351 02ec 07F57352 		add	r2, r7, #15552
 352 02f0 02F12602 		add	r2, r2, #38
 353 02f4 1380     		strh	r3, [r2]	@ movhi
  84:.\pathfinder.c ****    uint32_t hasNext = 1;
 354              		.loc 1 84 0
 355 02f6 0123     		movs	r3, #1
 356 02f8 07F57352 		add	r2, r7, #15552
 357 02fc 02F12002 		add	r2, r2, #32
 358 0300 1360     		str	r3, [r2]
  85:.\pathfinder.c **** 
  86:.\pathfinder.c ****    Nodes[current[Y]][current[X]].tentative_cost = 0;
 359              		.loc 1 86 0
 360 0302 07F5CA53 		add	r3, r7, #6464
 361 0306 183B     		subs	r3, r3, #24
 362 0308 1968     		ldr	r1, [r3]
 363 030a 07F5CA53 		add	r3, r7, #6464
 364 030e 183B     		subs	r3, r3, #24
 365 0310 5868     		ldr	r0, [r3, #4]
 366 0312 07F5CA52 		add	r2, r7, #6464
ARM GAS  C:\Users\Logan\AppData\Local\Temp\ccWP3ZaE.s 			page 9


 367 0316 103A     		subs	r2, r2, #16
 368 0318 0B46     		mov	r3, r1
 369 031a DB00     		lsls	r3, r3, #3
 370 031c 0B44     		add	r3, r3, r1
 371 031e 5B00     		lsls	r3, r3, #1
 372 0320 0B44     		add	r3, r3, r1
 373 0322 0344     		add	r3, r3, r0
 374 0324 5B01     		lsls	r3, r3, #5
 375 0326 1344     		add	r3, r3, r2
 376 0328 1833     		adds	r3, r3, #24
 377 032a 0022     		movs	r2, #0
 378 032c 1A80     		strh	r2, [r3]	@ movhi
  87:.\pathfinder.c ****    Nodes[current[Y]][current[X]].prevNode = &Nodes[current[Y]][current[X]];
 379              		.loc 1 87 0
 380 032e 07F5CA53 		add	r3, r7, #6464
 381 0332 183B     		subs	r3, r3, #24
 382 0334 1968     		ldr	r1, [r3]
 383 0336 07F5CA53 		add	r3, r7, #6464
 384 033a 183B     		subs	r3, r3, #24
 385 033c 5C68     		ldr	r4, [r3, #4]
 386 033e 07F5CA53 		add	r3, r7, #6464
 387 0342 183B     		subs	r3, r3, #24
 388 0344 1868     		ldr	r0, [r3]
 389 0346 07F5CA53 		add	r3, r7, #6464
 390 034a 183B     		subs	r3, r3, #24
 391 034c 5D68     		ldr	r5, [r3, #4]
 392 034e 07F5CA52 		add	r2, r7, #6464
 393 0352 103A     		subs	r2, r2, #16
 394 0354 0346     		mov	r3, r0
 395 0356 DB00     		lsls	r3, r3, #3
 396 0358 0344     		add	r3, r3, r0
 397 035a 5B00     		lsls	r3, r3, #1
 398 035c 0344     		add	r3, r3, r0
 399 035e 2B44     		add	r3, r3, r5
 400 0360 5B01     		lsls	r3, r3, #5
 401 0362 D018     		adds	r0, r2, r3
 402 0364 07F5CA52 		add	r2, r7, #6464
 403 0368 103A     		subs	r2, r2, #16
 404 036a 0B46     		mov	r3, r1
 405 036c DB00     		lsls	r3, r3, #3
 406 036e 0B44     		add	r3, r3, r1
 407 0370 5B00     		lsls	r3, r3, #1
 408 0372 0B44     		add	r3, r3, r1
 409 0374 2344     		add	r3, r3, r4
 410 0376 5B01     		lsls	r3, r3, #5
 411 0378 1344     		add	r3, r3, r2
 412 037a 1033     		adds	r3, r3, #16
 413 037c 5860     		str	r0, [r3, #4]
  88:.\pathfinder.c ****    Nodes[current[Y]][current[X]].direction = robot_direction;
 414              		.loc 1 88 0
 415 037e 07F5CA53 		add	r3, r7, #6464
 416 0382 183B     		subs	r3, r3, #24
 417 0384 1968     		ldr	r1, [r3]
 418 0386 07F5CA53 		add	r3, r7, #6464
 419 038a 183B     		subs	r3, r3, #24
 420 038c 5C68     		ldr	r4, [r3, #4]
 421 038e 3E4B     		ldr	r3, .L26
ARM GAS  C:\Users\Logan\AppData\Local\Temp\ccWP3ZaE.s 			page 10


 422 0390 1868     		ldr	r0, [r3]
 423 0392 07F5CA52 		add	r2, r7, #6464
 424 0396 103A     		subs	r2, r2, #16
 425 0398 0B46     		mov	r3, r1
 426 039a DB00     		lsls	r3, r3, #3
 427 039c 0B44     		add	r3, r3, r1
 428 039e 5B00     		lsls	r3, r3, #1
 429 03a0 0B44     		add	r3, r3, r1
 430 03a2 2344     		add	r3, r3, r4
 431 03a4 5B01     		lsls	r3, r3, #5
 432 03a6 1344     		add	r3, r3, r2
 433 03a8 1833     		adds	r3, r3, #24
 434 03aa 5860     		str	r0, [r3, #4]
  89:.\pathfinder.c **** 
  90:.\pathfinder.c ****    //early exit, run until x and y are equal
  91:.\pathfinder.c ****    while(!((current[Y] == destination[Y]) && (current[X] == destination[X])) && hasNext == 1){
 435              		.loc 1 91 0
 436 03ac A8E2     		b	.L6
 437              	.L20:
 438              	.LBB3:
  92:.\pathfinder.c ****       counter = 1;
 439              		.loc 1 92 0
 440 03ae 0123     		movs	r3, #1
 441 03b0 07F57352 		add	r2, r7, #15552
 442 03b4 02F12C02 		add	r2, r2, #44
 443 03b8 1360     		str	r3, [r2]
  93:.\pathfinder.c ****       Nodes[current[Y]][current[1]].visited = VISITED; // set visitetd to true
 444              		.loc 1 93 0
 445 03ba 07F5CA53 		add	r3, r7, #6464
 446 03be 183B     		subs	r3, r3, #24
 447 03c0 1968     		ldr	r1, [r3]
 448 03c2 07F5CA53 		add	r3, r7, #6464
 449 03c6 183B     		subs	r3, r3, #24
 450 03c8 5868     		ldr	r0, [r3, #4]
 451 03ca 07F5CA52 		add	r2, r7, #6464
 452 03ce 103A     		subs	r2, r2, #16
 453 03d0 0B46     		mov	r3, r1
 454 03d2 DB00     		lsls	r3, r3, #3
 455 03d4 0B44     		add	r3, r3, r1
 456 03d6 5B00     		lsls	r3, r3, #1
 457 03d8 0B44     		add	r3, r3, r1
 458 03da 0344     		add	r3, r3, r0
 459 03dc 5B01     		lsls	r3, r3, #5
 460 03de 1344     		add	r3, r3, r2
 461 03e0 0122     		movs	r2, #1
 462 03e2 5A60     		str	r2, [r3, #4]
  94:.\pathfinder.c ****       //printf("main loop %d | X: %d | Y: %d\n", Nodes[current[0]][current[1]].visited, Nodes[curre
  95:.\pathfinder.c ****       while(counter <= 4){
 463              		.loc 1 95 0
 464 03e4 82E1     		b	.L7
 465              	.L14:
  96:.\pathfinder.c ****          corner_penalty = 0;
 466              		.loc 1 96 0
 467 03e6 0023     		movs	r3, #0
 468 03e8 07F57352 		add	r2, r7, #15552
 469 03ec 02F13002 		add	r2, r2, #48
 470 03f0 1360     		str	r3, [r2]
ARM GAS  C:\Users\Logan\AppData\Local\Temp\ccWP3ZaE.s 			page 11


  97:.\pathfinder.c ****          if(counter == 1){
 471              		.loc 1 97 0
 472 03f2 07F57353 		add	r3, r7, #15552
 473 03f6 03F12C03 		add	r3, r3, #44
 474 03fa 1B68     		ldr	r3, [r3]
 475 03fc 012B     		cmp	r3, #1
 476 03fe 11D1     		bne	.L8
  98:.\pathfinder.c ****             tentativeNode[Y] = current[Y] - 1;
 477              		.loc 1 98 0
 478 0400 07F5CA53 		add	r3, r7, #6464
 479 0404 183B     		subs	r3, r3, #24
 480 0406 1B68     		ldr	r3, [r3]
 481 0408 5A1E     		subs	r2, r3, #1
 482 040a 07F14003 		add	r3, r7, #64
 483 040e 203B     		subs	r3, r3, #32
 484 0410 1A60     		str	r2, [r3]
  99:.\pathfinder.c ****             tentativeNode[X] = current[X];
 485              		.loc 1 99 0
 486 0412 07F5CA53 		add	r3, r7, #6464
 487 0416 183B     		subs	r3, r3, #24
 488 0418 5A68     		ldr	r2, [r3, #4]
 489 041a 07F14003 		add	r3, r7, #64
 490 041e 203B     		subs	r3, r3, #32
 491 0420 5A60     		str	r2, [r3, #4]
 492 0422 4BE0     		b	.L9
 493              	.L8:
 100:.\pathfinder.c ****          }else if(counter == 2){
 494              		.loc 1 100 0
 495 0424 07F57353 		add	r3, r7, #15552
 496 0428 03F12C03 		add	r3, r3, #44
 497 042c 1B68     		ldr	r3, [r3]
 498 042e 022B     		cmp	r3, #2
 499 0430 11D1     		bne	.L10
 101:.\pathfinder.c ****             tentativeNode[Y] = current[Y];
 500              		.loc 1 101 0
 501 0432 07F5CA53 		add	r3, r7, #6464
 502 0436 183B     		subs	r3, r3, #24
 503 0438 1A68     		ldr	r2, [r3]
 504 043a 07F14003 		add	r3, r7, #64
 505 043e 203B     		subs	r3, r3, #32
 506 0440 1A60     		str	r2, [r3]
 102:.\pathfinder.c ****             tentativeNode[X] = current[X] + 1;
 507              		.loc 1 102 0
 508 0442 07F5CA53 		add	r3, r7, #6464
 509 0446 183B     		subs	r3, r3, #24
 510 0448 5B68     		ldr	r3, [r3, #4]
 511 044a 5A1C     		adds	r2, r3, #1
 512 044c 07F14003 		add	r3, r7, #64
 513 0450 203B     		subs	r3, r3, #32
 514 0452 5A60     		str	r2, [r3, #4]
 515 0454 32E0     		b	.L9
 516              	.L10:
 103:.\pathfinder.c ****          }else if(counter == 3){
 517              		.loc 1 103 0
 518 0456 07F57353 		add	r3, r7, #15552
 519 045a 03F12C03 		add	r3, r3, #44
 520 045e 1B68     		ldr	r3, [r3]
ARM GAS  C:\Users\Logan\AppData\Local\Temp\ccWP3ZaE.s 			page 12


 521 0460 032B     		cmp	r3, #3
 522 0462 13D1     		bne	.L11
 104:.\pathfinder.c ****             tentativeNode[Y] = current[Y] + 1;
 523              		.loc 1 104 0
 524 0464 07F5CA53 		add	r3, r7, #6464
 525 0468 183B     		subs	r3, r3, #24
 526 046a 1B68     		ldr	r3, [r3]
 527 046c 5A1C     		adds	r2, r3, #1
 528 046e 07F14003 		add	r3, r7, #64
 529 0472 203B     		subs	r3, r3, #32
 530 0474 1A60     		str	r2, [r3]
 105:.\pathfinder.c ****             tentativeNode[X] = current[X];
 531              		.loc 1 105 0
 532 0476 07F5CA53 		add	r3, r7, #6464
 533 047a 183B     		subs	r3, r3, #24
 534 047c 5A68     		ldr	r2, [r3, #4]
 535 047e 07F14003 		add	r3, r7, #64
 536 0482 203B     		subs	r3, r3, #32
 537 0484 5A60     		str	r2, [r3, #4]
 538 0486 19E0     		b	.L9
 539              	.L27:
 540              		.align	2
 541              	.L26:
 542 0488 00000000 		.word	robot_direction
 543              	.L11:
 106:.\pathfinder.c ****          }else if(counter == 4){
 544              		.loc 1 106 0
 545 048c 07F57353 		add	r3, r7, #15552
 546 0490 03F12C03 		add	r3, r3, #44
 547 0494 1B68     		ldr	r3, [r3]
 548 0496 042B     		cmp	r3, #4
 549 0498 10D1     		bne	.L9
 107:.\pathfinder.c ****             tentativeNode[Y] = current[Y];
 550              		.loc 1 107 0
 551 049a 07F5CA53 		add	r3, r7, #6464
 552 049e 183B     		subs	r3, r3, #24
 553 04a0 1A68     		ldr	r2, [r3]
 554 04a2 07F14003 		add	r3, r7, #64
 555 04a6 203B     		subs	r3, r3, #32
 556 04a8 1A60     		str	r2, [r3]
 108:.\pathfinder.c ****             tentativeNode[X] = current[X] - 1;
 557              		.loc 1 108 0
 558 04aa 07F5CA53 		add	r3, r7, #6464
 559 04ae 183B     		subs	r3, r3, #24
 560 04b0 5B68     		ldr	r3, [r3, #4]
 561 04b2 5A1E     		subs	r2, r3, #1
 562 04b4 07F14003 		add	r3, r7, #64
 563 04b8 203B     		subs	r3, r3, #32
 564 04ba 5A60     		str	r2, [r3, #4]
 565              	.L9:
 109:.\pathfinder.c ****          }
 110:.\pathfinder.c ****          if(counter != robot_direction){
 566              		.loc 1 110 0
 567 04bc 994B     		ldr	r3, .L28
 568 04be 1B68     		ldr	r3, [r3]
 569 04c0 07F57352 		add	r2, r7, #15552
 570 04c4 02F12C02 		add	r2, r2, #44
ARM GAS  C:\Users\Logan\AppData\Local\Temp\ccWP3ZaE.s 			page 13


 571 04c8 1268     		ldr	r2, [r2]
 572 04ca 9A42     		cmp	r2, r3
 573 04cc 05D0     		beq	.L12
 111:.\pathfinder.c ****             corner_penalty = CORNER_PENALTY;
 574              		.loc 1 111 0
 575 04ce 0023     		movs	r3, #0
 576 04d0 07F57352 		add	r2, r7, #15552
 577 04d4 02F13002 		add	r2, r2, #48
 578 04d8 1360     		str	r3, [r2]
 579              	.L12:
 112:.\pathfinder.c ****          }
 113:.\pathfinder.c **** 
 114:.\pathfinder.c ****          if(tentativeNode[Y] >= 0 && tentativeNode[X] >= 0 && tentativeNode[Y] <= Y_SIZE && tentati
 580              		.loc 1 114 0
 581 04da 07F14003 		add	r3, r7, #64
 582 04de 203B     		subs	r3, r3, #32
 583 04e0 1B68     		ldr	r3, [r3]
 584 04e2 0F2B     		cmp	r3, #15
 585 04e4 00F2F780 		bhi	.L13
 586              		.loc 1 114 0 is_stmt 0 discriminator 1
 587 04e8 07F14003 		add	r3, r7, #64
 588 04ec 203B     		subs	r3, r3, #32
 589 04ee 5B68     		ldr	r3, [r3, #4]
 590 04f0 132B     		cmp	r3, #19
 591 04f2 00F2F080 		bhi	.L13
 115:.\pathfinder.c ****             if(Nodes[tentativeNode[Y]][tentativeNode[X]].path == PATH){//check the node is a path
 592              		.loc 1 115 0 is_stmt 1
 593 04f6 07F14003 		add	r3, r7, #64
 594 04fa 203B     		subs	r3, r3, #32
 595 04fc 1968     		ldr	r1, [r3]
 596 04fe 07F14003 		add	r3, r7, #64
 597 0502 203B     		subs	r3, r3, #32
 598 0504 5868     		ldr	r0, [r3, #4]
 599 0506 07F5CA52 		add	r2, r7, #6464
 600 050a 103A     		subs	r2, r2, #16
 601 050c 0B46     		mov	r3, r1
 602 050e DB00     		lsls	r3, r3, #3
 603 0510 0B44     		add	r3, r3, r1
 604 0512 5B00     		lsls	r3, r3, #1
 605 0514 0B44     		add	r3, r3, r1
 606 0516 0344     		add	r3, r3, r0
 607 0518 5B01     		lsls	r3, r3, #5
 608 051a 1344     		add	r3, r3, r2
 609 051c 1B68     		ldr	r3, [r3]
 610 051e 002B     		cmp	r3, #0
 611 0520 40F0D980 		bne	.L13
 116:.\pathfinder.c ****                //printf("3\n", hasNext);
 117:.\pathfinder.c ****                tmpCost = Nodes[current[Y]][current[X]].tentative_cost + Nodes[tentativeNode[Y]][ten
 612              		.loc 1 117 0
 613 0524 07F5CA53 		add	r3, r7, #6464
 614 0528 183B     		subs	r3, r3, #24
 615 052a 1968     		ldr	r1, [r3]
 616 052c 07F5CA53 		add	r3, r7, #6464
 617 0530 183B     		subs	r3, r3, #24
 618 0532 5868     		ldr	r0, [r3, #4]
 619 0534 07F5CA52 		add	r2, r7, #6464
 620 0538 103A     		subs	r2, r2, #16
ARM GAS  C:\Users\Logan\AppData\Local\Temp\ccWP3ZaE.s 			page 14


 621 053a 0B46     		mov	r3, r1
 622 053c DB00     		lsls	r3, r3, #3
 623 053e 0B44     		add	r3, r3, r1
 624 0540 5B00     		lsls	r3, r3, #1
 625 0542 0B44     		add	r3, r3, r1
 626 0544 0344     		add	r3, r3, r0
 627 0546 5B01     		lsls	r3, r3, #5
 628 0548 1344     		add	r3, r3, r2
 629 054a 1833     		adds	r3, r3, #24
 630 054c 1888     		ldrh	r0, [r3]
 631 054e 07F14003 		add	r3, r7, #64
 632 0552 203B     		subs	r3, r3, #32
 633 0554 1968     		ldr	r1, [r3]
 634 0556 07F14003 		add	r3, r7, #64
 635 055a 203B     		subs	r3, r3, #32
 636 055c 5C68     		ldr	r4, [r3, #4]
 637 055e 07F5CA52 		add	r2, r7, #6464
 638 0562 103A     		subs	r2, r2, #16
 639 0564 0B46     		mov	r3, r1
 640 0566 DB00     		lsls	r3, r3, #3
 641 0568 0B44     		add	r3, r3, r1
 642 056a 5B00     		lsls	r3, r3, #1
 643 056c 0B44     		add	r3, r3, r1
 644 056e 2344     		add	r3, r3, r4
 645 0570 5B01     		lsls	r3, r3, #5
 646 0572 1344     		add	r3, r3, r2
 647 0574 0833     		adds	r3, r3, #8
 648 0576 1B88     		ldrh	r3, [r3]
 649 0578 0344     		add	r3, r3, r0
 650 057a 9AB2     		uxth	r2, r3
 651 057c 07F57353 		add	r3, r7, #15552
 652 0580 03F13003 		add	r3, r3, #48
 653 0584 1B68     		ldr	r3, [r3]
 654 0586 9BB2     		uxth	r3, r3
 655 0588 1344     		add	r3, r3, r2
 656 058a 07F57352 		add	r2, r7, #15552
 657 058e 02F11202 		add	r2, r2, #18
 658 0592 1380     		strh	r3, [r2]	@ movhi
 118:.\pathfinder.c ****                if(tmpCost < Nodes[tentativeNode[Y]][tentativeNode[X]].tentative_cost){
 659              		.loc 1 118 0
 660 0594 07F14003 		add	r3, r7, #64
 661 0598 203B     		subs	r3, r3, #32
 662 059a 1968     		ldr	r1, [r3]
 663 059c 07F14003 		add	r3, r7, #64
 664 05a0 203B     		subs	r3, r3, #32
 665 05a2 5868     		ldr	r0, [r3, #4]
 666 05a4 07F5CA52 		add	r2, r7, #6464
 667 05a8 103A     		subs	r2, r2, #16
 668 05aa 0B46     		mov	r3, r1
 669 05ac DB00     		lsls	r3, r3, #3
 670 05ae 0B44     		add	r3, r3, r1
 671 05b0 5B00     		lsls	r3, r3, #1
 672 05b2 0B44     		add	r3, r3, r1
 673 05b4 0344     		add	r3, r3, r0
 674 05b6 5B01     		lsls	r3, r3, #5
 675 05b8 1344     		add	r3, r3, r2
 676 05ba 1833     		adds	r3, r3, #24
ARM GAS  C:\Users\Logan\AppData\Local\Temp\ccWP3ZaE.s 			page 15


 677 05bc 1B88     		ldrh	r3, [r3]
 678 05be 07F57352 		add	r2, r7, #15552
 679 05c2 02F11202 		add	r2, r2, #18
 680 05c6 1288     		ldrh	r2, [r2]
 681 05c8 9A42     		cmp	r2, r3
 682 05ca 80F08480 		bcs	.L13
 119:.\pathfinder.c ****                   //printf("5 %d\n", tmpCost);
 120:.\pathfinder.c ****                   Nodes[tentativeNode[Y]][tentativeNode[X]].tentative_cost = tmpCost;
 683              		.loc 1 120 0
 684 05ce 07F14003 		add	r3, r7, #64
 685 05d2 203B     		subs	r3, r3, #32
 686 05d4 1968     		ldr	r1, [r3]
 687 05d6 07F14003 		add	r3, r7, #64
 688 05da 203B     		subs	r3, r3, #32
 689 05dc 5868     		ldr	r0, [r3, #4]
 690 05de 07F5CA52 		add	r2, r7, #6464
 691 05e2 103A     		subs	r2, r2, #16
 692 05e4 0B46     		mov	r3, r1
 693 05e6 DB00     		lsls	r3, r3, #3
 694 05e8 0B44     		add	r3, r3, r1
 695 05ea 5B00     		lsls	r3, r3, #1
 696 05ec 0B44     		add	r3, r3, r1
 697 05ee 0344     		add	r3, r3, r0
 698 05f0 5B01     		lsls	r3, r3, #5
 699 05f2 1344     		add	r3, r3, r2
 700 05f4 1833     		adds	r3, r3, #24
 701 05f6 07F57352 		add	r2, r7, #15552
 702 05fa 02F11202 		add	r2, r2, #18
 703 05fe 1288     		ldrh	r2, [r2]	@ movhi
 704 0600 1A80     		strh	r2, [r3]	@ movhi
 121:.\pathfinder.c ****                   //printf("6 currentX : %d, currentY : %d\n", current[0], current[1]);
 122:.\pathfinder.c **** 
 123:.\pathfinder.c ****                   //printf("Discovered node at X : %d, Y : %d\n", tentativeNode[0], tentativeNode[1
 124:.\pathfinder.c ****                   Nodes[tentativeNode[Y]][tentativeNode[X]].prevNode = &Nodes[current[Y]][current[1
 705              		.loc 1 124 0
 706 0602 07F14003 		add	r3, r7, #64
 707 0606 203B     		subs	r3, r3, #32
 708 0608 1968     		ldr	r1, [r3]
 709 060a 07F14003 		add	r3, r7, #64
 710 060e 203B     		subs	r3, r3, #32
 711 0610 5C68     		ldr	r4, [r3, #4]
 712 0612 07F5CA53 		add	r3, r7, #6464
 713 0616 183B     		subs	r3, r3, #24
 714 0618 1868     		ldr	r0, [r3]
 715 061a 07F5CA53 		add	r3, r7, #6464
 716 061e 183B     		subs	r3, r3, #24
 717 0620 5D68     		ldr	r5, [r3, #4]
 718 0622 07F5CA52 		add	r2, r7, #6464
 719 0626 103A     		subs	r2, r2, #16
 720 0628 0346     		mov	r3, r0
 721 062a DB00     		lsls	r3, r3, #3
 722 062c 0344     		add	r3, r3, r0
 723 062e 5B00     		lsls	r3, r3, #1
 724 0630 0344     		add	r3, r3, r0
 725 0632 2B44     		add	r3, r3, r5
 726 0634 5B01     		lsls	r3, r3, #5
 727 0636 D018     		adds	r0, r2, r3
ARM GAS  C:\Users\Logan\AppData\Local\Temp\ccWP3ZaE.s 			page 16


 728 0638 07F5CA52 		add	r2, r7, #6464
 729 063c 103A     		subs	r2, r2, #16
 730 063e 0B46     		mov	r3, r1
 731 0640 DB00     		lsls	r3, r3, #3
 732 0642 0B44     		add	r3, r3, r1
 733 0644 5B00     		lsls	r3, r3, #1
 734 0646 0B44     		add	r3, r3, r1
 735 0648 2344     		add	r3, r3, r4
 736 064a 5B01     		lsls	r3, r3, #5
 737 064c 1344     		add	r3, r3, r2
 738 064e 1033     		adds	r3, r3, #16
 739 0650 5860     		str	r0, [r3, #4]
 125:.\pathfinder.c ****                   nextNodes[totalIterationCounter][Y] = tentativeNode[Y];
 740              		.loc 1 125 0
 741 0652 07F14003 		add	r3, r7, #64
 742 0656 203B     		subs	r3, r3, #32
 743 0658 1968     		ldr	r1, [r3]
 744 065a 07F14003 		add	r3, r7, #64
 745 065e 183B     		subs	r3, r3, #24
 746 0660 07F57352 		add	r2, r7, #15552
 747 0664 02F13402 		add	r2, r2, #52
 748 0668 1268     		ldr	r2, [r2]
 749 066a 43F83210 		str	r1, [r3, r2, lsl #3]
 126:.\pathfinder.c ****                   nextNodes[totalIterationCounter][X] = tentativeNode[X];
 750              		.loc 1 126 0
 751 066e 07F14003 		add	r3, r7, #64
 752 0672 203B     		subs	r3, r3, #32
 753 0674 5968     		ldr	r1, [r3, #4]
 754 0676 07F14002 		add	r2, r7, #64
 755 067a 183A     		subs	r2, r2, #24
 756 067c 07F57353 		add	r3, r7, #15552
 757 0680 03F13403 		add	r3, r3, #52
 758 0684 1B68     		ldr	r3, [r3]
 759 0686 DB00     		lsls	r3, r3, #3
 760 0688 1344     		add	r3, r3, r2
 761 068a 5960     		str	r1, [r3, #4]
 127:.\pathfinder.c ****                   Nodes[tentativeNode[Y]][tentativeNode[X]].direction = counter;
 762              		.loc 1 127 0
 763 068c 07F14003 		add	r3, r7, #64
 764 0690 203B     		subs	r3, r3, #32
 765 0692 1968     		ldr	r1, [r3]
 766 0694 07F14003 		add	r3, r7, #64
 767 0698 203B     		subs	r3, r3, #32
 768 069a 5868     		ldr	r0, [r3, #4]
 769 069c 07F5CA52 		add	r2, r7, #6464
 770 06a0 103A     		subs	r2, r2, #16
 771 06a2 0B46     		mov	r3, r1
 772 06a4 DB00     		lsls	r3, r3, #3
 773 06a6 0B44     		add	r3, r3, r1
 774 06a8 5B00     		lsls	r3, r3, #1
 775 06aa 0B44     		add	r3, r3, r1
 776 06ac 0344     		add	r3, r3, r0
 777 06ae 5B01     		lsls	r3, r3, #5
 778 06b0 1344     		add	r3, r3, r2
 779 06b2 1833     		adds	r3, r3, #24
 780 06b4 07F57352 		add	r2, r7, #15552
 781 06b8 02F12C02 		add	r2, r2, #44
ARM GAS  C:\Users\Logan\AppData\Local\Temp\ccWP3ZaE.s 			page 17


 782 06bc 1268     		ldr	r2, [r2]
 783 06be 5A60     		str	r2, [r3, #4]
 128:.\pathfinder.c ****                   //nextNodesDirection[totalIterationCounter] = counter;
 129:.\pathfinder.c ****                   totalIterationCounter = 1 + totalIterationCounter;
 784              		.loc 1 129 0
 785 06c0 07F57353 		add	r3, r7, #15552
 786 06c4 03F13403 		add	r3, r3, #52
 787 06c8 1B68     		ldr	r3, [r3]
 788 06ca 0133     		adds	r3, r3, #1
 789 06cc 07F57352 		add	r2, r7, #15552
 790 06d0 02F13402 		add	r2, r2, #52
 791 06d4 1360     		str	r3, [r2]
 792              	.L13:
 130:.\pathfinder.c ****                }
 131:.\pathfinder.c ****             }
 132:.\pathfinder.c ****          }
 133:.\pathfinder.c ****          counter++;
 793              		.loc 1 133 0
 794 06d6 07F57353 		add	r3, r7, #15552
 795 06da 03F12C03 		add	r3, r3, #44
 796 06de 1B68     		ldr	r3, [r3]
 797 06e0 0133     		adds	r3, r3, #1
 798 06e2 07F57352 		add	r2, r7, #15552
 799 06e6 02F12C02 		add	r2, r2, #44
 800 06ea 1360     		str	r3, [r2]
 801              	.L7:
  95:.\pathfinder.c ****          corner_penalty = 0;
 802              		.loc 1 95 0
 803 06ec 07F57353 		add	r3, r7, #15552
 804 06f0 03F12C03 		add	r3, r3, #44
 805 06f4 1B68     		ldr	r3, [r3]
 806 06f6 042B     		cmp	r3, #4
 807 06f8 7FF675AE 		bls	.L14
 134:.\pathfinder.c ****       }
 135:.\pathfinder.c ****       //set the default cost value so that the for loop will find the lowest unvisited node
 136:.\pathfinder.c ****       nextNodeCost = INF_16;
 808              		.loc 1 136 0
 809 06fc 4FF6FF73 		movw	r3, #65535
 810 0700 07F57352 		add	r2, r7, #15552
 811 0704 02F12602 		add	r2, r2, #38
 812 0708 1380     		strh	r3, [r2]	@ movhi
 137:.\pathfinder.c ****       //find the lowest unvisited node
 138:.\pathfinder.c ****       hasNext = 0;
 813              		.loc 1 138 0
 814 070a 0023     		movs	r3, #0
 815 070c 07F57352 		add	r2, r7, #15552
 816 0710 02F12002 		add	r2, r2, #32
 817 0714 1360     		str	r3, [r2]
 139:.\pathfinder.c **** 
 140:.\pathfinder.c ****       //find the next node to visit
 141:.\pathfinder.c ****       //printf("totalIterationCounter : %d\n", totalIterationCounter);
 142:.\pathfinder.c ****         int i;
 143:.\pathfinder.c ****       for(i = 0; i < totalIterationCounter; i++){
 818              		.loc 1 143 0
 819 0716 0023     		movs	r3, #0
 820 0718 07F57352 		add	r2, r7, #15552
 821 071c 02F11C02 		add	r2, r2, #28
ARM GAS  C:\Users\Logan\AppData\Local\Temp\ccWP3ZaE.s 			page 18


 822 0720 1360     		str	r3, [r2]
 823 0722 ACE0     		b	.L15
 824              	.L29:
 825              		.align	2
 826              	.L28:
 827 0724 00000000 		.word	robot_direction
 828              	.L17:
 144:.\pathfinder.c ****          //printf("i : %d\n", i);
 145:.\pathfinder.c ****          tmpNextNode[Y] = nextNodes[i][Y];
 829              		.loc 1 145 0
 830 0728 07F14003 		add	r3, r7, #64
 831 072c 183B     		subs	r3, r3, #24
 832 072e 07F57352 		add	r2, r7, #15552
 833 0732 02F11C02 		add	r2, r2, #28
 834 0736 1268     		ldr	r2, [r2]
 835 0738 53F83220 		ldr	r2, [r3, r2, lsl #3]
 836 073c 07F14003 		add	r3, r7, #64
 837 0740 303B     		subs	r3, r3, #48
 838 0742 1A60     		str	r2, [r3]
 146:.\pathfinder.c ****          tmpNextNode[X] = nextNodes[i][X];
 839              		.loc 1 146 0
 840 0744 07F14002 		add	r2, r7, #64
 841 0748 183A     		subs	r2, r2, #24
 842 074a 07F57353 		add	r3, r7, #15552
 843 074e 03F11C03 		add	r3, r3, #28
 844 0752 1B68     		ldr	r3, [r3]
 845 0754 DB00     		lsls	r3, r3, #3
 846 0756 1344     		add	r3, r3, r2
 847 0758 5A68     		ldr	r2, [r3, #4]
 848 075a 07F14003 		add	r3, r7, #64
 849 075e 303B     		subs	r3, r3, #48
 850 0760 5A60     		str	r2, [r3, #4]
 147:.\pathfinder.c ****          //printf("tentative_cost : %d\n", Nodes[nextNodes[i][0]][nextNodes[i][1]].tentative_cost);
 148:.\pathfinder.c ****          if(Nodes[nextNodes[i][Y]][nextNodes[i][X]].tentative_cost < nextNodeCost){
 851              		.loc 1 148 0
 852 0762 07F14003 		add	r3, r7, #64
 853 0766 183B     		subs	r3, r3, #24
 854 0768 07F57352 		add	r2, r7, #15552
 855 076c 02F11C02 		add	r2, r2, #28
 856 0770 1268     		ldr	r2, [r2]
 857 0772 53F83210 		ldr	r1, [r3, r2, lsl #3]
 858 0776 07F14002 		add	r2, r7, #64
 859 077a 183A     		subs	r2, r2, #24
 860 077c 07F57353 		add	r3, r7, #15552
 861 0780 03F11C03 		add	r3, r3, #28
 862 0784 1B68     		ldr	r3, [r3]
 863 0786 DB00     		lsls	r3, r3, #3
 864 0788 1344     		add	r3, r3, r2
 865 078a 5868     		ldr	r0, [r3, #4]
 866 078c 07F5CA52 		add	r2, r7, #6464
 867 0790 103A     		subs	r2, r2, #16
 868 0792 0B46     		mov	r3, r1
 869 0794 DB00     		lsls	r3, r3, #3
 870 0796 0B44     		add	r3, r3, r1
 871 0798 5B00     		lsls	r3, r3, #1
 872 079a 0B44     		add	r3, r3, r1
 873 079c 0344     		add	r3, r3, r0
ARM GAS  C:\Users\Logan\AppData\Local\Temp\ccWP3ZaE.s 			page 19


 874 079e 5B01     		lsls	r3, r3, #5
 875 07a0 1344     		add	r3, r3, r2
 876 07a2 1833     		adds	r3, r3, #24
 877 07a4 1B88     		ldrh	r3, [r3]
 878 07a6 07F57352 		add	r2, r7, #15552
 879 07aa 02F12602 		add	r2, r2, #38
 880 07ae 1288     		ldrh	r2, [r2]
 881 07b0 9A42     		cmp	r2, r3
 882 07b2 59D9     		bls	.L16
 149:.\pathfinder.c ****             //printf("1 : %d\n", Nodes[nextNodes[i][0]][nextNodes[i][1]].tentative_cost);
 150:.\pathfinder.c ****             if(Nodes[nextNodes[i][Y]][nextNodes[i][X]].visited == UNVISITED){
 883              		.loc 1 150 0
 884 07b4 07F14003 		add	r3, r7, #64
 885 07b8 183B     		subs	r3, r3, #24
 886 07ba 07F57352 		add	r2, r7, #15552
 887 07be 02F11C02 		add	r2, r2, #28
 888 07c2 1268     		ldr	r2, [r2]
 889 07c4 53F83210 		ldr	r1, [r3, r2, lsl #3]
 890 07c8 07F14002 		add	r2, r7, #64
 891 07cc 183A     		subs	r2, r2, #24
 892 07ce 07F57353 		add	r3, r7, #15552
 893 07d2 03F11C03 		add	r3, r3, #28
 894 07d6 1B68     		ldr	r3, [r3]
 895 07d8 DB00     		lsls	r3, r3, #3
 896 07da 1344     		add	r3, r3, r2
 897 07dc 5868     		ldr	r0, [r3, #4]
 898 07de 07F5CA52 		add	r2, r7, #6464
 899 07e2 103A     		subs	r2, r2, #16
 900 07e4 0B46     		mov	r3, r1
 901 07e6 DB00     		lsls	r3, r3, #3
 902 07e8 0B44     		add	r3, r3, r1
 903 07ea 5B00     		lsls	r3, r3, #1
 904 07ec 0B44     		add	r3, r3, r1
 905 07ee 0344     		add	r3, r3, r0
 906 07f0 5B01     		lsls	r3, r3, #5
 907 07f2 1344     		add	r3, r3, r2
 908 07f4 5B68     		ldr	r3, [r3, #4]
 909 07f6 002B     		cmp	r3, #0
 910 07f8 36D1     		bne	.L16
 151:.\pathfinder.c **** 
 152:.\pathfinder.c ****                //printf("2 : %d\n", Nodes[nextNodes[i][0]][nextNodes[i][1]].visited);
 153:.\pathfinder.c ****                nextNodeCost = Nodes[nextNodes[i][Y]][nextNodes[i][X]].tentative_cost;
 911              		.loc 1 153 0
 912 07fa 07F14003 		add	r3, r7, #64
 913 07fe 183B     		subs	r3, r3, #24
 914 0800 07F57352 		add	r2, r7, #15552
 915 0804 02F11C02 		add	r2, r2, #28
 916 0808 1268     		ldr	r2, [r2]
 917 080a 53F83210 		ldr	r1, [r3, r2, lsl #3]
 918 080e 07F14002 		add	r2, r7, #64
 919 0812 183A     		subs	r2, r2, #24
 920 0814 07F57353 		add	r3, r7, #15552
 921 0818 03F11C03 		add	r3, r3, #28
 922 081c 1B68     		ldr	r3, [r3]
 923 081e DB00     		lsls	r3, r3, #3
 924 0820 1344     		add	r3, r3, r2
 925 0822 5868     		ldr	r0, [r3, #4]
ARM GAS  C:\Users\Logan\AppData\Local\Temp\ccWP3ZaE.s 			page 20


 926 0824 07F5CA52 		add	r2, r7, #6464
 927 0828 103A     		subs	r2, r2, #16
 928 082a 0B46     		mov	r3, r1
 929 082c DB00     		lsls	r3, r3, #3
 930 082e 0B44     		add	r3, r3, r1
 931 0830 5B00     		lsls	r3, r3, #1
 932 0832 0B44     		add	r3, r3, r1
 933 0834 0344     		add	r3, r3, r0
 934 0836 5B01     		lsls	r3, r3, #5
 935 0838 1344     		add	r3, r3, r2
 936 083a 1833     		adds	r3, r3, #24
 937 083c 1B88     		ldrh	r3, [r3]	@ movhi
 938 083e 07F57352 		add	r2, r7, #15552
 939 0842 02F12602 		add	r2, r2, #38
 940 0846 1380     		strh	r3, [r2]	@ movhi
 154:.\pathfinder.c **** 
 155:.\pathfinder.c ****                nextNodeIndex = i;
 941              		.loc 1 155 0
 942 0848 07F57353 		add	r3, r7, #15552
 943 084c 03F11C03 		add	r3, r3, #28
 944 0850 1B68     		ldr	r3, [r3]
 945 0852 07F57352 		add	r2, r7, #15552
 946 0856 02F12802 		add	r2, r2, #40
 947 085a 1360     		str	r3, [r2]
 156:.\pathfinder.c ****                hasNext = 1;
 948              		.loc 1 156 0
 949 085c 0123     		movs	r3, #1
 950 085e 07F57352 		add	r2, r7, #15552
 951 0862 02F12002 		add	r2, r2, #32
 952 0866 1360     		str	r3, [r2]
 953              	.L16:
 143:.\pathfinder.c ****          //printf("i : %d\n", i);
 954              		.loc 1 143 0 discriminator 2
 955 0868 07F57353 		add	r3, r7, #15552
 956 086c 03F11C03 		add	r3, r3, #28
 957 0870 1B68     		ldr	r3, [r3]
 958 0872 0133     		adds	r3, r3, #1
 959 0874 07F57352 		add	r2, r7, #15552
 960 0878 02F11C02 		add	r2, r2, #28
 961 087c 1360     		str	r3, [r2]
 962              	.L15:
 143:.\pathfinder.c ****          //printf("i : %d\n", i);
 963              		.loc 1 143 0 is_stmt 0 discriminator 1
 964 087e 07F57353 		add	r3, r7, #15552
 965 0882 03F11C03 		add	r3, r3, #28
 966 0886 1A68     		ldr	r2, [r3]
 967 0888 07F57353 		add	r3, r7, #15552
 968 088c 03F13403 		add	r3, r3, #52
 969 0890 1B68     		ldr	r3, [r3]
 970 0892 9A42     		cmp	r2, r3
 971 0894 FFF448AF 		bcc	.L17
 157:.\pathfinder.c ****             }
 158:.\pathfinder.c ****          }
 159:.\pathfinder.c ****       }
 160:.\pathfinder.c ****       //printf("has next %d\n", hasNext);
 161:.\pathfinder.c ****       current[Y] = nextNodes[nextNodeIndex][Y];
 972              		.loc 1 161 0 is_stmt 1
ARM GAS  C:\Users\Logan\AppData\Local\Temp\ccWP3ZaE.s 			page 21


 973 0898 07F14003 		add	r3, r7, #64
 974 089c 183B     		subs	r3, r3, #24
 975 089e 07F57352 		add	r2, r7, #15552
 976 08a2 02F12802 		add	r2, r2, #40
 977 08a6 1268     		ldr	r2, [r2]
 978 08a8 53F83220 		ldr	r2, [r3, r2, lsl #3]
 979 08ac 07F5CA53 		add	r3, r7, #6464
 980 08b0 183B     		subs	r3, r3, #24
 981 08b2 1A60     		str	r2, [r3]
 162:.\pathfinder.c ****       current[X] = nextNodes[nextNodeIndex][X];
 982              		.loc 1 162 0
 983 08b4 07F14002 		add	r2, r7, #64
 984 08b8 183A     		subs	r2, r2, #24
 985 08ba 07F57353 		add	r3, r7, #15552
 986 08be 03F12803 		add	r3, r3, #40
 987 08c2 1B68     		ldr	r3, [r3]
 988 08c4 DB00     		lsls	r3, r3, #3
 989 08c6 1344     		add	r3, r3, r2
 990 08c8 5A68     		ldr	r2, [r3, #4]
 991 08ca 07F5CA53 		add	r3, r7, #6464
 992 08ce 183B     		subs	r3, r3, #24
 993 08d0 5A60     		str	r2, [r3, #4]
 163:.\pathfinder.c ****       robot_direction = Nodes[current[Y]][current[X]].direction;
 994              		.loc 1 163 0
 995 08d2 07F5CA53 		add	r3, r7, #6464
 996 08d6 183B     		subs	r3, r3, #24
 997 08d8 1968     		ldr	r1, [r3]
 998 08da 07F5CA53 		add	r3, r7, #6464
 999 08de 183B     		subs	r3, r3, #24
 1000 08e0 5868     		ldr	r0, [r3, #4]
 1001 08e2 07F5CA52 		add	r2, r7, #6464
 1002 08e6 103A     		subs	r2, r2, #16
 1003 08e8 0B46     		mov	r3, r1
 1004 08ea DB00     		lsls	r3, r3, #3
 1005 08ec 0B44     		add	r3, r3, r1
 1006 08ee 5B00     		lsls	r3, r3, #1
 1007 08f0 0B44     		add	r3, r3, r1
 1008 08f2 0344     		add	r3, r3, r0
 1009 08f4 5B01     		lsls	r3, r3, #5
 1010 08f6 1344     		add	r3, r3, r2
 1011 08f8 1833     		adds	r3, r3, #24
 1012 08fa 5B68     		ldr	r3, [r3, #4]
 1013 08fc A04A     		ldr	r2, .L30
 1014 08fe 1360     		str	r3, [r2]
 1015              	.L6:
 1016              	.LBE3:
  91:.\pathfinder.c ****       counter = 1;
 1017              		.loc 1 91 0
 1018 0900 07F5CA53 		add	r3, r7, #6464
 1019 0904 183B     		subs	r3, r3, #24
 1020 0906 1A68     		ldr	r2, [r3]
 1021 0908 07F57453 		add	r3, r7, #15616
 1022 090c 03F11003 		add	r3, r3, #16
 1023 0910 1B68     		ldr	r3, [r3]
 1024 0912 1B68     		ldr	r3, [r3]
 1025 0914 9A42     		cmp	r2, r3
 1026 0916 0CD1     		bne	.L18
ARM GAS  C:\Users\Logan\AppData\Local\Temp\ccWP3ZaE.s 			page 22


  91:.\pathfinder.c ****       counter = 1;
 1027              		.loc 1 91 0 is_stmt 0 discriminator 2
 1028 0918 07F5CA53 		add	r3, r7, #6464
 1029 091c 183B     		subs	r3, r3, #24
 1030 091e 5A68     		ldr	r2, [r3, #4]
 1031 0920 07F57453 		add	r3, r7, #15616
 1032 0924 03F11003 		add	r3, r3, #16
 1033 0928 1B68     		ldr	r3, [r3]
 1034 092a 0433     		adds	r3, r3, #4
 1035 092c 1B68     		ldr	r3, [r3]
 1036 092e 9A42     		cmp	r2, r3
 1037 0930 07D0     		beq	.L19
 1038              	.L18:
  91:.\pathfinder.c ****       counter = 1;
 1039              		.loc 1 91 0 discriminator 3
 1040 0932 07F57353 		add	r3, r7, #15552
 1041 0936 03F12003 		add	r3, r3, #32
 1042 093a 1B68     		ldr	r3, [r3]
 1043 093c 012B     		cmp	r3, #1
 1044 093e 3FF436AD 		beq	.L20
 1045              	.L19:
 164:.\pathfinder.c **** 
 165:.\pathfinder.c ****    }
 166:.\pathfinder.c **** 
 167:.\pathfinder.c ****    counter = 0;
 1046              		.loc 1 167 0 is_stmt 1
 1047 0942 0023     		movs	r3, #0
 1048 0944 07F57352 		add	r2, r7, #15552
 1049 0948 02F12C02 		add	r2, r2, #44
 1050 094c 1360     		str	r3, [r2]
 168:.\pathfinder.c ****    //printf("Node %d | X: %d | Y: %d\n", counter, current[0], current[1]);
 169:.\pathfinder.c ****    if((current[Y] == destination[Y]) && (current[X] == destination[X])){
 1051              		.loc 1 169 0
 1052 094e 07F5CA53 		add	r3, r7, #6464
 1053 0952 183B     		subs	r3, r3, #24
 1054 0954 1A68     		ldr	r2, [r3]
 1055 0956 07F57453 		add	r3, r7, #15616
 1056 095a 03F11003 		add	r3, r3, #16
 1057 095e 1B68     		ldr	r3, [r3]
 1058 0960 1B68     		ldr	r3, [r3]
 1059 0962 9A42     		cmp	r2, r3
 1060 0964 40F00581 		bne	.L21
 1061              		.loc 1 169 0 is_stmt 0 discriminator 1
 1062 0968 07F5CA53 		add	r3, r7, #6464
 1063 096c 183B     		subs	r3, r3, #24
 1064 096e 5A68     		ldr	r2, [r3, #4]
 1065 0970 07F57453 		add	r3, r7, #15616
 1066 0974 03F11003 		add	r3, r3, #16
 1067 0978 1B68     		ldr	r3, [r3]
 1068 097a 0433     		adds	r3, r3, #4
 1069 097c 1B68     		ldr	r3, [r3]
 1070 097e 9A42     		cmp	r2, r3
 1071 0980 40F0F780 		bne	.L21
 1072              	.LBB4:
 170:.\pathfinder.c ****       //printf("1 : startX: %d, startY: %d\n", start[0], start[1]);
 171:.\pathfinder.c ****       node* currentNode = &(Nodes[current[Y]][current[X]]);
 1073              		.loc 1 171 0 is_stmt 1
ARM GAS  C:\Users\Logan\AppData\Local\Temp\ccWP3ZaE.s 			page 23


 1074 0984 07F5CA53 		add	r3, r7, #6464
 1075 0988 183B     		subs	r3, r3, #24
 1076 098a 1968     		ldr	r1, [r3]
 1077 098c 07F5CA53 		add	r3, r7, #6464
 1078 0990 183B     		subs	r3, r3, #24
 1079 0992 5868     		ldr	r0, [r3, #4]
 1080 0994 07F5CA52 		add	r2, r7, #6464
 1081 0998 103A     		subs	r2, r2, #16
 1082 099a 0B46     		mov	r3, r1
 1083 099c DB00     		lsls	r3, r3, #3
 1084 099e 0B44     		add	r3, r3, r1
 1085 09a0 5B00     		lsls	r3, r3, #1
 1086 09a2 0B44     		add	r3, r3, r1
 1087 09a4 0344     		add	r3, r3, r0
 1088 09a6 5B01     		lsls	r3, r3, #5
 1089 09a8 1344     		add	r3, r3, r2
 1090 09aa 07F57352 		add	r2, r7, #15552
 1091 09ae 02F11802 		add	r2, r2, #24
 1092 09b2 1360     		str	r3, [r2]
 172:.\pathfinder.c ****       while(!((currentNode->y == start[Y]) && (currentNode->x == start[X]))){
 1093              		.loc 1 172 0
 1094 09b4 6AE0     		b	.L22
 1095              	.L23:
 173:.\pathfinder.c ****          //printf("1 : %d\n", Nodes[nextNodes[i][0]][nextNodes[i][1]].tentative_cost);
 174:.\pathfinder.c ****          path[counter][Y] = currentNode->y;
 1096              		.loc 1 174 0
 1097 09b6 07F57353 		add	r3, r7, #15552
 1098 09ba 03F12C03 		add	r3, r3, #44
 1099 09be 1A68     		ldr	r2, [r3]
 1100 09c0 1346     		mov	r3, r2
 1101 09c2 5B00     		lsls	r3, r3, #1
 1102 09c4 1344     		add	r3, r3, r2
 1103 09c6 9B00     		lsls	r3, r3, #2
 1104 09c8 1A46     		mov	r2, r3
 1105 09ca 07F14003 		add	r3, r7, #64
 1106 09ce 3C3B     		subs	r3, r3, #60
 1107 09d0 1B68     		ldr	r3, [r3]
 1108 09d2 1344     		add	r3, r3, r2
 1109 09d4 07F57352 		add	r2, r7, #15552
 1110 09d8 02F11802 		add	r2, r2, #24
 1111 09dc 1268     		ldr	r2, [r2]
 1112 09de 1269     		ldr	r2, [r2, #16]
 1113 09e0 1A60     		str	r2, [r3]
 175:.\pathfinder.c ****          path[counter][X] = currentNode->x;
 1114              		.loc 1 175 0
 1115 09e2 07F57353 		add	r3, r7, #15552
 1116 09e6 03F12C03 		add	r3, r3, #44
 1117 09ea 1A68     		ldr	r2, [r3]
 1118 09ec 1346     		mov	r3, r2
 1119 09ee 5B00     		lsls	r3, r3, #1
 1120 09f0 1344     		add	r3, r3, r2
 1121 09f2 9B00     		lsls	r3, r3, #2
 1122 09f4 1A46     		mov	r2, r3
 1123 09f6 07F14003 		add	r3, r7, #64
 1124 09fa 3C3B     		subs	r3, r3, #60
 1125 09fc 1B68     		ldr	r3, [r3]
 1126 09fe 1344     		add	r3, r3, r2
ARM GAS  C:\Users\Logan\AppData\Local\Temp\ccWP3ZaE.s 			page 24


 1127 0a00 07F57352 		add	r2, r7, #15552
 1128 0a04 02F11802 		add	r2, r2, #24
 1129 0a08 1268     		ldr	r2, [r2]
 1130 0a0a D268     		ldr	r2, [r2, #12]
 1131 0a0c 5A60     		str	r2, [r3, #4]
 176:.\pathfinder.c ****          path[counter][DIR] = Nodes[currentNode->y][currentNode->x].direction;
 1132              		.loc 1 176 0
 1133 0a0e 07F57353 		add	r3, r7, #15552
 1134 0a12 03F12C03 		add	r3, r3, #44
 1135 0a16 1A68     		ldr	r2, [r3]
 1136 0a18 1346     		mov	r3, r2
 1137 0a1a 5B00     		lsls	r3, r3, #1
 1138 0a1c 1344     		add	r3, r3, r2
 1139 0a1e 9B00     		lsls	r3, r3, #2
 1140 0a20 1A46     		mov	r2, r3
 1141 0a22 07F14003 		add	r3, r7, #64
 1142 0a26 3C3B     		subs	r3, r3, #60
 1143 0a28 1B68     		ldr	r3, [r3]
 1144 0a2a 9818     		adds	r0, r3, r2
 1145 0a2c 07F57353 		add	r3, r7, #15552
 1146 0a30 03F11803 		add	r3, r3, #24
 1147 0a34 1B68     		ldr	r3, [r3]
 1148 0a36 1969     		ldr	r1, [r3, #16]
 1149 0a38 07F57353 		add	r3, r7, #15552
 1150 0a3c 03F11803 		add	r3, r3, #24
 1151 0a40 1B68     		ldr	r3, [r3]
 1152 0a42 DC68     		ldr	r4, [r3, #12]
 1153 0a44 07F5CA52 		add	r2, r7, #6464
 1154 0a48 103A     		subs	r2, r2, #16
 1155 0a4a 0B46     		mov	r3, r1
 1156 0a4c DB00     		lsls	r3, r3, #3
 1157 0a4e 0B44     		add	r3, r3, r1
 1158 0a50 5B00     		lsls	r3, r3, #1
 1159 0a52 0B44     		add	r3, r3, r1
 1160 0a54 2344     		add	r3, r3, r4
 1161 0a56 5B01     		lsls	r3, r3, #5
 1162 0a58 1344     		add	r3, r3, r2
 1163 0a5a 1833     		adds	r3, r3, #24
 1164 0a5c 5B68     		ldr	r3, [r3, #4]
 1165 0a5e 8360     		str	r3, [r0, #8]
 177:.\pathfinder.c ****          //printf("direction2 %d\n", path[0][DIR]);
 178:.\pathfinder.c ****          currentNode = currentNode->prevNode;
 1166              		.loc 1 178 0
 1167 0a60 07F57353 		add	r3, r7, #15552
 1168 0a64 03F11803 		add	r3, r3, #24
 1169 0a68 1B68     		ldr	r3, [r3]
 1170 0a6a 5B69     		ldr	r3, [r3, #20]
 1171 0a6c 07F57352 		add	r2, r7, #15552
 1172 0a70 02F11802 		add	r2, r2, #24
 1173 0a74 1360     		str	r3, [r2]
 179:.\pathfinder.c **** 
 180:.\pathfinder.c ****          counter++;
 1174              		.loc 1 180 0
 1175 0a76 07F57353 		add	r3, r7, #15552
 1176 0a7a 03F12C03 		add	r3, r3, #44
 1177 0a7e 1B68     		ldr	r3, [r3]
 1178 0a80 0133     		adds	r3, r3, #1
ARM GAS  C:\Users\Logan\AppData\Local\Temp\ccWP3ZaE.s 			page 25


 1179 0a82 07F57352 		add	r2, r7, #15552
 1180 0a86 02F12C02 		add	r2, r2, #44
 1181 0a8a 1360     		str	r3, [r2]
 1182              	.L22:
 172:.\pathfinder.c ****          //printf("1 : %d\n", Nodes[nextNodes[i][0]][nextNodes[i][1]].tentative_cost);
 1183              		.loc 1 172 0
 1184 0a8c 07F57353 		add	r3, r7, #15552
 1185 0a90 03F11803 		add	r3, r3, #24
 1186 0a94 1B68     		ldr	r3, [r3]
 1187 0a96 1A69     		ldr	r2, [r3, #16]
 1188 0a98 3B46     		mov	r3, r7
 1189 0a9a 1B68     		ldr	r3, [r3]
 1190 0a9c 1B68     		ldr	r3, [r3]
 1191 0a9e 9A42     		cmp	r2, r3
 1192 0aa0 89D1     		bne	.L23
 172:.\pathfinder.c ****          //printf("1 : %d\n", Nodes[nextNodes[i][0]][nextNodes[i][1]].tentative_cost);
 1193              		.loc 1 172 0 is_stmt 0 discriminator 1
 1194 0aa2 07F57353 		add	r3, r7, #15552
 1195 0aa6 03F11803 		add	r3, r3, #24
 1196 0aaa 1B68     		ldr	r3, [r3]
 1197 0aac DA68     		ldr	r2, [r3, #12]
 1198 0aae 3B46     		mov	r3, r7
 1199 0ab0 1B68     		ldr	r3, [r3]
 1200 0ab2 0433     		adds	r3, r3, #4
 1201 0ab4 1B68     		ldr	r3, [r3]
 1202 0ab6 9A42     		cmp	r2, r3
 1203 0ab8 7FF47DAF 		bne	.L23
 181:.\pathfinder.c ****       }
 182:.\pathfinder.c ****       path[counter][Y] = currentNode->y;
 1204              		.loc 1 182 0 is_stmt 1
 1205 0abc 07F57353 		add	r3, r7, #15552
 1206 0ac0 03F12C03 		add	r3, r3, #44
 1207 0ac4 1A68     		ldr	r2, [r3]
 1208 0ac6 1346     		mov	r3, r2
 1209 0ac8 5B00     		lsls	r3, r3, #1
 1210 0aca 1344     		add	r3, r3, r2
 1211 0acc 9B00     		lsls	r3, r3, #2
 1212 0ace 1A46     		mov	r2, r3
 1213 0ad0 07F14003 		add	r3, r7, #64
 1214 0ad4 3C3B     		subs	r3, r3, #60
 1215 0ad6 1B68     		ldr	r3, [r3]
 1216 0ad8 1344     		add	r3, r3, r2
 1217 0ada 07F57352 		add	r2, r7, #15552
 1218 0ade 02F11802 		add	r2, r2, #24
 1219 0ae2 1268     		ldr	r2, [r2]
 1220 0ae4 1269     		ldr	r2, [r2, #16]
 1221 0ae6 1A60     		str	r2, [r3]
 183:.\pathfinder.c ****       path[counter][X] = currentNode->x;
 1222              		.loc 1 183 0
 1223 0ae8 07F57353 		add	r3, r7, #15552
 1224 0aec 03F12C03 		add	r3, r3, #44
 1225 0af0 1A68     		ldr	r2, [r3]
 1226 0af2 1346     		mov	r3, r2
 1227 0af4 5B00     		lsls	r3, r3, #1
 1228 0af6 1344     		add	r3, r3, r2
 1229 0af8 9B00     		lsls	r3, r3, #2
 1230 0afa 1A46     		mov	r2, r3
ARM GAS  C:\Users\Logan\AppData\Local\Temp\ccWP3ZaE.s 			page 26


 1231 0afc 07F14003 		add	r3, r7, #64
 1232 0b00 3C3B     		subs	r3, r3, #60
 1233 0b02 1B68     		ldr	r3, [r3]
 1234 0b04 1344     		add	r3, r3, r2
 1235 0b06 07F57352 		add	r2, r7, #15552
 1236 0b0a 02F11802 		add	r2, r2, #24
 1237 0b0e 1268     		ldr	r2, [r2]
 1238 0b10 D268     		ldr	r2, [r2, #12]
 1239 0b12 5A60     		str	r2, [r3, #4]
 184:.\pathfinder.c ****       path[counter][DIR] = Nodes[currentNode->y][currentNode->x].direction;
 1240              		.loc 1 184 0
 1241 0b14 07F57353 		add	r3, r7, #15552
 1242 0b18 03F12C03 		add	r3, r3, #44
 1243 0b1c 1A68     		ldr	r2, [r3]
 1244 0b1e 1346     		mov	r3, r2
 1245 0b20 5B00     		lsls	r3, r3, #1
 1246 0b22 1344     		add	r3, r3, r2
 1247 0b24 9B00     		lsls	r3, r3, #2
 1248 0b26 1A46     		mov	r2, r3
 1249 0b28 07F14003 		add	r3, r7, #64
 1250 0b2c 3C3B     		subs	r3, r3, #60
 1251 0b2e 1B68     		ldr	r3, [r3]
 1252 0b30 9818     		adds	r0, r3, r2
 1253 0b32 07F57353 		add	r3, r7, #15552
 1254 0b36 03F11803 		add	r3, r3, #24
 1255 0b3a 1B68     		ldr	r3, [r3]
 1256 0b3c 1969     		ldr	r1, [r3, #16]
 1257 0b3e 07F57353 		add	r3, r7, #15552
 1258 0b42 03F11803 		add	r3, r3, #24
 1259 0b46 1B68     		ldr	r3, [r3]
 1260 0b48 DC68     		ldr	r4, [r3, #12]
 1261 0b4a 07F5CA52 		add	r2, r7, #6464
 1262 0b4e 103A     		subs	r2, r2, #16
 1263 0b50 0B46     		mov	r3, r1
 1264 0b52 DB00     		lsls	r3, r3, #3
 1265 0b54 0B44     		add	r3, r3, r1
 1266 0b56 5B00     		lsls	r3, r3, #1
 1267 0b58 0B44     		add	r3, r3, r1
 1268 0b5a 2344     		add	r3, r3, r4
 1269 0b5c 5B01     		lsls	r3, r3, #5
 1270 0b5e 1344     		add	r3, r3, r2
 1271 0b60 1833     		adds	r3, r3, #24
 1272 0b62 5B68     		ldr	r3, [r3, #4]
 1273 0b64 8360     		str	r3, [r0, #8]
 185:.\pathfinder.c ****       return counter;
 1274              		.loc 1 185 0
 1275 0b66 07F57353 		add	r3, r7, #15552
 1276 0b6a 03F12C03 		add	r3, r3, #44
 1277 0b6e 1B68     		ldr	r3, [r3]
 1278 0b70 00E0     		b	.L25
 1279              	.L21:
 1280              	.LBE4:
 186:.\pathfinder.c ****    }else{
 187:.\pathfinder.c ****       return 0;
 1281              		.loc 1 187 0
 1282 0b72 0023     		movs	r3, #0
 1283              	.L25:
ARM GAS  C:\Users\Logan\AppData\Local\Temp\ccWP3ZaE.s 			page 27


 188:.\pathfinder.c ****    }
 189:.\pathfinder.c **** 
 190:.\pathfinder.c ****    //return 0;
 191:.\pathfinder.c **** }
 1284              		.loc 1 191 0 discriminator 1
 1285 0b74 1846     		mov	r0, r3
 1286 0b76 07F57457 		add	r7, r7, #15616
 1287              		.cfi_def_cfa_offset 16
 1288 0b7a BD46     		mov	sp, r7
 1289              		.cfi_def_cfa_register 13
 1290              		@ sp needed
 1291 0b7c B0BD     		pop	{r4, r5, r7, pc}
 1292              	.L31:
 1293 0b7e 00BF     		.align	2
 1294              	.L30:
 1295 0b80 00000000 		.word	robot_direction
 1296              		.cfi_endproc
 1297              	.LFE63:
 1298              		.size	djikstras, .-djikstras
 1299              		.section	.text.DepthFirst,"ax",%progbits
 1300              		.align	2
 1301              		.global	DepthFirst
 1302              		.thumb
 1303              		.thumb_func
 1304              		.type	DepthFirst, %function
 1305              	DepthFirst:
 1306              	.LFB64:
 192:.\pathfinder.c **** 
 193:.\pathfinder.c **** 
 194:.\pathfinder.c **** uint32_t DepthFirst(uint32_t map[Y_SIZE][X_SIZE], uint32_t food_list[6][2], uint32_t path[DEFAULT_A
 1307              		.loc 1 194 0
 1308              		.cfi_startproc
 1309              		@ args = 8, pretend = 0, frame = 15616
 1310              		@ frame_needed = 1, uses_anonymous_args = 0
 1311 0000 B0B5     		push	{r4, r5, r7, lr}
 1312              		.cfi_def_cfa_offset 16
 1313              		.cfi_offset 4, -16
 1314              		.cfi_offset 5, -12
 1315              		.cfi_offset 7, -8
 1316              		.cfi_offset 14, -4
 1317 0002 ADF5745D 		sub	sp, sp, #15616
 1318              		.cfi_def_cfa_offset 15632
 1319 0006 00AF     		add	r7, sp, #0
 1320              		.cfi_def_cfa_register 7
 1321 0008 07F14004 		add	r4, r7, #64
 1322 000c 343C     		subs	r4, r4, #52
 1323 000e 2060     		str	r0, [r4]
 1324 0010 07F14000 		add	r0, r7, #64
 1325 0014 3838     		subs	r0, r0, #56
 1326 0016 0160     		str	r1, [r0]
 1327 0018 07F14001 		add	r1, r7, #64
 1328 001c 3C39     		subs	r1, r1, #60
 1329 001e 0A60     		str	r2, [r1]
 1330 0020 3A46     		mov	r2, r7
 1331 0022 1360     		str	r3, [r2]
 195:.\pathfinder.c ****    //printf("Finding path\n");
 196:.\pathfinder.c ****    node Nodes[Y_SIZE][X_SIZE];
ARM GAS  C:\Users\Logan\AppData\Local\Temp\ccWP3ZaE.s 			page 28


 197:.\pathfinder.c ****    //fill up the default information for each node
 198:.\pathfinder.c ****    uint32_t i, j;
 199:.\pathfinder.c ****    for(i = 0; i < Y_SIZE; i++){
 1332              		.loc 1 199 0
 1333 0024 0023     		movs	r3, #0
 1334 0026 07F57352 		add	r2, r7, #15552
 1335 002a 02F13C02 		add	r2, r2, #60
 1336 002e 1360     		str	r3, [r2]
 1337 0030 FDE0     		b	.L33
 1338              	.L36:
 200:.\pathfinder.c ****       for(j = 0; j < X_SIZE; j++){
 1339              		.loc 1 200 0
 1340 0032 0023     		movs	r3, #0
 1341 0034 07F57352 		add	r2, r7, #15552
 1342 0038 02F13802 		add	r2, r2, #56
 1343 003c 1360     		str	r3, [r2]
 1344 003e E3E0     		b	.L34
 1345              	.L35:
 201:.\pathfinder.c ****             Nodes[i][j].path = map[i][j];//map information
 1346              		.loc 1 201 0 discriminator 3
 1347 0040 07F57353 		add	r3, r7, #15552
 1348 0044 03F13C03 		add	r3, r3, #60
 1349 0048 1B68     		ldr	r3, [r3]
 1350 004a 4C22     		movs	r2, #76
 1351 004c 02FB03F2 		mul	r2, r2, r3
 1352 0050 07F14003 		add	r3, r7, #64
 1353 0054 343B     		subs	r3, r3, #52
 1354 0056 1B68     		ldr	r3, [r3]
 1355 0058 1344     		add	r3, r3, r2
 1356 005a 07F57352 		add	r2, r7, #15552
 1357 005e 02F13802 		add	r2, r2, #56
 1358 0062 1268     		ldr	r2, [r2]
 1359 0064 53F82200 		ldr	r0, [r3, r2, lsl #2]
 1360 0068 07F5CA52 		add	r2, r7, #6464
 1361 006c 103A     		subs	r2, r2, #16
 1362 006e 07F57353 		add	r3, r7, #15552
 1363 0072 03F13C03 		add	r3, r3, #60
 1364 0076 1968     		ldr	r1, [r3]
 1365 0078 0B46     		mov	r3, r1
 1366 007a DB00     		lsls	r3, r3, #3
 1367 007c 0B44     		add	r3, r3, r1
 1368 007e 5B00     		lsls	r3, r3, #1
 1369 0080 0B44     		add	r3, r3, r1
 1370 0082 07F57351 		add	r1, r7, #15552
 1371 0086 01F13801 		add	r1, r1, #56
 1372 008a 0968     		ldr	r1, [r1]
 1373 008c 0B44     		add	r3, r3, r1
 1374 008e 5B01     		lsls	r3, r3, #5
 1375 0090 1344     		add	r3, r3, r2
 1376 0092 1860     		str	r0, [r3]
 202:.\pathfinder.c ****             //printf("%d\n", map[i][j]);
 203:.\pathfinder.c ****             Nodes[i][j].visited = UNVISITED; //set all unvisited
 1377              		.loc 1 203 0 discriminator 3
 1378 0094 07F5CA52 		add	r2, r7, #6464
 1379 0098 103A     		subs	r2, r2, #16
 1380 009a 07F57353 		add	r3, r7, #15552
 1381 009e 03F13C03 		add	r3, r3, #60
ARM GAS  C:\Users\Logan\AppData\Local\Temp\ccWP3ZaE.s 			page 29


 1382 00a2 1968     		ldr	r1, [r3]
 1383 00a4 0B46     		mov	r3, r1
 1384 00a6 DB00     		lsls	r3, r3, #3
 1385 00a8 0B44     		add	r3, r3, r1
 1386 00aa 5B00     		lsls	r3, r3, #1
 1387 00ac 0B44     		add	r3, r3, r1
 1388 00ae 07F57351 		add	r1, r7, #15552
 1389 00b2 01F13801 		add	r1, r1, #56
 1390 00b6 0968     		ldr	r1, [r1]
 1391 00b8 0B44     		add	r3, r3, r1
 1392 00ba 5B01     		lsls	r3, r3, #5
 1393 00bc 1344     		add	r3, r3, r2
 1394 00be 0022     		movs	r2, #0
 1395 00c0 5A60     		str	r2, [r3, #4]
 204:.\pathfinder.c ****             Nodes[i][j].cost = DEFAULT_NODE_COST; // seet the cost of going to this node to the def
 1396              		.loc 1 204 0 discriminator 3
 1397 00c2 07F5CA52 		add	r2, r7, #6464
 1398 00c6 103A     		subs	r2, r2, #16
 1399 00c8 07F57353 		add	r3, r7, #15552
 1400 00cc 03F13C03 		add	r3, r3, #60
 1401 00d0 1968     		ldr	r1, [r3]
 1402 00d2 0B46     		mov	r3, r1
 1403 00d4 DB00     		lsls	r3, r3, #3
 1404 00d6 0B44     		add	r3, r3, r1
 1405 00d8 5B00     		lsls	r3, r3, #1
 1406 00da 0B44     		add	r3, r3, r1
 1407 00dc 07F57351 		add	r1, r7, #15552
 1408 00e0 01F13801 		add	r1, r1, #56
 1409 00e4 0968     		ldr	r1, [r1]
 1410 00e6 0B44     		add	r3, r3, r1
 1411 00e8 5B01     		lsls	r3, r3, #5
 1412 00ea 1344     		add	r3, r3, r2
 1413 00ec 0833     		adds	r3, r3, #8
 1414 00ee 0A22     		movs	r2, #10
 1415 00f0 1A80     		strh	r2, [r3]	@ movhi
 205:.\pathfinder.c ****             Nodes[i][j].y = i;
 1416              		.loc 1 205 0 discriminator 3
 1417 00f2 07F5CA52 		add	r2, r7, #6464
 1418 00f6 103A     		subs	r2, r2, #16
 1419 00f8 07F57353 		add	r3, r7, #15552
 1420 00fc 03F13C03 		add	r3, r3, #60
 1421 0100 1968     		ldr	r1, [r3]
 1422 0102 0B46     		mov	r3, r1
 1423 0104 DB00     		lsls	r3, r3, #3
 1424 0106 0B44     		add	r3, r3, r1
 1425 0108 5B00     		lsls	r3, r3, #1
 1426 010a 0B44     		add	r3, r3, r1
 1427 010c 07F57351 		add	r1, r7, #15552
 1428 0110 01F13801 		add	r1, r1, #56
 1429 0114 0968     		ldr	r1, [r1]
 1430 0116 0B44     		add	r3, r3, r1
 1431 0118 5B01     		lsls	r3, r3, #5
 1432 011a 1344     		add	r3, r3, r2
 1433 011c 1033     		adds	r3, r3, #16
 1434 011e 07F57352 		add	r2, r7, #15552
 1435 0122 02F13C02 		add	r2, r2, #60
 1436 0126 1268     		ldr	r2, [r2]
ARM GAS  C:\Users\Logan\AppData\Local\Temp\ccWP3ZaE.s 			page 30


 1437 0128 1A60     		str	r2, [r3]
 206:.\pathfinder.c ****             Nodes[i][j].x = j;
 1438              		.loc 1 206 0 discriminator 3
 1439 012a 07F5CA52 		add	r2, r7, #6464
 1440 012e 103A     		subs	r2, r2, #16
 1441 0130 07F57353 		add	r3, r7, #15552
 1442 0134 03F13C03 		add	r3, r3, #60
 1443 0138 1968     		ldr	r1, [r3]
 1444 013a 0B46     		mov	r3, r1
 1445 013c DB00     		lsls	r3, r3, #3
 1446 013e 0B44     		add	r3, r3, r1
 1447 0140 5B00     		lsls	r3, r3, #1
 1448 0142 0B44     		add	r3, r3, r1
 1449 0144 07F57351 		add	r1, r7, #15552
 1450 0148 01F13801 		add	r1, r1, #56
 1451 014c 0968     		ldr	r1, [r1]
 1452 014e 0B44     		add	r3, r3, r1
 1453 0150 5B01     		lsls	r3, r3, #5
 1454 0152 1344     		add	r3, r3, r2
 1455 0154 0833     		adds	r3, r3, #8
 1456 0156 07F57352 		add	r2, r7, #15552
 1457 015a 02F13802 		add	r2, r2, #56
 1458 015e 1268     		ldr	r2, [r2]
 1459 0160 5A60     		str	r2, [r3, #4]
 207:.\pathfinder.c ****             Nodes[i][j].prevNode = 0;
 1460              		.loc 1 207 0 discriminator 3
 1461 0162 07F5CA52 		add	r2, r7, #6464
 1462 0166 103A     		subs	r2, r2, #16
 1463 0168 07F57353 		add	r3, r7, #15552
 1464 016c 03F13C03 		add	r3, r3, #60
 1465 0170 1968     		ldr	r1, [r3]
 1466 0172 0B46     		mov	r3, r1
 1467 0174 DB00     		lsls	r3, r3, #3
 1468 0176 0B44     		add	r3, r3, r1
 1469 0178 5B00     		lsls	r3, r3, #1
 1470 017a 0B44     		add	r3, r3, r1
 1471 017c 07F57351 		add	r1, r7, #15552
 1472 0180 01F13801 		add	r1, r1, #56
 1473 0184 0968     		ldr	r1, [r1]
 1474 0186 0B44     		add	r3, r3, r1
 1475 0188 5B01     		lsls	r3, r3, #5
 1476 018a 1344     		add	r3, r3, r2
 1477 018c 1033     		adds	r3, r3, #16
 1478 018e 0022     		movs	r2, #0
 1479 0190 5A60     		str	r2, [r3, #4]
 208:.\pathfinder.c ****             Nodes[i][j].tentative_cost = 0;// set the current cost to infinity
 1480              		.loc 1 208 0 discriminator 3
 1481 0192 07F5CA52 		add	r2, r7, #6464
 1482 0196 103A     		subs	r2, r2, #16
 1483 0198 07F57353 		add	r3, r7, #15552
 1484 019c 03F13C03 		add	r3, r3, #60
 1485 01a0 1968     		ldr	r1, [r3]
 1486 01a2 0B46     		mov	r3, r1
 1487 01a4 DB00     		lsls	r3, r3, #3
 1488 01a6 0B44     		add	r3, r3, r1
 1489 01a8 5B00     		lsls	r3, r3, #1
 1490 01aa 0B44     		add	r3, r3, r1
ARM GAS  C:\Users\Logan\AppData\Local\Temp\ccWP3ZaE.s 			page 31


 1491 01ac 07F57351 		add	r1, r7, #15552
 1492 01b0 01F13801 		add	r1, r1, #56
 1493 01b4 0968     		ldr	r1, [r1]
 1494 01b6 0B44     		add	r3, r3, r1
 1495 01b8 5B01     		lsls	r3, r3, #5
 1496 01ba 1344     		add	r3, r3, r2
 1497 01bc 1833     		adds	r3, r3, #24
 1498 01be 0022     		movs	r2, #0
 1499 01c0 1A80     		strh	r2, [r3]	@ movhi
 209:.\pathfinder.c ****             Nodes[i][j].direction = 0;
 1500              		.loc 1 209 0 discriminator 3
 1501 01c2 07F5CA52 		add	r2, r7, #6464
 1502 01c6 103A     		subs	r2, r2, #16
 1503 01c8 07F57353 		add	r3, r7, #15552
 1504 01cc 03F13C03 		add	r3, r3, #60
 1505 01d0 1968     		ldr	r1, [r3]
 1506 01d2 0B46     		mov	r3, r1
 1507 01d4 DB00     		lsls	r3, r3, #3
 1508 01d6 0B44     		add	r3, r3, r1
 1509 01d8 5B00     		lsls	r3, r3, #1
 1510 01da 0B44     		add	r3, r3, r1
 1511 01dc 07F57351 		add	r1, r7, #15552
 1512 01e0 01F13801 		add	r1, r1, #56
 1513 01e4 0968     		ldr	r1, [r1]
 1514 01e6 0B44     		add	r3, r3, r1
 1515 01e8 5B01     		lsls	r3, r3, #5
 1516 01ea 1344     		add	r3, r3, r2
 1517 01ec 1833     		adds	r3, r3, #24
 1518 01ee 0022     		movs	r2, #0
 1519 01f0 5A60     		str	r2, [r3, #4]
 200:.\pathfinder.c ****             Nodes[i][j].path = map[i][j];//map information
 1520              		.loc 1 200 0 discriminator 3
 1521 01f2 07F57353 		add	r3, r7, #15552
 1522 01f6 03F13803 		add	r3, r3, #56
 1523 01fa 1B68     		ldr	r3, [r3]
 1524 01fc 0133     		adds	r3, r3, #1
 1525 01fe 07F57352 		add	r2, r7, #15552
 1526 0202 02F13802 		add	r2, r2, #56
 1527 0206 1360     		str	r3, [r2]
 1528              	.L34:
 200:.\pathfinder.c ****             Nodes[i][j].path = map[i][j];//map information
 1529              		.loc 1 200 0 is_stmt 0 discriminator 1
 1530 0208 07F57353 		add	r3, r7, #15552
 1531 020c 03F13803 		add	r3, r3, #56
 1532 0210 1B68     		ldr	r3, [r3]
 1533 0212 122B     		cmp	r3, #18
 1534 0214 7FF614AF 		bls	.L35
 199:.\pathfinder.c ****       for(j = 0; j < X_SIZE; j++){
 1535              		.loc 1 199 0 is_stmt 1 discriminator 2
 1536 0218 07F57353 		add	r3, r7, #15552
 1537 021c 03F13C03 		add	r3, r3, #60
 1538 0220 1B68     		ldr	r3, [r3]
 1539 0222 0133     		adds	r3, r3, #1
 1540 0224 07F57352 		add	r2, r7, #15552
 1541 0228 02F13C02 		add	r2, r2, #60
 1542 022c 1360     		str	r3, [r2]
 1543              	.L33:
ARM GAS  C:\Users\Logan\AppData\Local\Temp\ccWP3ZaE.s 			page 32


 199:.\pathfinder.c ****       for(j = 0; j < X_SIZE; j++){
 1544              		.loc 1 199 0 is_stmt 0 discriminator 1
 1545 022e 07F57353 		add	r3, r7, #15552
 1546 0232 03F13C03 		add	r3, r3, #60
 1547 0236 1B68     		ldr	r3, [r3]
 1548 0238 0E2B     		cmp	r3, #14
 1549 023a 7FF6FAAE 		bls	.L36
 210:.\pathfinder.c ****       }
 211:.\pathfinder.c ****    }
 212:.\pathfinder.c **** 
 213:.\pathfinder.c **** 
 214:.\pathfinder.c ****    uint32_t current[2];
 215:.\pathfinder.c ****    //memcpy(current, start, sizeof(current));//because nothing works in c the way you want it to
 216:.\pathfinder.c ****    current[Y] = start[Y];
 1550              		.loc 1 216 0 is_stmt 1
 1551 023e 3B46     		mov	r3, r7
 1552 0240 1B68     		ldr	r3, [r3]
 1553 0242 1A68     		ldr	r2, [r3]
 1554 0244 07F5CA53 		add	r3, r7, #6464
 1555 0248 183B     		subs	r3, r3, #24
 1556 024a 1A60     		str	r2, [r3]
 217:.\pathfinder.c ****    current[X] = start[X];
 1557              		.loc 1 217 0
 1558 024c 3B46     		mov	r3, r7
 1559 024e 1B68     		ldr	r3, [r3]
 1560 0250 5A68     		ldr	r2, [r3, #4]
 1561 0252 07F5CA53 		add	r3, r7, #6464
 1562 0256 183B     		subs	r3, r3, #24
 1563 0258 5A60     		str	r2, [r3, #4]
 218:.\pathfinder.c ****    uint32_t totalIterationCounter = 0;
 1564              		.loc 1 218 0
 1565 025a 0023     		movs	r3, #0
 1566 025c 07F57352 		add	r2, r7, #15552
 1567 0260 02F13402 		add	r2, r2, #52
 1568 0264 1360     		str	r3, [r2]
 219:.\pathfinder.c ****    uint32_t nextNodes[DEFAULT_ARRAY_SIZE][2] = {0};
 1569              		.loc 1 219 0
 1570 0266 07F14003 		add	r3, r7, #64
 1571 026a 183B     		subs	r3, r3, #24
 1572 026c 1A46     		mov	r2, r3
 1573 026e 4FF4C853 		mov	r3, #6400
 1574 0272 1046     		mov	r0, r2
 1575 0274 0021     		movs	r1, #0
 1576 0276 1A46     		mov	r2, r3
 1577 0278 FFF7FEFF 		bl	memset
 220:.\pathfinder.c ****    //uint32_t nextNodesDirection[DEFAULT_ARRAY_SIZE] = {0};
 221:.\pathfinder.c ****    uint32_t tentativeNode[2] = {0};//x and y coordinate of the next node
 1578              		.loc 1 221 0
 1579 027c 07F14003 		add	r3, r7, #64
 1580 0280 203B     		subs	r3, r3, #32
 1581 0282 0022     		movs	r2, #0
 1582 0284 1A60     		str	r2, [r3]
 1583 0286 0022     		movs	r2, #0
 1584 0288 5A60     		str	r2, [r3, #4]
 222:.\pathfinder.c ****    uint32_t unreachable = 0;
 1585              		.loc 1 222 0
 1586 028a 0023     		movs	r3, #0
ARM GAS  C:\Users\Logan\AppData\Local\Temp\ccWP3ZaE.s 			page 33


 1587 028c 07F57352 		add	r2, r7, #15552
 1588 0290 02F11402 		add	r2, r2, #20
 1589 0294 1360     		str	r3, [r2]
 223:.\pathfinder.c ****    uint32_t corner_penalty = 0;
 1590              		.loc 1 223 0
 1591 0296 0023     		movs	r3, #0
 1592 0298 07F57352 		add	r2, r7, #15552
 1593 029c 02F13002 		add	r2, r2, #48
 1594 02a0 1360     		str	r3, [r2]
 224:.\pathfinder.c ****    uint32_t counter = 0;
 1595              		.loc 1 224 0
 1596 02a2 0023     		movs	r3, #0
 1597 02a4 07F57352 		add	r2, r7, #15552
 1598 02a8 02F12C02 		add	r2, r2, #44
 1599 02ac 1360     		str	r3, [r2]
 225:.\pathfinder.c ****    uint16 tmpCost = 0;
 1600              		.loc 1 225 0
 1601 02ae 0023     		movs	r3, #0
 1602 02b0 07F57352 		add	r2, r7, #15552
 1603 02b4 02F11202 		add	r2, r2, #18
 1604 02b8 1380     		strh	r3, [r2]	@ movhi
 226:.\pathfinder.c ****    uint32_t nextNode[2] = {0, 0};
 1605              		.loc 1 226 0
 1606 02ba 07F14003 		add	r3, r7, #64
 1607 02be 283B     		subs	r3, r3, #40
 1608 02c0 0022     		movs	r2, #0
 1609 02c2 1A60     		str	r2, [r3]
 1610 02c4 07F14003 		add	r3, r7, #64
 1611 02c8 283B     		subs	r3, r3, #40
 1612 02ca 0022     		movs	r2, #0
 1613 02cc 5A60     		str	r2, [r3, #4]
 227:.\pathfinder.c ****    uint32_t nextNodeIndex = 0;
 1614              		.loc 1 227 0
 1615 02ce 0023     		movs	r3, #0
 1616 02d0 07F57352 		add	r2, r7, #15552
 1617 02d4 02F12802 		add	r2, r2, #40
 1618 02d8 1360     		str	r3, [r2]
 228:.\pathfinder.c ****    uint32_t tmpNextNode[2] = {0};
 1619              		.loc 1 228 0
 1620 02da 07F14003 		add	r3, r7, #64
 1621 02de 303B     		subs	r3, r3, #48
 1622 02e0 0022     		movs	r2, #0
 1623 02e2 1A60     		str	r2, [r3]
 1624 02e4 0022     		movs	r2, #0
 1625 02e6 5A60     		str	r2, [r3, #4]
 229:.\pathfinder.c ****    uint32_t nextNodeCost = 0;
 1626              		.loc 1 229 0
 1627 02e8 0023     		movs	r3, #0
 1628 02ea 07F57352 		add	r2, r7, #15552
 1629 02ee 02F12402 		add	r2, r2, #36
 1630 02f2 1360     		str	r3, [r2]
 230:.\pathfinder.c ****    uint32_t hasNext = 1;
 1631              		.loc 1 230 0
 1632 02f4 0123     		movs	r3, #1
 1633 02f6 07F57352 		add	r2, r7, #15552
 1634 02fa 02F12002 		add	r2, r2, #32
 1635 02fe 1360     		str	r3, [r2]
ARM GAS  C:\Users\Logan\AppData\Local\Temp\ccWP3ZaE.s 			page 34


 231:.\pathfinder.c **** 
 232:.\pathfinder.c ****    //set the initial variables
 233:.\pathfinder.c ****    Nodes[current[Y]][current[X]].tentative_cost = 0;
 1636              		.loc 1 233 0
 1637 0300 07F5CA53 		add	r3, r7, #6464
 1638 0304 183B     		subs	r3, r3, #24
 1639 0306 1968     		ldr	r1, [r3]
 1640 0308 07F5CA53 		add	r3, r7, #6464
 1641 030c 183B     		subs	r3, r3, #24
 1642 030e 5868     		ldr	r0, [r3, #4]
 1643 0310 07F5CA52 		add	r2, r7, #6464
 1644 0314 103A     		subs	r2, r2, #16
 1645 0316 0B46     		mov	r3, r1
 1646 0318 DB00     		lsls	r3, r3, #3
 1647 031a 0B44     		add	r3, r3, r1
 1648 031c 5B00     		lsls	r3, r3, #1
 1649 031e 0B44     		add	r3, r3, r1
 1650 0320 0344     		add	r3, r3, r0
 1651 0322 5B01     		lsls	r3, r3, #5
 1652 0324 1344     		add	r3, r3, r2
 1653 0326 1833     		adds	r3, r3, #24
 1654 0328 0022     		movs	r2, #0
 1655 032a 1A80     		strh	r2, [r3]	@ movhi
 234:.\pathfinder.c ****    Nodes[current[Y]][current[X]].prevNode = &Nodes[current[Y]][current[X]];
 1656              		.loc 1 234 0
 1657 032c 07F5CA53 		add	r3, r7, #6464
 1658 0330 183B     		subs	r3, r3, #24
 1659 0332 1968     		ldr	r1, [r3]
 1660 0334 07F5CA53 		add	r3, r7, #6464
 1661 0338 183B     		subs	r3, r3, #24
 1662 033a 5C68     		ldr	r4, [r3, #4]
 1663 033c 07F5CA53 		add	r3, r7, #6464
 1664 0340 183B     		subs	r3, r3, #24
 1665 0342 1868     		ldr	r0, [r3]
 1666 0344 07F5CA53 		add	r3, r7, #6464
 1667 0348 183B     		subs	r3, r3, #24
 1668 034a 5D68     		ldr	r5, [r3, #4]
 1669 034c 07F5CA52 		add	r2, r7, #6464
 1670 0350 103A     		subs	r2, r2, #16
 1671 0352 0346     		mov	r3, r0
 1672 0354 DB00     		lsls	r3, r3, #3
 1673 0356 0344     		add	r3, r3, r0
 1674 0358 5B00     		lsls	r3, r3, #1
 1675 035a 0344     		add	r3, r3, r0
 1676 035c 2B44     		add	r3, r3, r5
 1677 035e 5B01     		lsls	r3, r3, #5
 1678 0360 D018     		adds	r0, r2, r3
 1679 0362 07F5CA52 		add	r2, r7, #6464
 1680 0366 103A     		subs	r2, r2, #16
 1681 0368 0B46     		mov	r3, r1
 1682 036a DB00     		lsls	r3, r3, #3
 1683 036c 0B44     		add	r3, r3, r1
 1684 036e 5B00     		lsls	r3, r3, #1
 1685 0370 0B44     		add	r3, r3, r1
 1686 0372 2344     		add	r3, r3, r4
 1687 0374 5B01     		lsls	r3, r3, #5
 1688 0376 1344     		add	r3, r3, r2
ARM GAS  C:\Users\Logan\AppData\Local\Temp\ccWP3ZaE.s 			page 35


 1689 0378 1033     		adds	r3, r3, #16
 1690 037a 5860     		str	r0, [r3, #4]
 235:.\pathfinder.c ****    Nodes[current[Y]][current[X]].direction = direction;//TODO: changed
 1691              		.loc 1 235 0
 1692 037c 07F5CA53 		add	r3, r7, #6464
 1693 0380 183B     		subs	r3, r3, #24
 1694 0382 1968     		ldr	r1, [r3]
 1695 0384 07F5CA53 		add	r3, r7, #6464
 1696 0388 183B     		subs	r3, r3, #24
 1697 038a 5868     		ldr	r0, [r3, #4]
 1698 038c 07F5CA52 		add	r2, r7, #6464
 1699 0390 103A     		subs	r2, r2, #16
 1700 0392 0B46     		mov	r3, r1
 1701 0394 DB00     		lsls	r3, r3, #3
 1702 0396 0B44     		add	r3, r3, r1
 1703 0398 5B00     		lsls	r3, r3, #1
 1704 039a 0B44     		add	r3, r3, r1
 1705 039c 0344     		add	r3, r3, r0
 1706 039e 5B01     		lsls	r3, r3, #5
 1707 03a0 1344     		add	r3, r3, r2
 1708 03a2 1833     		adds	r3, r3, #24
 1709 03a4 07F57452 		add	r2, r7, #15616
 1710 03a8 02F11402 		add	r2, r2, #20
 1711 03ac 1268     		ldr	r2, [r2]
 1712 03ae 5A60     		str	r2, [r3, #4]
 236:.\pathfinder.c ****    int path_couter = 0;
 1713              		.loc 1 236 0
 1714 03b0 0023     		movs	r3, #0
 1715 03b2 07F57352 		add	r2, r7, #15552
 1716 03b6 02F11C02 		add	r2, r2, #28
 1717 03ba 1360     		str	r3, [r2]
 237:.\pathfinder.c **** 
 238:.\pathfinder.c ****    //early exit, run until x and y are equal
 239:.\pathfinder.c ****    while(hasNext == 1){
 1718              		.loc 1 239 0
 1719 03bc 02E3     		b	.L37
 1720              	.L49:
 1721              	.LBB5:
 240:.\pathfinder.c ****       counter = 1;
 1722              		.loc 1 240 0
 1723 03be 0123     		movs	r3, #1
 1724 03c0 07F57352 		add	r2, r7, #15552
 1725 03c4 02F12C02 		add	r2, r2, #44
 1726 03c8 1360     		str	r3, [r2]
 241:.\pathfinder.c ****       Nodes[current[Y]][current[1]].visited = VISITED; // set visited to true
 1727              		.loc 1 241 0
 1728 03ca 07F5CA53 		add	r3, r7, #6464
 1729 03ce 183B     		subs	r3, r3, #24
 1730 03d0 1968     		ldr	r1, [r3]
 1731 03d2 07F5CA53 		add	r3, r7, #6464
 1732 03d6 183B     		subs	r3, r3, #24
 1733 03d8 5868     		ldr	r0, [r3, #4]
 1734 03da 07F5CA52 		add	r2, r7, #6464
 1735 03de 103A     		subs	r2, r2, #16
 1736 03e0 0B46     		mov	r3, r1
 1737 03e2 DB00     		lsls	r3, r3, #3
 1738 03e4 0B44     		add	r3, r3, r1
ARM GAS  C:\Users\Logan\AppData\Local\Temp\ccWP3ZaE.s 			page 36


 1739 03e6 5B00     		lsls	r3, r3, #1
 1740 03e8 0B44     		add	r3, r3, r1
 1741 03ea 0344     		add	r3, r3, r0
 1742 03ec 5B01     		lsls	r3, r3, #5
 1743 03ee 1344     		add	r3, r3, r2
 1744 03f0 0122     		movs	r2, #1
 1745 03f2 5A60     		str	r2, [r3, #4]
 242:.\pathfinder.c ****       //printf("main loop %d | X: %d | Y: %d\n", Nodes[current[0]][current[1]].visited, Nodes[curre
 243:.\pathfinder.c ****       while(counter <= 4){
 1746              		.loc 1 243 0
 1747 03f4 83E1     		b	.L38
 1748              	.L45:
 244:.\pathfinder.c ****          corner_penalty = 0;
 1749              		.loc 1 244 0
 1750 03f6 0023     		movs	r3, #0
 1751 03f8 07F57352 		add	r2, r7, #15552
 1752 03fc 02F13002 		add	r2, r2, #48
 1753 0400 1360     		str	r3, [r2]
 245:.\pathfinder.c ****          if(counter == 1){
 1754              		.loc 1 245 0
 1755 0402 07F57353 		add	r3, r7, #15552
 1756 0406 03F12C03 		add	r3, r3, #44
 1757 040a 1B68     		ldr	r3, [r3]
 1758 040c 012B     		cmp	r3, #1
 1759 040e 11D1     		bne	.L39
 246:.\pathfinder.c ****             tentativeNode[Y] = current[Y] - 1;
 1760              		.loc 1 246 0
 1761 0410 07F5CA53 		add	r3, r7, #6464
 1762 0414 183B     		subs	r3, r3, #24
 1763 0416 1B68     		ldr	r3, [r3]
 1764 0418 5A1E     		subs	r2, r3, #1
 1765 041a 07F14003 		add	r3, r7, #64
 1766 041e 203B     		subs	r3, r3, #32
 1767 0420 1A60     		str	r2, [r3]
 247:.\pathfinder.c ****             tentativeNode[X] = current[X];
 1768              		.loc 1 247 0
 1769 0422 07F5CA53 		add	r3, r7, #6464
 1770 0426 183B     		subs	r3, r3, #24
 1771 0428 5A68     		ldr	r2, [r3, #4]
 1772 042a 07F14003 		add	r3, r7, #64
 1773 042e 203B     		subs	r3, r3, #32
 1774 0430 5A60     		str	r2, [r3, #4]
 1775 0432 49E0     		b	.L40
 1776              	.L39:
 248:.\pathfinder.c ****          }else if(counter == 2){
 1777              		.loc 1 248 0
 1778 0434 07F57353 		add	r3, r7, #15552
 1779 0438 03F12C03 		add	r3, r3, #44
 1780 043c 1B68     		ldr	r3, [r3]
 1781 043e 022B     		cmp	r3, #2
 1782 0440 11D1     		bne	.L41
 249:.\pathfinder.c ****             tentativeNode[Y] = current[Y];
 1783              		.loc 1 249 0
 1784 0442 07F5CA53 		add	r3, r7, #6464
 1785 0446 183B     		subs	r3, r3, #24
 1786 0448 1A68     		ldr	r2, [r3]
 1787 044a 07F14003 		add	r3, r7, #64
ARM GAS  C:\Users\Logan\AppData\Local\Temp\ccWP3ZaE.s 			page 37


 1788 044e 203B     		subs	r3, r3, #32
 1789 0450 1A60     		str	r2, [r3]
 250:.\pathfinder.c ****             tentativeNode[X] = current[X] + 1;
 1790              		.loc 1 250 0
 1791 0452 07F5CA53 		add	r3, r7, #6464
 1792 0456 183B     		subs	r3, r3, #24
 1793 0458 5B68     		ldr	r3, [r3, #4]
 1794 045a 5A1C     		adds	r2, r3, #1
 1795 045c 07F14003 		add	r3, r7, #64
 1796 0460 203B     		subs	r3, r3, #32
 1797 0462 5A60     		str	r2, [r3, #4]
 1798 0464 30E0     		b	.L40
 1799              	.L41:
 251:.\pathfinder.c ****          }else if(counter == 3){
 1800              		.loc 1 251 0
 1801 0466 07F57353 		add	r3, r7, #15552
 1802 046a 03F12C03 		add	r3, r3, #44
 1803 046e 1B68     		ldr	r3, [r3]
 1804 0470 032B     		cmp	r3, #3
 1805 0472 11D1     		bne	.L42
 252:.\pathfinder.c ****             tentativeNode[Y] = current[Y] + 1;
 1806              		.loc 1 252 0
 1807 0474 07F5CA53 		add	r3, r7, #6464
 1808 0478 183B     		subs	r3, r3, #24
 1809 047a 1B68     		ldr	r3, [r3]
 1810 047c 5A1C     		adds	r2, r3, #1
 1811 047e 07F14003 		add	r3, r7, #64
 1812 0482 203B     		subs	r3, r3, #32
 1813 0484 1A60     		str	r2, [r3]
 253:.\pathfinder.c ****             tentativeNode[X] = current[X];
 1814              		.loc 1 253 0
 1815 0486 07F5CA53 		add	r3, r7, #6464
 1816 048a 183B     		subs	r3, r3, #24
 1817 048c 5A68     		ldr	r2, [r3, #4]
 1818 048e 07F14003 		add	r3, r7, #64
 1819 0492 203B     		subs	r3, r3, #32
 1820 0494 5A60     		str	r2, [r3, #4]
 1821 0496 17E0     		b	.L40
 1822              	.L42:
 254:.\pathfinder.c ****          }else if(counter == 4){
 1823              		.loc 1 254 0
 1824 0498 07F57353 		add	r3, r7, #15552
 1825 049c 03F12C03 		add	r3, r3, #44
 1826 04a0 1B68     		ldr	r3, [r3]
 1827 04a2 042B     		cmp	r3, #4
 1828 04a4 10D1     		bne	.L40
 255:.\pathfinder.c ****             tentativeNode[Y] = current[Y];
 1829              		.loc 1 255 0
 1830 04a6 07F5CA53 		add	r3, r7, #6464
 1831 04aa 183B     		subs	r3, r3, #24
 1832 04ac 1A68     		ldr	r2, [r3]
 1833 04ae 07F14003 		add	r3, r7, #64
 1834 04b2 203B     		subs	r3, r3, #32
 1835 04b4 1A60     		str	r2, [r3]
 256:.\pathfinder.c ****             tentativeNode[X] = current[X] - 1;
 1836              		.loc 1 256 0
 1837 04b6 07F5CA53 		add	r3, r7, #6464
ARM GAS  C:\Users\Logan\AppData\Local\Temp\ccWP3ZaE.s 			page 38


 1838 04ba 183B     		subs	r3, r3, #24
 1839 04bc 5B68     		ldr	r3, [r3, #4]
 1840 04be 5A1E     		subs	r2, r3, #1
 1841 04c0 07F14003 		add	r3, r7, #64
 1842 04c4 203B     		subs	r3, r3, #32
 1843 04c6 5A60     		str	r2, [r3, #4]
 1844              	.L40:
 257:.\pathfinder.c ****          }
 258:.\pathfinder.c ****          if(counter != direction){
 1845              		.loc 1 258 0
 1846 04c8 07F57353 		add	r3, r7, #15552
 1847 04cc 03F12C03 		add	r3, r3, #44
 1848 04d0 1A68     		ldr	r2, [r3]
 1849 04d2 07F57453 		add	r3, r7, #15616
 1850 04d6 03F11403 		add	r3, r3, #20
 1851 04da 1B68     		ldr	r3, [r3]
 1852 04dc 9A42     		cmp	r2, r3
 1853 04de 05D0     		beq	.L43
 259:.\pathfinder.c ****             corner_penalty = CORNER_PENALTY;
 1854              		.loc 1 259 0
 1855 04e0 0023     		movs	r3, #0
 1856 04e2 07F57352 		add	r2, r7, #15552
 1857 04e6 02F13002 		add	r2, r2, #48
 1858 04ea 1360     		str	r3, [r2]
 1859              	.L43:
 260:.\pathfinder.c ****          }
 261:.\pathfinder.c **** 
 262:.\pathfinder.c ****          if(tentativeNode[Y] >= 0 && tentativeNode[X] >= 0 && tentativeNode[Y] <= Y_SIZE && tentati
 1860              		.loc 1 262 0
 1861 04ec 07F14003 		add	r3, r7, #64
 1862 04f0 203B     		subs	r3, r3, #32
 1863 04f2 1B68     		ldr	r3, [r3]
 1864 04f4 0F2B     		cmp	r3, #15
 1865 04f6 00F2F780 		bhi	.L44
 1866              		.loc 1 262 0 is_stmt 0 discriminator 1
 1867 04fa 07F14003 		add	r3, r7, #64
 1868 04fe 203B     		subs	r3, r3, #32
 1869 0500 5B68     		ldr	r3, [r3, #4]
 1870 0502 132B     		cmp	r3, #19
 1871 0504 00F2F080 		bhi	.L44
 263:.\pathfinder.c ****             if(Nodes[tentativeNode[Y]][tentativeNode[X]].path == PATH){//check the node is a path
 1872              		.loc 1 263 0 is_stmt 1
 1873 0508 07F14003 		add	r3, r7, #64
 1874 050c 203B     		subs	r3, r3, #32
 1875 050e 1968     		ldr	r1, [r3]
 1876 0510 07F14003 		add	r3, r7, #64
 1877 0514 203B     		subs	r3, r3, #32
 1878 0516 5868     		ldr	r0, [r3, #4]
 1879 0518 07F5CA52 		add	r2, r7, #6464
 1880 051c 103A     		subs	r2, r2, #16
 1881 051e 0B46     		mov	r3, r1
 1882 0520 DB00     		lsls	r3, r3, #3
 1883 0522 0B44     		add	r3, r3, r1
 1884 0524 5B00     		lsls	r3, r3, #1
 1885 0526 0B44     		add	r3, r3, r1
 1886 0528 0344     		add	r3, r3, r0
 1887 052a 5B01     		lsls	r3, r3, #5
ARM GAS  C:\Users\Logan\AppData\Local\Temp\ccWP3ZaE.s 			page 39


 1888 052c 1344     		add	r3, r3, r2
 1889 052e 1B68     		ldr	r3, [r3]
 1890 0530 002B     		cmp	r3, #0
 1891 0532 40F0D980 		bne	.L44
 264:.\pathfinder.c ****                //printf("3\n", hasNext);
 265:.\pathfinder.c ****                tmpCost = Nodes[current[Y]][current[X]].tentative_cost + Nodes[tentativeNode[Y]][ten
 1892              		.loc 1 265 0
 1893 0536 07F5CA53 		add	r3, r7, #6464
 1894 053a 183B     		subs	r3, r3, #24
 1895 053c 1968     		ldr	r1, [r3]
 1896 053e 07F5CA53 		add	r3, r7, #6464
 1897 0542 183B     		subs	r3, r3, #24
 1898 0544 5868     		ldr	r0, [r3, #4]
 1899 0546 07F5CA52 		add	r2, r7, #6464
 1900 054a 103A     		subs	r2, r2, #16
 1901 054c 0B46     		mov	r3, r1
 1902 054e DB00     		lsls	r3, r3, #3
 1903 0550 0B44     		add	r3, r3, r1
 1904 0552 5B00     		lsls	r3, r3, #1
 1905 0554 0B44     		add	r3, r3, r1
 1906 0556 0344     		add	r3, r3, r0
 1907 0558 5B01     		lsls	r3, r3, #5
 1908 055a 1344     		add	r3, r3, r2
 1909 055c 1833     		adds	r3, r3, #24
 1910 055e 1888     		ldrh	r0, [r3]
 1911 0560 07F14003 		add	r3, r7, #64
 1912 0564 203B     		subs	r3, r3, #32
 1913 0566 1968     		ldr	r1, [r3]
 1914 0568 07F14003 		add	r3, r7, #64
 1915 056c 203B     		subs	r3, r3, #32
 1916 056e 5C68     		ldr	r4, [r3, #4]
 1917 0570 07F5CA52 		add	r2, r7, #6464
 1918 0574 103A     		subs	r2, r2, #16
 1919 0576 0B46     		mov	r3, r1
 1920 0578 DB00     		lsls	r3, r3, #3
 1921 057a 0B44     		add	r3, r3, r1
 1922 057c 5B00     		lsls	r3, r3, #1
 1923 057e 0B44     		add	r3, r3, r1
 1924 0580 2344     		add	r3, r3, r4
 1925 0582 5B01     		lsls	r3, r3, #5
 1926 0584 1344     		add	r3, r3, r2
 1927 0586 0833     		adds	r3, r3, #8
 1928 0588 1B88     		ldrh	r3, [r3]
 1929 058a 0344     		add	r3, r3, r0
 1930 058c 9AB2     		uxth	r2, r3
 1931 058e 07F57353 		add	r3, r7, #15552
 1932 0592 03F13003 		add	r3, r3, #48
 1933 0596 1B68     		ldr	r3, [r3]
 1934 0598 9BB2     		uxth	r3, r3
 1935 059a 1344     		add	r3, r3, r2
 1936 059c 07F57352 		add	r2, r7, #15552
 1937 05a0 02F11202 		add	r2, r2, #18
 1938 05a4 1380     		strh	r3, [r2]	@ movhi
 266:.\pathfinder.c ****                if(tmpCost > Nodes[tentativeNode[Y]][tentativeNode[X]].tentative_cost){
 1939              		.loc 1 266 0
 1940 05a6 07F14003 		add	r3, r7, #64
 1941 05aa 203B     		subs	r3, r3, #32
ARM GAS  C:\Users\Logan\AppData\Local\Temp\ccWP3ZaE.s 			page 40


 1942 05ac 1968     		ldr	r1, [r3]
 1943 05ae 07F14003 		add	r3, r7, #64
 1944 05b2 203B     		subs	r3, r3, #32
 1945 05b4 5868     		ldr	r0, [r3, #4]
 1946 05b6 07F5CA52 		add	r2, r7, #6464
 1947 05ba 103A     		subs	r2, r2, #16
 1948 05bc 0B46     		mov	r3, r1
 1949 05be DB00     		lsls	r3, r3, #3
 1950 05c0 0B44     		add	r3, r3, r1
 1951 05c2 5B00     		lsls	r3, r3, #1
 1952 05c4 0B44     		add	r3, r3, r1
 1953 05c6 0344     		add	r3, r3, r0
 1954 05c8 5B01     		lsls	r3, r3, #5
 1955 05ca 1344     		add	r3, r3, r2
 1956 05cc 1833     		adds	r3, r3, #24
 1957 05ce 1B88     		ldrh	r3, [r3]
 1958 05d0 07F57352 		add	r2, r7, #15552
 1959 05d4 02F11202 		add	r2, r2, #18
 1960 05d8 1288     		ldrh	r2, [r2]
 1961 05da 9A42     		cmp	r2, r3
 1962 05dc 40F28480 		bls	.L44
 267:.\pathfinder.c ****                   //printf("5 %d\n", tmpCost);
 268:.\pathfinder.c ****                   Nodes[tentativeNode[Y]][tentativeNode[X]].tentative_cost = tmpCost;
 1963              		.loc 1 268 0
 1964 05e0 07F14003 		add	r3, r7, #64
 1965 05e4 203B     		subs	r3, r3, #32
 1966 05e6 1968     		ldr	r1, [r3]
 1967 05e8 07F14003 		add	r3, r7, #64
 1968 05ec 203B     		subs	r3, r3, #32
 1969 05ee 5868     		ldr	r0, [r3, #4]
 1970 05f0 07F5CA52 		add	r2, r7, #6464
 1971 05f4 103A     		subs	r2, r2, #16
 1972 05f6 0B46     		mov	r3, r1
 1973 05f8 DB00     		lsls	r3, r3, #3
 1974 05fa 0B44     		add	r3, r3, r1
 1975 05fc 5B00     		lsls	r3, r3, #1
 1976 05fe 0B44     		add	r3, r3, r1
 1977 0600 0344     		add	r3, r3, r0
 1978 0602 5B01     		lsls	r3, r3, #5
 1979 0604 1344     		add	r3, r3, r2
 1980 0606 1833     		adds	r3, r3, #24
 1981 0608 07F57352 		add	r2, r7, #15552
 1982 060c 02F11202 		add	r2, r2, #18
 1983 0610 1288     		ldrh	r2, [r2]	@ movhi
 1984 0612 1A80     		strh	r2, [r3]	@ movhi
 269:.\pathfinder.c ****                   //printf("6 currentX : %d, currentY : %d\n", current[0], current[1]);
 270:.\pathfinder.c **** 
 271:.\pathfinder.c ****                   //printf("Discovered node at X : %d, Y : %d\n", tentativeNode[0], tentativeNode[1
 272:.\pathfinder.c ****                   Nodes[tentativeNode[Y]][tentativeNode[X]].prevNode = &Nodes[current[Y]][current[1
 1985              		.loc 1 272 0
 1986 0614 07F14003 		add	r3, r7, #64
 1987 0618 203B     		subs	r3, r3, #32
 1988 061a 1968     		ldr	r1, [r3]
 1989 061c 07F14003 		add	r3, r7, #64
 1990 0620 203B     		subs	r3, r3, #32
 1991 0622 5C68     		ldr	r4, [r3, #4]
 1992 0624 07F5CA53 		add	r3, r7, #6464
ARM GAS  C:\Users\Logan\AppData\Local\Temp\ccWP3ZaE.s 			page 41


 1993 0628 183B     		subs	r3, r3, #24
 1994 062a 1868     		ldr	r0, [r3]
 1995 062c 07F5CA53 		add	r3, r7, #6464
 1996 0630 183B     		subs	r3, r3, #24
 1997 0632 5D68     		ldr	r5, [r3, #4]
 1998 0634 07F5CA52 		add	r2, r7, #6464
 1999 0638 103A     		subs	r2, r2, #16
 2000 063a 0346     		mov	r3, r0
 2001 063c DB00     		lsls	r3, r3, #3
 2002 063e 0344     		add	r3, r3, r0
 2003 0640 5B00     		lsls	r3, r3, #1
 2004 0642 0344     		add	r3, r3, r0
 2005 0644 2B44     		add	r3, r3, r5
 2006 0646 5B01     		lsls	r3, r3, #5
 2007 0648 D018     		adds	r0, r2, r3
 2008 064a 07F5CA52 		add	r2, r7, #6464
 2009 064e 103A     		subs	r2, r2, #16
 2010 0650 0B46     		mov	r3, r1
 2011 0652 DB00     		lsls	r3, r3, #3
 2012 0654 0B44     		add	r3, r3, r1
 2013 0656 5B00     		lsls	r3, r3, #1
 2014 0658 0B44     		add	r3, r3, r1
 2015 065a 2344     		add	r3, r3, r4
 2016 065c 5B01     		lsls	r3, r3, #5
 2017 065e 1344     		add	r3, r3, r2
 2018 0660 1033     		adds	r3, r3, #16
 2019 0662 5860     		str	r0, [r3, #4]
 273:.\pathfinder.c ****                   nextNodes[totalIterationCounter][Y] = tentativeNode[Y];
 2020              		.loc 1 273 0
 2021 0664 07F14003 		add	r3, r7, #64
 2022 0668 203B     		subs	r3, r3, #32
 2023 066a 1968     		ldr	r1, [r3]
 2024 066c 07F14003 		add	r3, r7, #64
 2025 0670 183B     		subs	r3, r3, #24
 2026 0672 07F57352 		add	r2, r7, #15552
 2027 0676 02F13402 		add	r2, r2, #52
 2028 067a 1268     		ldr	r2, [r2]
 2029 067c 43F83210 		str	r1, [r3, r2, lsl #3]
 274:.\pathfinder.c ****                   nextNodes[totalIterationCounter][X] = tentativeNode[X];
 2030              		.loc 1 274 0
 2031 0680 07F14003 		add	r3, r7, #64
 2032 0684 203B     		subs	r3, r3, #32
 2033 0686 5968     		ldr	r1, [r3, #4]
 2034 0688 07F14002 		add	r2, r7, #64
 2035 068c 183A     		subs	r2, r2, #24
 2036 068e 07F57353 		add	r3, r7, #15552
 2037 0692 03F13403 		add	r3, r3, #52
 2038 0696 1B68     		ldr	r3, [r3]
 2039 0698 DB00     		lsls	r3, r3, #3
 2040 069a 1344     		add	r3, r3, r2
 2041 069c 5960     		str	r1, [r3, #4]
 275:.\pathfinder.c ****                   Nodes[tentativeNode[Y]][tentativeNode[X]].direction = counter;
 2042              		.loc 1 275 0
 2043 069e 07F14003 		add	r3, r7, #64
 2044 06a2 203B     		subs	r3, r3, #32
 2045 06a4 1968     		ldr	r1, [r3]
 2046 06a6 07F14003 		add	r3, r7, #64
ARM GAS  C:\Users\Logan\AppData\Local\Temp\ccWP3ZaE.s 			page 42


 2047 06aa 203B     		subs	r3, r3, #32
 2048 06ac 5868     		ldr	r0, [r3, #4]
 2049 06ae 07F5CA52 		add	r2, r7, #6464
 2050 06b2 103A     		subs	r2, r2, #16
 2051 06b4 0B46     		mov	r3, r1
 2052 06b6 DB00     		lsls	r3, r3, #3
 2053 06b8 0B44     		add	r3, r3, r1
 2054 06ba 5B00     		lsls	r3, r3, #1
 2055 06bc 0B44     		add	r3, r3, r1
 2056 06be 0344     		add	r3, r3, r0
 2057 06c0 5B01     		lsls	r3, r3, #5
 2058 06c2 1344     		add	r3, r3, r2
 2059 06c4 1833     		adds	r3, r3, #24
 2060 06c6 07F57352 		add	r2, r7, #15552
 2061 06ca 02F12C02 		add	r2, r2, #44
 2062 06ce 1268     		ldr	r2, [r2]
 2063 06d0 5A60     		str	r2, [r3, #4]
 276:.\pathfinder.c ****                   //nextNodesDirection[totalIterationCounter] = counter;
 277:.\pathfinder.c ****                   totalIterationCounter = 1 + totalIterationCounter;
 2064              		.loc 1 277 0
 2065 06d2 07F57353 		add	r3, r7, #15552
 2066 06d6 03F13403 		add	r3, r3, #52
 2067 06da 1B68     		ldr	r3, [r3]
 2068 06dc 0133     		adds	r3, r3, #1
 2069 06de 07F57352 		add	r2, r7, #15552
 2070 06e2 02F13402 		add	r2, r2, #52
 2071 06e6 1360     		str	r3, [r2]
 2072              	.L44:
 278:.\pathfinder.c ****                }
 279:.\pathfinder.c ****             }
 280:.\pathfinder.c ****          }
 281:.\pathfinder.c ****          counter++;
 2073              		.loc 1 281 0
 2074 06e8 07F57353 		add	r3, r7, #15552
 2075 06ec 03F12C03 		add	r3, r3, #44
 2076 06f0 1B68     		ldr	r3, [r3]
 2077 06f2 0133     		adds	r3, r3, #1
 2078 06f4 07F57352 		add	r2, r7, #15552
 2079 06f8 02F12C02 		add	r2, r2, #44
 2080 06fc 1360     		str	r3, [r2]
 2081              	.L38:
 243:.\pathfinder.c ****          corner_penalty = 0;
 2082              		.loc 1 243 0
 2083 06fe 07F57353 		add	r3, r7, #15552
 2084 0702 03F12C03 		add	r3, r3, #44
 2085 0706 1B68     		ldr	r3, [r3]
 2086 0708 042B     		cmp	r3, #4
 2087 070a 7FF674AE 		bls	.L45
 282:.\pathfinder.c ****       }
 283:.\pathfinder.c ****       //set the default cost value so that the for loop will find the lowest unvisited node
 284:.\pathfinder.c ****       nextNodeCost = 0;
 2088              		.loc 1 284 0
 2089 070e 0023     		movs	r3, #0
 2090 0710 07F57352 		add	r2, r7, #15552
 2091 0714 02F12402 		add	r2, r2, #36
 2092 0718 1360     		str	r3, [r2]
 285:.\pathfinder.c ****       //find the lowest unvisited node
ARM GAS  C:\Users\Logan\AppData\Local\Temp\ccWP3ZaE.s 			page 43


 286:.\pathfinder.c ****       hasNext = 0;
 2093              		.loc 1 286 0
 2094 071a 0023     		movs	r3, #0
 2095 071c 07F57352 		add	r2, r7, #15552
 2096 0720 02F12002 		add	r2, r2, #32
 2097 0724 1360     		str	r3, [r2]
 287:.\pathfinder.c **** 
 288:.\pathfinder.c ****       //find the next node to visit
 289:.\pathfinder.c ****       //printf("totalIterationCounter : %d\n", totalIterationCounter);
 290:.\pathfinder.c ****         int i;
 291:.\pathfinder.c ****       for(i = 0; i < totalIterationCounter; i++){
 2098              		.loc 1 291 0
 2099 0726 0023     		movs	r3, #0
 2100 0728 07F57352 		add	r2, r7, #15552
 2101 072c 02F11802 		add	r2, r2, #24
 2102 0730 1360     		str	r3, [r2]
 2103 0732 ABE0     		b	.L46
 2104              	.L48:
 292:.\pathfinder.c ****          //printf("i : %d\n", i);
 293:.\pathfinder.c ****          tmpNextNode[Y] = nextNodes[i][Y];
 2105              		.loc 1 293 0
 2106 0734 07F14003 		add	r3, r7, #64
 2107 0738 183B     		subs	r3, r3, #24
 2108 073a 07F57352 		add	r2, r7, #15552
 2109 073e 02F11802 		add	r2, r2, #24
 2110 0742 1268     		ldr	r2, [r2]
 2111 0744 53F83220 		ldr	r2, [r3, r2, lsl #3]
 2112 0748 07F14003 		add	r3, r7, #64
 2113 074c 303B     		subs	r3, r3, #48
 2114 074e 1A60     		str	r2, [r3]
 294:.\pathfinder.c ****          tmpNextNode[X] = nextNodes[i][X];
 2115              		.loc 1 294 0
 2116 0750 07F14002 		add	r2, r7, #64
 2117 0754 183A     		subs	r2, r2, #24
 2118 0756 07F57353 		add	r3, r7, #15552
 2119 075a 03F11803 		add	r3, r3, #24
 2120 075e 1B68     		ldr	r3, [r3]
 2121 0760 DB00     		lsls	r3, r3, #3
 2122 0762 1344     		add	r3, r3, r2
 2123 0764 5A68     		ldr	r2, [r3, #4]
 2124 0766 07F14003 		add	r3, r7, #64
 2125 076a 303B     		subs	r3, r3, #48
 2126 076c 5A60     		str	r2, [r3, #4]
 295:.\pathfinder.c ****          //printf("tentative_cost : %d\n", Nodes[nextNodes[i][0]][nextNodes[i][1]].tentative_cost);
 296:.\pathfinder.c ****          if(Nodes[nextNodes[i][Y]][nextNodes[i][X]].tentative_cost > nextNodeCost){
 2127              		.loc 1 296 0
 2128 076e 07F14003 		add	r3, r7, #64
 2129 0772 183B     		subs	r3, r3, #24
 2130 0774 07F57352 		add	r2, r7, #15552
 2131 0778 02F11802 		add	r2, r2, #24
 2132 077c 1268     		ldr	r2, [r2]
 2133 077e 53F83210 		ldr	r1, [r3, r2, lsl #3]
 2134 0782 07F14002 		add	r2, r7, #64
 2135 0786 183A     		subs	r2, r2, #24
 2136 0788 07F57353 		add	r3, r7, #15552
 2137 078c 03F11803 		add	r3, r3, #24
 2138 0790 1B68     		ldr	r3, [r3]
ARM GAS  C:\Users\Logan\AppData\Local\Temp\ccWP3ZaE.s 			page 44


 2139 0792 DB00     		lsls	r3, r3, #3
 2140 0794 1344     		add	r3, r3, r2
 2141 0796 5868     		ldr	r0, [r3, #4]
 2142 0798 07F5CA52 		add	r2, r7, #6464
 2143 079c 103A     		subs	r2, r2, #16
 2144 079e 0B46     		mov	r3, r1
 2145 07a0 DB00     		lsls	r3, r3, #3
 2146 07a2 0B44     		add	r3, r3, r1
 2147 07a4 5B00     		lsls	r3, r3, #1
 2148 07a6 0B44     		add	r3, r3, r1
 2149 07a8 0344     		add	r3, r3, r0
 2150 07aa 5B01     		lsls	r3, r3, #5
 2151 07ac 1344     		add	r3, r3, r2
 2152 07ae 1833     		adds	r3, r3, #24
 2153 07b0 1B88     		ldrh	r3, [r3]
 2154 07b2 1A46     		mov	r2, r3
 2155 07b4 07F57353 		add	r3, r7, #15552
 2156 07b8 03F12403 		add	r3, r3, #36
 2157 07bc 1B68     		ldr	r3, [r3]
 2158 07be 9A42     		cmp	r2, r3
 2159 07c0 59D9     		bls	.L47
 297:.\pathfinder.c ****             //printf("1 : %d\n", Nodes[nextNodes[i][0]][nextNodes[i][1]].tentative_cost);
 298:.\pathfinder.c ****             if(Nodes[nextNodes[i][Y]][nextNodes[i][X]].visited == UNVISITED){
 2160              		.loc 1 298 0
 2161 07c2 07F14003 		add	r3, r7, #64
 2162 07c6 183B     		subs	r3, r3, #24
 2163 07c8 07F57352 		add	r2, r7, #15552
 2164 07cc 02F11802 		add	r2, r2, #24
 2165 07d0 1268     		ldr	r2, [r2]
 2166 07d2 53F83210 		ldr	r1, [r3, r2, lsl #3]
 2167 07d6 07F14002 		add	r2, r7, #64
 2168 07da 183A     		subs	r2, r2, #24
 2169 07dc 07F57353 		add	r3, r7, #15552
 2170 07e0 03F11803 		add	r3, r3, #24
 2171 07e4 1B68     		ldr	r3, [r3]
 2172 07e6 DB00     		lsls	r3, r3, #3
 2173 07e8 1344     		add	r3, r3, r2
 2174 07ea 5868     		ldr	r0, [r3, #4]
 2175 07ec 07F5CA52 		add	r2, r7, #6464
 2176 07f0 103A     		subs	r2, r2, #16
 2177 07f2 0B46     		mov	r3, r1
 2178 07f4 DB00     		lsls	r3, r3, #3
 2179 07f6 0B44     		add	r3, r3, r1
 2180 07f8 5B00     		lsls	r3, r3, #1
 2181 07fa 0B44     		add	r3, r3, r1
 2182 07fc 0344     		add	r3, r3, r0
 2183 07fe 5B01     		lsls	r3, r3, #5
 2184 0800 1344     		add	r3, r3, r2
 2185 0802 5B68     		ldr	r3, [r3, #4]
 2186 0804 002B     		cmp	r3, #0
 2187 0806 36D1     		bne	.L47
 299:.\pathfinder.c **** 
 300:.\pathfinder.c **** 
 301:.\pathfinder.c ****                //printf("2 : %d\n", Nodes[nextNodes[i][0]][nextNodes[i][1]].visited);
 302:.\pathfinder.c ****                nextNodeCost = Nodes[nextNodes[i][Y]][nextNodes[i][X]].tentative_cost;
 2188              		.loc 1 302 0
 2189 0808 07F14003 		add	r3, r7, #64
ARM GAS  C:\Users\Logan\AppData\Local\Temp\ccWP3ZaE.s 			page 45


 2190 080c 183B     		subs	r3, r3, #24
 2191 080e 07F57352 		add	r2, r7, #15552
 2192 0812 02F11802 		add	r2, r2, #24
 2193 0816 1268     		ldr	r2, [r2]
 2194 0818 53F83210 		ldr	r1, [r3, r2, lsl #3]
 2195 081c 07F14002 		add	r2, r7, #64
 2196 0820 183A     		subs	r2, r2, #24
 2197 0822 07F57353 		add	r3, r7, #15552
 2198 0826 03F11803 		add	r3, r3, #24
 2199 082a 1B68     		ldr	r3, [r3]
 2200 082c DB00     		lsls	r3, r3, #3
 2201 082e 1344     		add	r3, r3, r2
 2202 0830 5868     		ldr	r0, [r3, #4]
 2203 0832 07F5CA52 		add	r2, r7, #6464
 2204 0836 103A     		subs	r2, r2, #16
 2205 0838 0B46     		mov	r3, r1
 2206 083a DB00     		lsls	r3, r3, #3
 2207 083c 0B44     		add	r3, r3, r1
 2208 083e 5B00     		lsls	r3, r3, #1
 2209 0840 0B44     		add	r3, r3, r1
 2210 0842 0344     		add	r3, r3, r0
 2211 0844 5B01     		lsls	r3, r3, #5
 2212 0846 1344     		add	r3, r3, r2
 2213 0848 1833     		adds	r3, r3, #24
 2214 084a 1B88     		ldrh	r3, [r3]
 2215 084c 07F57352 		add	r2, r7, #15552
 2216 0850 02F12402 		add	r2, r2, #36
 2217 0854 1360     		str	r3, [r2]
 303:.\pathfinder.c **** 
 304:.\pathfinder.c ****                nextNodeIndex = i;
 2218              		.loc 1 304 0
 2219 0856 07F57353 		add	r3, r7, #15552
 2220 085a 03F11803 		add	r3, r3, #24
 2221 085e 1B68     		ldr	r3, [r3]
 2222 0860 07F57352 		add	r2, r7, #15552
 2223 0864 02F12802 		add	r2, r2, #40
 2224 0868 1360     		str	r3, [r2]
 305:.\pathfinder.c ****                hasNext = 1;
 2225              		.loc 1 305 0
 2226 086a 0123     		movs	r3, #1
 2227 086c 07F57352 		add	r2, r7, #15552
 2228 0870 02F12002 		add	r2, r2, #32
 2229 0874 1360     		str	r3, [r2]
 2230              	.L47:
 291:.\pathfinder.c ****          //printf("i : %d\n", i);
 2231              		.loc 1 291 0 discriminator 2
 2232 0876 07F57353 		add	r3, r7, #15552
 2233 087a 03F11803 		add	r3, r3, #24
 2234 087e 1B68     		ldr	r3, [r3]
 2235 0880 0133     		adds	r3, r3, #1
 2236 0882 07F57352 		add	r2, r7, #15552
 2237 0886 02F11802 		add	r2, r2, #24
 2238 088a 1360     		str	r3, [r2]
 2239              	.L46:
 291:.\pathfinder.c ****          //printf("i : %d\n", i);
 2240              		.loc 1 291 0 is_stmt 0 discriminator 1
 2241 088c 07F57353 		add	r3, r7, #15552
ARM GAS  C:\Users\Logan\AppData\Local\Temp\ccWP3ZaE.s 			page 46


 2242 0890 03F11803 		add	r3, r3, #24
 2243 0894 1A68     		ldr	r2, [r3]
 2244 0896 07F57353 		add	r3, r7, #15552
 2245 089a 03F13403 		add	r3, r3, #52
 2246 089e 1B68     		ldr	r3, [r3]
 2247 08a0 9A42     		cmp	r2, r3
 2248 08a2 FFF447AF 		bcc	.L48
 306:.\pathfinder.c ****             }
 307:.\pathfinder.c ****          }
 308:.\pathfinder.c ****       }
 309:.\pathfinder.c ****       //printf("has next %d\n", hasNext);
 310:.\pathfinder.c ****       current[Y] = nextNodes[nextNodeIndex][Y];
 2249              		.loc 1 310 0 is_stmt 1
 2250 08a6 07F14003 		add	r3, r7, #64
 2251 08aa 183B     		subs	r3, r3, #24
 2252 08ac 07F57352 		add	r2, r7, #15552
 2253 08b0 02F12802 		add	r2, r2, #40
 2254 08b4 1268     		ldr	r2, [r2]
 2255 08b6 53F83220 		ldr	r2, [r3, r2, lsl #3]
 2256 08ba 07F5CA53 		add	r3, r7, #6464
 2257 08be 183B     		subs	r3, r3, #24
 2258 08c0 1A60     		str	r2, [r3]
 311:.\pathfinder.c ****       current[X] = nextNodes[nextNodeIndex][X];
 2259              		.loc 1 311 0
 2260 08c2 07F14002 		add	r2, r7, #64
 2261 08c6 183A     		subs	r2, r2, #24
 2262 08c8 07F57353 		add	r3, r7, #15552
 2263 08cc 03F12803 		add	r3, r3, #40
 2264 08d0 1B68     		ldr	r3, [r3]
 2265 08d2 DB00     		lsls	r3, r3, #3
 2266 08d4 1344     		add	r3, r3, r2
 2267 08d6 5A68     		ldr	r2, [r3, #4]
 2268 08d8 07F5CA53 		add	r3, r7, #6464
 2269 08dc 183B     		subs	r3, r3, #24
 2270 08de 5A60     		str	r2, [r3, #4]
 312:.\pathfinder.c ****       direction = Nodes[current[Y]][current[X]].direction;
 2271              		.loc 1 312 0
 2272 08e0 07F5CA53 		add	r3, r7, #6464
 2273 08e4 183B     		subs	r3, r3, #24
 2274 08e6 1968     		ldr	r1, [r3]
 2275 08e8 07F5CA53 		add	r3, r7, #6464
 2276 08ec 183B     		subs	r3, r3, #24
 2277 08ee 5868     		ldr	r0, [r3, #4]
 2278 08f0 07F5CA52 		add	r2, r7, #6464
 2279 08f4 103A     		subs	r2, r2, #16
 2280 08f6 0B46     		mov	r3, r1
 2281 08f8 DB00     		lsls	r3, r3, #3
 2282 08fa 0B44     		add	r3, r3, r1
 2283 08fc 5B00     		lsls	r3, r3, #1
 2284 08fe 0B44     		add	r3, r3, r1
 2285 0900 0344     		add	r3, r3, r0
 2286 0902 5B01     		lsls	r3, r3, #5
 2287 0904 1344     		add	r3, r3, r2
 2288 0906 1833     		adds	r3, r3, #24
 2289 0908 5B68     		ldr	r3, [r3, #4]
 2290 090a 07F57452 		add	r2, r7, #15616
 2291 090e 02F11402 		add	r2, r2, #20
ARM GAS  C:\Users\Logan\AppData\Local\Temp\ccWP3ZaE.s 			page 47


 2292 0912 1360     		str	r3, [r2]
 313:.\pathfinder.c **** 
 314:.\pathfinder.c ****       //printf("%d %d;", current[Y] + 1, current[X] + 1);
 315:.\pathfinder.c **** 
 316:.\pathfinder.c ****       //generate the path
 317:.\pathfinder.c ****       path[path_couter][Y] = current[Y];
 2293              		.loc 1 317 0
 2294 0914 07F57353 		add	r3, r7, #15552
 2295 0918 03F11C03 		add	r3, r3, #28
 2296 091c 1A68     		ldr	r2, [r3]
 2297 091e 1346     		mov	r3, r2
 2298 0920 5B00     		lsls	r3, r3, #1
 2299 0922 1344     		add	r3, r3, r2
 2300 0924 9B00     		lsls	r3, r3, #2
 2301 0926 1A46     		mov	r2, r3
 2302 0928 07F14003 		add	r3, r7, #64
 2303 092c 3C3B     		subs	r3, r3, #60
 2304 092e 1B68     		ldr	r3, [r3]
 2305 0930 1A44     		add	r2, r2, r3
 2306 0932 07F5CA53 		add	r3, r7, #6464
 2307 0936 183B     		subs	r3, r3, #24
 2308 0938 1B68     		ldr	r3, [r3]
 2309 093a 1360     		str	r3, [r2]
 318:.\pathfinder.c ****       path[path_couter][X] = current[X];
 2310              		.loc 1 318 0
 2311 093c 07F57353 		add	r3, r7, #15552
 2312 0940 03F11C03 		add	r3, r3, #28
 2313 0944 1A68     		ldr	r2, [r3]
 2314 0946 1346     		mov	r3, r2
 2315 0948 5B00     		lsls	r3, r3, #1
 2316 094a 1344     		add	r3, r3, r2
 2317 094c 9B00     		lsls	r3, r3, #2
 2318 094e 1A46     		mov	r2, r3
 2319 0950 07F14003 		add	r3, r7, #64
 2320 0954 3C3B     		subs	r3, r3, #60
 2321 0956 1B68     		ldr	r3, [r3]
 2322 0958 1A44     		add	r2, r2, r3
 2323 095a 07F5CA53 		add	r3, r7, #6464
 2324 095e 183B     		subs	r3, r3, #24
 2325 0960 5B68     		ldr	r3, [r3, #4]
 2326 0962 5360     		str	r3, [r2, #4]
 319:.\pathfinder.c ****       path[path_couter][DIR] = Nodes[current[Y]][current[X]].direction;
 2327              		.loc 1 319 0
 2328 0964 07F57353 		add	r3, r7, #15552
 2329 0968 03F11C03 		add	r3, r3, #28
 2330 096c 1A68     		ldr	r2, [r3]
 2331 096e 1346     		mov	r3, r2
 2332 0970 5B00     		lsls	r3, r3, #1
 2333 0972 1344     		add	r3, r3, r2
 2334 0974 9B00     		lsls	r3, r3, #2
 2335 0976 1A46     		mov	r2, r3
 2336 0978 07F14003 		add	r3, r7, #64
 2337 097c 3C3B     		subs	r3, r3, #60
 2338 097e 1B68     		ldr	r3, [r3]
 2339 0980 9818     		adds	r0, r3, r2
 2340 0982 07F5CA53 		add	r3, r7, #6464
 2341 0986 183B     		subs	r3, r3, #24
ARM GAS  C:\Users\Logan\AppData\Local\Temp\ccWP3ZaE.s 			page 48


 2342 0988 1968     		ldr	r1, [r3]
 2343 098a 07F5CA53 		add	r3, r7, #6464
 2344 098e 183B     		subs	r3, r3, #24
 2345 0990 5C68     		ldr	r4, [r3, #4]
 2346 0992 07F5CA52 		add	r2, r7, #6464
 2347 0996 103A     		subs	r2, r2, #16
 2348 0998 0B46     		mov	r3, r1
 2349 099a DB00     		lsls	r3, r3, #3
 2350 099c 0B44     		add	r3, r3, r1
 2351 099e 5B00     		lsls	r3, r3, #1
 2352 09a0 0B44     		add	r3, r3, r1
 2353 09a2 2344     		add	r3, r3, r4
 2354 09a4 5B01     		lsls	r3, r3, #5
 2355 09a6 1344     		add	r3, r3, r2
 2356 09a8 1833     		adds	r3, r3, #24
 2357 09aa 5B68     		ldr	r3, [r3, #4]
 2358 09ac 8360     		str	r3, [r0, #8]
 320:.\pathfinder.c ****       path_couter++;
 2359              		.loc 1 320 0
 2360 09ae 07F57353 		add	r3, r7, #15552
 2361 09b2 03F11C03 		add	r3, r3, #28
 2362 09b6 1B68     		ldr	r3, [r3]
 2363 09b8 0133     		adds	r3, r3, #1
 2364 09ba 07F57352 		add	r2, r7, #15552
 2365 09be 02F11C02 		add	r2, r2, #28
 2366 09c2 1360     		str	r3, [r2]
 2367              	.L37:
 2368              	.LBE5:
 239:.\pathfinder.c ****       counter = 1;
 2369              		.loc 1 239 0
 2370 09c4 07F57353 		add	r3, r7, #15552
 2371 09c8 03F12003 		add	r3, r3, #32
 2372 09cc 1B68     		ldr	r3, [r3]
 2373 09ce 012B     		cmp	r3, #1
 2374 09d0 3FF4F5AC 		beq	.L49
 321:.\pathfinder.c ****       //printf("tent_cost : %d || NODE(%d, %d) || visited: %d\n", Nodes[current[Y]][current[X]].ten
 322:.\pathfinder.c **** 
 323:.\pathfinder.c ****    }
 324:.\pathfinder.c **** 
 325:.\pathfinder.c ****    return path_couter;
 2375              		.loc 1 325 0
 2376 09d4 07F57353 		add	r3, r7, #15552
 2377 09d8 03F11C03 		add	r3, r3, #28
 2378 09dc 1B68     		ldr	r3, [r3]
 326:.\pathfinder.c **** }
 2379              		.loc 1 326 0
 2380 09de 1846     		mov	r0, r3
 2381 09e0 07F57457 		add	r7, r7, #15616
 2382              		.cfi_def_cfa_offset 16
 2383 09e4 BD46     		mov	sp, r7
 2384              		.cfi_def_cfa_register 13
 2385              		@ sp needed
 2386 09e6 B0BD     		pop	{r4, r5, r7, pc}
 2387              		.cfi_endproc
 2388              	.LFE64:
 2389              		.size	DepthFirst, .-DepthFirst
 2390              		.section	.text.generateEntireMapDirections,"ax",%progbits
ARM GAS  C:\Users\Logan\AppData\Local\Temp\ccWP3ZaE.s 			page 49


 2391              		.align	2
 2392              		.global	generateEntireMapDirections
 2393              		.thumb
 2394              		.thumb_func
 2395              		.type	generateEntireMapDirections, %function
 2396              	generateEntireMapDirections:
 2397              	.LFB65:
 327:.\pathfinder.c **** 
 328:.\pathfinder.c **** uint32_t generateEntireMapDirections(){
 2398              		.loc 1 328 0
 2399              		.cfi_startproc
 2400              		@ args = 0, pretend = 0, frame = 9656
 2401              		@ frame_needed = 1, uses_anonymous_args = 0
 2402 0000 90B5     		push	{r4, r7, lr}
 2403              		.cfi_def_cfa_offset 12
 2404              		.cfi_offset 4, -12
 2405              		.cfi_offset 7, -8
 2406              		.cfi_offset 14, -4
 2407 0002 ADF5175D 		sub	sp, sp, #9664
 2408              		.cfi_def_cfa_offset 9676
 2409 0006 81B0     		sub	sp, sp, #4
 2410              		.cfi_def_cfa_offset 9680
 2411 0008 02AF     		add	r7, sp, #8
 2412              		.cfi_def_cfa 7, 9672
 329:.\pathfinder.c ****     int end = DepthFirst(map, food_list, path, start, destination, robot_direction);
 2413              		.loc 1 329 0
 2414 000a 1B4B     		ldr	r3, .L155
 2415 000c 1B68     		ldr	r3, [r3]
 2416 000e 1B4A     		ldr	r2, .L155+4
 2417 0010 0092     		str	r2, [sp]
 2418 0012 0193     		str	r3, [sp, #4]
 2419 0014 1A48     		ldr	r0, .L155+8
 2420 0016 1B49     		ldr	r1, .L155+12
 2421 0018 1B4A     		ldr	r2, .L155+16
 2422 001a 1C4B     		ldr	r3, .L155+20
 2423 001c FFF7FEFF 		bl	DepthFirst
 2424 0020 0346     		mov	r3, r0
 2425 0022 07F51652 		add	r2, r7, #9600
 2426 0026 02F11802 		add	r2, r2, #24
 2427 002a 1360     		str	r3, [r2]
 330:.\pathfinder.c **** 
 331:.\pathfinder.c ****    /*
 332:.\pathfinder.c ****    printf("hello\n");
 333:.\pathfinder.c ****    printf("end value : %d\n", end);
 334:.\pathfinder.c ****    printf("[");
 335:.\pathfinder.c ****    for(int i = 0; i <end; i++){
 336:.\pathfinder.c ****       printf("%d  %d;", path[i][Y] + 1, path[i][X] + 1);
 337:.\pathfinder.c ****    }
 338:.\pathfinder.c ****    printf("]\n");
 339:.\pathfinder.c ****    */
 340:.\pathfinder.c **** 
 341:.\pathfinder.c ****     int prev_intersection = 0;
 2428              		.loc 1 341 0
 2429 002c 0023     		movs	r3, #0
 2430 002e 07F51652 		add	r2, r7, #9600
 2431 0032 02F13402 		add	r2, r2, #52
 2432 0036 1360     		str	r3, [r2]
ARM GAS  C:\Users\Logan\AppData\Local\Temp\ccWP3ZaE.s 			page 50


 342:.\pathfinder.c ****     uint16 counter = 0;
 2433              		.loc 1 342 0
 2434 0038 0023     		movs	r3, #0
 2435 003a 07F51652 		add	r2, r7, #9600
 2436 003e 02F13202 		add	r2, r2, #50
 2437 0042 1380     		strh	r3, [r2]	@ movhi
 343:.\pathfinder.c ****     int tmpCounter = 0;
 2438              		.loc 1 343 0
 2439 0044 0023     		movs	r3, #0
 2440 0046 07F51652 		add	r2, r7, #9600
 2441 004a 02F12C02 		add	r2, r2, #44
 2442 004e 1360     		str	r3, [r2]
 344:.\pathfinder.c ****     int inter_prev_intersection = 0;
 2443              		.loc 1 344 0
 2444 0050 0023     		movs	r3, #0
 2445 0052 07F51652 		add	r2, r7, #9600
 2446 0056 02F12802 		add	r2, r2, #40
 2447 005a 1360     		str	r3, [r2]
 345:.\pathfinder.c ****     int skip = 0;
 2448              		.loc 1 345 0
 2449 005c 0023     		movs	r3, #0
 2450 005e 07F51652 		add	r2, r7, #9600
 2451 0062 02F12402 		add	r2, r2, #36
 2452 0066 1360     		str	r3, [r2]
 346:.\pathfinder.c ****    //printf("here\n");
 347:.\pathfinder.c ****    //start from the end since that's the way the path has been stored in the the array
 348:.\pathfinder.c ****    //U/D stands for up down intersection L/R stands for left right internsection
 349:.\pathfinder.c ****     int i;
 350:.\pathfinder.c ****    for(i = 0; i < end; i++){
 2453              		.loc 1 350 0
 2454 0068 0023     		movs	r3, #0
 2455 006a 07F51652 		add	r2, r7, #9600
 2456 006e 02F12002 		add	r2, r2, #32
 2457 0072 1360     		str	r3, [r2]
 2458 0074 01F071BF 		b	.L52
 2459              	.L156:
 2460              		.align	2
 2461              	.L155:
 2462 0078 00000000 		.word	robot_direction
 2463 007c 00000000 		.word	destination
 2464 0080 00000000 		.word	map
 2465 0084 00000000 		.word	food_list
 2466 0088 00000000 		.word	path
 2467 008c 00000000 		.word	start
 2468              	.L153:
 351:.\pathfinder.c ****     skip = 0;
 2469              		.loc 1 351 0
 2470 0090 0023     		movs	r3, #0
 2471 0092 07F51652 		add	r2, r7, #9600
 2472 0096 02F12402 		add	r2, r2, #36
 2473 009a 1360     		str	r3, [r2]
 352:.\pathfinder.c ****       //printf("%d %d;", path[i][Y] + 1, path[i][X] + 1);
 353:.\pathfinder.c ****       //if next direction is not possible from current direction then find the inter path (down, up
 354:.\pathfinder.c ****       if(!((path[i + 1][Y] == path[i][Y] + 1 && path[i + 1][X] == path[i][X]) || (path[i + 1][Y] ==
 2474              		.loc 1 354 0
 2475 009c 07F51653 		add	r3, r7, #9600
 2476 00a0 03F12003 		add	r3, r3, #32
ARM GAS  C:\Users\Logan\AppData\Local\Temp\ccWP3ZaE.s 			page 51


 2477 00a4 1B68     		ldr	r3, [r3]
 2478 00a6 5A1C     		adds	r2, r3, #1
 2479 00a8 CF49     		ldr	r1, .L157
 2480 00aa 1346     		mov	r3, r2
 2481 00ac 5B00     		lsls	r3, r3, #1
 2482 00ae 1344     		add	r3, r3, r2
 2483 00b0 9B00     		lsls	r3, r3, #2
 2484 00b2 0B44     		add	r3, r3, r1
 2485 00b4 1968     		ldr	r1, [r3]
 2486 00b6 CC48     		ldr	r0, .L157
 2487 00b8 07F51653 		add	r3, r7, #9600
 2488 00bc 03F12003 		add	r3, r3, #32
 2489 00c0 1A68     		ldr	r2, [r3]
 2490 00c2 1346     		mov	r3, r2
 2491 00c4 5B00     		lsls	r3, r3, #1
 2492 00c6 1344     		add	r3, r3, r2
 2493 00c8 9B00     		lsls	r3, r3, #2
 2494 00ca 0344     		add	r3, r3, r0
 2495 00cc 1B68     		ldr	r3, [r3]
 2496 00ce 0133     		adds	r3, r3, #1
 2497 00d0 9942     		cmp	r1, r3
 2498 00d2 1DD1     		bne	.L53
 2499              		.loc 1 354 0 is_stmt 0 discriminator 2
 2500 00d4 07F51653 		add	r3, r7, #9600
 2501 00d8 03F12003 		add	r3, r3, #32
 2502 00dc 1B68     		ldr	r3, [r3]
 2503 00de 5A1C     		adds	r2, r3, #1
 2504 00e0 C149     		ldr	r1, .L157
 2505 00e2 1346     		mov	r3, r2
 2506 00e4 5B00     		lsls	r3, r3, #1
 2507 00e6 1344     		add	r3, r3, r2
 2508 00e8 9B00     		lsls	r3, r3, #2
 2509 00ea 0B44     		add	r3, r3, r1
 2510 00ec 0433     		adds	r3, r3, #4
 2511 00ee 1968     		ldr	r1, [r3]
 2512 00f0 BD48     		ldr	r0, .L157
 2513 00f2 07F51653 		add	r3, r7, #9600
 2514 00f6 03F12003 		add	r3, r3, #32
 2515 00fa 1A68     		ldr	r2, [r3]
 2516 00fc 1346     		mov	r3, r2
 2517 00fe 5B00     		lsls	r3, r3, #1
 2518 0100 1344     		add	r3, r3, r2
 2519 0102 9B00     		lsls	r3, r3, #2
 2520 0104 0344     		add	r3, r3, r0
 2521 0106 0433     		adds	r3, r3, #4
 2522 0108 1B68     		ldr	r3, [r3]
 2523 010a 9942     		cmp	r1, r3
 2524 010c 01F00782 		beq	.L54
 2525              	.L53:
 2526              		.loc 1 354 0 discriminator 3
 2527 0110 07F51653 		add	r3, r7, #9600
 2528 0114 03F12003 		add	r3, r3, #32
 2529 0118 1B68     		ldr	r3, [r3]
 2530 011a 5A1C     		adds	r2, r3, #1
 2531 011c B249     		ldr	r1, .L157
 2532 011e 1346     		mov	r3, r2
 2533 0120 5B00     		lsls	r3, r3, #1
ARM GAS  C:\Users\Logan\AppData\Local\Temp\ccWP3ZaE.s 			page 52


 2534 0122 1344     		add	r3, r3, r2
 2535 0124 9B00     		lsls	r3, r3, #2
 2536 0126 0B44     		add	r3, r3, r1
 2537 0128 1968     		ldr	r1, [r3]
 2538 012a AF48     		ldr	r0, .L157
 2539 012c 07F51653 		add	r3, r7, #9600
 2540 0130 03F12003 		add	r3, r3, #32
 2541 0134 1A68     		ldr	r2, [r3]
 2542 0136 1346     		mov	r3, r2
 2543 0138 5B00     		lsls	r3, r3, #1
 2544 013a 1344     		add	r3, r3, r2
 2545 013c 9B00     		lsls	r3, r3, #2
 2546 013e 0344     		add	r3, r3, r0
 2547 0140 1B68     		ldr	r3, [r3]
 2548 0142 013B     		subs	r3, r3, #1
 2549 0144 9942     		cmp	r1, r3
 2550 0146 1DD1     		bne	.L55
 2551              		.loc 1 354 0 discriminator 5
 2552 0148 07F51653 		add	r3, r7, #9600
 2553 014c 03F12003 		add	r3, r3, #32
 2554 0150 1B68     		ldr	r3, [r3]
 2555 0152 5A1C     		adds	r2, r3, #1
 2556 0154 A449     		ldr	r1, .L157
 2557 0156 1346     		mov	r3, r2
 2558 0158 5B00     		lsls	r3, r3, #1
 2559 015a 1344     		add	r3, r3, r2
 2560 015c 9B00     		lsls	r3, r3, #2
 2561 015e 0B44     		add	r3, r3, r1
 2562 0160 0433     		adds	r3, r3, #4
 2563 0162 1968     		ldr	r1, [r3]
 2564 0164 A048     		ldr	r0, .L157
 2565 0166 07F51653 		add	r3, r7, #9600
 2566 016a 03F12003 		add	r3, r3, #32
 2567 016e 1A68     		ldr	r2, [r3]
 2568 0170 1346     		mov	r3, r2
 2569 0172 5B00     		lsls	r3, r3, #1
 2570 0174 1344     		add	r3, r3, r2
 2571 0176 9B00     		lsls	r3, r3, #2
 2572 0178 0344     		add	r3, r3, r0
 2573 017a 0433     		adds	r3, r3, #4
 2574 017c 1B68     		ldr	r3, [r3]
 2575 017e 9942     		cmp	r1, r3
 2576 0180 01F0CD81 		beq	.L54
 2577              	.L55:
 2578              		.loc 1 354 0 discriminator 6
 2579 0184 07F51653 		add	r3, r7, #9600
 2580 0188 03F12003 		add	r3, r3, #32
 2581 018c 1B68     		ldr	r3, [r3]
 2582 018e 5A1C     		adds	r2, r3, #1
 2583 0190 9549     		ldr	r1, .L157
 2584 0192 1346     		mov	r3, r2
 2585 0194 5B00     		lsls	r3, r3, #1
 2586 0196 1344     		add	r3, r3, r2
 2587 0198 9B00     		lsls	r3, r3, #2
 2588 019a 0B44     		add	r3, r3, r1
 2589 019c 0433     		adds	r3, r3, #4
 2590 019e 1968     		ldr	r1, [r3]
ARM GAS  C:\Users\Logan\AppData\Local\Temp\ccWP3ZaE.s 			page 53


 2591 01a0 9148     		ldr	r0, .L157
 2592 01a2 07F51653 		add	r3, r7, #9600
 2593 01a6 03F12003 		add	r3, r3, #32
 2594 01aa 1A68     		ldr	r2, [r3]
 2595 01ac 1346     		mov	r3, r2
 2596 01ae 5B00     		lsls	r3, r3, #1
 2597 01b0 1344     		add	r3, r3, r2
 2598 01b2 9B00     		lsls	r3, r3, #2
 2599 01b4 0344     		add	r3, r3, r0
 2600 01b6 0433     		adds	r3, r3, #4
 2601 01b8 1B68     		ldr	r3, [r3]
 2602 01ba 013B     		subs	r3, r3, #1
 2603 01bc 9942     		cmp	r1, r3
 2604 01be 1BD1     		bne	.L56
 2605              		.loc 1 354 0 discriminator 8
 2606 01c0 07F51653 		add	r3, r7, #9600
 2607 01c4 03F12003 		add	r3, r3, #32
 2608 01c8 1B68     		ldr	r3, [r3]
 2609 01ca 5A1C     		adds	r2, r3, #1
 2610 01cc 8649     		ldr	r1, .L157
 2611 01ce 1346     		mov	r3, r2
 2612 01d0 5B00     		lsls	r3, r3, #1
 2613 01d2 1344     		add	r3, r3, r2
 2614 01d4 9B00     		lsls	r3, r3, #2
 2615 01d6 0B44     		add	r3, r3, r1
 2616 01d8 1968     		ldr	r1, [r3]
 2617 01da 8348     		ldr	r0, .L157
 2618 01dc 07F51653 		add	r3, r7, #9600
 2619 01e0 03F12003 		add	r3, r3, #32
 2620 01e4 1A68     		ldr	r2, [r3]
 2621 01e6 1346     		mov	r3, r2
 2622 01e8 5B00     		lsls	r3, r3, #1
 2623 01ea 1344     		add	r3, r3, r2
 2624 01ec 9B00     		lsls	r3, r3, #2
 2625 01ee 0344     		add	r3, r3, r0
 2626 01f0 1B68     		ldr	r3, [r3]
 2627 01f2 9942     		cmp	r1, r3
 2628 01f4 01F09381 		beq	.L54
 2629              	.L56:
 2630              		.loc 1 354 0 discriminator 9
 2631 01f8 07F51653 		add	r3, r7, #9600
 2632 01fc 03F12003 		add	r3, r3, #32
 2633 0200 1B68     		ldr	r3, [r3]
 2634 0202 5A1C     		adds	r2, r3, #1
 2635 0204 7849     		ldr	r1, .L157
 2636 0206 1346     		mov	r3, r2
 2637 0208 5B00     		lsls	r3, r3, #1
 2638 020a 1344     		add	r3, r3, r2
 2639 020c 9B00     		lsls	r3, r3, #2
 2640 020e 0B44     		add	r3, r3, r1
 2641 0210 0433     		adds	r3, r3, #4
 2642 0212 1968     		ldr	r1, [r3]
 2643 0214 7448     		ldr	r0, .L157
 2644 0216 07F51653 		add	r3, r7, #9600
 2645 021a 03F12003 		add	r3, r3, #32
 2646 021e 1A68     		ldr	r2, [r3]
 2647 0220 1346     		mov	r3, r2
ARM GAS  C:\Users\Logan\AppData\Local\Temp\ccWP3ZaE.s 			page 54


 2648 0222 5B00     		lsls	r3, r3, #1
 2649 0224 1344     		add	r3, r3, r2
 2650 0226 9B00     		lsls	r3, r3, #2
 2651 0228 0344     		add	r3, r3, r0
 2652 022a 0433     		adds	r3, r3, #4
 2653 022c 1B68     		ldr	r3, [r3]
 2654 022e 0133     		adds	r3, r3, #1
 2655 0230 9942     		cmp	r1, r3
 2656 0232 1BD1     		bne	.L57
 2657              		.loc 1 354 0 discriminator 10
 2658 0234 07F51653 		add	r3, r7, #9600
 2659 0238 03F12003 		add	r3, r3, #32
 2660 023c 1B68     		ldr	r3, [r3]
 2661 023e 5A1C     		adds	r2, r3, #1
 2662 0240 6949     		ldr	r1, .L157
 2663 0242 1346     		mov	r3, r2
 2664 0244 5B00     		lsls	r3, r3, #1
 2665 0246 1344     		add	r3, r3, r2
 2666 0248 9B00     		lsls	r3, r3, #2
 2667 024a 0B44     		add	r3, r3, r1
 2668 024c 1968     		ldr	r1, [r3]
 2669 024e 6648     		ldr	r0, .L157
 2670 0250 07F51653 		add	r3, r7, #9600
 2671 0254 03F12003 		add	r3, r3, #32
 2672 0258 1A68     		ldr	r2, [r3]
 2673 025a 1346     		mov	r3, r2
 2674 025c 5B00     		lsls	r3, r3, #1
 2675 025e 1344     		add	r3, r3, r2
 2676 0260 9B00     		lsls	r3, r3, #2
 2677 0262 0344     		add	r3, r3, r0
 2678 0264 1B68     		ldr	r3, [r3]
 2679 0266 9942     		cmp	r1, r3
 2680 0268 01F05981 		beq	.L54
 2681              	.L57:
 2682              	.LBB6:
 355:.\pathfinder.c ****         if((i - prev_intersection) > 0){
 2683              		.loc 1 355 0 is_stmt 1
 2684 026c 07F51653 		add	r3, r7, #9600
 2685 0270 03F12003 		add	r3, r3, #32
 2686 0274 1A68     		ldr	r2, [r3]
 2687 0276 07F51653 		add	r3, r7, #9600
 2688 027a 03F13403 		add	r3, r3, #52
 2689 027e 1B68     		ldr	r3, [r3]
 2690 0280 D31A     		subs	r3, r2, r3
 2691 0282 002B     		cmp	r3, #0
 2692 0284 28DD     		ble	.L58
 356:.\pathfinder.c ****             instructions[counter] = DRIVE;
 2693              		.loc 1 356 0
 2694 0286 07F51653 		add	r3, r7, #9600
 2695 028a 03F13203 		add	r3, r3, #50
 2696 028e 1B88     		ldrh	r3, [r3]
 2697 0290 564A     		ldr	r2, .L157+4
 2698 0292 4421     		movs	r1, #68
 2699 0294 D154     		strb	r1, [r2, r3]
 357:.\pathfinder.c ****             instructions[counter + 1] = i - prev_intersection;
 2700              		.loc 1 357 0
 2701 0296 07F51653 		add	r3, r7, #9600
ARM GAS  C:\Users\Logan\AppData\Local\Temp\ccWP3ZaE.s 			page 55


 2702 029a 03F13203 		add	r3, r3, #50
 2703 029e 1B88     		ldrh	r3, [r3]
 2704 02a0 0133     		adds	r3, r3, #1
 2705 02a2 07F51652 		add	r2, r7, #9600
 2706 02a6 02F12002 		add	r2, r2, #32
 2707 02aa 1268     		ldr	r2, [r2]
 2708 02ac D1B2     		uxtb	r1, r2
 2709 02ae 07F51652 		add	r2, r7, #9600
 2710 02b2 02F13402 		add	r2, r2, #52
 2711 02b6 1268     		ldr	r2, [r2]
 2712 02b8 D2B2     		uxtb	r2, r2
 2713 02ba 8A1A     		subs	r2, r1, r2
 2714 02bc D1B2     		uxtb	r1, r2
 2715 02be 4B4A     		ldr	r2, .L157+4
 2716 02c0 D154     		strb	r1, [r2, r3]
 358:.\pathfinder.c ****             counter += 2;
 2717              		.loc 1 358 0
 2718 02c2 07F51653 		add	r3, r7, #9600
 2719 02c6 03F13203 		add	r3, r3, #50
 2720 02ca 1B88     		ldrh	r3, [r3]	@ movhi
 2721 02cc 0233     		adds	r3, r3, #2
 2722 02ce 07F51652 		add	r2, r7, #9600
 2723 02d2 02F13202 		add	r2, r2, #50
 2724 02d6 1380     		strh	r3, [r2]	@ movhi
 2725              	.L58:
 359:.\pathfinder.c ****         }
 360:.\pathfinder.c ****         inter_prev_intersection = 0; 
 2726              		.loc 1 360 0
 2727 02d8 0023     		movs	r3, #0
 2728 02da 07F51652 		add	r2, r7, #9600
 2729 02de 02F12802 		add	r2, r2, #40
 2730 02e2 1360     		str	r3, [r2]
 361:.\pathfinder.c ****         uint32_t inter_path[DEFAULT_ARRAY_SIZE][3] = {0};
 2731              		.loc 1 361 0
 2732 02e4 07F13803 		add	r3, r7, #56
 2733 02e8 343B     		subs	r3, r3, #52
 2734 02ea 1A46     		mov	r2, r3
 2735 02ec 4FF41653 		mov	r3, #9600
 2736 02f0 1046     		mov	r0, r2
 2737 02f2 0021     		movs	r1, #0
 2738 02f4 1A46     		mov	r2, r3
 2739 02f6 FFF7FEFF 		bl	memset
 362:.\pathfinder.c ****          uint32_t inter_start[2] = {path[i][Y], path[i][X]};//(y, x) array starts at 0
 2740              		.loc 1 362 0
 2741 02fa 3B49     		ldr	r1, .L157
 2742 02fc 07F51653 		add	r3, r7, #9600
 2743 0300 03F12003 		add	r3, r3, #32
 2744 0304 1A68     		ldr	r2, [r3]
 2745 0306 1346     		mov	r3, r2
 2746 0308 5B00     		lsls	r3, r3, #1
 2747 030a 1344     		add	r3, r3, r2
 2748 030c 9B00     		lsls	r3, r3, #2
 2749 030e 0B44     		add	r3, r3, r1
 2750 0310 1B68     		ldr	r3, [r3]
 2751 0312 07F51652 		add	r2, r7, #9600
 2752 0316 02F10C02 		add	r2, r2, #12
 2753 031a 1360     		str	r3, [r2]
ARM GAS  C:\Users\Logan\AppData\Local\Temp\ccWP3ZaE.s 			page 56


 2754 031c 3249     		ldr	r1, .L157
 2755 031e 07F51653 		add	r3, r7, #9600
 2756 0322 03F12003 		add	r3, r3, #32
 2757 0326 1A68     		ldr	r2, [r3]
 2758 0328 1346     		mov	r3, r2
 2759 032a 5B00     		lsls	r3, r3, #1
 2760 032c 1344     		add	r3, r3, r2
 2761 032e 9B00     		lsls	r3, r3, #2
 2762 0330 0B44     		add	r3, r3, r1
 2763 0332 0433     		adds	r3, r3, #4
 2764 0334 1B68     		ldr	r3, [r3]
 2765 0336 07F51652 		add	r2, r7, #9600
 2766 033a 02F11002 		add	r2, r2, #16
 2767 033e 1360     		str	r3, [r2]
 363:.\pathfinder.c ****          uint32_t inter_destination[2] = {path[i + 1][Y], path[i + 1][X]};//(y, x)
 2768              		.loc 1 363 0
 2769 0340 07F51653 		add	r3, r7, #9600
 2770 0344 03F12003 		add	r3, r3, #32
 2771 0348 1B68     		ldr	r3, [r3]
 2772 034a 5A1C     		adds	r2, r3, #1
 2773 034c 2649     		ldr	r1, .L157
 2774 034e 1346     		mov	r3, r2
 2775 0350 5B00     		lsls	r3, r3, #1
 2776 0352 1344     		add	r3, r3, r2
 2777 0354 9B00     		lsls	r3, r3, #2
 2778 0356 0B44     		add	r3, r3, r1
 2779 0358 1B68     		ldr	r3, [r3]
 2780 035a 07F51652 		add	r2, r7, #9600
 2781 035e 02F10402 		add	r2, r2, #4
 2782 0362 1360     		str	r3, [r2]
 2783 0364 07F51653 		add	r3, r7, #9600
 2784 0368 03F12003 		add	r3, r3, #32
 2785 036c 1B68     		ldr	r3, [r3]
 2786 036e 5A1C     		adds	r2, r3, #1
 2787 0370 1D49     		ldr	r1, .L157
 2788 0372 1346     		mov	r3, r2
 2789 0374 5B00     		lsls	r3, r3, #1
 2790 0376 1344     		add	r3, r3, r2
 2791 0378 9B00     		lsls	r3, r3, #2
 2792 037a 0B44     		add	r3, r3, r1
 2793 037c 0433     		adds	r3, r3, #4
 2794 037e 1B68     		ldr	r3, [r3]
 2795 0380 07F51652 		add	r2, r7, #9600
 2796 0384 02F10802 		add	r2, r2, #8
 2797 0388 1360     		str	r3, [r2]
 364:.\pathfinder.c ****             
 365:.\pathfinder.c ****         //change the global direction
 366:.\pathfinder.c ****         robot_direction = path[i][DIR];
 2798              		.loc 1 366 0
 2799 038a 1749     		ldr	r1, .L157
 2800 038c 07F51653 		add	r3, r7, #9600
 2801 0390 03F12003 		add	r3, r3, #32
 2802 0394 1A68     		ldr	r2, [r3]
 2803 0396 1346     		mov	r3, r2
 2804 0398 5B00     		lsls	r3, r3, #1
 2805 039a 1344     		add	r3, r3, r2
 2806 039c 9B00     		lsls	r3, r3, #2
ARM GAS  C:\Users\Logan\AppData\Local\Temp\ccWP3ZaE.s 			page 57


 2807 039e 0B44     		add	r3, r3, r1
 2808 03a0 0833     		adds	r3, r3, #8
 2809 03a2 1B68     		ldr	r3, [r3]
 2810 03a4 124A     		ldr	r2, .L157+8
 2811 03a6 1360     		str	r3, [r2]
 367:.\pathfinder.c ****          int inter_end = djikstras(map, food_list, inter_path, inter_start, inter_destination);
 2812              		.loc 1 367 0
 2813 03a8 07F13803 		add	r3, r7, #56
 2814 03ac 343B     		subs	r3, r3, #52
 2815 03ae 07F51654 		add	r4, r7, #9600
 2816 03b2 04F10C04 		add	r4, r4, #12
 2817 03b6 07F51652 		add	r2, r7, #9600
 2818 03ba 02F10402 		add	r2, r2, #4
 2819 03be 0092     		str	r2, [sp]
 2820 03c0 0C48     		ldr	r0, .L157+12
 2821 03c2 0D49     		ldr	r1, .L157+16
 2822 03c4 1A46     		mov	r2, r3
 2823 03c6 2346     		mov	r3, r4
 2824 03c8 FFF7FEFF 		bl	djikstras
 2825 03cc 0346     		mov	r3, r0
 2826 03ce 07F51652 		add	r2, r7, #9600
 2827 03d2 02F11402 		add	r2, r2, #20
 2828 03d6 1360     		str	r3, [r2]
 368:.\pathfinder.c **** 
 369:.\pathfinder.c ****          /*
 370:.\pathfinder.c ****          printf("\nDiscontinuity found path:\n");
 371:.\pathfinder.c ****          printf("end value : %d\n", inter_end);
 372:.\pathfinder.c ****          printf("[");
 373:.\pathfinder.c ****          for(int tmpI = inter_end; tmpI >=0; tmpI--){//TODO: do you include the final value j>=1 or
 374:.\pathfinder.c ****             printf("%d  %d;", inter_path[tmpI][Y] + 1, inter_path[tmpI][X] + 1);
 375:.\pathfinder.c ****          }
 376:.\pathfinder.c ****          printf("]\n");
 377:.\pathfinder.c ****          */
 378:.\pathfinder.c **** 
 379:.\pathfinder.c ****          //stuff
 380:.\pathfinder.c ****          int j;
 381:.\pathfinder.c ****          for(j = inter_end; j >= 1; j--){//TODO: do you include the final value j>=1 or j>=0
 2829              		.loc 1 381 0
 2830 03d8 07F51653 		add	r3, r7, #9600
 2831 03dc 03F11403 		add	r3, r3, #20
 2832 03e0 1B68     		ldr	r3, [r3]
 2833 03e2 07F51652 		add	r2, r7, #9600
 2834 03e6 09E0     		b	.L158
 2835              	.L159:
 2836              		.align	2
 2837              	.L157:
 2838 03e8 00000000 		.word	path
 2839 03ec 00000000 		.word	instructions
 2840 03f0 00000000 		.word	robot_direction
 2841 03f4 00000000 		.word	map
 2842 03f8 00000000 		.word	food_list
 2843              	.L158:
 2844 03fc 02F11C02 		add	r2, r2, #28
 2845 0400 1360     		str	r3, [r2]
 2846 0402 01F074B8 		b	.L59
 2847              	.L118:
 382:.\pathfinder.c ****             //printf("%d %d;", inter_path[j][Y] + 1, inter_path[j][X] + 1);
ARM GAS  C:\Users\Logan\AppData\Local\Temp\ccWP3ZaE.s 			page 58


 383:.\pathfinder.c ****             if(inter_path[j][DIR] == 1 || inter_path[j][DIR] == 3){
 2848              		.loc 1 383 0
 2849 0406 07F13802 		add	r2, r7, #56
 2850 040a 343A     		subs	r2, r2, #52
 2851 040c 07F51653 		add	r3, r7, #9600
 2852 0410 03F11C03 		add	r3, r3, #28
 2853 0414 1968     		ldr	r1, [r3]
 2854 0416 0B46     		mov	r3, r1
 2855 0418 5B00     		lsls	r3, r3, #1
 2856 041a 0B44     		add	r3, r3, r1
 2857 041c 9B00     		lsls	r3, r3, #2
 2858 041e 1344     		add	r3, r3, r2
 2859 0420 0833     		adds	r3, r3, #8
 2860 0422 1B68     		ldr	r3, [r3]
 2861 0424 012B     		cmp	r3, #1
 2862 0426 11D0     		beq	.L60
 2863              		.loc 1 383 0 is_stmt 0 discriminator 1
 2864 0428 07F13802 		add	r2, r7, #56
 2865 042c 343A     		subs	r2, r2, #52
 2866 042e 07F51653 		add	r3, r7, #9600
 2867 0432 03F11C03 		add	r3, r3, #28
 2868 0436 1968     		ldr	r1, [r3]
 2869 0438 0B46     		mov	r3, r1
 2870 043a 5B00     		lsls	r3, r3, #1
 2871 043c 0B44     		add	r3, r3, r1
 2872 043e 9B00     		lsls	r3, r3, #2
 2873 0440 1344     		add	r3, r3, r2
 2874 0442 0833     		adds	r3, r3, #8
 2875 0444 1B68     		ldr	r3, [r3]
 2876 0446 032B     		cmp	r3, #3
 2877 0448 40F02284 		bne	.L61
 2878              	.L60:
 384:.\pathfinder.c ****                        //There should be a check that it is within the map
 385:.\pathfinder.c ****                        if(map[inter_path[j][Y]][inter_path[j][X] - 1] == PATH || map[inter_path[j][
 2879              		.loc 1 385 0 is_stmt 1
 2880 044c 07F13802 		add	r2, r7, #56
 2881 0450 343A     		subs	r2, r2, #52
 2882 0452 07F51653 		add	r3, r7, #9600
 2883 0456 03F11C03 		add	r3, r3, #28
 2884 045a 1968     		ldr	r1, [r3]
 2885 045c 0B46     		mov	r3, r1
 2886 045e 5B00     		lsls	r3, r3, #1
 2887 0460 0B44     		add	r3, r3, r1
 2888 0462 9B00     		lsls	r3, r3, #2
 2889 0464 1344     		add	r3, r3, r2
 2890 0466 1968     		ldr	r1, [r3]
 2891 0468 07F13802 		add	r2, r7, #56
 2892 046c 343A     		subs	r2, r2, #52
 2893 046e 07F51653 		add	r3, r7, #9600
 2894 0472 03F11C03 		add	r3, r3, #28
 2895 0476 1868     		ldr	r0, [r3]
 2896 0478 0346     		mov	r3, r0
 2897 047a 5B00     		lsls	r3, r3, #1
 2898 047c 0344     		add	r3, r3, r0
 2899 047e 9B00     		lsls	r3, r3, #2
 2900 0480 1344     		add	r3, r3, r2
 2901 0482 0433     		adds	r3, r3, #4
ARM GAS  C:\Users\Logan\AppData\Local\Temp\ccWP3ZaE.s 			page 59


 2902 0484 1B68     		ldr	r3, [r3]
 2903 0486 5A1E     		subs	r2, r3, #1
 2904 0488 9548     		ldr	r0, .L160
 2905 048a 0B46     		mov	r3, r1
 2906 048c DB00     		lsls	r3, r3, #3
 2907 048e 0B44     		add	r3, r3, r1
 2908 0490 5B00     		lsls	r3, r3, #1
 2909 0492 0B44     		add	r3, r3, r1
 2910 0494 1344     		add	r3, r3, r2
 2911 0496 50F82330 		ldr	r3, [r0, r3, lsl #2]
 2912 049a 002B     		cmp	r3, #0
 2913 049c 29D0     		beq	.L62
 2914              		.loc 1 385 0 is_stmt 0 discriminator 1
 2915 049e 07F13802 		add	r2, r7, #56
 2916 04a2 343A     		subs	r2, r2, #52
 2917 04a4 07F51653 		add	r3, r7, #9600
 2918 04a8 03F11C03 		add	r3, r3, #28
 2919 04ac 1968     		ldr	r1, [r3]
 2920 04ae 0B46     		mov	r3, r1
 2921 04b0 5B00     		lsls	r3, r3, #1
 2922 04b2 0B44     		add	r3, r3, r1
 2923 04b4 9B00     		lsls	r3, r3, #2
 2924 04b6 1344     		add	r3, r3, r2
 2925 04b8 1968     		ldr	r1, [r3]
 2926 04ba 07F13802 		add	r2, r7, #56
 2927 04be 343A     		subs	r2, r2, #52
 2928 04c0 07F51653 		add	r3, r7, #9600
 2929 04c4 03F11C03 		add	r3, r3, #28
 2930 04c8 1868     		ldr	r0, [r3]
 2931 04ca 0346     		mov	r3, r0
 2932 04cc 5B00     		lsls	r3, r3, #1
 2933 04ce 0344     		add	r3, r3, r0
 2934 04d0 9B00     		lsls	r3, r3, #2
 2935 04d2 1344     		add	r3, r3, r2
 2936 04d4 0433     		adds	r3, r3, #4
 2937 04d6 1B68     		ldr	r3, [r3]
 2938 04d8 5A1C     		adds	r2, r3, #1
 2939 04da 8148     		ldr	r0, .L160
 2940 04dc 0B46     		mov	r3, r1
 2941 04de DB00     		lsls	r3, r3, #3
 2942 04e0 0B44     		add	r3, r3, r1
 2943 04e2 5B00     		lsls	r3, r3, #1
 2944 04e4 0B44     		add	r3, r3, r1
 2945 04e6 1344     		add	r3, r3, r2
 2946 04e8 50F82330 		ldr	r3, [r0, r3, lsl #2]
 2947 04ec 002B     		cmp	r3, #0
 2948 04ee 40F0F382 		bne	.L63
 2949              	.L62:
 386:.\pathfinder.c ****                           if(inter_path[j][DIR] != inter_path[j - 1][DIR]){
 2950              		.loc 1 386 0 is_stmt 1
 2951 04f2 07F13802 		add	r2, r7, #56
 2952 04f6 343A     		subs	r2, r2, #52
 2953 04f8 07F51653 		add	r3, r7, #9600
 2954 04fc 03F11C03 		add	r3, r3, #28
 2955 0500 1968     		ldr	r1, [r3]
 2956 0502 0B46     		mov	r3, r1
 2957 0504 5B00     		lsls	r3, r3, #1
ARM GAS  C:\Users\Logan\AppData\Local\Temp\ccWP3ZaE.s 			page 60


 2958 0506 0B44     		add	r3, r3, r1
 2959 0508 9B00     		lsls	r3, r3, #2
 2960 050a 1344     		add	r3, r3, r2
 2961 050c 0833     		adds	r3, r3, #8
 2962 050e 1868     		ldr	r0, [r3]
 2963 0510 07F51653 		add	r3, r7, #9600
 2964 0514 03F11C03 		add	r3, r3, #28
 2965 0518 1B68     		ldr	r3, [r3]
 2966 051a 591E     		subs	r1, r3, #1
 2967 051c 07F13802 		add	r2, r7, #56
 2968 0520 343A     		subs	r2, r2, #52
 2969 0522 0B46     		mov	r3, r1
 2970 0524 5B00     		lsls	r3, r3, #1
 2971 0526 0B44     		add	r3, r3, r1
 2972 0528 9B00     		lsls	r3, r3, #2
 2973 052a 1344     		add	r3, r3, r2
 2974 052c 0833     		adds	r3, r3, #8
 2975 052e 1B68     		ldr	r3, [r3]
 2976 0530 9842     		cmp	r0, r3
 2977 0532 00F08782 		beq	.L64
 387:.\pathfinder.c ****                              //current direction , the next direction
 388:.\pathfinder.c ****                              if((inter_path[j][DIR] == 1 && inter_path[j - 1][DIR] == 4) || (inter_
 2978              		.loc 1 388 0
 2979 0536 07F13802 		add	r2, r7, #56
 2980 053a 343A     		subs	r2, r2, #52
 2981 053c 07F51653 		add	r3, r7, #9600
 2982 0540 03F11C03 		add	r3, r3, #28
 2983 0544 1968     		ldr	r1, [r3]
 2984 0546 0B46     		mov	r3, r1
 2985 0548 5B00     		lsls	r3, r3, #1
 2986 054a 0B44     		add	r3, r3, r1
 2987 054c 9B00     		lsls	r3, r3, #2
 2988 054e 1344     		add	r3, r3, r2
 2989 0550 0833     		adds	r3, r3, #8
 2990 0552 1B68     		ldr	r3, [r3]
 2991 0554 012B     		cmp	r3, #1
 2992 0556 11D1     		bne	.L65
 2993              		.loc 1 388 0 is_stmt 0 discriminator 1
 2994 0558 07F51653 		add	r3, r7, #9600
 2995 055c 03F11C03 		add	r3, r3, #28
 2996 0560 1B68     		ldr	r3, [r3]
 2997 0562 591E     		subs	r1, r3, #1
 2998 0564 07F13802 		add	r2, r7, #56
 2999 0568 343A     		subs	r2, r2, #52
 3000 056a 0B46     		mov	r3, r1
 3001 056c 5B00     		lsls	r3, r3, #1
 3002 056e 0B44     		add	r3, r3, r1
 3003 0570 9B00     		lsls	r3, r3, #2
 3004 0572 1344     		add	r3, r3, r2
 3005 0574 0833     		adds	r3, r3, #8
 3006 0576 1B68     		ldr	r3, [r3]
 3007 0578 042B     		cmp	r3, #4
 3008 057a 6BD0     		beq	.L66
 3009              	.L65:
 3010              		.loc 1 388 0 discriminator 3
 3011 057c 07F13802 		add	r2, r7, #56
 3012 0580 343A     		subs	r2, r2, #52
ARM GAS  C:\Users\Logan\AppData\Local\Temp\ccWP3ZaE.s 			page 61


 3013 0582 07F51653 		add	r3, r7, #9600
 3014 0586 03F11C03 		add	r3, r3, #28
 3015 058a 1968     		ldr	r1, [r3]
 3016 058c 0B46     		mov	r3, r1
 3017 058e 5B00     		lsls	r3, r3, #1
 3018 0590 0B44     		add	r3, r3, r1
 3019 0592 9B00     		lsls	r3, r3, #2
 3020 0594 1344     		add	r3, r3, r2
 3021 0596 0833     		adds	r3, r3, #8
 3022 0598 1B68     		ldr	r3, [r3]
 3023 059a 032B     		cmp	r3, #3
 3024 059c 11D1     		bne	.L67
 3025              		.loc 1 388 0 discriminator 4
 3026 059e 07F51653 		add	r3, r7, #9600
 3027 05a2 03F11C03 		add	r3, r3, #28
 3028 05a6 1B68     		ldr	r3, [r3]
 3029 05a8 591E     		subs	r1, r3, #1
 3030 05aa 07F13802 		add	r2, r7, #56
 3031 05ae 343A     		subs	r2, r2, #52
 3032 05b0 0B46     		mov	r3, r1
 3033 05b2 5B00     		lsls	r3, r3, #1
 3034 05b4 0B44     		add	r3, r3, r1
 3035 05b6 9B00     		lsls	r3, r3, #2
 3036 05b8 1344     		add	r3, r3, r2
 3037 05ba 0833     		adds	r3, r3, #8
 3038 05bc 1B68     		ldr	r3, [r3]
 3039 05be 022B     		cmp	r3, #2
 3040 05c0 48D0     		beq	.L66
 3041              	.L67:
 3042              		.loc 1 388 0 discriminator 6
 3043 05c2 07F13802 		add	r2, r7, #56
 3044 05c6 343A     		subs	r2, r2, #52
 3045 05c8 07F51653 		add	r3, r7, #9600
 3046 05cc 03F11C03 		add	r3, r3, #28
 3047 05d0 1968     		ldr	r1, [r3]
 3048 05d2 0B46     		mov	r3, r1
 3049 05d4 5B00     		lsls	r3, r3, #1
 3050 05d6 0B44     		add	r3, r3, r1
 3051 05d8 9B00     		lsls	r3, r3, #2
 3052 05da 1344     		add	r3, r3, r2
 3053 05dc 0833     		adds	r3, r3, #8
 3054 05de 1B68     		ldr	r3, [r3]
 3055 05e0 012B     		cmp	r3, #1
 3056 05e2 0FD1     		bne	.L68
 3057              		.loc 1 388 0 discriminator 7
 3058 05e4 07F51653 		add	r3, r7, #9600
 3059 05e8 03F12003 		add	r3, r3, #32
 3060 05ec 1B68     		ldr	r3, [r3]
 3061 05ee 5A1C     		adds	r2, r3, #1
 3062 05f0 3C49     		ldr	r1, .L160+4
 3063 05f2 1346     		mov	r3, r2
 3064 05f4 5B00     		lsls	r3, r3, #1
 3065 05f6 1344     		add	r3, r3, r2
 3066 05f8 9B00     		lsls	r3, r3, #2
 3067 05fa 0B44     		add	r3, r3, r1
 3068 05fc 0833     		adds	r3, r3, #8
 3069 05fe 1B68     		ldr	r3, [r3]
ARM GAS  C:\Users\Logan\AppData\Local\Temp\ccWP3ZaE.s 			page 62


 3070 0600 042B     		cmp	r3, #4
 3071 0602 20D0     		beq	.L69
 3072              	.L68:
 3073              		.loc 1 388 0 discriminator 10
 3074 0604 07F13802 		add	r2, r7, #56
 3075 0608 343A     		subs	r2, r2, #52
 3076 060a 07F51653 		add	r3, r7, #9600
 3077 060e 03F11C03 		add	r3, r3, #28
 3078 0612 1968     		ldr	r1, [r3]
 3079 0614 0B46     		mov	r3, r1
 3080 0616 5B00     		lsls	r3, r3, #1
 3081 0618 0B44     		add	r3, r3, r1
 3082 061a 9B00     		lsls	r3, r3, #2
 3083 061c 1344     		add	r3, r3, r2
 3084 061e 0833     		adds	r3, r3, #8
 3085 0620 1B68     		ldr	r3, [r3]
 3086 0622 032B     		cmp	r3, #3
 3087 0624 62D1     		bne	.L70
 3088              		.loc 1 388 0 discriminator 11
 3089 0626 07F51653 		add	r3, r7, #9600
 3090 062a 03F12003 		add	r3, r3, #32
 3091 062e 1B68     		ldr	r3, [r3]
 3092 0630 5A1C     		adds	r2, r3, #1
 3093 0632 2C49     		ldr	r1, .L160+4
 3094 0634 1346     		mov	r3, r2
 3095 0636 5B00     		lsls	r3, r3, #1
 3096 0638 1344     		add	r3, r3, r2
 3097 063a 9B00     		lsls	r3, r3, #2
 3098 063c 0B44     		add	r3, r3, r1
 3099 063e 0833     		adds	r3, r3, #8
 3100 0640 1B68     		ldr	r3, [r3]
 3101 0642 022B     		cmp	r3, #2
 3102 0644 52D1     		bne	.L70
 3103              	.L69:
 3104              		.loc 1 388 0 discriminator 12
 3105 0646 07F51653 		add	r3, r7, #9600
 3106 064a 03F11C03 		add	r3, r3, #28
 3107 064e 1B68     		ldr	r3, [r3]
 3108 0650 012B     		cmp	r3, #1
 3109 0652 4BD1     		bne	.L70
 3110              	.L66:
 389:.\pathfinder.c ****                                // printf("L/R intersection found (%d) [direction = %d] -- TURN LEFT
 390:.\pathfinder.c ****                                 instructions[counter] = LEFT;
 3111              		.loc 1 390 0 is_stmt 1
 3112 0654 07F51653 		add	r3, r7, #9600
 3113 0658 03F13203 		add	r3, r3, #50
 3114 065c 1B88     		ldrh	r3, [r3]
 3115 065e 224A     		ldr	r2, .L160+8
 3116 0660 4C21     		movs	r1, #76
 3117 0662 D154     		strb	r1, [r2, r3]
 391:.\pathfinder.c ****                                 instructions[counter + 1] = (inter_end - j + 1 )- inter_prev_inters
 3118              		.loc 1 391 0
 3119 0664 07F51653 		add	r3, r7, #9600
 3120 0668 03F13203 		add	r3, r3, #50
 3121 066c 1B88     		ldrh	r3, [r3]
 3122 066e 0133     		adds	r3, r3, #1
 3123 0670 07F51652 		add	r2, r7, #9600
ARM GAS  C:\Users\Logan\AppData\Local\Temp\ccWP3ZaE.s 			page 63


 3124 0674 02F11402 		add	r2, r2, #20
 3125 0678 1268     		ldr	r2, [r2]
 3126 067a D1B2     		uxtb	r1, r2
 3127 067c 07F51652 		add	r2, r7, #9600
 3128 0680 02F11C02 		add	r2, r2, #28
 3129 0684 1268     		ldr	r2, [r2]
 3130 0686 D2B2     		uxtb	r2, r2
 3131 0688 8A1A     		subs	r2, r1, r2
 3132 068a D1B2     		uxtb	r1, r2
 3133 068c 07F51652 		add	r2, r7, #9600
 3134 0690 02F12802 		add	r2, r2, #40
 3135 0694 1268     		ldr	r2, [r2]
 3136 0696 D2B2     		uxtb	r2, r2
 3137 0698 8A1A     		subs	r2, r1, r2
 3138 069a D2B2     		uxtb	r2, r2
 3139 069c 0132     		adds	r2, r2, #1
 3140 069e D1B2     		uxtb	r1, r2
 3141 06a0 114A     		ldr	r2, .L160+8
 3142 06a2 D154     		strb	r1, [r2, r3]
 392:.\pathfinder.c ****                                 counter+=2;
 3143              		.loc 1 392 0
 3144 06a4 07F51653 		add	r3, r7, #9600
 3145 06a8 03F13203 		add	r3, r3, #50
 3146 06ac 1B88     		ldrh	r3, [r3]	@ movhi
 3147 06ae 0233     		adds	r3, r3, #2
 3148 06b0 07F51652 		add	r2, r7, #9600
 3149 06b4 02F13202 		add	r2, r2, #50
 3150 06b8 1380     		strh	r3, [r2]	@ movhi
 393:.\pathfinder.c ****                                 inter_prev_intersection = inter_end - j + 1;
 3151              		.loc 1 393 0
 3152 06ba 07F51653 		add	r3, r7, #9600
 3153 06be 03F11403 		add	r3, r3, #20
 3154 06c2 1A68     		ldr	r2, [r3]
 3155 06c4 07F51653 		add	r3, r7, #9600
 3156 06c8 03F11C03 		add	r3, r3, #28
 3157 06cc 1B68     		ldr	r3, [r3]
 3158 06ce D31A     		subs	r3, r2, r3
 3159 06d0 0133     		adds	r3, r3, #1
 3160 06d2 07F51652 		add	r2, r7, #9600
 3161 06d6 02F12802 		add	r2, r2, #40
 3162 06da 1360     		str	r3, [r2]
 3163 06dc B1E1     		b	.L71
 3164              	.L161:
 3165 06de 00BF     		.align	2
 3166              	.L160:
 3167 06e0 00000000 		.word	map
 3168 06e4 00000000 		.word	path
 3169 06e8 00000000 		.word	instructions
 3170              	.L70:
 394:.\pathfinder.c ****                              }else if((inter_path[j][DIR] == 1 && inter_path[j - 1][DIR] == 2) || (
 3171              		.loc 1 394 0
 3172 06ec 07F13802 		add	r2, r7, #56
 3173 06f0 343A     		subs	r2, r2, #52
 3174 06f2 07F51653 		add	r3, r7, #9600
 3175 06f6 03F11C03 		add	r3, r3, #28
 3176 06fa 1968     		ldr	r1, [r3]
 3177 06fc 0B46     		mov	r3, r1
ARM GAS  C:\Users\Logan\AppData\Local\Temp\ccWP3ZaE.s 			page 64


 3178 06fe 5B00     		lsls	r3, r3, #1
 3179 0700 0B44     		add	r3, r3, r1
 3180 0702 9B00     		lsls	r3, r3, #2
 3181 0704 1344     		add	r3, r3, r2
 3182 0706 0833     		adds	r3, r3, #8
 3183 0708 1B68     		ldr	r3, [r3]
 3184 070a 012B     		cmp	r3, #1
 3185 070c 11D1     		bne	.L72
 3186              		.loc 1 394 0 is_stmt 0 discriminator 1
 3187 070e 07F51653 		add	r3, r7, #9600
 3188 0712 03F11C03 		add	r3, r3, #28
 3189 0716 1B68     		ldr	r3, [r3]
 3190 0718 591E     		subs	r1, r3, #1
 3191 071a 07F13802 		add	r2, r7, #56
 3192 071e 343A     		subs	r2, r2, #52
 3193 0720 0B46     		mov	r3, r1
 3194 0722 5B00     		lsls	r3, r3, #1
 3195 0724 0B44     		add	r3, r3, r1
 3196 0726 9B00     		lsls	r3, r3, #2
 3197 0728 1344     		add	r3, r3, r2
 3198 072a 0833     		adds	r3, r3, #8
 3199 072c 1B68     		ldr	r3, [r3]
 3200 072e 022B     		cmp	r3, #2
 3201 0730 6BD0     		beq	.L73
 3202              	.L72:
 3203              		.loc 1 394 0 discriminator 3
 3204 0732 07F13802 		add	r2, r7, #56
 3205 0736 343A     		subs	r2, r2, #52
 3206 0738 07F51653 		add	r3, r7, #9600
 3207 073c 03F11C03 		add	r3, r3, #28
 3208 0740 1968     		ldr	r1, [r3]
 3209 0742 0B46     		mov	r3, r1
 3210 0744 5B00     		lsls	r3, r3, #1
 3211 0746 0B44     		add	r3, r3, r1
 3212 0748 9B00     		lsls	r3, r3, #2
 3213 074a 1344     		add	r3, r3, r2
 3214 074c 0833     		adds	r3, r3, #8
 3215 074e 1B68     		ldr	r3, [r3]
 3216 0750 032B     		cmp	r3, #3
 3217 0752 11D1     		bne	.L74
 3218              		.loc 1 394 0 discriminator 4
 3219 0754 07F51653 		add	r3, r7, #9600
 3220 0758 03F11C03 		add	r3, r3, #28
 3221 075c 1B68     		ldr	r3, [r3]
 3222 075e 591E     		subs	r1, r3, #1
 3223 0760 07F13802 		add	r2, r7, #56
 3224 0764 343A     		subs	r2, r2, #52
 3225 0766 0B46     		mov	r3, r1
 3226 0768 5B00     		lsls	r3, r3, #1
 3227 076a 0B44     		add	r3, r3, r1
 3228 076c 9B00     		lsls	r3, r3, #2
 3229 076e 1344     		add	r3, r3, r2
 3230 0770 0833     		adds	r3, r3, #8
 3231 0772 1B68     		ldr	r3, [r3]
 3232 0774 042B     		cmp	r3, #4
 3233 0776 48D0     		beq	.L73
 3234              	.L74:
ARM GAS  C:\Users\Logan\AppData\Local\Temp\ccWP3ZaE.s 			page 65


 3235              		.loc 1 394 0 discriminator 6
 3236 0778 07F13802 		add	r2, r7, #56
 3237 077c 343A     		subs	r2, r2, #52
 3238 077e 07F51653 		add	r3, r7, #9600
 3239 0782 03F11C03 		add	r3, r3, #28
 3240 0786 1968     		ldr	r1, [r3]
 3241 0788 0B46     		mov	r3, r1
 3242 078a 5B00     		lsls	r3, r3, #1
 3243 078c 0B44     		add	r3, r3, r1
 3244 078e 9B00     		lsls	r3, r3, #2
 3245 0790 1344     		add	r3, r3, r2
 3246 0792 0833     		adds	r3, r3, #8
 3247 0794 1B68     		ldr	r3, [r3]
 3248 0796 012B     		cmp	r3, #1
 3249 0798 0FD1     		bne	.L75
 3250              		.loc 1 394 0 discriminator 7
 3251 079a 07F51653 		add	r3, r7, #9600
 3252 079e 03F12003 		add	r3, r3, #32
 3253 07a2 1B68     		ldr	r3, [r3]
 3254 07a4 5A1C     		adds	r2, r3, #1
 3255 07a6 CA49     		ldr	r1, .L162
 3256 07a8 1346     		mov	r3, r2
 3257 07aa 5B00     		lsls	r3, r3, #1
 3258 07ac 1344     		add	r3, r3, r2
 3259 07ae 9B00     		lsls	r3, r3, #2
 3260 07b0 0B44     		add	r3, r3, r1
 3261 07b2 0833     		adds	r3, r3, #8
 3262 07b4 1B68     		ldr	r3, [r3]
 3263 07b6 022B     		cmp	r3, #2
 3264 07b8 20D0     		beq	.L76
 3265              	.L75:
 3266              		.loc 1 394 0 discriminator 10
 3267 07ba 07F13802 		add	r2, r7, #56
 3268 07be 343A     		subs	r2, r2, #52
 3269 07c0 07F51653 		add	r3, r7, #9600
 3270 07c4 03F11C03 		add	r3, r3, #28
 3271 07c8 1968     		ldr	r1, [r3]
 3272 07ca 0B46     		mov	r3, r1
 3273 07cc 5B00     		lsls	r3, r3, #1
 3274 07ce 0B44     		add	r3, r3, r1
 3275 07d0 9B00     		lsls	r3, r3, #2
 3276 07d2 1344     		add	r3, r3, r2
 3277 07d4 0833     		adds	r3, r3, #8
 3278 07d6 1B68     		ldr	r3, [r3]
 3279 07d8 032B     		cmp	r3, #3
 3280 07da 5BD1     		bne	.L77
 3281              		.loc 1 394 0 discriminator 11
 3282 07dc 07F51653 		add	r3, r7, #9600
 3283 07e0 03F12003 		add	r3, r3, #32
 3284 07e4 1B68     		ldr	r3, [r3]
 3285 07e6 5A1C     		adds	r2, r3, #1
 3286 07e8 B949     		ldr	r1, .L162
 3287 07ea 1346     		mov	r3, r2
 3288 07ec 5B00     		lsls	r3, r3, #1
 3289 07ee 1344     		add	r3, r3, r2
 3290 07f0 9B00     		lsls	r3, r3, #2
 3291 07f2 0B44     		add	r3, r3, r1
ARM GAS  C:\Users\Logan\AppData\Local\Temp\ccWP3ZaE.s 			page 66


 3292 07f4 0833     		adds	r3, r3, #8
 3293 07f6 1B68     		ldr	r3, [r3]
 3294 07f8 012B     		cmp	r3, #1
 3295 07fa 4BD1     		bne	.L77
 3296              	.L76:
 3297              		.loc 1 394 0 discriminator 12
 3298 07fc 07F51653 		add	r3, r7, #9600
 3299 0800 03F11C03 		add	r3, r3, #28
 3300 0804 1B68     		ldr	r3, [r3]
 3301 0806 042B     		cmp	r3, #4
 3302 0808 44D1     		bne	.L77
 3303              	.L73:
 395:.\pathfinder.c ****                                // printf("L/R intersection found (%d) [direction = %d] -- TURN RIGH
 396:.\pathfinder.c ****                                 instructions[counter] = RIGHT;
 3304              		.loc 1 396 0 is_stmt 1
 3305 080a 07F51653 		add	r3, r7, #9600
 3306 080e 03F13203 		add	r3, r3, #50
 3307 0812 1B88     		ldrh	r3, [r3]
 3308 0814 AF4A     		ldr	r2, .L162+4
 3309 0816 5221     		movs	r1, #82
 3310 0818 D154     		strb	r1, [r2, r3]
 397:.\pathfinder.c ****                                 instructions[counter + 1] = (inter_end - j + 1 )- inter_prev_inters
 3311              		.loc 1 397 0
 3312 081a 07F51653 		add	r3, r7, #9600
 3313 081e 03F13203 		add	r3, r3, #50
 3314 0822 1B88     		ldrh	r3, [r3]
 3315 0824 0133     		adds	r3, r3, #1
 3316 0826 07F51652 		add	r2, r7, #9600
 3317 082a 02F11402 		add	r2, r2, #20
 3318 082e 1268     		ldr	r2, [r2]
 3319 0830 D1B2     		uxtb	r1, r2
 3320 0832 07F51652 		add	r2, r7, #9600
 3321 0836 02F11C02 		add	r2, r2, #28
 3322 083a 1268     		ldr	r2, [r2]
 3323 083c D2B2     		uxtb	r2, r2
 3324 083e 8A1A     		subs	r2, r1, r2
 3325 0840 D1B2     		uxtb	r1, r2
 3326 0842 07F51652 		add	r2, r7, #9600
 3327 0846 02F12802 		add	r2, r2, #40
 3328 084a 1268     		ldr	r2, [r2]
 3329 084c D2B2     		uxtb	r2, r2
 3330 084e 8A1A     		subs	r2, r1, r2
 3331 0850 D2B2     		uxtb	r2, r2
 3332 0852 0132     		adds	r2, r2, #1
 3333 0854 D1B2     		uxtb	r1, r2
 3334 0856 9F4A     		ldr	r2, .L162+4
 3335 0858 D154     		strb	r1, [r2, r3]
 398:.\pathfinder.c ****                                 counter+=2;
 3336              		.loc 1 398 0
 3337 085a 07F51653 		add	r3, r7, #9600
 3338 085e 03F13203 		add	r3, r3, #50
 3339 0862 1B88     		ldrh	r3, [r3]	@ movhi
 3340 0864 0233     		adds	r3, r3, #2
 3341 0866 07F51652 		add	r2, r7, #9600
 3342 086a 02F13202 		add	r2, r2, #50
 3343 086e 1380     		strh	r3, [r2]	@ movhi
 399:.\pathfinder.c ****                                 inter_prev_intersection = inter_end - j + 1;
ARM GAS  C:\Users\Logan\AppData\Local\Temp\ccWP3ZaE.s 			page 67


 3344              		.loc 1 399 0
 3345 0870 07F51653 		add	r3, r7, #9600
 3346 0874 03F11403 		add	r3, r3, #20
 3347 0878 1A68     		ldr	r2, [r3]
 3348 087a 07F51653 		add	r3, r7, #9600
 3349 087e 03F11C03 		add	r3, r3, #28
 3350 0882 1B68     		ldr	r3, [r3]
 3351 0884 D31A     		subs	r3, r2, r3
 3352 0886 0133     		adds	r3, r3, #1
 3353 0888 07F51652 		add	r2, r7, #9600
 3354 088c 02F12802 		add	r2, r2, #40
 3355 0890 1360     		str	r3, [r2]
 3356 0892 D6E0     		b	.L71
 3357              	.L77:
 400:.\pathfinder.c ****                              }else if ((inter_path[j][DIR] == 1 && inter_path[j - 1][DIR] == 3) || 
 3358              		.loc 1 400 0
 3359 0894 07F13802 		add	r2, r7, #56
 3360 0898 343A     		subs	r2, r2, #52
 3361 089a 07F51653 		add	r3, r7, #9600
 3362 089e 03F11C03 		add	r3, r3, #28
 3363 08a2 1968     		ldr	r1, [r3]
 3364 08a4 0B46     		mov	r3, r1
 3365 08a6 5B00     		lsls	r3, r3, #1
 3366 08a8 0B44     		add	r3, r3, r1
 3367 08aa 9B00     		lsls	r3, r3, #2
 3368 08ac 1344     		add	r3, r3, r2
 3369 08ae 0833     		adds	r3, r3, #8
 3370 08b0 1B68     		ldr	r3, [r3]
 3371 08b2 012B     		cmp	r3, #1
 3372 08b4 11D1     		bne	.L78
 3373              		.loc 1 400 0 is_stmt 0 discriminator 1
 3374 08b6 07F51653 		add	r3, r7, #9600
 3375 08ba 03F11C03 		add	r3, r3, #28
 3376 08be 1B68     		ldr	r3, [r3]
 3377 08c0 591E     		subs	r1, r3, #1
 3378 08c2 07F13802 		add	r2, r7, #56
 3379 08c6 343A     		subs	r2, r2, #52
 3380 08c8 0B46     		mov	r3, r1
 3381 08ca 5B00     		lsls	r3, r3, #1
 3382 08cc 0B44     		add	r3, r3, r1
 3383 08ce 9B00     		lsls	r3, r3, #2
 3384 08d0 1344     		add	r3, r3, r2
 3385 08d2 0833     		adds	r3, r3, #8
 3386 08d4 1B68     		ldr	r3, [r3]
 3387 08d6 032B     		cmp	r3, #3
 3388 08d8 6ED0     		beq	.L79
 3389              	.L78:
 3390              		.loc 1 400 0 discriminator 3
 3391 08da 07F13802 		add	r2, r7, #56
 3392 08de 343A     		subs	r2, r2, #52
 3393 08e0 07F51653 		add	r3, r7, #9600
 3394 08e4 03F11C03 		add	r3, r3, #28
 3395 08e8 1968     		ldr	r1, [r3]
 3396 08ea 0B46     		mov	r3, r1
 3397 08ec 5B00     		lsls	r3, r3, #1
 3398 08ee 0B44     		add	r3, r3, r1
 3399 08f0 9B00     		lsls	r3, r3, #2
ARM GAS  C:\Users\Logan\AppData\Local\Temp\ccWP3ZaE.s 			page 68


 3400 08f2 1344     		add	r3, r3, r2
 3401 08f4 0833     		adds	r3, r3, #8
 3402 08f6 1B68     		ldr	r3, [r3]
 3403 08f8 032B     		cmp	r3, #3
 3404 08fa 11D1     		bne	.L80
 3405              		.loc 1 400 0 discriminator 4
 3406 08fc 07F51653 		add	r3, r7, #9600
 3407 0900 03F11C03 		add	r3, r3, #28
 3408 0904 1B68     		ldr	r3, [r3]
 3409 0906 591E     		subs	r1, r3, #1
 3410 0908 07F13802 		add	r2, r7, #56
 3411 090c 343A     		subs	r2, r2, #52
 3412 090e 0B46     		mov	r3, r1
 3413 0910 5B00     		lsls	r3, r3, #1
 3414 0912 0B44     		add	r3, r3, r1
 3415 0914 9B00     		lsls	r3, r3, #2
 3416 0916 1344     		add	r3, r3, r2
 3417 0918 0833     		adds	r3, r3, #8
 3418 091a 1B68     		ldr	r3, [r3]
 3419 091c 012B     		cmp	r3, #1
 3420 091e 4BD0     		beq	.L79
 3421              	.L80:
 3422              		.loc 1 400 0 discriminator 6
 3423 0920 07F13802 		add	r2, r7, #56
 3424 0924 343A     		subs	r2, r2, #52
 3425 0926 07F51653 		add	r3, r7, #9600
 3426 092a 03F11C03 		add	r3, r3, #28
 3427 092e 1968     		ldr	r1, [r3]
 3428 0930 0B46     		mov	r3, r1
 3429 0932 5B00     		lsls	r3, r3, #1
 3430 0934 0B44     		add	r3, r3, r1
 3431 0936 9B00     		lsls	r3, r3, #2
 3432 0938 1344     		add	r3, r3, r2
 3433 093a 0833     		adds	r3, r3, #8
 3434 093c 1B68     		ldr	r3, [r3]
 3435 093e 012B     		cmp	r3, #1
 3436 0940 0FD1     		bne	.L81
 3437              		.loc 1 400 0 discriminator 7
 3438 0942 07F51653 		add	r3, r7, #9600
 3439 0946 03F12003 		add	r3, r3, #32
 3440 094a 1B68     		ldr	r3, [r3]
 3441 094c 5A1C     		adds	r2, r3, #1
 3442 094e 6049     		ldr	r1, .L162
 3443 0950 1346     		mov	r3, r2
 3444 0952 5B00     		lsls	r3, r3, #1
 3445 0954 1344     		add	r3, r3, r2
 3446 0956 9B00     		lsls	r3, r3, #2
 3447 0958 0B44     		add	r3, r3, r1
 3448 095a 0833     		adds	r3, r3, #8
 3449 095c 1B68     		ldr	r3, [r3]
 3450 095e 032B     		cmp	r3, #3
 3451 0960 22D0     		beq	.L82
 3452              	.L81:
 3453              		.loc 1 400 0 discriminator 10
 3454 0962 07F13802 		add	r2, r7, #56
 3455 0966 343A     		subs	r2, r2, #52
 3456 0968 07F51653 		add	r3, r7, #9600
ARM GAS  C:\Users\Logan\AppData\Local\Temp\ccWP3ZaE.s 			page 69


 3457 096c 03F11C03 		add	r3, r3, #28
 3458 0970 1968     		ldr	r1, [r3]
 3459 0972 0B46     		mov	r3, r1
 3460 0974 5B00     		lsls	r3, r3, #1
 3461 0976 0B44     		add	r3, r3, r1
 3462 0978 9B00     		lsls	r3, r3, #2
 3463 097a 1344     		add	r3, r3, r2
 3464 097c 0833     		adds	r3, r3, #8
 3465 097e 1B68     		ldr	r3, [r3]
 3466 0980 032B     		cmp	r3, #3
 3467 0982 40F0A480 		bne	.L83
 3468              		.loc 1 400 0 discriminator 11
 3469 0986 07F51653 		add	r3, r7, #9600
 3470 098a 03F12003 		add	r3, r3, #32
 3471 098e 1B68     		ldr	r3, [r3]
 3472 0990 5A1C     		adds	r2, r3, #1
 3473 0992 4F49     		ldr	r1, .L162
 3474 0994 1346     		mov	r3, r2
 3475 0996 5B00     		lsls	r3, r3, #1
 3476 0998 1344     		add	r3, r3, r2
 3477 099a 9B00     		lsls	r3, r3, #2
 3478 099c 0B44     		add	r3, r3, r1
 3479 099e 0833     		adds	r3, r3, #8
 3480 09a0 1B68     		ldr	r3, [r3]
 3481 09a2 012B     		cmp	r3, #1
 3482 09a4 40F09380 		bne	.L83
 3483              	.L82:
 3484              		.loc 1 400 0 discriminator 12
 3485 09a8 07F51653 		add	r3, r7, #9600
 3486 09ac 03F11C03 		add	r3, r3, #28
 3487 09b0 1B68     		ldr	r3, [r3]
 3488 09b2 012B     		cmp	r3, #1
 3489 09b4 40F08B80 		bne	.L83
 3490              	.L79:
 401:.\pathfinder.c ****                                // printf("L/R intersection found (%d) [direction = %d] -- TURN U-TU
 402:.\pathfinder.c ****                                 instructions[counter] = UTURN;
 3491              		.loc 1 402 0 is_stmt 1
 3492 09b8 07F51653 		add	r3, r7, #9600
 3493 09bc 03F13203 		add	r3, r3, #50
 3494 09c0 1B88     		ldrh	r3, [r3]
 3495 09c2 444A     		ldr	r2, .L162+4
 3496 09c4 5521     		movs	r1, #85
 3497 09c6 D154     		strb	r1, [r2, r3]
 403:.\pathfinder.c ****                                 instructions[counter + 1] = (inter_end - j + 1 )- inter_prev_inters
 3498              		.loc 1 403 0
 3499 09c8 07F51653 		add	r3, r7, #9600
 3500 09cc 03F13203 		add	r3, r3, #50
 3501 09d0 1B88     		ldrh	r3, [r3]
 3502 09d2 0133     		adds	r3, r3, #1
 3503 09d4 07F51652 		add	r2, r7, #9600
 3504 09d8 02F11402 		add	r2, r2, #20
 3505 09dc 1268     		ldr	r2, [r2]
 3506 09de D1B2     		uxtb	r1, r2
 3507 09e0 07F51652 		add	r2, r7, #9600
 3508 09e4 02F11C02 		add	r2, r2, #28
 3509 09e8 1268     		ldr	r2, [r2]
 3510 09ea D2B2     		uxtb	r2, r2
ARM GAS  C:\Users\Logan\AppData\Local\Temp\ccWP3ZaE.s 			page 70


 3511 09ec 8A1A     		subs	r2, r1, r2
 3512 09ee D1B2     		uxtb	r1, r2
 3513 09f0 07F51652 		add	r2, r7, #9600
 3514 09f4 02F12802 		add	r2, r2, #40
 3515 09f8 1268     		ldr	r2, [r2]
 3516 09fa D2B2     		uxtb	r2, r2
 3517 09fc 8A1A     		subs	r2, r1, r2
 3518 09fe D2B2     		uxtb	r2, r2
 3519 0a00 0132     		adds	r2, r2, #1
 3520 0a02 D1B2     		uxtb	r1, r2
 3521 0a04 334A     		ldr	r2, .L162+4
 3522 0a06 D154     		strb	r1, [r2, r3]
 404:.\pathfinder.c ****                                 counter+=2;
 3523              		.loc 1 404 0
 3524 0a08 07F51653 		add	r3, r7, #9600
 3525 0a0c 03F13203 		add	r3, r3, #50
 3526 0a10 1B88     		ldrh	r3, [r3]	@ movhi
 3527 0a12 0233     		adds	r3, r3, #2
 3528 0a14 07F51652 		add	r2, r7, #9600
 3529 0a18 02F13202 		add	r2, r2, #50
 3530 0a1c 1380     		strh	r3, [r2]	@ movhi
 405:.\pathfinder.c ****                                 inter_prev_intersection = inter_end - j + 1;
 3531              		.loc 1 405 0
 3532 0a1e 07F51653 		add	r3, r7, #9600
 3533 0a22 03F11403 		add	r3, r3, #20
 3534 0a26 1A68     		ldr	r2, [r3]
 3535 0a28 07F51653 		add	r3, r7, #9600
 3536 0a2c 03F11C03 		add	r3, r3, #28
 3537 0a30 1B68     		ldr	r3, [r3]
 3538 0a32 D31A     		subs	r3, r2, r3
 3539 0a34 0133     		adds	r3, r3, #1
 3540 0a36 07F51652 		add	r2, r7, #9600
 3541 0a3a 02F12802 		add	r2, r2, #40
 3542 0a3e 1360     		str	r3, [r2]
 3543 0a40 45E0     		b	.L83
 3544              	.L71:
 3545 0a42 44E0     		b	.L83
 3546              	.L64:
 406:.\pathfinder.c ****                              }else{
 407:.\pathfinder.c ****                                // printf("Prev %d, current %d (%d, %d)\n",inter_path[j - 1][DIR], i
 408:.\pathfinder.c ****                              }
 409:.\pathfinder.c ****                           }else{
 410:.\pathfinder.c ****                              //printf("L/R intersection found (%d) [direction = %d] (%d, %d)\n", tm
 411:.\pathfinder.c ****                              instructions[counter] = STRAIGHT;
 3547              		.loc 1 411 0
 3548 0a44 07F51653 		add	r3, r7, #9600
 3549 0a48 03F13203 		add	r3, r3, #50
 3550 0a4c 1B88     		ldrh	r3, [r3]
 3551 0a4e 214A     		ldr	r2, .L162+4
 3552 0a50 5321     		movs	r1, #83
 3553 0a52 D154     		strb	r1, [r2, r3]
 412:.\pathfinder.c ****                              instructions[counter + 1] = (inter_end - j + 1 )- inter_prev_intersect
 3554              		.loc 1 412 0
 3555 0a54 07F51653 		add	r3, r7, #9600
 3556 0a58 03F13203 		add	r3, r3, #50
 3557 0a5c 1B88     		ldrh	r3, [r3]
 3558 0a5e 0133     		adds	r3, r3, #1
ARM GAS  C:\Users\Logan\AppData\Local\Temp\ccWP3ZaE.s 			page 71


 3559 0a60 07F51652 		add	r2, r7, #9600
 3560 0a64 02F11402 		add	r2, r2, #20
 3561 0a68 1268     		ldr	r2, [r2]
 3562 0a6a D1B2     		uxtb	r1, r2
 3563 0a6c 07F51652 		add	r2, r7, #9600
 3564 0a70 02F11C02 		add	r2, r2, #28
 3565 0a74 1268     		ldr	r2, [r2]
 3566 0a76 D2B2     		uxtb	r2, r2
 3567 0a78 8A1A     		subs	r2, r1, r2
 3568 0a7a D1B2     		uxtb	r1, r2
 3569 0a7c 07F51652 		add	r2, r7, #9600
 3570 0a80 02F12802 		add	r2, r2, #40
 3571 0a84 1268     		ldr	r2, [r2]
 3572 0a86 D2B2     		uxtb	r2, r2
 3573 0a88 8A1A     		subs	r2, r1, r2
 3574 0a8a D2B2     		uxtb	r2, r2
 3575 0a8c 0132     		adds	r2, r2, #1
 3576 0a8e D1B2     		uxtb	r1, r2
 3577 0a90 104A     		ldr	r2, .L162+4
 3578 0a92 D154     		strb	r1, [r2, r3]
 413:.\pathfinder.c ****                              counter+=2;
 3579              		.loc 1 413 0
 3580 0a94 07F51653 		add	r3, r7, #9600
 3581 0a98 03F13203 		add	r3, r3, #50
 3582 0a9c 1B88     		ldrh	r3, [r3]	@ movhi
 3583 0a9e 0233     		adds	r3, r3, #2
 3584 0aa0 07F51652 		add	r2, r7, #9600
 3585 0aa4 02F13202 		add	r2, r2, #50
 3586 0aa8 1380     		strh	r3, [r2]	@ movhi
 414:.\pathfinder.c ****                              inter_prev_intersection = inter_end - j + 1;
 3587              		.loc 1 414 0
 3588 0aaa 07F51653 		add	r3, r7, #9600
 3589 0aae 03F11403 		add	r3, r3, #20
 3590 0ab2 1A68     		ldr	r2, [r3]
 3591 0ab4 07F51653 		add	r3, r7, #9600
 3592 0ab8 03F11C03 		add	r3, r3, #28
 3593 0abc 1B68     		ldr	r3, [r3]
 3594 0abe D31A     		subs	r3, r2, r3
 3595 0ac0 0133     		adds	r3, r3, #1
 3596 0ac2 07F51652 		add	r2, r7, #9600
 3597 0ac6 02F12802 		add	r2, r2, #40
 3598 0aca 1360     		str	r3, [r2]
 386:.\pathfinder.c ****                              //current direction , the next direction
 3599              		.loc 1 386 0
 3600 0acc D9E0     		b	.L84
 3601              	.L83:
 386:.\pathfinder.c ****                              //current direction , the next direction
 3602              		.loc 1 386 0 is_stmt 0 discriminator 1
 3603 0ace D8E0     		b	.L84
 3604              	.L163:
 3605              		.align	2
 3606              	.L162:
 3607 0ad0 00000000 		.word	path
 3608 0ad4 00000000 		.word	instructions
 3609              	.L63:
 415:.\pathfinder.c ****                           }
 416:.\pathfinder.c ****                        }else{//not an intersection
ARM GAS  C:\Users\Logan\AppData\Local\Temp\ccWP3ZaE.s 			page 72


 417:.\pathfinder.c ****                           if ((inter_path[j][DIR] == 1 && inter_path[j - 1][DIR] == 3) || (inter_pa
 3610              		.loc 1 417 0 is_stmt 1
 3611 0ad8 07F13802 		add	r2, r7, #56
 3612 0adc 343A     		subs	r2, r2, #52
 3613 0ade 07F51653 		add	r3, r7, #9600
 3614 0ae2 03F11C03 		add	r3, r3, #28
 3615 0ae6 1968     		ldr	r1, [r3]
 3616 0ae8 0B46     		mov	r3, r1
 3617 0aea 5B00     		lsls	r3, r3, #1
 3618 0aec 0B44     		add	r3, r3, r1
 3619 0aee 9B00     		lsls	r3, r3, #2
 3620 0af0 1344     		add	r3, r3, r2
 3621 0af2 0833     		adds	r3, r3, #8
 3622 0af4 1B68     		ldr	r3, [r3]
 3623 0af6 012B     		cmp	r3, #1
 3624 0af8 11D1     		bne	.L85
 3625              		.loc 1 417 0 is_stmt 0 discriminator 1
 3626 0afa 07F51653 		add	r3, r7, #9600
 3627 0afe 03F11C03 		add	r3, r3, #28
 3628 0b02 1B68     		ldr	r3, [r3]
 3629 0b04 591E     		subs	r1, r3, #1
 3630 0b06 07F13802 		add	r2, r7, #56
 3631 0b0a 343A     		subs	r2, r2, #52
 3632 0b0c 0B46     		mov	r3, r1
 3633 0b0e 5B00     		lsls	r3, r3, #1
 3634 0b10 0B44     		add	r3, r3, r1
 3635 0b12 9B00     		lsls	r3, r3, #2
 3636 0b14 1344     		add	r3, r3, r2
 3637 0b16 0833     		adds	r3, r3, #8
 3638 0b18 1B68     		ldr	r3, [r3]
 3639 0b1a 032B     		cmp	r3, #3
 3640 0b1c 6BD0     		beq	.L86
 3641              	.L85:
 3642              		.loc 1 417 0 discriminator 3
 3643 0b1e 07F13802 		add	r2, r7, #56
 3644 0b22 343A     		subs	r2, r2, #52
 3645 0b24 07F51653 		add	r3, r7, #9600
 3646 0b28 03F11C03 		add	r3, r3, #28
 3647 0b2c 1968     		ldr	r1, [r3]
 3648 0b2e 0B46     		mov	r3, r1
 3649 0b30 5B00     		lsls	r3, r3, #1
 3650 0b32 0B44     		add	r3, r3, r1
 3651 0b34 9B00     		lsls	r3, r3, #2
 3652 0b36 1344     		add	r3, r3, r2
 3653 0b38 0833     		adds	r3, r3, #8
 3654 0b3a 1B68     		ldr	r3, [r3]
 3655 0b3c 032B     		cmp	r3, #3
 3656 0b3e 11D1     		bne	.L87
 3657              		.loc 1 417 0 discriminator 4
 3658 0b40 07F51653 		add	r3, r7, #9600
 3659 0b44 03F11C03 		add	r3, r3, #28
 3660 0b48 1B68     		ldr	r3, [r3]
 3661 0b4a 591E     		subs	r1, r3, #1
 3662 0b4c 07F13802 		add	r2, r7, #56
 3663 0b50 343A     		subs	r2, r2, #52
 3664 0b52 0B46     		mov	r3, r1
 3665 0b54 5B00     		lsls	r3, r3, #1
ARM GAS  C:\Users\Logan\AppData\Local\Temp\ccWP3ZaE.s 			page 73


 3666 0b56 0B44     		add	r3, r3, r1
 3667 0b58 9B00     		lsls	r3, r3, #2
 3668 0b5a 1344     		add	r3, r3, r2
 3669 0b5c 0833     		adds	r3, r3, #8
 3670 0b5e 1B68     		ldr	r3, [r3]
 3671 0b60 012B     		cmp	r3, #1
 3672 0b62 48D0     		beq	.L86
 3673              	.L87:
 3674              		.loc 1 417 0 discriminator 6
 3675 0b64 07F13802 		add	r2, r7, #56
 3676 0b68 343A     		subs	r2, r2, #52
 3677 0b6a 07F51653 		add	r3, r7, #9600
 3678 0b6e 03F11C03 		add	r3, r3, #28
 3679 0b72 1968     		ldr	r1, [r3]
 3680 0b74 0B46     		mov	r3, r1
 3681 0b76 5B00     		lsls	r3, r3, #1
 3682 0b78 0B44     		add	r3, r3, r1
 3683 0b7a 9B00     		lsls	r3, r3, #2
 3684 0b7c 1344     		add	r3, r3, r2
 3685 0b7e 0833     		adds	r3, r3, #8
 3686 0b80 1B68     		ldr	r3, [r3]
 3687 0b82 012B     		cmp	r3, #1
 3688 0b84 0FD1     		bne	.L88
 3689              		.loc 1 417 0 discriminator 7
 3690 0b86 07F51653 		add	r3, r7, #9600
 3691 0b8a 03F12003 		add	r3, r3, #32
 3692 0b8e 1B68     		ldr	r3, [r3]
 3693 0b90 5A1C     		adds	r2, r3, #1
 3694 0b92 3D49     		ldr	r1, .L164
 3695 0b94 1346     		mov	r3, r2
 3696 0b96 5B00     		lsls	r3, r3, #1
 3697 0b98 1344     		add	r3, r3, r2
 3698 0b9a 9B00     		lsls	r3, r3, #2
 3699 0b9c 0B44     		add	r3, r3, r1
 3700 0b9e 0833     		adds	r3, r3, #8
 3701 0ba0 1B68     		ldr	r3, [r3]
 3702 0ba2 032B     		cmp	r3, #3
 3703 0ba4 20D0     		beq	.L89
 3704              	.L88:
 3705              		.loc 1 417 0 discriminator 10
 3706 0ba6 07F13802 		add	r2, r7, #56
 3707 0baa 343A     		subs	r2, r2, #52
 3708 0bac 07F51653 		add	r3, r7, #9600
 3709 0bb0 03F11C03 		add	r3, r3, #28
 3710 0bb4 1968     		ldr	r1, [r3]
 3711 0bb6 0B46     		mov	r3, r1
 3712 0bb8 5B00     		lsls	r3, r3, #1
 3713 0bba 0B44     		add	r3, r3, r1
 3714 0bbc 9B00     		lsls	r3, r3, #2
 3715 0bbe 1344     		add	r3, r3, r2
 3716 0bc0 0833     		adds	r3, r3, #8
 3717 0bc2 1B68     		ldr	r3, [r3]
 3718 0bc4 032B     		cmp	r3, #3
 3719 0bc6 5CD1     		bne	.L84
 3720              		.loc 1 417 0 discriminator 11
 3721 0bc8 07F51653 		add	r3, r7, #9600
 3722 0bcc 03F12003 		add	r3, r3, #32
ARM GAS  C:\Users\Logan\AppData\Local\Temp\ccWP3ZaE.s 			page 74


 3723 0bd0 1B68     		ldr	r3, [r3]
 3724 0bd2 5A1C     		adds	r2, r3, #1
 3725 0bd4 2C49     		ldr	r1, .L164
 3726 0bd6 1346     		mov	r3, r2
 3727 0bd8 5B00     		lsls	r3, r3, #1
 3728 0bda 1344     		add	r3, r3, r2
 3729 0bdc 9B00     		lsls	r3, r3, #2
 3730 0bde 0B44     		add	r3, r3, r1
 3731 0be0 0833     		adds	r3, r3, #8
 3732 0be2 1B68     		ldr	r3, [r3]
 3733 0be4 012B     		cmp	r3, #1
 3734 0be6 4CD1     		bne	.L84
 3735              	.L89:
 3736              		.loc 1 417 0 discriminator 12
 3737 0be8 07F51653 		add	r3, r7, #9600
 3738 0bec 03F11C03 		add	r3, r3, #28
 3739 0bf0 1B68     		ldr	r3, [r3]
 3740 0bf2 012B     		cmp	r3, #1
 3741 0bf4 45D1     		bne	.L84
 3742              	.L86:
 418:.\pathfinder.c ****                             // printf("L/R intersection found (%d) [direction = %d] -- TURN U-TURN 
 419:.\pathfinder.c ****                              instructions[counter] = UTURN;
 3743              		.loc 1 419 0 is_stmt 1
 3744 0bf6 07F51653 		add	r3, r7, #9600
 3745 0bfa 03F13203 		add	r3, r3, #50
 3746 0bfe 1B88     		ldrh	r3, [r3]
 3747 0c00 224A     		ldr	r2, .L164+4
 3748 0c02 5521     		movs	r1, #85
 3749 0c04 D154     		strb	r1, [r2, r3]
 420:.\pathfinder.c ****                              instructions[counter + 1] = (inter_end - j + 1 )- inter_prev_intersect
 3750              		.loc 1 420 0
 3751 0c06 07F51653 		add	r3, r7, #9600
 3752 0c0a 03F13203 		add	r3, r3, #50
 3753 0c0e 1B88     		ldrh	r3, [r3]
 3754 0c10 0133     		adds	r3, r3, #1
 3755 0c12 07F51652 		add	r2, r7, #9600
 3756 0c16 02F11402 		add	r2, r2, #20
 3757 0c1a 1268     		ldr	r2, [r2]
 3758 0c1c D1B2     		uxtb	r1, r2
 3759 0c1e 07F51652 		add	r2, r7, #9600
 3760 0c22 02F11C02 		add	r2, r2, #28
 3761 0c26 1268     		ldr	r2, [r2]
 3762 0c28 D2B2     		uxtb	r2, r2
 3763 0c2a 8A1A     		subs	r2, r1, r2
 3764 0c2c D1B2     		uxtb	r1, r2
 3765 0c2e 07F51652 		add	r2, r7, #9600
 3766 0c32 02F12802 		add	r2, r2, #40
 3767 0c36 1268     		ldr	r2, [r2]
 3768 0c38 D2B2     		uxtb	r2, r2
 3769 0c3a 8A1A     		subs	r2, r1, r2
 3770 0c3c D2B2     		uxtb	r2, r2
 3771 0c3e 0132     		adds	r2, r2, #1
 3772 0c40 D1B2     		uxtb	r1, r2
 3773 0c42 124A     		ldr	r2, .L164+4
 3774 0c44 D154     		strb	r1, [r2, r3]
 421:.\pathfinder.c ****                              counter+=2;
 3775              		.loc 1 421 0
ARM GAS  C:\Users\Logan\AppData\Local\Temp\ccWP3ZaE.s 			page 75


 3776 0c46 07F51653 		add	r3, r7, #9600
 3777 0c4a 03F13203 		add	r3, r3, #50
 3778 0c4e 1B88     		ldrh	r3, [r3]	@ movhi
 3779 0c50 0233     		adds	r3, r3, #2
 3780 0c52 07F51652 		add	r2, r7, #9600
 3781 0c56 02F13202 		add	r2, r2, #50
 3782 0c5a 1380     		strh	r3, [r2]	@ movhi
 422:.\pathfinder.c ****                              inter_prev_intersection = inter_end - j + 1;
 3783              		.loc 1 422 0
 3784 0c5c 07F51653 		add	r3, r7, #9600
 3785 0c60 03F11403 		add	r3, r3, #20
 3786 0c64 1A68     		ldr	r2, [r3]
 3787 0c66 07F51653 		add	r3, r7, #9600
 3788 0c6a 03F11C03 		add	r3, r3, #28
 3789 0c6e 1B68     		ldr	r3, [r3]
 3790 0c70 D31A     		subs	r3, r2, r3
 3791 0c72 0133     		adds	r3, r3, #1
 3792 0c74 07F51652 		add	r2, r7, #9600
 3793 0c78 02F12802 		add	r2, r2, #40
 3794 0c7c 1360     		str	r3, [r2]
 385:.\pathfinder.c ****                           if(inter_path[j][DIR] != inter_path[j - 1][DIR]){
 3795              		.loc 1 385 0
 3796 0c7e 00F020BC 		b	.L90
 3797              	.L84:
 385:.\pathfinder.c ****                           if(inter_path[j][DIR] != inter_path[j - 1][DIR]){
 3798              		.loc 1 385 0 is_stmt 0 discriminator 2
 3799 0c82 00F01EBC 		b	.L90
 3800              	.L165:
 3801 0c86 00BF     		.align	2
 3802              	.L164:
 3803 0c88 00000000 		.word	path
 3804 0c8c 00000000 		.word	instructions
 3805              	.L61:
 423:.\pathfinder.c ****                           }else{
 424:.\pathfinder.c ****                           //printf("4 [(%d), direction = %d]\n", inter_end - j + 1, inter_path[j][D
 425:.\pathfinder.c ****                        }
 426:.\pathfinder.c ****                        }
 427:.\pathfinder.c ****                     }else{
 428:.\pathfinder.c ****                        if(map[inter_path[j][Y] - 1][inter_path[j][X]] == PATH || map[inter_path[j][
 3806              		.loc 1 428 0 is_stmt 1
 3807 0c90 07F13802 		add	r2, r7, #56
 3808 0c94 343A     		subs	r2, r2, #52
 3809 0c96 07F51653 		add	r3, r7, #9600
 3810 0c9a 03F11C03 		add	r3, r3, #28
 3811 0c9e 1968     		ldr	r1, [r3]
 3812 0ca0 0B46     		mov	r3, r1
 3813 0ca2 5B00     		lsls	r3, r3, #1
 3814 0ca4 0B44     		add	r3, r3, r1
 3815 0ca6 9B00     		lsls	r3, r3, #2
 3816 0ca8 1344     		add	r3, r3, r2
 3817 0caa 1B68     		ldr	r3, [r3]
 3818 0cac 591E     		subs	r1, r3, #1
 3819 0cae 07F13802 		add	r2, r7, #56
 3820 0cb2 343A     		subs	r2, r2, #52
 3821 0cb4 07F51653 		add	r3, r7, #9600
 3822 0cb8 03F11C03 		add	r3, r3, #28
 3823 0cbc 1868     		ldr	r0, [r3]
ARM GAS  C:\Users\Logan\AppData\Local\Temp\ccWP3ZaE.s 			page 76


 3824 0cbe 0346     		mov	r3, r0
 3825 0cc0 5B00     		lsls	r3, r3, #1
 3826 0cc2 0344     		add	r3, r3, r0
 3827 0cc4 9B00     		lsls	r3, r3, #2
 3828 0cc6 1344     		add	r3, r3, r2
 3829 0cc8 0433     		adds	r3, r3, #4
 3830 0cca 1A68     		ldr	r2, [r3]
 3831 0ccc 9548     		ldr	r0, .L166
 3832 0cce 0B46     		mov	r3, r1
 3833 0cd0 DB00     		lsls	r3, r3, #3
 3834 0cd2 0B44     		add	r3, r3, r1
 3835 0cd4 5B00     		lsls	r3, r3, #1
 3836 0cd6 0B44     		add	r3, r3, r1
 3837 0cd8 1344     		add	r3, r3, r2
 3838 0cda 50F82330 		ldr	r3, [r0, r3, lsl #2]
 3839 0cde 002B     		cmp	r3, #0
 3840 0ce0 29D0     		beq	.L91
 3841              		.loc 1 428 0 is_stmt 0 discriminator 1
 3842 0ce2 07F13802 		add	r2, r7, #56
 3843 0ce6 343A     		subs	r2, r2, #52
 3844 0ce8 07F51653 		add	r3, r7, #9600
 3845 0cec 03F11C03 		add	r3, r3, #28
 3846 0cf0 1968     		ldr	r1, [r3]
 3847 0cf2 0B46     		mov	r3, r1
 3848 0cf4 5B00     		lsls	r3, r3, #1
 3849 0cf6 0B44     		add	r3, r3, r1
 3850 0cf8 9B00     		lsls	r3, r3, #2
 3851 0cfa 1344     		add	r3, r3, r2
 3852 0cfc 1B68     		ldr	r3, [r3]
 3853 0cfe 591C     		adds	r1, r3, #1
 3854 0d00 07F13802 		add	r2, r7, #56
 3855 0d04 343A     		subs	r2, r2, #52
 3856 0d06 07F51653 		add	r3, r7, #9600
 3857 0d0a 03F11C03 		add	r3, r3, #28
 3858 0d0e 1868     		ldr	r0, [r3]
 3859 0d10 0346     		mov	r3, r0
 3860 0d12 5B00     		lsls	r3, r3, #1
 3861 0d14 0344     		add	r3, r3, r0
 3862 0d16 9B00     		lsls	r3, r3, #2
 3863 0d18 1344     		add	r3, r3, r2
 3864 0d1a 0433     		adds	r3, r3, #4
 3865 0d1c 1A68     		ldr	r2, [r3]
 3866 0d1e 8148     		ldr	r0, .L166
 3867 0d20 0B46     		mov	r3, r1
 3868 0d22 DB00     		lsls	r3, r3, #3
 3869 0d24 0B44     		add	r3, r3, r1
 3870 0d26 5B00     		lsls	r3, r3, #1
 3871 0d28 0B44     		add	r3, r3, r1
 3872 0d2a 1344     		add	r3, r3, r2
 3873 0d2c 50F82330 		ldr	r3, [r0, r3, lsl #2]
 3874 0d30 002B     		cmp	r3, #0
 3875 0d32 40F0F382 		bne	.L92
 3876              	.L91:
 429:.\pathfinder.c ****                           if(inter_path[j][DIR] != inter_path[j - 1][DIR]){
 3877              		.loc 1 429 0 is_stmt 1
 3878 0d36 07F13802 		add	r2, r7, #56
 3879 0d3a 343A     		subs	r2, r2, #52
ARM GAS  C:\Users\Logan\AppData\Local\Temp\ccWP3ZaE.s 			page 77


 3880 0d3c 07F51653 		add	r3, r7, #9600
 3881 0d40 03F11C03 		add	r3, r3, #28
 3882 0d44 1968     		ldr	r1, [r3]
 3883 0d46 0B46     		mov	r3, r1
 3884 0d48 5B00     		lsls	r3, r3, #1
 3885 0d4a 0B44     		add	r3, r3, r1
 3886 0d4c 9B00     		lsls	r3, r3, #2
 3887 0d4e 1344     		add	r3, r3, r2
 3888 0d50 0833     		adds	r3, r3, #8
 3889 0d52 1868     		ldr	r0, [r3]
 3890 0d54 07F51653 		add	r3, r7, #9600
 3891 0d58 03F11C03 		add	r3, r3, #28
 3892 0d5c 1B68     		ldr	r3, [r3]
 3893 0d5e 591E     		subs	r1, r3, #1
 3894 0d60 07F13802 		add	r2, r7, #56
 3895 0d64 343A     		subs	r2, r2, #52
 3896 0d66 0B46     		mov	r3, r1
 3897 0d68 5B00     		lsls	r3, r3, #1
 3898 0d6a 0B44     		add	r3, r3, r1
 3899 0d6c 9B00     		lsls	r3, r3, #2
 3900 0d6e 1344     		add	r3, r3, r2
 3901 0d70 0833     		adds	r3, r3, #8
 3902 0d72 1B68     		ldr	r3, [r3]
 3903 0d74 9842     		cmp	r0, r3
 3904 0d76 00F08782 		beq	.L93
 430:.\pathfinder.c ****                              if((inter_path[j][DIR] == 4 && inter_path[j - 1][DIR] == 3) || (inter_
 3905              		.loc 1 430 0
 3906 0d7a 07F13802 		add	r2, r7, #56
 3907 0d7e 343A     		subs	r2, r2, #52
 3908 0d80 07F51653 		add	r3, r7, #9600
 3909 0d84 03F11C03 		add	r3, r3, #28
 3910 0d88 1968     		ldr	r1, [r3]
 3911 0d8a 0B46     		mov	r3, r1
 3912 0d8c 5B00     		lsls	r3, r3, #1
 3913 0d8e 0B44     		add	r3, r3, r1
 3914 0d90 9B00     		lsls	r3, r3, #2
 3915 0d92 1344     		add	r3, r3, r2
 3916 0d94 0833     		adds	r3, r3, #8
 3917 0d96 1B68     		ldr	r3, [r3]
 3918 0d98 042B     		cmp	r3, #4
 3919 0d9a 11D1     		bne	.L94
 3920              		.loc 1 430 0 is_stmt 0 discriminator 1
 3921 0d9c 07F51653 		add	r3, r7, #9600
 3922 0da0 03F11C03 		add	r3, r3, #28
 3923 0da4 1B68     		ldr	r3, [r3]
 3924 0da6 591E     		subs	r1, r3, #1
 3925 0da8 07F13802 		add	r2, r7, #56
 3926 0dac 343A     		subs	r2, r2, #52
 3927 0dae 0B46     		mov	r3, r1
 3928 0db0 5B00     		lsls	r3, r3, #1
 3929 0db2 0B44     		add	r3, r3, r1
 3930 0db4 9B00     		lsls	r3, r3, #2
 3931 0db6 1344     		add	r3, r3, r2
 3932 0db8 0833     		adds	r3, r3, #8
 3933 0dba 1B68     		ldr	r3, [r3]
 3934 0dbc 032B     		cmp	r3, #3
 3935 0dbe 6BD0     		beq	.L95
ARM GAS  C:\Users\Logan\AppData\Local\Temp\ccWP3ZaE.s 			page 78


 3936              	.L94:
 3937              		.loc 1 430 0 discriminator 3
 3938 0dc0 07F13802 		add	r2, r7, #56
 3939 0dc4 343A     		subs	r2, r2, #52
 3940 0dc6 07F51653 		add	r3, r7, #9600
 3941 0dca 03F11C03 		add	r3, r3, #28
 3942 0dce 1968     		ldr	r1, [r3]
 3943 0dd0 0B46     		mov	r3, r1
 3944 0dd2 5B00     		lsls	r3, r3, #1
 3945 0dd4 0B44     		add	r3, r3, r1
 3946 0dd6 9B00     		lsls	r3, r3, #2
 3947 0dd8 1344     		add	r3, r3, r2
 3948 0dda 0833     		adds	r3, r3, #8
 3949 0ddc 1B68     		ldr	r3, [r3]
 3950 0dde 022B     		cmp	r3, #2
 3951 0de0 11D1     		bne	.L96
 3952              		.loc 1 430 0 discriminator 4
 3953 0de2 07F51653 		add	r3, r7, #9600
 3954 0de6 03F11C03 		add	r3, r3, #28
 3955 0dea 1B68     		ldr	r3, [r3]
 3956 0dec 591E     		subs	r1, r3, #1
 3957 0dee 07F13802 		add	r2, r7, #56
 3958 0df2 343A     		subs	r2, r2, #52
 3959 0df4 0B46     		mov	r3, r1
 3960 0df6 5B00     		lsls	r3, r3, #1
 3961 0df8 0B44     		add	r3, r3, r1
 3962 0dfa 9B00     		lsls	r3, r3, #2
 3963 0dfc 1344     		add	r3, r3, r2
 3964 0dfe 0833     		adds	r3, r3, #8
 3965 0e00 1B68     		ldr	r3, [r3]
 3966 0e02 012B     		cmp	r3, #1
 3967 0e04 48D0     		beq	.L95
 3968              	.L96:
 3969              		.loc 1 430 0 discriminator 6
 3970 0e06 07F13802 		add	r2, r7, #56
 3971 0e0a 343A     		subs	r2, r2, #52
 3972 0e0c 07F51653 		add	r3, r7, #9600
 3973 0e10 03F11C03 		add	r3, r3, #28
 3974 0e14 1968     		ldr	r1, [r3]
 3975 0e16 0B46     		mov	r3, r1
 3976 0e18 5B00     		lsls	r3, r3, #1
 3977 0e1a 0B44     		add	r3, r3, r1
 3978 0e1c 9B00     		lsls	r3, r3, #2
 3979 0e1e 1344     		add	r3, r3, r2
 3980 0e20 0833     		adds	r3, r3, #8
 3981 0e22 1B68     		ldr	r3, [r3]
 3982 0e24 042B     		cmp	r3, #4
 3983 0e26 0FD1     		bne	.L97
 3984              		.loc 1 430 0 discriminator 7
 3985 0e28 07F51653 		add	r3, r7, #9600
 3986 0e2c 03F12003 		add	r3, r3, #32
 3987 0e30 1B68     		ldr	r3, [r3]
 3988 0e32 5A1C     		adds	r2, r3, #1
 3989 0e34 3C49     		ldr	r1, .L166+4
 3990 0e36 1346     		mov	r3, r2
 3991 0e38 5B00     		lsls	r3, r3, #1
 3992 0e3a 1344     		add	r3, r3, r2
ARM GAS  C:\Users\Logan\AppData\Local\Temp\ccWP3ZaE.s 			page 79


 3993 0e3c 9B00     		lsls	r3, r3, #2
 3994 0e3e 0B44     		add	r3, r3, r1
 3995 0e40 0833     		adds	r3, r3, #8
 3996 0e42 1B68     		ldr	r3, [r3]
 3997 0e44 032B     		cmp	r3, #3
 3998 0e46 20D0     		beq	.L98
 3999              	.L97:
 4000              		.loc 1 430 0 discriminator 10
 4001 0e48 07F13802 		add	r2, r7, #56
 4002 0e4c 343A     		subs	r2, r2, #52
 4003 0e4e 07F51653 		add	r3, r7, #9600
 4004 0e52 03F11C03 		add	r3, r3, #28
 4005 0e56 1968     		ldr	r1, [r3]
 4006 0e58 0B46     		mov	r3, r1
 4007 0e5a 5B00     		lsls	r3, r3, #1
 4008 0e5c 0B44     		add	r3, r3, r1
 4009 0e5e 9B00     		lsls	r3, r3, #2
 4010 0e60 1344     		add	r3, r3, r2
 4011 0e62 0833     		adds	r3, r3, #8
 4012 0e64 1B68     		ldr	r3, [r3]
 4013 0e66 022B     		cmp	r3, #2
 4014 0e68 62D1     		bne	.L99
 4015              		.loc 1 430 0 discriminator 11
 4016 0e6a 07F51653 		add	r3, r7, #9600
 4017 0e6e 03F12003 		add	r3, r3, #32
 4018 0e72 1B68     		ldr	r3, [r3]
 4019 0e74 5A1C     		adds	r2, r3, #1
 4020 0e76 2C49     		ldr	r1, .L166+4
 4021 0e78 1346     		mov	r3, r2
 4022 0e7a 5B00     		lsls	r3, r3, #1
 4023 0e7c 1344     		add	r3, r3, r2
 4024 0e7e 9B00     		lsls	r3, r3, #2
 4025 0e80 0B44     		add	r3, r3, r1
 4026 0e82 0833     		adds	r3, r3, #8
 4027 0e84 1B68     		ldr	r3, [r3]
 4028 0e86 012B     		cmp	r3, #1
 4029 0e88 52D1     		bne	.L99
 4030              	.L98:
 4031              		.loc 1 430 0 discriminator 12
 4032 0e8a 07F51653 		add	r3, r7, #9600
 4033 0e8e 03F11C03 		add	r3, r3, #28
 4034 0e92 1B68     		ldr	r3, [r3]
 4035 0e94 012B     		cmp	r3, #1
 4036 0e96 4BD1     		bne	.L99
 4037              	.L95:
 431:.\pathfinder.c ****                                 //printf("U/D intersection found (%d) [direction = %d] -- TURN LEFT
 432:.\pathfinder.c ****                                 instructions[counter] = LEFT;
 4038              		.loc 1 432 0 is_stmt 1
 4039 0e98 07F51653 		add	r3, r7, #9600
 4040 0e9c 03F13203 		add	r3, r3, #50
 4041 0ea0 1B88     		ldrh	r3, [r3]
 4042 0ea2 224A     		ldr	r2, .L166+8
 4043 0ea4 4C21     		movs	r1, #76
 4044 0ea6 D154     		strb	r1, [r2, r3]
 433:.\pathfinder.c ****                                 instructions[counter + 1] = (inter_end - j + 1 )- inter_prev_inters
 4045              		.loc 1 433 0
 4046 0ea8 07F51653 		add	r3, r7, #9600
ARM GAS  C:\Users\Logan\AppData\Local\Temp\ccWP3ZaE.s 			page 80


 4047 0eac 03F13203 		add	r3, r3, #50
 4048 0eb0 1B88     		ldrh	r3, [r3]
 4049 0eb2 0133     		adds	r3, r3, #1
 4050 0eb4 07F51652 		add	r2, r7, #9600
 4051 0eb8 02F11402 		add	r2, r2, #20
 4052 0ebc 1268     		ldr	r2, [r2]
 4053 0ebe D1B2     		uxtb	r1, r2
 4054 0ec0 07F51652 		add	r2, r7, #9600
 4055 0ec4 02F11C02 		add	r2, r2, #28
 4056 0ec8 1268     		ldr	r2, [r2]
 4057 0eca D2B2     		uxtb	r2, r2
 4058 0ecc 8A1A     		subs	r2, r1, r2
 4059 0ece D1B2     		uxtb	r1, r2
 4060 0ed0 07F51652 		add	r2, r7, #9600
 4061 0ed4 02F12802 		add	r2, r2, #40
 4062 0ed8 1268     		ldr	r2, [r2]
 4063 0eda D2B2     		uxtb	r2, r2
 4064 0edc 8A1A     		subs	r2, r1, r2
 4065 0ede D2B2     		uxtb	r2, r2
 4066 0ee0 0132     		adds	r2, r2, #1
 4067 0ee2 D1B2     		uxtb	r1, r2
 4068 0ee4 114A     		ldr	r2, .L166+8
 4069 0ee6 D154     		strb	r1, [r2, r3]
 434:.\pathfinder.c ****                                 counter+=2;
 4070              		.loc 1 434 0
 4071 0ee8 07F51653 		add	r3, r7, #9600
 4072 0eec 03F13203 		add	r3, r3, #50
 4073 0ef0 1B88     		ldrh	r3, [r3]	@ movhi
 4074 0ef2 0233     		adds	r3, r3, #2
 4075 0ef4 07F51652 		add	r2, r7, #9600
 4076 0ef8 02F13202 		add	r2, r2, #50
 4077 0efc 1380     		strh	r3, [r2]	@ movhi
 435:.\pathfinder.c ****                                 inter_prev_intersection = inter_end - j + 1;
 4078              		.loc 1 435 0
 4079 0efe 07F51653 		add	r3, r7, #9600
 4080 0f02 03F11403 		add	r3, r3, #20
 4081 0f06 1A68     		ldr	r2, [r3]
 4082 0f08 07F51653 		add	r3, r7, #9600
 4083 0f0c 03F11C03 		add	r3, r3, #28
 4084 0f10 1B68     		ldr	r3, [r3]
 4085 0f12 D31A     		subs	r3, r2, r3
 4086 0f14 0133     		adds	r3, r3, #1
 4087 0f16 07F51652 		add	r2, r7, #9600
 4088 0f1a 02F12802 		add	r2, r2, #40
 4089 0f1e 1360     		str	r3, [r2]
 4090 0f20 B1E1     		b	.L100
 4091              	.L167:
 4092 0f22 00BF     		.align	2
 4093              	.L166:
 4094 0f24 00000000 		.word	map
 4095 0f28 00000000 		.word	path
 4096 0f2c 00000000 		.word	instructions
 4097              	.L99:
 436:.\pathfinder.c ****                              }else if((inter_path[j][DIR] == 4 && inter_path[j - 1][DIR] == 1) || (
 4098              		.loc 1 436 0
 4099 0f30 07F13802 		add	r2, r7, #56
 4100 0f34 343A     		subs	r2, r2, #52
ARM GAS  C:\Users\Logan\AppData\Local\Temp\ccWP3ZaE.s 			page 81


 4101 0f36 07F51653 		add	r3, r7, #9600
 4102 0f3a 03F11C03 		add	r3, r3, #28
 4103 0f3e 1968     		ldr	r1, [r3]
 4104 0f40 0B46     		mov	r3, r1
 4105 0f42 5B00     		lsls	r3, r3, #1
 4106 0f44 0B44     		add	r3, r3, r1
 4107 0f46 9B00     		lsls	r3, r3, #2
 4108 0f48 1344     		add	r3, r3, r2
 4109 0f4a 0833     		adds	r3, r3, #8
 4110 0f4c 1B68     		ldr	r3, [r3]
 4111 0f4e 042B     		cmp	r3, #4
 4112 0f50 11D1     		bne	.L101
 4113              		.loc 1 436 0 is_stmt 0 discriminator 1
 4114 0f52 07F51653 		add	r3, r7, #9600
 4115 0f56 03F11C03 		add	r3, r3, #28
 4116 0f5a 1B68     		ldr	r3, [r3]
 4117 0f5c 591E     		subs	r1, r3, #1
 4118 0f5e 07F13802 		add	r2, r7, #56
 4119 0f62 343A     		subs	r2, r2, #52
 4120 0f64 0B46     		mov	r3, r1
 4121 0f66 5B00     		lsls	r3, r3, #1
 4122 0f68 0B44     		add	r3, r3, r1
 4123 0f6a 9B00     		lsls	r3, r3, #2
 4124 0f6c 1344     		add	r3, r3, r2
 4125 0f6e 0833     		adds	r3, r3, #8
 4126 0f70 1B68     		ldr	r3, [r3]
 4127 0f72 012B     		cmp	r3, #1
 4128 0f74 6BD0     		beq	.L102
 4129              	.L101:
 4130              		.loc 1 436 0 discriminator 3
 4131 0f76 07F13802 		add	r2, r7, #56
 4132 0f7a 343A     		subs	r2, r2, #52
 4133 0f7c 07F51653 		add	r3, r7, #9600
 4134 0f80 03F11C03 		add	r3, r3, #28
 4135 0f84 1968     		ldr	r1, [r3]
 4136 0f86 0B46     		mov	r3, r1
 4137 0f88 5B00     		lsls	r3, r3, #1
 4138 0f8a 0B44     		add	r3, r3, r1
 4139 0f8c 9B00     		lsls	r3, r3, #2
 4140 0f8e 1344     		add	r3, r3, r2
 4141 0f90 0833     		adds	r3, r3, #8
 4142 0f92 1B68     		ldr	r3, [r3]
 4143 0f94 022B     		cmp	r3, #2
 4144 0f96 11D1     		bne	.L103
 4145              		.loc 1 436 0 discriminator 4
 4146 0f98 07F51653 		add	r3, r7, #9600
 4147 0f9c 03F11C03 		add	r3, r3, #28
 4148 0fa0 1B68     		ldr	r3, [r3]
 4149 0fa2 591E     		subs	r1, r3, #1
 4150 0fa4 07F13802 		add	r2, r7, #56
 4151 0fa8 343A     		subs	r2, r2, #52
 4152 0faa 0B46     		mov	r3, r1
 4153 0fac 5B00     		lsls	r3, r3, #1
 4154 0fae 0B44     		add	r3, r3, r1
 4155 0fb0 9B00     		lsls	r3, r3, #2
 4156 0fb2 1344     		add	r3, r3, r2
 4157 0fb4 0833     		adds	r3, r3, #8
ARM GAS  C:\Users\Logan\AppData\Local\Temp\ccWP3ZaE.s 			page 82


 4158 0fb6 1B68     		ldr	r3, [r3]
 4159 0fb8 032B     		cmp	r3, #3
 4160 0fba 48D0     		beq	.L102
 4161              	.L103:
 4162              		.loc 1 436 0 discriminator 6
 4163 0fbc 07F13802 		add	r2, r7, #56
 4164 0fc0 343A     		subs	r2, r2, #52
 4165 0fc2 07F51653 		add	r3, r7, #9600
 4166 0fc6 03F11C03 		add	r3, r3, #28
 4167 0fca 1968     		ldr	r1, [r3]
 4168 0fcc 0B46     		mov	r3, r1
 4169 0fce 5B00     		lsls	r3, r3, #1
 4170 0fd0 0B44     		add	r3, r3, r1
 4171 0fd2 9B00     		lsls	r3, r3, #2
 4172 0fd4 1344     		add	r3, r3, r2
 4173 0fd6 0833     		adds	r3, r3, #8
 4174 0fd8 1B68     		ldr	r3, [r3]
 4175 0fda 042B     		cmp	r3, #4
 4176 0fdc 0FD1     		bne	.L104
 4177              		.loc 1 436 0 discriminator 7
 4178 0fde 07F51653 		add	r3, r7, #9600
 4179 0fe2 03F12003 		add	r3, r3, #32
 4180 0fe6 1B68     		ldr	r3, [r3]
 4181 0fe8 5A1C     		adds	r2, r3, #1
 4182 0fea CA49     		ldr	r1, .L168
 4183 0fec 1346     		mov	r3, r2
 4184 0fee 5B00     		lsls	r3, r3, #1
 4185 0ff0 1344     		add	r3, r3, r2
 4186 0ff2 9B00     		lsls	r3, r3, #2
 4187 0ff4 0B44     		add	r3, r3, r1
 4188 0ff6 0833     		adds	r3, r3, #8
 4189 0ff8 1B68     		ldr	r3, [r3]
 4190 0ffa 012B     		cmp	r3, #1
 4191 0ffc 20D0     		beq	.L105
 4192              	.L104:
 4193              		.loc 1 436 0 discriminator 10
 4194 0ffe 07F13802 		add	r2, r7, #56
 4195 1002 343A     		subs	r2, r2, #52
 4196 1004 07F51653 		add	r3, r7, #9600
 4197 1008 03F11C03 		add	r3, r3, #28
 4198 100c 1968     		ldr	r1, [r3]
 4199 100e 0B46     		mov	r3, r1
 4200 1010 5B00     		lsls	r3, r3, #1
 4201 1012 0B44     		add	r3, r3, r1
 4202 1014 9B00     		lsls	r3, r3, #2
 4203 1016 1344     		add	r3, r3, r2
 4204 1018 0833     		adds	r3, r3, #8
 4205 101a 1B68     		ldr	r3, [r3]
 4206 101c 022B     		cmp	r3, #2
 4207 101e 5BD1     		bne	.L106
 4208              		.loc 1 436 0 discriminator 11
 4209 1020 07F51653 		add	r3, r7, #9600
 4210 1024 03F12003 		add	r3, r3, #32
 4211 1028 1B68     		ldr	r3, [r3]
 4212 102a 5A1C     		adds	r2, r3, #1
 4213 102c B949     		ldr	r1, .L168
 4214 102e 1346     		mov	r3, r2
ARM GAS  C:\Users\Logan\AppData\Local\Temp\ccWP3ZaE.s 			page 83


 4215 1030 5B00     		lsls	r3, r3, #1
 4216 1032 1344     		add	r3, r3, r2
 4217 1034 9B00     		lsls	r3, r3, #2
 4218 1036 0B44     		add	r3, r3, r1
 4219 1038 0833     		adds	r3, r3, #8
 4220 103a 1B68     		ldr	r3, [r3]
 4221 103c 032B     		cmp	r3, #3
 4222 103e 4BD1     		bne	.L106
 4223              	.L105:
 4224              		.loc 1 436 0 discriminator 12
 4225 1040 07F51653 		add	r3, r7, #9600
 4226 1044 03F11C03 		add	r3, r3, #28
 4227 1048 1B68     		ldr	r3, [r3]
 4228 104a 012B     		cmp	r3, #1
 4229 104c 44D1     		bne	.L106
 4230              	.L102:
 437:.\pathfinder.c ****                                 //printf("U/D intersection found (%d) [direction = %d] -- TURN RIGH
 438:.\pathfinder.c ****                                 instructions[counter] = RIGHT;
 4231              		.loc 1 438 0 is_stmt 1
 4232 104e 07F51653 		add	r3, r7, #9600
 4233 1052 03F13203 		add	r3, r3, #50
 4234 1056 1B88     		ldrh	r3, [r3]
 4235 1058 AF4A     		ldr	r2, .L168+4
 4236 105a 5221     		movs	r1, #82
 4237 105c D154     		strb	r1, [r2, r3]
 439:.\pathfinder.c ****                                 instructions[counter + 1] = (inter_end - j + 1 )- inter_prev_inters
 4238              		.loc 1 439 0
 4239 105e 07F51653 		add	r3, r7, #9600
 4240 1062 03F13203 		add	r3, r3, #50
 4241 1066 1B88     		ldrh	r3, [r3]
 4242 1068 0133     		adds	r3, r3, #1
 4243 106a 07F51652 		add	r2, r7, #9600
 4244 106e 02F11402 		add	r2, r2, #20
 4245 1072 1268     		ldr	r2, [r2]
 4246 1074 D1B2     		uxtb	r1, r2
 4247 1076 07F51652 		add	r2, r7, #9600
 4248 107a 02F11C02 		add	r2, r2, #28
 4249 107e 1268     		ldr	r2, [r2]
 4250 1080 D2B2     		uxtb	r2, r2
 4251 1082 8A1A     		subs	r2, r1, r2
 4252 1084 D1B2     		uxtb	r1, r2
 4253 1086 07F51652 		add	r2, r7, #9600
 4254 108a 02F12802 		add	r2, r2, #40
 4255 108e 1268     		ldr	r2, [r2]
 4256 1090 D2B2     		uxtb	r2, r2
 4257 1092 8A1A     		subs	r2, r1, r2
 4258 1094 D2B2     		uxtb	r2, r2
 4259 1096 0132     		adds	r2, r2, #1
 4260 1098 D1B2     		uxtb	r1, r2
 4261 109a 9F4A     		ldr	r2, .L168+4
 4262 109c D154     		strb	r1, [r2, r3]
 440:.\pathfinder.c ****                                 counter+=2;
 4263              		.loc 1 440 0
 4264 109e 07F51653 		add	r3, r7, #9600
 4265 10a2 03F13203 		add	r3, r3, #50
 4266 10a6 1B88     		ldrh	r3, [r3]	@ movhi
 4267 10a8 0233     		adds	r3, r3, #2
ARM GAS  C:\Users\Logan\AppData\Local\Temp\ccWP3ZaE.s 			page 84


 4268 10aa 07F51652 		add	r2, r7, #9600
 4269 10ae 02F13202 		add	r2, r2, #50
 4270 10b2 1380     		strh	r3, [r2]	@ movhi
 441:.\pathfinder.c ****                                 inter_prev_intersection = inter_end - j + 1;
 4271              		.loc 1 441 0
 4272 10b4 07F51653 		add	r3, r7, #9600
 4273 10b8 03F11403 		add	r3, r3, #20
 4274 10bc 1A68     		ldr	r2, [r3]
 4275 10be 07F51653 		add	r3, r7, #9600
 4276 10c2 03F11C03 		add	r3, r3, #28
 4277 10c6 1B68     		ldr	r3, [r3]
 4278 10c8 D31A     		subs	r3, r2, r3
 4279 10ca 0133     		adds	r3, r3, #1
 4280 10cc 07F51652 		add	r2, r7, #9600
 4281 10d0 02F12802 		add	r2, r2, #40
 4282 10d4 1360     		str	r3, [r2]
 4283 10d6 D6E0     		b	.L100
 4284              	.L106:
 442:.\pathfinder.c ****                              }else if ((inter_path[j][DIR] == 4 && inter_path[j - 1][DIR] == 2) || 
 4285              		.loc 1 442 0
 4286 10d8 07F13802 		add	r2, r7, #56
 4287 10dc 343A     		subs	r2, r2, #52
 4288 10de 07F51653 		add	r3, r7, #9600
 4289 10e2 03F11C03 		add	r3, r3, #28
 4290 10e6 1968     		ldr	r1, [r3]
 4291 10e8 0B46     		mov	r3, r1
 4292 10ea 5B00     		lsls	r3, r3, #1
 4293 10ec 0B44     		add	r3, r3, r1
 4294 10ee 9B00     		lsls	r3, r3, #2
 4295 10f0 1344     		add	r3, r3, r2
 4296 10f2 0833     		adds	r3, r3, #8
 4297 10f4 1B68     		ldr	r3, [r3]
 4298 10f6 042B     		cmp	r3, #4
 4299 10f8 11D1     		bne	.L107
 4300              		.loc 1 442 0 is_stmt 0 discriminator 1
 4301 10fa 07F51653 		add	r3, r7, #9600
 4302 10fe 03F11C03 		add	r3, r3, #28
 4303 1102 1B68     		ldr	r3, [r3]
 4304 1104 591E     		subs	r1, r3, #1
 4305 1106 07F13802 		add	r2, r7, #56
 4306 110a 343A     		subs	r2, r2, #52
 4307 110c 0B46     		mov	r3, r1
 4308 110e 5B00     		lsls	r3, r3, #1
 4309 1110 0B44     		add	r3, r3, r1
 4310 1112 9B00     		lsls	r3, r3, #2
 4311 1114 1344     		add	r3, r3, r2
 4312 1116 0833     		adds	r3, r3, #8
 4313 1118 1B68     		ldr	r3, [r3]
 4314 111a 022B     		cmp	r3, #2
 4315 111c 6ED0     		beq	.L108
 4316              	.L107:
 4317              		.loc 1 442 0 discriminator 3
 4318 111e 07F13802 		add	r2, r7, #56
 4319 1122 343A     		subs	r2, r2, #52
 4320 1124 07F51653 		add	r3, r7, #9600
 4321 1128 03F11C03 		add	r3, r3, #28
 4322 112c 1968     		ldr	r1, [r3]
ARM GAS  C:\Users\Logan\AppData\Local\Temp\ccWP3ZaE.s 			page 85


 4323 112e 0B46     		mov	r3, r1
 4324 1130 5B00     		lsls	r3, r3, #1
 4325 1132 0B44     		add	r3, r3, r1
 4326 1134 9B00     		lsls	r3, r3, #2
 4327 1136 1344     		add	r3, r3, r2
 4328 1138 0833     		adds	r3, r3, #8
 4329 113a 1B68     		ldr	r3, [r3]
 4330 113c 022B     		cmp	r3, #2
 4331 113e 11D1     		bne	.L109
 4332              		.loc 1 442 0 discriminator 4
 4333 1140 07F51653 		add	r3, r7, #9600
 4334 1144 03F11C03 		add	r3, r3, #28
 4335 1148 1B68     		ldr	r3, [r3]
 4336 114a 591E     		subs	r1, r3, #1
 4337 114c 07F13802 		add	r2, r7, #56
 4338 1150 343A     		subs	r2, r2, #52
 4339 1152 0B46     		mov	r3, r1
 4340 1154 5B00     		lsls	r3, r3, #1
 4341 1156 0B44     		add	r3, r3, r1
 4342 1158 9B00     		lsls	r3, r3, #2
 4343 115a 1344     		add	r3, r3, r2
 4344 115c 0833     		adds	r3, r3, #8
 4345 115e 1B68     		ldr	r3, [r3]
 4346 1160 042B     		cmp	r3, #4
 4347 1162 4BD0     		beq	.L108
 4348              	.L109:
 4349              		.loc 1 442 0 discriminator 6
 4350 1164 07F13802 		add	r2, r7, #56
 4351 1168 343A     		subs	r2, r2, #52
 4352 116a 07F51653 		add	r3, r7, #9600
 4353 116e 03F11C03 		add	r3, r3, #28
 4354 1172 1968     		ldr	r1, [r3]
 4355 1174 0B46     		mov	r3, r1
 4356 1176 5B00     		lsls	r3, r3, #1
 4357 1178 0B44     		add	r3, r3, r1
 4358 117a 9B00     		lsls	r3, r3, #2
 4359 117c 1344     		add	r3, r3, r2
 4360 117e 0833     		adds	r3, r3, #8
 4361 1180 1B68     		ldr	r3, [r3]
 4362 1182 042B     		cmp	r3, #4
 4363 1184 0FD1     		bne	.L110
 4364              		.loc 1 442 0 discriminator 7
 4365 1186 07F51653 		add	r3, r7, #9600
 4366 118a 03F12003 		add	r3, r3, #32
 4367 118e 1B68     		ldr	r3, [r3]
 4368 1190 5A1C     		adds	r2, r3, #1
 4369 1192 6049     		ldr	r1, .L168
 4370 1194 1346     		mov	r3, r2
 4371 1196 5B00     		lsls	r3, r3, #1
 4372 1198 1344     		add	r3, r3, r2
 4373 119a 9B00     		lsls	r3, r3, #2
 4374 119c 0B44     		add	r3, r3, r1
 4375 119e 0833     		adds	r3, r3, #8
 4376 11a0 1B68     		ldr	r3, [r3]
 4377 11a2 022B     		cmp	r3, #2
 4378 11a4 22D0     		beq	.L111
 4379              	.L110:
ARM GAS  C:\Users\Logan\AppData\Local\Temp\ccWP3ZaE.s 			page 86


 4380              		.loc 1 442 0 discriminator 10
 4381 11a6 07F13802 		add	r2, r7, #56
 4382 11aa 343A     		subs	r2, r2, #52
 4383 11ac 07F51653 		add	r3, r7, #9600
 4384 11b0 03F11C03 		add	r3, r3, #28
 4385 11b4 1968     		ldr	r1, [r3]
 4386 11b6 0B46     		mov	r3, r1
 4387 11b8 5B00     		lsls	r3, r3, #1
 4388 11ba 0B44     		add	r3, r3, r1
 4389 11bc 9B00     		lsls	r3, r3, #2
 4390 11be 1344     		add	r3, r3, r2
 4391 11c0 0833     		adds	r3, r3, #8
 4392 11c2 1B68     		ldr	r3, [r3]
 4393 11c4 022B     		cmp	r3, #2
 4394 11c6 40F0A480 		bne	.L112
 4395              		.loc 1 442 0 discriminator 11
 4396 11ca 07F51653 		add	r3, r7, #9600
 4397 11ce 03F12003 		add	r3, r3, #32
 4398 11d2 1B68     		ldr	r3, [r3]
 4399 11d4 5A1C     		adds	r2, r3, #1
 4400 11d6 4F49     		ldr	r1, .L168
 4401 11d8 1346     		mov	r3, r2
 4402 11da 5B00     		lsls	r3, r3, #1
 4403 11dc 1344     		add	r3, r3, r2
 4404 11de 9B00     		lsls	r3, r3, #2
 4405 11e0 0B44     		add	r3, r3, r1
 4406 11e2 0833     		adds	r3, r3, #8
 4407 11e4 1B68     		ldr	r3, [r3]
 4408 11e6 042B     		cmp	r3, #4
 4409 11e8 40F09380 		bne	.L112
 4410              	.L111:
 4411              		.loc 1 442 0 discriminator 12
 4412 11ec 07F51653 		add	r3, r7, #9600
 4413 11f0 03F11C03 		add	r3, r3, #28
 4414 11f4 1B68     		ldr	r3, [r3]
 4415 11f6 012B     		cmp	r3, #1
 4416 11f8 40F08B80 		bne	.L112
 4417              	.L108:
 443:.\pathfinder.c ****                                 //printf("1 U/D intersection found (%d) [direction = %d] -- TURN U-
 444:.\pathfinder.c ****                                 instructions[counter] = UTURN;
 4418              		.loc 1 444 0 is_stmt 1
 4419 11fc 07F51653 		add	r3, r7, #9600
 4420 1200 03F13203 		add	r3, r3, #50
 4421 1204 1B88     		ldrh	r3, [r3]
 4422 1206 444A     		ldr	r2, .L168+4
 4423 1208 5521     		movs	r1, #85
 4424 120a D154     		strb	r1, [r2, r3]
 445:.\pathfinder.c ****                                 instructions[counter + 1] = (inter_end - j + 1 )- inter_prev_inters
 4425              		.loc 1 445 0
 4426 120c 07F51653 		add	r3, r7, #9600
 4427 1210 03F13203 		add	r3, r3, #50
 4428 1214 1B88     		ldrh	r3, [r3]
 4429 1216 0133     		adds	r3, r3, #1
 4430 1218 07F51652 		add	r2, r7, #9600
 4431 121c 02F11402 		add	r2, r2, #20
 4432 1220 1268     		ldr	r2, [r2]
 4433 1222 D1B2     		uxtb	r1, r2
ARM GAS  C:\Users\Logan\AppData\Local\Temp\ccWP3ZaE.s 			page 87


 4434 1224 07F51652 		add	r2, r7, #9600
 4435 1228 02F11C02 		add	r2, r2, #28
 4436 122c 1268     		ldr	r2, [r2]
 4437 122e D2B2     		uxtb	r2, r2
 4438 1230 8A1A     		subs	r2, r1, r2
 4439 1232 D1B2     		uxtb	r1, r2
 4440 1234 07F51652 		add	r2, r7, #9600
 4441 1238 02F12802 		add	r2, r2, #40
 4442 123c 1268     		ldr	r2, [r2]
 4443 123e D2B2     		uxtb	r2, r2
 4444 1240 8A1A     		subs	r2, r1, r2
 4445 1242 D2B2     		uxtb	r2, r2
 4446 1244 0132     		adds	r2, r2, #1
 4447 1246 D1B2     		uxtb	r1, r2
 4448 1248 334A     		ldr	r2, .L168+4
 4449 124a D154     		strb	r1, [r2, r3]
 446:.\pathfinder.c ****                                 counter+=2;
 4450              		.loc 1 446 0
 4451 124c 07F51653 		add	r3, r7, #9600
 4452 1250 03F13203 		add	r3, r3, #50
 4453 1254 1B88     		ldrh	r3, [r3]	@ movhi
 4454 1256 0233     		adds	r3, r3, #2
 4455 1258 07F51652 		add	r2, r7, #9600
 4456 125c 02F13202 		add	r2, r2, #50
 4457 1260 1380     		strh	r3, [r2]	@ movhi
 447:.\pathfinder.c ****                                 inter_prev_intersection = inter_end - j + 1;
 4458              		.loc 1 447 0
 4459 1262 07F51653 		add	r3, r7, #9600
 4460 1266 03F11403 		add	r3, r3, #20
 4461 126a 1A68     		ldr	r2, [r3]
 4462 126c 07F51653 		add	r3, r7, #9600
 4463 1270 03F11C03 		add	r3, r3, #28
 4464 1274 1B68     		ldr	r3, [r3]
 4465 1276 D31A     		subs	r3, r2, r3
 4466 1278 0133     		adds	r3, r3, #1
 4467 127a 07F51652 		add	r2, r7, #9600
 4468 127e 02F12802 		add	r2, r2, #40
 4469 1282 1360     		str	r3, [r2]
 4470 1284 45E0     		b	.L112
 4471              	.L100:
 4472 1286 44E0     		b	.L112
 4473              	.L93:
 448:.\pathfinder.c ****                              }else{
 449:.\pathfinder.c ****                                // printf("Prev %d, current %d\n", inter_path[j - 1][DIR], inter_pat
 450:.\pathfinder.c ****                              }
 451:.\pathfinder.c ****                           }else{
 452:.\pathfinder.c ****                              //printf("U/D intersection found (%d) [direction = %d] (%d, %d)\n", tm
 453:.\pathfinder.c ****                              instructions[counter] = STRAIGHT;
 4474              		.loc 1 453 0
 4475 1288 07F51653 		add	r3, r7, #9600
 4476 128c 03F13203 		add	r3, r3, #50
 4477 1290 1B88     		ldrh	r3, [r3]
 4478 1292 214A     		ldr	r2, .L168+4
 4479 1294 5321     		movs	r1, #83
 4480 1296 D154     		strb	r1, [r2, r3]
 454:.\pathfinder.c ****                              instructions[counter + 1] = (inter_end - j + 1 )- inter_prev_intersect
 4481              		.loc 1 454 0
ARM GAS  C:\Users\Logan\AppData\Local\Temp\ccWP3ZaE.s 			page 88


 4482 1298 07F51653 		add	r3, r7, #9600
 4483 129c 03F13203 		add	r3, r3, #50
 4484 12a0 1B88     		ldrh	r3, [r3]
 4485 12a2 0133     		adds	r3, r3, #1
 4486 12a4 07F51652 		add	r2, r7, #9600
 4487 12a8 02F11402 		add	r2, r2, #20
 4488 12ac 1268     		ldr	r2, [r2]
 4489 12ae D1B2     		uxtb	r1, r2
 4490 12b0 07F51652 		add	r2, r7, #9600
 4491 12b4 02F11C02 		add	r2, r2, #28
 4492 12b8 1268     		ldr	r2, [r2]
 4493 12ba D2B2     		uxtb	r2, r2
 4494 12bc 8A1A     		subs	r2, r1, r2
 4495 12be D1B2     		uxtb	r1, r2
 4496 12c0 07F51652 		add	r2, r7, #9600
 4497 12c4 02F12802 		add	r2, r2, #40
 4498 12c8 1268     		ldr	r2, [r2]
 4499 12ca D2B2     		uxtb	r2, r2
 4500 12cc 8A1A     		subs	r2, r1, r2
 4501 12ce D2B2     		uxtb	r2, r2
 4502 12d0 0132     		adds	r2, r2, #1
 4503 12d2 D1B2     		uxtb	r1, r2
 4504 12d4 104A     		ldr	r2, .L168+4
 4505 12d6 D154     		strb	r1, [r2, r3]
 455:.\pathfinder.c ****                              counter+=2;
 4506              		.loc 1 455 0
 4507 12d8 07F51653 		add	r3, r7, #9600
 4508 12dc 03F13203 		add	r3, r3, #50
 4509 12e0 1B88     		ldrh	r3, [r3]	@ movhi
 4510 12e2 0233     		adds	r3, r3, #2
 4511 12e4 07F51652 		add	r2, r7, #9600
 4512 12e8 02F13202 		add	r2, r2, #50
 4513 12ec 1380     		strh	r3, [r2]	@ movhi
 456:.\pathfinder.c ****                              inter_prev_intersection = inter_end - j + 1;
 4514              		.loc 1 456 0
 4515 12ee 07F51653 		add	r3, r7, #9600
 4516 12f2 03F11403 		add	r3, r3, #20
 4517 12f6 1A68     		ldr	r2, [r3]
 4518 12f8 07F51653 		add	r3, r7, #9600
 4519 12fc 03F11C03 		add	r3, r3, #28
 4520 1300 1B68     		ldr	r3, [r3]
 4521 1302 D31A     		subs	r3, r2, r3
 4522 1304 0133     		adds	r3, r3, #1
 4523 1306 07F51652 		add	r2, r7, #9600
 4524 130a 02F12802 		add	r2, r2, #40
 4525 130e 1360     		str	r3, [r2]
 429:.\pathfinder.c ****                              if((inter_path[j][DIR] == 4 && inter_path[j - 1][DIR] == 3) || (inter_
 4526              		.loc 1 429 0
 4527 1310 D7E0     		b	.L90
 4528              	.L112:
 429:.\pathfinder.c ****                              if((inter_path[j][DIR] == 4 && inter_path[j - 1][DIR] == 3) || (inter_
 4529              		.loc 1 429 0 is_stmt 0 discriminator 3
 4530 1312 D6E0     		b	.L90
 4531              	.L169:
 4532              		.align	2
 4533              	.L168:
 4534 1314 00000000 		.word	path
ARM GAS  C:\Users\Logan\AppData\Local\Temp\ccWP3ZaE.s 			page 89


 4535 1318 00000000 		.word	instructions
 4536              	.L92:
 457:.\pathfinder.c ****                           }
 458:.\pathfinder.c **** 
 459:.\pathfinder.c ****                        }else{
 460:.\pathfinder.c ****                           if ((inter_path[j][DIR] == 4 && inter_path[j - 1][DIR] == 2) || (inter_pa
 4537              		.loc 1 460 0 is_stmt 1
 4538 131c 07F13802 		add	r2, r7, #56
 4539 1320 343A     		subs	r2, r2, #52
 4540 1322 07F51653 		add	r3, r7, #9600
 4541 1326 03F11C03 		add	r3, r3, #28
 4542 132a 1968     		ldr	r1, [r3]
 4543 132c 0B46     		mov	r3, r1
 4544 132e 5B00     		lsls	r3, r3, #1
 4545 1330 0B44     		add	r3, r3, r1
 4546 1332 9B00     		lsls	r3, r3, #2
 4547 1334 1344     		add	r3, r3, r2
 4548 1336 0833     		adds	r3, r3, #8
 4549 1338 1B68     		ldr	r3, [r3]
 4550 133a 042B     		cmp	r3, #4
 4551 133c 11D1     		bne	.L113
 4552              		.loc 1 460 0 is_stmt 0 discriminator 1
 4553 133e 07F51653 		add	r3, r7, #9600
 4554 1342 03F11C03 		add	r3, r3, #28
 4555 1346 1B68     		ldr	r3, [r3]
 4556 1348 591E     		subs	r1, r3, #1
 4557 134a 07F13802 		add	r2, r7, #56
 4558 134e 343A     		subs	r2, r2, #52
 4559 1350 0B46     		mov	r3, r1
 4560 1352 5B00     		lsls	r3, r3, #1
 4561 1354 0B44     		add	r3, r3, r1
 4562 1356 9B00     		lsls	r3, r3, #2
 4563 1358 1344     		add	r3, r3, r2
 4564 135a 0833     		adds	r3, r3, #8
 4565 135c 1B68     		ldr	r3, [r3]
 4566 135e 022B     		cmp	r3, #2
 4567 1360 6BD0     		beq	.L114
 4568              	.L113:
 4569              		.loc 1 460 0 discriminator 3
 4570 1362 07F13802 		add	r2, r7, #56
 4571 1366 343A     		subs	r2, r2, #52
 4572 1368 07F51653 		add	r3, r7, #9600
 4573 136c 03F11C03 		add	r3, r3, #28
 4574 1370 1968     		ldr	r1, [r3]
 4575 1372 0B46     		mov	r3, r1
 4576 1374 5B00     		lsls	r3, r3, #1
 4577 1376 0B44     		add	r3, r3, r1
 4578 1378 9B00     		lsls	r3, r3, #2
 4579 137a 1344     		add	r3, r3, r2
 4580 137c 0833     		adds	r3, r3, #8
 4581 137e 1B68     		ldr	r3, [r3]
 4582 1380 022B     		cmp	r3, #2
 4583 1382 11D1     		bne	.L115
 4584              		.loc 1 460 0 discriminator 4
 4585 1384 07F51653 		add	r3, r7, #9600
 4586 1388 03F11C03 		add	r3, r3, #28
 4587 138c 1B68     		ldr	r3, [r3]
ARM GAS  C:\Users\Logan\AppData\Local\Temp\ccWP3ZaE.s 			page 90


 4588 138e 591E     		subs	r1, r3, #1
 4589 1390 07F13802 		add	r2, r7, #56
 4590 1394 343A     		subs	r2, r2, #52
 4591 1396 0B46     		mov	r3, r1
 4592 1398 5B00     		lsls	r3, r3, #1
 4593 139a 0B44     		add	r3, r3, r1
 4594 139c 9B00     		lsls	r3, r3, #2
 4595 139e 1344     		add	r3, r3, r2
 4596 13a0 0833     		adds	r3, r3, #8
 4597 13a2 1B68     		ldr	r3, [r3]
 4598 13a4 042B     		cmp	r3, #4
 4599 13a6 48D0     		beq	.L114
 4600              	.L115:
 4601              		.loc 1 460 0 discriminator 6
 4602 13a8 07F13802 		add	r2, r7, #56
 4603 13ac 343A     		subs	r2, r2, #52
 4604 13ae 07F51653 		add	r3, r7, #9600
 4605 13b2 03F11C03 		add	r3, r3, #28
 4606 13b6 1968     		ldr	r1, [r3]
 4607 13b8 0B46     		mov	r3, r1
 4608 13ba 5B00     		lsls	r3, r3, #1
 4609 13bc 0B44     		add	r3, r3, r1
 4610 13be 9B00     		lsls	r3, r3, #2
 4611 13c0 1344     		add	r3, r3, r2
 4612 13c2 0833     		adds	r3, r3, #8
 4613 13c4 1B68     		ldr	r3, [r3]
 4614 13c6 042B     		cmp	r3, #4
 4615 13c8 0FD1     		bne	.L116
 4616              		.loc 1 460 0 discriminator 7
 4617 13ca 07F51653 		add	r3, r7, #9600
 4618 13ce 03F12003 		add	r3, r3, #32
 4619 13d2 1B68     		ldr	r3, [r3]
 4620 13d4 5A1C     		adds	r2, r3, #1
 4621 13d6 CF49     		ldr	r1, .L170
 4622 13d8 1346     		mov	r3, r2
 4623 13da 5B00     		lsls	r3, r3, #1
 4624 13dc 1344     		add	r3, r3, r2
 4625 13de 9B00     		lsls	r3, r3, #2
 4626 13e0 0B44     		add	r3, r3, r1
 4627 13e2 0833     		adds	r3, r3, #8
 4628 13e4 1B68     		ldr	r3, [r3]
 4629 13e6 022B     		cmp	r3, #2
 4630 13e8 20D0     		beq	.L117
 4631              	.L116:
 4632              		.loc 1 460 0 discriminator 10
 4633 13ea 07F13802 		add	r2, r7, #56
 4634 13ee 343A     		subs	r2, r2, #52
 4635 13f0 07F51653 		add	r3, r7, #9600
 4636 13f4 03F11C03 		add	r3, r3, #28
 4637 13f8 1968     		ldr	r1, [r3]
 4638 13fa 0B46     		mov	r3, r1
 4639 13fc 5B00     		lsls	r3, r3, #1
 4640 13fe 0B44     		add	r3, r3, r1
 4641 1400 9B00     		lsls	r3, r3, #2
 4642 1402 1344     		add	r3, r3, r2
 4643 1404 0833     		adds	r3, r3, #8
 4644 1406 1B68     		ldr	r3, [r3]
ARM GAS  C:\Users\Logan\AppData\Local\Temp\ccWP3ZaE.s 			page 91


 4645 1408 022B     		cmp	r3, #2
 4646 140a 5AD1     		bne	.L90
 4647              		.loc 1 460 0 discriminator 11
 4648 140c 07F51653 		add	r3, r7, #9600
 4649 1410 03F12003 		add	r3, r3, #32
 4650 1414 1B68     		ldr	r3, [r3]
 4651 1416 5A1C     		adds	r2, r3, #1
 4652 1418 BE49     		ldr	r1, .L170
 4653 141a 1346     		mov	r3, r2
 4654 141c 5B00     		lsls	r3, r3, #1
 4655 141e 1344     		add	r3, r3, r2
 4656 1420 9B00     		lsls	r3, r3, #2
 4657 1422 0B44     		add	r3, r3, r1
 4658 1424 0833     		adds	r3, r3, #8
 4659 1426 1B68     		ldr	r3, [r3]
 4660 1428 042B     		cmp	r3, #4
 4661 142a 4AD1     		bne	.L90
 4662              	.L117:
 4663              		.loc 1 460 0 discriminator 12
 4664 142c 07F51653 		add	r3, r7, #9600
 4665 1430 03F11C03 		add	r3, r3, #28
 4666 1434 1B68     		ldr	r3, [r3]
 4667 1436 012B     		cmp	r3, #1
 4668 1438 43D1     		bne	.L90
 4669              	.L114:
 461:.\pathfinder.c ****                            //  printf("2 U/D intersection found (%d) [direction = %d] -- TURN U-TUR
 462:.\pathfinder.c ****                              instructions[counter] = UTURN;
 4670              		.loc 1 462 0 is_stmt 1
 4671 143a 07F51653 		add	r3, r7, #9600
 4672 143e 03F13203 		add	r3, r3, #50
 4673 1442 1B88     		ldrh	r3, [r3]
 4674 1444 B44A     		ldr	r2, .L170+4
 4675 1446 5521     		movs	r1, #85
 4676 1448 D154     		strb	r1, [r2, r3]
 463:.\pathfinder.c ****                              instructions[counter + 1] = (inter_end - j + 1 )- inter_prev_intersect
 4677              		.loc 1 463 0
 4678 144a 07F51653 		add	r3, r7, #9600
 4679 144e 03F13203 		add	r3, r3, #50
 4680 1452 1B88     		ldrh	r3, [r3]
 4681 1454 0133     		adds	r3, r3, #1
 4682 1456 07F51652 		add	r2, r7, #9600
 4683 145a 02F11402 		add	r2, r2, #20
 4684 145e 1268     		ldr	r2, [r2]
 4685 1460 D1B2     		uxtb	r1, r2
 4686 1462 07F51652 		add	r2, r7, #9600
 4687 1466 02F11C02 		add	r2, r2, #28
 4688 146a 1268     		ldr	r2, [r2]
 4689 146c D2B2     		uxtb	r2, r2
 4690 146e 8A1A     		subs	r2, r1, r2
 4691 1470 D1B2     		uxtb	r1, r2
 4692 1472 07F51652 		add	r2, r7, #9600
 4693 1476 02F12802 		add	r2, r2, #40
 4694 147a 1268     		ldr	r2, [r2]
 4695 147c D2B2     		uxtb	r2, r2
 4696 147e 8A1A     		subs	r2, r1, r2
 4697 1480 D2B2     		uxtb	r2, r2
 4698 1482 0132     		adds	r2, r2, #1
ARM GAS  C:\Users\Logan\AppData\Local\Temp\ccWP3ZaE.s 			page 92


 4699 1484 D1B2     		uxtb	r1, r2
 4700 1486 A44A     		ldr	r2, .L170+4
 4701 1488 D154     		strb	r1, [r2, r3]
 464:.\pathfinder.c ****                              counter+=2;
 4702              		.loc 1 464 0
 4703 148a 07F51653 		add	r3, r7, #9600
 4704 148e 03F13203 		add	r3, r3, #50
 4705 1492 1B88     		ldrh	r3, [r3]	@ movhi
 4706 1494 0233     		adds	r3, r3, #2
 4707 1496 07F51652 		add	r2, r7, #9600
 4708 149a 02F13202 		add	r2, r2, #50
 4709 149e 1380     		strh	r3, [r2]	@ movhi
 465:.\pathfinder.c ****                              inter_prev_intersection = inter_end - j + 1;
 4710              		.loc 1 465 0
 4711 14a0 07F51653 		add	r3, r7, #9600
 4712 14a4 03F11403 		add	r3, r3, #20
 4713 14a8 1A68     		ldr	r2, [r3]
 4714 14aa 07F51653 		add	r3, r7, #9600
 4715 14ae 03F11C03 		add	r3, r3, #28
 4716 14b2 1B68     		ldr	r3, [r3]
 4717 14b4 D31A     		subs	r3, r2, r3
 4718 14b6 0133     		adds	r3, r3, #1
 4719 14b8 07F51652 		add	r2, r7, #9600
 4720 14bc 02F12802 		add	r2, r2, #40
 4721 14c0 1360     		str	r3, [r2]
 4722              	.L90:
 466:.\pathfinder.c ****                           }else{
 467:.\pathfinder.c ****                          //printf("1 [(%d), direction = %d]\n", tmpCounter, inter_path[j][DIR]);
 468:.\pathfinder.c ****                        }
 469:.\pathfinder.c ****                        }
 470:.\pathfinder.c ****                     }
 471:.\pathfinder.c ****                     tmpCounter++;
 4723              		.loc 1 471 0 discriminator 2
 4724 14c2 07F51653 		add	r3, r7, #9600
 4725 14c6 03F12C03 		add	r3, r3, #44
 4726 14ca 1B68     		ldr	r3, [r3]
 4727 14cc 0133     		adds	r3, r3, #1
 4728 14ce 07F51652 		add	r2, r7, #9600
 4729 14d2 02F12C02 		add	r2, r2, #44
 4730 14d6 1360     		str	r3, [r2]
 381:.\pathfinder.c ****             //printf("%d %d;", inter_path[j][Y] + 1, inter_path[j][X] + 1);
 4731              		.loc 1 381 0 discriminator 2
 4732 14d8 07F51653 		add	r3, r7, #9600
 4733 14dc 03F11C03 		add	r3, r3, #28
 4734 14e0 1B68     		ldr	r3, [r3]
 4735 14e2 013B     		subs	r3, r3, #1
 4736 14e4 07F51652 		add	r2, r7, #9600
 4737 14e8 02F11C02 		add	r2, r2, #28
 4738 14ec 1360     		str	r3, [r2]
 4739              	.L59:
 381:.\pathfinder.c ****             //printf("%d %d;", inter_path[j][Y] + 1, inter_path[j][X] + 1);
 4740              		.loc 1 381 0 is_stmt 0 discriminator 1
 4741 14ee 07F51653 		add	r3, r7, #9600
 4742 14f2 03F11C03 		add	r3, r3, #28
 4743 14f6 1B68     		ldr	r3, [r3]
 4744 14f8 002B     		cmp	r3, #0
 4745 14fa 3EF784AF 		bgt	.L118
ARM GAS  C:\Users\Logan\AppData\Local\Temp\ccWP3ZaE.s 			page 93


 472:.\pathfinder.c ****          }
 473:.\pathfinder.c **** 
 474:.\pathfinder.c ****          //stuff
 475:.\pathfinder.c ****          //printf("Discontinuity found at %d \n", i + 1);
 476:.\pathfinder.c ****         prev_intersection = i;
 4746              		.loc 1 476 0 is_stmt 1
 4747 14fe 07F51653 		add	r3, r7, #9600
 4748 1502 03F12003 		add	r3, r3, #32
 4749 1506 1B68     		ldr	r3, [r3]
 4750 1508 07F51652 		add	r2, r7, #9600
 4751 150c 02F13402 		add	r2, r2, #52
 4752 1510 1360     		str	r3, [r2]
 477:.\pathfinder.c ****         
 478:.\pathfinder.c ****         //if(((path[i+1][Y] == (path[i + 2][Y] + 1) && (path[i+1][X] == path[i + 2][X])) || (path[i
 479:.\pathfinder.c ****           //  i++;
 480:.\pathfinder.c ****          //}else{
 481:.\pathfinder.c ****             skip = 1;    
 4753              		.loc 1 481 0
 4754 1512 0123     		movs	r3, #1
 4755 1514 07F51652 		add	r2, r7, #9600
 4756 1518 02F12402 		add	r2, r2, #36
 4757 151c 1360     		str	r3, [r2]
 4758              	.L54:
 4759              	.LBE6:
 482:.\pathfinder.c ****         //}
 483:.\pathfinder.c ****       }
 484:.\pathfinder.c **** 
 485:.\pathfinder.c ****       //printf("i: %d counter: %d\n", i, counter);
 486:.\pathfinder.c ****     if(!skip){
 4760              		.loc 1 486 0
 4761 151e 07F51653 		add	r3, r7, #9600
 4762 1522 03F12403 		add	r3, r3, #36
 4763 1526 1B68     		ldr	r3, [r3]
 4764 1528 002B     		cmp	r3, #0
 4765 152a 40F00085 		bne	.L119
 487:.\pathfinder.c **** if(path[i][DIR] == 1 || path[i][DIR] == 3){
 4766              		.loc 1 487 0
 4767 152e 7949     		ldr	r1, .L170
 4768 1530 07F51653 		add	r3, r7, #9600
 4769 1534 03F12003 		add	r3, r3, #32
 4770 1538 1A68     		ldr	r2, [r3]
 4771 153a 1346     		mov	r3, r2
 4772 153c 5B00     		lsls	r3, r3, #1
 4773 153e 1344     		add	r3, r3, r2
 4774 1540 9B00     		lsls	r3, r3, #2
 4775 1542 0B44     		add	r3, r3, r1
 4776 1544 0833     		adds	r3, r3, #8
 4777 1546 1B68     		ldr	r3, [r3]
 4778 1548 012B     		cmp	r3, #1
 4779 154a 0FD0     		beq	.L120
 4780              		.loc 1 487 0 is_stmt 0 discriminator 1
 4781 154c 7149     		ldr	r1, .L170
 4782 154e 07F51653 		add	r3, r7, #9600
 4783 1552 03F12003 		add	r3, r3, #32
 4784 1556 1A68     		ldr	r2, [r3]
 4785 1558 1346     		mov	r3, r2
 4786 155a 5B00     		lsls	r3, r3, #1
ARM GAS  C:\Users\Logan\AppData\Local\Temp\ccWP3ZaE.s 			page 94


 4787 155c 1344     		add	r3, r3, r2
 4788 155e 9B00     		lsls	r3, r3, #2
 4789 1560 0B44     		add	r3, r3, r1
 4790 1562 0833     		adds	r3, r3, #8
 4791 1564 1B68     		ldr	r3, [r3]
 4792 1566 032B     		cmp	r3, #3
 4793 1568 40F07482 		bne	.L121
 4794              	.L120:
 488:.\pathfinder.c ****          //There should be a check that it is within the map
 489:.\pathfinder.c ****          if(map[path[i][Y]][path[i][X] - 1] == PATH || map[path[i][Y]][path[i][X] + 1] == PATH){
 4795              		.loc 1 489 0 is_stmt 1
 4796 156c 6949     		ldr	r1, .L170
 4797 156e 07F51653 		add	r3, r7, #9600
 4798 1572 03F12003 		add	r3, r3, #32
 4799 1576 1A68     		ldr	r2, [r3]
 4800 1578 1346     		mov	r3, r2
 4801 157a 5B00     		lsls	r3, r3, #1
 4802 157c 1344     		add	r3, r3, r2
 4803 157e 9B00     		lsls	r3, r3, #2
 4804 1580 0B44     		add	r3, r3, r1
 4805 1582 1A68     		ldr	r2, [r3]
 4806 1584 6348     		ldr	r0, .L170
 4807 1586 07F51653 		add	r3, r7, #9600
 4808 158a 03F12003 		add	r3, r3, #32
 4809 158e 1968     		ldr	r1, [r3]
 4810 1590 0B46     		mov	r3, r1
 4811 1592 5B00     		lsls	r3, r3, #1
 4812 1594 0B44     		add	r3, r3, r1
 4813 1596 9B00     		lsls	r3, r3, #2
 4814 1598 0344     		add	r3, r3, r0
 4815 159a 0433     		adds	r3, r3, #4
 4816 159c 1B68     		ldr	r3, [r3]
 4817 159e 591E     		subs	r1, r3, #1
 4818 15a0 5E48     		ldr	r0, .L170+8
 4819 15a2 1346     		mov	r3, r2
 4820 15a4 DB00     		lsls	r3, r3, #3
 4821 15a6 1344     		add	r3, r3, r2
 4822 15a8 5B00     		lsls	r3, r3, #1
 4823 15aa 1344     		add	r3, r3, r2
 4824 15ac 0B44     		add	r3, r3, r1
 4825 15ae 50F82330 		ldr	r3, [r0, r3, lsl #2]
 4826 15b2 002B     		cmp	r3, #0
 4827 15b4 25D0     		beq	.L122
 4828              		.loc 1 489 0 is_stmt 0 discriminator 1
 4829 15b6 5749     		ldr	r1, .L170
 4830 15b8 07F51653 		add	r3, r7, #9600
 4831 15bc 03F12003 		add	r3, r3, #32
 4832 15c0 1A68     		ldr	r2, [r3]
 4833 15c2 1346     		mov	r3, r2
 4834 15c4 5B00     		lsls	r3, r3, #1
 4835 15c6 1344     		add	r3, r3, r2
 4836 15c8 9B00     		lsls	r3, r3, #2
 4837 15ca 0B44     		add	r3, r3, r1
 4838 15cc 1A68     		ldr	r2, [r3]
 4839 15ce 5148     		ldr	r0, .L170
 4840 15d0 07F51653 		add	r3, r7, #9600
 4841 15d4 03F12003 		add	r3, r3, #32
ARM GAS  C:\Users\Logan\AppData\Local\Temp\ccWP3ZaE.s 			page 95


 4842 15d8 1968     		ldr	r1, [r3]
 4843 15da 0B46     		mov	r3, r1
 4844 15dc 5B00     		lsls	r3, r3, #1
 4845 15de 0B44     		add	r3, r3, r1
 4846 15e0 9B00     		lsls	r3, r3, #2
 4847 15e2 0344     		add	r3, r3, r0
 4848 15e4 0433     		adds	r3, r3, #4
 4849 15e6 1B68     		ldr	r3, [r3]
 4850 15e8 591C     		adds	r1, r3, #1
 4851 15ea 4C48     		ldr	r0, .L170+8
 4852 15ec 1346     		mov	r3, r2
 4853 15ee DB00     		lsls	r3, r3, #3
 4854 15f0 1344     		add	r3, r3, r2
 4855 15f2 5B00     		lsls	r3, r3, #1
 4856 15f4 1344     		add	r3, r3, r2
 4857 15f6 0B44     		add	r3, r3, r1
 4858 15f8 50F82330 		ldr	r3, [r0, r3, lsl #2]
 4859 15fc 002B     		cmp	r3, #0
 4860 15fe 40F0B281 		bne	.L123
 4861              	.L122:
 490:.\pathfinder.c ****             if(path[i][DIR] != path[i + 1][DIR]){
 4862              		.loc 1 490 0 is_stmt 1
 4863 1602 4449     		ldr	r1, .L170
 4864 1604 07F51653 		add	r3, r7, #9600
 4865 1608 03F12003 		add	r3, r3, #32
 4866 160c 1A68     		ldr	r2, [r3]
 4867 160e 1346     		mov	r3, r2
 4868 1610 5B00     		lsls	r3, r3, #1
 4869 1612 1344     		add	r3, r3, r2
 4870 1614 9B00     		lsls	r3, r3, #2
 4871 1616 0B44     		add	r3, r3, r1
 4872 1618 0833     		adds	r3, r3, #8
 4873 161a 1968     		ldr	r1, [r3]
 4874 161c 07F51653 		add	r3, r7, #9600
 4875 1620 03F12003 		add	r3, r3, #32
 4876 1624 1B68     		ldr	r3, [r3]
 4877 1626 5A1C     		adds	r2, r3, #1
 4878 1628 3A48     		ldr	r0, .L170
 4879 162a 1346     		mov	r3, r2
 4880 162c 5B00     		lsls	r3, r3, #1
 4881 162e 1344     		add	r3, r3, r2
 4882 1630 9B00     		lsls	r3, r3, #2
 4883 1632 0344     		add	r3, r3, r0
 4884 1634 0833     		adds	r3, r3, #8
 4885 1636 1B68     		ldr	r3, [r3]
 4886 1638 9942     		cmp	r1, r3
 4887 163a 00F05F81 		beq	.L124
 491:.\pathfinder.c ****                //current direction , the next direction
 492:.\pathfinder.c ****                if((path[i][DIR] == 1 && path[i + 1][DIR] == 4) || (path[i][DIR] == 3 && path[i + 1]
 4888              		.loc 1 492 0
 4889 163e 3549     		ldr	r1, .L170
 4890 1640 07F51653 		add	r3, r7, #9600
 4891 1644 03F12003 		add	r3, r3, #32
 4892 1648 1A68     		ldr	r2, [r3]
 4893 164a 1346     		mov	r3, r2
 4894 164c 5B00     		lsls	r3, r3, #1
 4895 164e 1344     		add	r3, r3, r2
ARM GAS  C:\Users\Logan\AppData\Local\Temp\ccWP3ZaE.s 			page 96


 4896 1650 9B00     		lsls	r3, r3, #2
 4897 1652 0B44     		add	r3, r3, r1
 4898 1654 0833     		adds	r3, r3, #8
 4899 1656 1B68     		ldr	r3, [r3]
 4900 1658 012B     		cmp	r3, #1
 4901 165a 0FD1     		bne	.L125
 4902              		.loc 1 492 0 is_stmt 0 discriminator 1
 4903 165c 07F51653 		add	r3, r7, #9600
 4904 1660 03F12003 		add	r3, r3, #32
 4905 1664 1B68     		ldr	r3, [r3]
 4906 1666 5A1C     		adds	r2, r3, #1
 4907 1668 2A49     		ldr	r1, .L170
 4908 166a 1346     		mov	r3, r2
 4909 166c 5B00     		lsls	r3, r3, #1
 4910 166e 1344     		add	r3, r3, r2
 4911 1670 9B00     		lsls	r3, r3, #2
 4912 1672 0B44     		add	r3, r3, r1
 4913 1674 0833     		adds	r3, r3, #8
 4914 1676 1B68     		ldr	r3, [r3]
 4915 1678 042B     		cmp	r3, #4
 4916 167a 1ED0     		beq	.L126
 4917              	.L125:
 4918              		.loc 1 492 0 discriminator 3
 4919 167c 2549     		ldr	r1, .L170
 4920 167e 07F51653 		add	r3, r7, #9600
 4921 1682 03F12003 		add	r3, r3, #32
 4922 1686 1A68     		ldr	r2, [r3]
 4923 1688 1346     		mov	r3, r2
 4924 168a 5B00     		lsls	r3, r3, #1
 4925 168c 1344     		add	r3, r3, r2
 4926 168e 9B00     		lsls	r3, r3, #2
 4927 1690 0B44     		add	r3, r3, r1
 4928 1692 0833     		adds	r3, r3, #8
 4929 1694 1B68     		ldr	r3, [r3]
 4930 1696 032B     		cmp	r3, #3
 4931 1698 4BD1     		bne	.L127
 4932              		.loc 1 492 0 discriminator 4
 4933 169a 07F51653 		add	r3, r7, #9600
 4934 169e 03F12003 		add	r3, r3, #32
 4935 16a2 1B68     		ldr	r3, [r3]
 4936 16a4 5A1C     		adds	r2, r3, #1
 4937 16a6 1B49     		ldr	r1, .L170
 4938 16a8 1346     		mov	r3, r2
 4939 16aa 5B00     		lsls	r3, r3, #1
 4940 16ac 1344     		add	r3, r3, r2
 4941 16ae 9B00     		lsls	r3, r3, #2
 4942 16b0 0B44     		add	r3, r3, r1
 4943 16b2 0833     		adds	r3, r3, #8
 4944 16b4 1B68     		ldr	r3, [r3]
 4945 16b6 022B     		cmp	r3, #2
 4946 16b8 3BD1     		bne	.L127
 4947              	.L126:
 493:.\pathfinder.c ****                   //printf("L/R intersection found (%d) [direction = %d] -- TURN LEFT (%d, %d)\n", 
 494:.\pathfinder.c ****                   instructions[counter] = LEFT;
 4948              		.loc 1 494 0 is_stmt 1
 4949 16ba 07F51653 		add	r3, r7, #9600
 4950 16be 03F13203 		add	r3, r3, #50
ARM GAS  C:\Users\Logan\AppData\Local\Temp\ccWP3ZaE.s 			page 97


 4951 16c2 1B88     		ldrh	r3, [r3]
 4952 16c4 144A     		ldr	r2, .L170+4
 4953 16c6 4C21     		movs	r1, #76
 4954 16c8 D154     		strb	r1, [r2, r3]
 495:.\pathfinder.c ****                   instructions[counter + 1] = i - prev_intersection;
 4955              		.loc 1 495 0
 4956 16ca 07F51653 		add	r3, r7, #9600
 4957 16ce 03F13203 		add	r3, r3, #50
 4958 16d2 1B88     		ldrh	r3, [r3]
 4959 16d4 0133     		adds	r3, r3, #1
 4960 16d6 07F51652 		add	r2, r7, #9600
 4961 16da 02F12002 		add	r2, r2, #32
 4962 16de 1268     		ldr	r2, [r2]
 4963 16e0 D1B2     		uxtb	r1, r2
 4964 16e2 07F51652 		add	r2, r7, #9600
 4965 16e6 02F13402 		add	r2, r2, #52
 4966 16ea 1268     		ldr	r2, [r2]
 4967 16ec D2B2     		uxtb	r2, r2
 4968 16ee 8A1A     		subs	r2, r1, r2
 4969 16f0 D1B2     		uxtb	r1, r2
 4970 16f2 094A     		ldr	r2, .L170+4
 4971 16f4 D154     		strb	r1, [r2, r3]
 496:.\pathfinder.c ****                   counter+=2;
 4972              		.loc 1 496 0
 4973 16f6 07F51653 		add	r3, r7, #9600
 4974 16fa 03F13203 		add	r3, r3, #50
 4975 16fe 1B88     		ldrh	r3, [r3]	@ movhi
 4976 1700 0233     		adds	r3, r3, #2
 4977 1702 07F51652 		add	r2, r7, #9600
 4978 1706 02F13202 		add	r2, r2, #50
 4979 170a 1380     		strh	r3, [r2]	@ movhi
 497:.\pathfinder.c ****                   prev_intersection = i;
 4980              		.loc 1 497 0
 4981 170c 07F51653 		add	r3, r7, #9600
 4982 1710 06E0     		b	.L171
 4983              	.L172:
 4984 1712 00BF     		.align	2
 4985              	.L170:
 4986 1714 00000000 		.word	path
 4987 1718 00000000 		.word	instructions
 4988 171c 00000000 		.word	map
 4989              	.L171:
 4990 1720 03F12003 		add	r3, r3, #32
 4991 1724 1B68     		ldr	r3, [r3]
 4992 1726 07F51652 		add	r2, r7, #9600
 4993 172a 02F13402 		add	r2, r2, #52
 4994 172e 1360     		str	r3, [r2]
 4995 1730 E3E0     		b	.L128
 4996              	.L127:
 498:.\pathfinder.c ****                }else if((path[i][DIR] == 1 && path[i + 1][DIR] == 2) || (path[i][DIR] == 3 && path[
 4997              		.loc 1 498 0
 4998 1732 C649     		ldr	r1, .L173
 4999 1734 07F51653 		add	r3, r7, #9600
 5000 1738 03F12003 		add	r3, r3, #32
 5001 173c 1A68     		ldr	r2, [r3]
 5002 173e 1346     		mov	r3, r2
 5003 1740 5B00     		lsls	r3, r3, #1
ARM GAS  C:\Users\Logan\AppData\Local\Temp\ccWP3ZaE.s 			page 98


 5004 1742 1344     		add	r3, r3, r2
 5005 1744 9B00     		lsls	r3, r3, #2
 5006 1746 0B44     		add	r3, r3, r1
 5007 1748 0833     		adds	r3, r3, #8
 5008 174a 1B68     		ldr	r3, [r3]
 5009 174c 012B     		cmp	r3, #1
 5010 174e 0FD1     		bne	.L129
 5011              		.loc 1 498 0 is_stmt 0 discriminator 1
 5012 1750 07F51653 		add	r3, r7, #9600
 5013 1754 03F12003 		add	r3, r3, #32
 5014 1758 1B68     		ldr	r3, [r3]
 5015 175a 5A1C     		adds	r2, r3, #1
 5016 175c BB49     		ldr	r1, .L173
 5017 175e 1346     		mov	r3, r2
 5018 1760 5B00     		lsls	r3, r3, #1
 5019 1762 1344     		add	r3, r3, r2
 5020 1764 9B00     		lsls	r3, r3, #2
 5021 1766 0B44     		add	r3, r3, r1
 5022 1768 0833     		adds	r3, r3, #8
 5023 176a 1B68     		ldr	r3, [r3]
 5024 176c 022B     		cmp	r3, #2
 5025 176e 1ED0     		beq	.L130
 5026              	.L129:
 5027              		.loc 1 498 0 discriminator 3
 5028 1770 B649     		ldr	r1, .L173
 5029 1772 07F51653 		add	r3, r7, #9600
 5030 1776 03F12003 		add	r3, r3, #32
 5031 177a 1A68     		ldr	r2, [r3]
 5032 177c 1346     		mov	r3, r2
 5033 177e 5B00     		lsls	r3, r3, #1
 5034 1780 1344     		add	r3, r3, r2
 5035 1782 9B00     		lsls	r3, r3, #2
 5036 1784 0B44     		add	r3, r3, r1
 5037 1786 0833     		adds	r3, r3, #8
 5038 1788 1B68     		ldr	r3, [r3]
 5039 178a 032B     		cmp	r3, #3
 5040 178c 43D1     		bne	.L131
 5041              		.loc 1 498 0 discriminator 4
 5042 178e 07F51653 		add	r3, r7, #9600
 5043 1792 03F12003 		add	r3, r3, #32
 5044 1796 1B68     		ldr	r3, [r3]
 5045 1798 5A1C     		adds	r2, r3, #1
 5046 179a AC49     		ldr	r1, .L173
 5047 179c 1346     		mov	r3, r2
 5048 179e 5B00     		lsls	r3, r3, #1
 5049 17a0 1344     		add	r3, r3, r2
 5050 17a2 9B00     		lsls	r3, r3, #2
 5051 17a4 0B44     		add	r3, r3, r1
 5052 17a6 0833     		adds	r3, r3, #8
 5053 17a8 1B68     		ldr	r3, [r3]
 5054 17aa 042B     		cmp	r3, #4
 5055 17ac 33D1     		bne	.L131
 5056              	.L130:
 499:.\pathfinder.c ****                   //printf("L/R intersection found (%d) [direction = %d] -- TURN RIGHT (%d, %d)\n",
 500:.\pathfinder.c ****                   instructions[counter] = RIGHT;
 5057              		.loc 1 500 0 is_stmt 1
 5058 17ae 07F51653 		add	r3, r7, #9600
ARM GAS  C:\Users\Logan\AppData\Local\Temp\ccWP3ZaE.s 			page 99


 5059 17b2 03F13203 		add	r3, r3, #50
 5060 17b6 1B88     		ldrh	r3, [r3]
 5061 17b8 A54A     		ldr	r2, .L173+4
 5062 17ba 5221     		movs	r1, #82
 5063 17bc D154     		strb	r1, [r2, r3]
 501:.\pathfinder.c ****                   instructions[counter + 1] = i - prev_intersection;
 5064              		.loc 1 501 0
 5065 17be 07F51653 		add	r3, r7, #9600
 5066 17c2 03F13203 		add	r3, r3, #50
 5067 17c6 1B88     		ldrh	r3, [r3]
 5068 17c8 0133     		adds	r3, r3, #1
 5069 17ca 07F51652 		add	r2, r7, #9600
 5070 17ce 02F12002 		add	r2, r2, #32
 5071 17d2 1268     		ldr	r2, [r2]
 5072 17d4 D1B2     		uxtb	r1, r2
 5073 17d6 07F51652 		add	r2, r7, #9600
 5074 17da 02F13402 		add	r2, r2, #52
 5075 17de 1268     		ldr	r2, [r2]
 5076 17e0 D2B2     		uxtb	r2, r2
 5077 17e2 8A1A     		subs	r2, r1, r2
 5078 17e4 D1B2     		uxtb	r1, r2
 5079 17e6 9A4A     		ldr	r2, .L173+4
 5080 17e8 D154     		strb	r1, [r2, r3]
 502:.\pathfinder.c ****                   counter+=2;
 5081              		.loc 1 502 0
 5082 17ea 07F51653 		add	r3, r7, #9600
 5083 17ee 03F13203 		add	r3, r3, #50
 5084 17f2 1B88     		ldrh	r3, [r3]	@ movhi
 5085 17f4 0233     		adds	r3, r3, #2
 5086 17f6 07F51652 		add	r2, r7, #9600
 5087 17fa 02F13202 		add	r2, r2, #50
 5088 17fe 1380     		strh	r3, [r2]	@ movhi
 503:.\pathfinder.c ****                   prev_intersection = i;
 5089              		.loc 1 503 0
 5090 1800 07F51653 		add	r3, r7, #9600
 5091 1804 03F12003 		add	r3, r3, #32
 5092 1808 1B68     		ldr	r3, [r3]
 5093 180a 07F51652 		add	r2, r7, #9600
 5094 180e 02F13402 		add	r2, r2, #52
 5095 1812 1360     		str	r3, [r2]
 5096 1814 71E0     		b	.L128
 5097              	.L131:
 504:.\pathfinder.c ****                }else if ((path[i][DIR] == 1 && path[i + 1][DIR] == 3) || (path[i][DIR] == 3 && path
 5098              		.loc 1 504 0
 5099 1816 8D49     		ldr	r1, .L173
 5100 1818 07F51653 		add	r3, r7, #9600
 5101 181c 03F12003 		add	r3, r3, #32
 5102 1820 1A68     		ldr	r2, [r3]
 5103 1822 1346     		mov	r3, r2
 5104 1824 5B00     		lsls	r3, r3, #1
 5105 1826 1344     		add	r3, r3, r2
 5106 1828 9B00     		lsls	r3, r3, #2
 5107 182a 0B44     		add	r3, r3, r1
 5108 182c 0833     		adds	r3, r3, #8
 5109 182e 1B68     		ldr	r3, [r3]
 5110 1830 012B     		cmp	r3, #1
 5111 1832 0FD1     		bne	.L132
ARM GAS  C:\Users\Logan\AppData\Local\Temp\ccWP3ZaE.s 			page 100


 5112              		.loc 1 504 0 is_stmt 0 discriminator 1
 5113 1834 07F51653 		add	r3, r7, #9600
 5114 1838 03F12003 		add	r3, r3, #32
 5115 183c 1B68     		ldr	r3, [r3]
 5116 183e 5A1C     		adds	r2, r3, #1
 5117 1840 8249     		ldr	r1, .L173
 5118 1842 1346     		mov	r3, r2
 5119 1844 5B00     		lsls	r3, r3, #1
 5120 1846 1344     		add	r3, r3, r2
 5121 1848 9B00     		lsls	r3, r3, #2
 5122 184a 0B44     		add	r3, r3, r1
 5123 184c 0833     		adds	r3, r3, #8
 5124 184e 1B68     		ldr	r3, [r3]
 5125 1850 032B     		cmp	r3, #3
 5126 1852 1ED0     		beq	.L133
 5127              	.L132:
 5128              		.loc 1 504 0 discriminator 3
 5129 1854 7D49     		ldr	r1, .L173
 5130 1856 07F51653 		add	r3, r7, #9600
 5131 185a 03F12003 		add	r3, r3, #32
 5132 185e 1A68     		ldr	r2, [r3]
 5133 1860 1346     		mov	r3, r2
 5134 1862 5B00     		lsls	r3, r3, #1
 5135 1864 1344     		add	r3, r3, r2
 5136 1866 9B00     		lsls	r3, r3, #2
 5137 1868 0B44     		add	r3, r3, r1
 5138 186a 0833     		adds	r3, r3, #8
 5139 186c 1B68     		ldr	r3, [r3]
 5140 186e 032B     		cmp	r3, #3
 5141 1870 78D1     		bne	.L134
 5142              		.loc 1 504 0 discriminator 4
 5143 1872 07F51653 		add	r3, r7, #9600
 5144 1876 03F12003 		add	r3, r3, #32
 5145 187a 1B68     		ldr	r3, [r3]
 5146 187c 5A1C     		adds	r2, r3, #1
 5147 187e 7349     		ldr	r1, .L173
 5148 1880 1346     		mov	r3, r2
 5149 1882 5B00     		lsls	r3, r3, #1
 5150 1884 1344     		add	r3, r3, r2
 5151 1886 9B00     		lsls	r3, r3, #2
 5152 1888 0B44     		add	r3, r3, r1
 5153 188a 0833     		adds	r3, r3, #8
 5154 188c 1B68     		ldr	r3, [r3]
 5155 188e 012B     		cmp	r3, #1
 5156 1890 68D1     		bne	.L134
 5157              	.L133:
 505:.\pathfinder.c ****                   //printf("L/R intersection found (%d) [direction = %d] -- TURN U-TURN (%d, %d)\n"
 506:.\pathfinder.c ****                   instructions[counter] = UTURN;
 5158              		.loc 1 506 0 is_stmt 1
 5159 1892 07F51653 		add	r3, r7, #9600
 5160 1896 03F13203 		add	r3, r3, #50
 5161 189a 1B88     		ldrh	r3, [r3]
 5162 189c 6C4A     		ldr	r2, .L173+4
 5163 189e 5521     		movs	r1, #85
 5164 18a0 D154     		strb	r1, [r2, r3]
 507:.\pathfinder.c ****                   instructions[counter + 1] = i - prev_intersection;
 5165              		.loc 1 507 0
ARM GAS  C:\Users\Logan\AppData\Local\Temp\ccWP3ZaE.s 			page 101


 5166 18a2 07F51653 		add	r3, r7, #9600
 5167 18a6 03F13203 		add	r3, r3, #50
 5168 18aa 1B88     		ldrh	r3, [r3]
 5169 18ac 0133     		adds	r3, r3, #1
 5170 18ae 07F51652 		add	r2, r7, #9600
 5171 18b2 02F12002 		add	r2, r2, #32
 5172 18b6 1268     		ldr	r2, [r2]
 5173 18b8 D1B2     		uxtb	r1, r2
 5174 18ba 07F51652 		add	r2, r7, #9600
 5175 18be 02F13402 		add	r2, r2, #52
 5176 18c2 1268     		ldr	r2, [r2]
 5177 18c4 D2B2     		uxtb	r2, r2
 5178 18c6 8A1A     		subs	r2, r1, r2
 5179 18c8 D1B2     		uxtb	r1, r2
 5180 18ca 614A     		ldr	r2, .L173+4
 5181 18cc D154     		strb	r1, [r2, r3]
 508:.\pathfinder.c ****                   counter+=2;
 5182              		.loc 1 508 0
 5183 18ce 07F51653 		add	r3, r7, #9600
 5184 18d2 03F13203 		add	r3, r3, #50
 5185 18d6 1B88     		ldrh	r3, [r3]	@ movhi
 5186 18d8 0233     		adds	r3, r3, #2
 5187 18da 07F51652 		add	r2, r7, #9600
 5188 18de 02F13202 		add	r2, r2, #50
 5189 18e2 1380     		strh	r3, [r2]	@ movhi
 509:.\pathfinder.c ****                   prev_intersection = i;
 5190              		.loc 1 509 0
 5191 18e4 07F51653 		add	r3, r7, #9600
 5192 18e8 03F12003 		add	r3, r3, #32
 5193 18ec 1B68     		ldr	r3, [r3]
 5194 18ee 07F51652 		add	r2, r7, #9600
 5195 18f2 02F13402 		add	r2, r2, #52
 5196 18f6 1360     		str	r3, [r2]
 5197 18f8 34E0     		b	.L134
 5198              	.L128:
 5199 18fa 33E0     		b	.L134
 5200              	.L124:
 510:.\pathfinder.c ****                }else{
 511:.\pathfinder.c ****                   //printf("Prev %d, current %d\n",path[i + 1][DIR], path[i][DIR]);
 512:.\pathfinder.c ****                }
 513:.\pathfinder.c ****             }else{
 514:.\pathfinder.c ****                //printf("L/R intersection found (%d) [direction = %d] (%d, %d)\n", tmpCounter, path
 515:.\pathfinder.c ****                instructions[counter] = STRAIGHT;
 5201              		.loc 1 515 0
 5202 18fc 07F51653 		add	r3, r7, #9600
 5203 1900 03F13203 		add	r3, r3, #50
 5204 1904 1B88     		ldrh	r3, [r3]
 5205 1906 524A     		ldr	r2, .L173+4
 5206 1908 5321     		movs	r1, #83
 5207 190a D154     		strb	r1, [r2, r3]
 516:.\pathfinder.c ****                instructions[counter + 1] = i - prev_intersection;
 5208              		.loc 1 516 0
 5209 190c 07F51653 		add	r3, r7, #9600
 5210 1910 03F13203 		add	r3, r3, #50
 5211 1914 1B88     		ldrh	r3, [r3]
 5212 1916 0133     		adds	r3, r3, #1
 5213 1918 07F51652 		add	r2, r7, #9600
ARM GAS  C:\Users\Logan\AppData\Local\Temp\ccWP3ZaE.s 			page 102


 5214 191c 02F12002 		add	r2, r2, #32
 5215 1920 1268     		ldr	r2, [r2]
 5216 1922 D1B2     		uxtb	r1, r2
 5217 1924 07F51652 		add	r2, r7, #9600
 5218 1928 02F13402 		add	r2, r2, #52
 5219 192c 1268     		ldr	r2, [r2]
 5220 192e D2B2     		uxtb	r2, r2
 5221 1930 8A1A     		subs	r2, r1, r2
 5222 1932 D1B2     		uxtb	r1, r2
 5223 1934 464A     		ldr	r2, .L173+4
 5224 1936 D154     		strb	r1, [r2, r3]
 517:.\pathfinder.c ****                counter+=2;
 5225              		.loc 1 517 0
 5226 1938 07F51653 		add	r3, r7, #9600
 5227 193c 03F13203 		add	r3, r3, #50
 5228 1940 1B88     		ldrh	r3, [r3]	@ movhi
 5229 1942 0233     		adds	r3, r3, #2
 5230 1944 07F51652 		add	r2, r7, #9600
 5231 1948 02F13202 		add	r2, r2, #50
 5232 194c 1380     		strh	r3, [r2]	@ movhi
 518:.\pathfinder.c ****                prev_intersection = i;
 5233              		.loc 1 518 0
 5234 194e 07F51653 		add	r3, r7, #9600
 5235 1952 03F12003 		add	r3, r3, #32
 5236 1956 1B68     		ldr	r3, [r3]
 5237 1958 07F51652 		add	r2, r7, #9600
 5238 195c 02F13402 		add	r2, r2, #52
 5239 1960 1360     		str	r3, [r2]
 490:.\pathfinder.c ****                //current direction , the next direction
 5240              		.loc 1 490 0
 5241 1962 72E0     		b	.L135
 5242              	.L134:
 490:.\pathfinder.c ****                //current direction , the next direction
 5243              		.loc 1 490 0 is_stmt 0 discriminator 4
 5244 1964 71E0     		b	.L135
 5245              	.L123:
 519:.\pathfinder.c ****             }
 520:.\pathfinder.c ****          }else{//not an intersection
 521:.\pathfinder.c ****             if ((path[i][DIR] == 1 && path[i + 1][DIR] == 3) || (path[i][DIR] == 3 && path[i + 1][D
 5246              		.loc 1 521 0 is_stmt 1
 5247 1966 3949     		ldr	r1, .L173
 5248 1968 07F51653 		add	r3, r7, #9600
 5249 196c 03F12003 		add	r3, r3, #32
 5250 1970 1A68     		ldr	r2, [r3]
 5251 1972 1346     		mov	r3, r2
 5252 1974 5B00     		lsls	r3, r3, #1
 5253 1976 1344     		add	r3, r3, r2
 5254 1978 9B00     		lsls	r3, r3, #2
 5255 197a 0B44     		add	r3, r3, r1
 5256 197c 0833     		adds	r3, r3, #8
 5257 197e 1B68     		ldr	r3, [r3]
 5258 1980 012B     		cmp	r3, #1
 5259 1982 0FD1     		bne	.L136
 5260              		.loc 1 521 0 is_stmt 0 discriminator 1
 5261 1984 07F51653 		add	r3, r7, #9600
 5262 1988 03F12003 		add	r3, r3, #32
 5263 198c 1B68     		ldr	r3, [r3]
ARM GAS  C:\Users\Logan\AppData\Local\Temp\ccWP3ZaE.s 			page 103


 5264 198e 5A1C     		adds	r2, r3, #1
 5265 1990 2E49     		ldr	r1, .L173
 5266 1992 1346     		mov	r3, r2
 5267 1994 5B00     		lsls	r3, r3, #1
 5268 1996 1344     		add	r3, r3, r2
 5269 1998 9B00     		lsls	r3, r3, #2
 5270 199a 0B44     		add	r3, r3, r1
 5271 199c 0833     		adds	r3, r3, #8
 5272 199e 1B68     		ldr	r3, [r3]
 5273 19a0 032B     		cmp	r3, #3
 5274 19a2 1ED0     		beq	.L137
 5275              	.L136:
 5276              		.loc 1 521 0 discriminator 3
 5277 19a4 2949     		ldr	r1, .L173
 5278 19a6 07F51653 		add	r3, r7, #9600
 5279 19aa 03F12003 		add	r3, r3, #32
 5280 19ae 1A68     		ldr	r2, [r3]
 5281 19b0 1346     		mov	r3, r2
 5282 19b2 5B00     		lsls	r3, r3, #1
 5283 19b4 1344     		add	r3, r3, r2
 5284 19b6 9B00     		lsls	r3, r3, #2
 5285 19b8 0B44     		add	r3, r3, r1
 5286 19ba 0833     		adds	r3, r3, #8
 5287 19bc 1B68     		ldr	r3, [r3]
 5288 19be 032B     		cmp	r3, #3
 5289 19c0 43D1     		bne	.L135
 5290              		.loc 1 521 0 discriminator 4
 5291 19c2 07F51653 		add	r3, r7, #9600
 5292 19c6 03F12003 		add	r3, r3, #32
 5293 19ca 1B68     		ldr	r3, [r3]
 5294 19cc 5A1C     		adds	r2, r3, #1
 5295 19ce 1F49     		ldr	r1, .L173
 5296 19d0 1346     		mov	r3, r2
 5297 19d2 5B00     		lsls	r3, r3, #1
 5298 19d4 1344     		add	r3, r3, r2
 5299 19d6 9B00     		lsls	r3, r3, #2
 5300 19d8 0B44     		add	r3, r3, r1
 5301 19da 0833     		adds	r3, r3, #8
 5302 19dc 1B68     		ldr	r3, [r3]
 5303 19de 012B     		cmp	r3, #1
 5304 19e0 33D1     		bne	.L135
 5305              	.L137:
 522:.\pathfinder.c ****                //printf("L/R intersection found (%d) [direction = %d] -- TURN U-TURN (%d, %d)\n", t
 523:.\pathfinder.c ****                instructions[counter] = UTURN;
 5306              		.loc 1 523 0 is_stmt 1
 5307 19e2 07F51653 		add	r3, r7, #9600
 5308 19e6 03F13203 		add	r3, r3, #50
 5309 19ea 1B88     		ldrh	r3, [r3]
 5310 19ec 184A     		ldr	r2, .L173+4
 5311 19ee 5521     		movs	r1, #85
 5312 19f0 D154     		strb	r1, [r2, r3]
 524:.\pathfinder.c ****                instructions[counter + 1] = i - prev_intersection;
 5313              		.loc 1 524 0
 5314 19f2 07F51653 		add	r3, r7, #9600
 5315 19f6 03F13203 		add	r3, r3, #50
 5316 19fa 1B88     		ldrh	r3, [r3]
 5317 19fc 0133     		adds	r3, r3, #1
ARM GAS  C:\Users\Logan\AppData\Local\Temp\ccWP3ZaE.s 			page 104


 5318 19fe 07F51652 		add	r2, r7, #9600
 5319 1a02 02F12002 		add	r2, r2, #32
 5320 1a06 1268     		ldr	r2, [r2]
 5321 1a08 D1B2     		uxtb	r1, r2
 5322 1a0a 07F51652 		add	r2, r7, #9600
 5323 1a0e 02F13402 		add	r2, r2, #52
 5324 1a12 1268     		ldr	r2, [r2]
 5325 1a14 D2B2     		uxtb	r2, r2
 5326 1a16 8A1A     		subs	r2, r1, r2
 5327 1a18 D1B2     		uxtb	r1, r2
 5328 1a1a 0D4A     		ldr	r2, .L173+4
 5329 1a1c D154     		strb	r1, [r2, r3]
 525:.\pathfinder.c ****                counter+=2;
 5330              		.loc 1 525 0
 5331 1a1e 07F51653 		add	r3, r7, #9600
 5332 1a22 03F13203 		add	r3, r3, #50
 5333 1a26 1B88     		ldrh	r3, [r3]	@ movhi
 5334 1a28 0233     		adds	r3, r3, #2
 5335 1a2a 07F51652 		add	r2, r7, #9600
 5336 1a2e 02F13202 		add	r2, r2, #50
 5337 1a32 1380     		strh	r3, [r2]	@ movhi
 526:.\pathfinder.c ****                prev_intersection = i;
 5338              		.loc 1 526 0
 5339 1a34 07F51653 		add	r3, r7, #9600
 5340 1a38 03F12003 		add	r3, r3, #32
 5341 1a3c 1B68     		ldr	r3, [r3]
 5342 1a3e 07F51652 		add	r2, r7, #9600
 5343 1a42 02F13402 		add	r2, r2, #52
 5344 1a46 1360     		str	r3, [r2]
 489:.\pathfinder.c ****             if(path[i][DIR] != path[i + 1][DIR]){
 5345              		.loc 1 489 0
 5346 1a48 71E2     		b	.L119
 5347              	.L135:
 489:.\pathfinder.c ****             if(path[i][DIR] != path[i + 1][DIR]){
 5348              		.loc 1 489 0 is_stmt 0 discriminator 5
 5349 1a4a 70E2     		b	.L119
 5350              	.L174:
 5351              		.align	2
 5352              	.L173:
 5353 1a4c 00000000 		.word	path
 5354 1a50 00000000 		.word	instructions
 5355              	.L121:
 527:.\pathfinder.c ****             }else{
 528:.\pathfinder.c ****             //printf("3 [(%d), direction = %d] (%d, %d)\n", tmpCounter, path[i][DIR], path[i][Y] + 
 529:.\pathfinder.c ****          }
 530:.\pathfinder.c ****          }
 531:.\pathfinder.c ****       }else{
 532:.\pathfinder.c ****          if(map[path[i][Y] - 1][path[i][X]] == PATH || map[path[i][Y] + 1][path[i][X]] == PATH){
 5356              		.loc 1 532 0 is_stmt 1
 5357 1a54 A649     		ldr	r1, .L175
 5358 1a56 07F51653 		add	r3, r7, #9600
 5359 1a5a 03F12003 		add	r3, r3, #32
 5360 1a5e 1A68     		ldr	r2, [r3]
 5361 1a60 1346     		mov	r3, r2
 5362 1a62 5B00     		lsls	r3, r3, #1
 5363 1a64 1344     		add	r3, r3, r2
 5364 1a66 9B00     		lsls	r3, r3, #2
ARM GAS  C:\Users\Logan\AppData\Local\Temp\ccWP3ZaE.s 			page 105


 5365 1a68 0B44     		add	r3, r3, r1
 5366 1a6a 1B68     		ldr	r3, [r3]
 5367 1a6c 5A1E     		subs	r2, r3, #1
 5368 1a6e A048     		ldr	r0, .L175
 5369 1a70 07F51653 		add	r3, r7, #9600
 5370 1a74 03F12003 		add	r3, r3, #32
 5371 1a78 1968     		ldr	r1, [r3]
 5372 1a7a 0B46     		mov	r3, r1
 5373 1a7c 5B00     		lsls	r3, r3, #1
 5374 1a7e 0B44     		add	r3, r3, r1
 5375 1a80 9B00     		lsls	r3, r3, #2
 5376 1a82 0344     		add	r3, r3, r0
 5377 1a84 0433     		adds	r3, r3, #4
 5378 1a86 1968     		ldr	r1, [r3]
 5379 1a88 9A48     		ldr	r0, .L175+4
 5380 1a8a 1346     		mov	r3, r2
 5381 1a8c DB00     		lsls	r3, r3, #3
 5382 1a8e 1344     		add	r3, r3, r2
 5383 1a90 5B00     		lsls	r3, r3, #1
 5384 1a92 1344     		add	r3, r3, r2
 5385 1a94 0B44     		add	r3, r3, r1
 5386 1a96 50F82330 		ldr	r3, [r0, r3, lsl #2]
 5387 1a9a 002B     		cmp	r3, #0
 5388 1a9c 25D0     		beq	.L138
 5389              		.loc 1 532 0 is_stmt 0 discriminator 1
 5390 1a9e 9449     		ldr	r1, .L175
 5391 1aa0 07F51653 		add	r3, r7, #9600
 5392 1aa4 03F12003 		add	r3, r3, #32
 5393 1aa8 1A68     		ldr	r2, [r3]
 5394 1aaa 1346     		mov	r3, r2
 5395 1aac 5B00     		lsls	r3, r3, #1
 5396 1aae 1344     		add	r3, r3, r2
 5397 1ab0 9B00     		lsls	r3, r3, #2
 5398 1ab2 0B44     		add	r3, r3, r1
 5399 1ab4 1B68     		ldr	r3, [r3]
 5400 1ab6 5A1C     		adds	r2, r3, #1
 5401 1ab8 8D48     		ldr	r0, .L175
 5402 1aba 07F51653 		add	r3, r7, #9600
 5403 1abe 03F12003 		add	r3, r3, #32
 5404 1ac2 1968     		ldr	r1, [r3]
 5405 1ac4 0B46     		mov	r3, r1
 5406 1ac6 5B00     		lsls	r3, r3, #1
 5407 1ac8 0B44     		add	r3, r3, r1
 5408 1aca 9B00     		lsls	r3, r3, #2
 5409 1acc 0344     		add	r3, r3, r0
 5410 1ace 0433     		adds	r3, r3, #4
 5411 1ad0 1968     		ldr	r1, [r3]
 5412 1ad2 8848     		ldr	r0, .L175+4
 5413 1ad4 1346     		mov	r3, r2
 5414 1ad6 DB00     		lsls	r3, r3, #3
 5415 1ad8 1344     		add	r3, r3, r2
 5416 1ada 5B00     		lsls	r3, r3, #1
 5417 1adc 1344     		add	r3, r3, r2
 5418 1ade 0B44     		add	r3, r3, r1
 5419 1ae0 50F82330 		ldr	r3, [r0, r3, lsl #2]
 5420 1ae4 002B     		cmp	r3, #0
 5421 1ae6 40F0B181 		bne	.L139
ARM GAS  C:\Users\Logan\AppData\Local\Temp\ccWP3ZaE.s 			page 106


 5422              	.L138:
 533:.\pathfinder.c ****             if(path[i][DIR] != path[i + 1][DIR]){
 5423              		.loc 1 533 0 is_stmt 1
 5424 1aea 8149     		ldr	r1, .L175
 5425 1aec 07F51653 		add	r3, r7, #9600
 5426 1af0 03F12003 		add	r3, r3, #32
 5427 1af4 1A68     		ldr	r2, [r3]
 5428 1af6 1346     		mov	r3, r2
 5429 1af8 5B00     		lsls	r3, r3, #1
 5430 1afa 1344     		add	r3, r3, r2
 5431 1afc 9B00     		lsls	r3, r3, #2
 5432 1afe 0B44     		add	r3, r3, r1
 5433 1b00 0833     		adds	r3, r3, #8
 5434 1b02 1968     		ldr	r1, [r3]
 5435 1b04 07F51653 		add	r3, r7, #9600
 5436 1b08 03F12003 		add	r3, r3, #32
 5437 1b0c 1B68     		ldr	r3, [r3]
 5438 1b0e 5A1C     		adds	r2, r3, #1
 5439 1b10 7748     		ldr	r0, .L175
 5440 1b12 1346     		mov	r3, r2
 5441 1b14 5B00     		lsls	r3, r3, #1
 5442 1b16 1344     		add	r3, r3, r2
 5443 1b18 9B00     		lsls	r3, r3, #2
 5444 1b1a 0344     		add	r3, r3, r0
 5445 1b1c 0833     		adds	r3, r3, #8
 5446 1b1e 1B68     		ldr	r3, [r3]
 5447 1b20 9942     		cmp	r1, r3
 5448 1b22 00F05E81 		beq	.L140
 534:.\pathfinder.c ****                if((path[i][DIR] == 4 && path[i + 1][DIR] == 3) || (path[i][DIR] == 2 && path[i + 1]
 5449              		.loc 1 534 0
 5450 1b26 7249     		ldr	r1, .L175
 5451 1b28 07F51653 		add	r3, r7, #9600
 5452 1b2c 03F12003 		add	r3, r3, #32
 5453 1b30 1A68     		ldr	r2, [r3]
 5454 1b32 1346     		mov	r3, r2
 5455 1b34 5B00     		lsls	r3, r3, #1
 5456 1b36 1344     		add	r3, r3, r2
 5457 1b38 9B00     		lsls	r3, r3, #2
 5458 1b3a 0B44     		add	r3, r3, r1
 5459 1b3c 0833     		adds	r3, r3, #8
 5460 1b3e 1B68     		ldr	r3, [r3]
 5461 1b40 042B     		cmp	r3, #4
 5462 1b42 0FD1     		bne	.L141
 5463              		.loc 1 534 0 is_stmt 0 discriminator 1
 5464 1b44 07F51653 		add	r3, r7, #9600
 5465 1b48 03F12003 		add	r3, r3, #32
 5466 1b4c 1B68     		ldr	r3, [r3]
 5467 1b4e 5A1C     		adds	r2, r3, #1
 5468 1b50 6749     		ldr	r1, .L175
 5469 1b52 1346     		mov	r3, r2
 5470 1b54 5B00     		lsls	r3, r3, #1
 5471 1b56 1344     		add	r3, r3, r2
 5472 1b58 9B00     		lsls	r3, r3, #2
 5473 1b5a 0B44     		add	r3, r3, r1
 5474 1b5c 0833     		adds	r3, r3, #8
 5475 1b5e 1B68     		ldr	r3, [r3]
 5476 1b60 032B     		cmp	r3, #3
ARM GAS  C:\Users\Logan\AppData\Local\Temp\ccWP3ZaE.s 			page 107


 5477 1b62 1ED0     		beq	.L142
 5478              	.L141:
 5479              		.loc 1 534 0 discriminator 3
 5480 1b64 6249     		ldr	r1, .L175
 5481 1b66 07F51653 		add	r3, r7, #9600
 5482 1b6a 03F12003 		add	r3, r3, #32
 5483 1b6e 1A68     		ldr	r2, [r3]
 5484 1b70 1346     		mov	r3, r2
 5485 1b72 5B00     		lsls	r3, r3, #1
 5486 1b74 1344     		add	r3, r3, r2
 5487 1b76 9B00     		lsls	r3, r3, #2
 5488 1b78 0B44     		add	r3, r3, r1
 5489 1b7a 0833     		adds	r3, r3, #8
 5490 1b7c 1B68     		ldr	r3, [r3]
 5491 1b7e 022B     		cmp	r3, #2
 5492 1b80 43D1     		bne	.L143
 5493              		.loc 1 534 0 discriminator 4
 5494 1b82 07F51653 		add	r3, r7, #9600
 5495 1b86 03F12003 		add	r3, r3, #32
 5496 1b8a 1B68     		ldr	r3, [r3]
 5497 1b8c 5A1C     		adds	r2, r3, #1
 5498 1b8e 5849     		ldr	r1, .L175
 5499 1b90 1346     		mov	r3, r2
 5500 1b92 5B00     		lsls	r3, r3, #1
 5501 1b94 1344     		add	r3, r3, r2
 5502 1b96 9B00     		lsls	r3, r3, #2
 5503 1b98 0B44     		add	r3, r3, r1
 5504 1b9a 0833     		adds	r3, r3, #8
 5505 1b9c 1B68     		ldr	r3, [r3]
 5506 1b9e 012B     		cmp	r3, #1
 5507 1ba0 33D1     		bne	.L143
 5508              	.L142:
 535:.\pathfinder.c ****                   //printf("U/D intersection found (%d) [direction = %d] -- TURN LEFT (%d, %d)\n", 
 536:.\pathfinder.c ****                   instructions[counter] = LEFT;
 5509              		.loc 1 536 0 is_stmt 1
 5510 1ba2 07F51653 		add	r3, r7, #9600
 5511 1ba6 03F13203 		add	r3, r3, #50
 5512 1baa 1B88     		ldrh	r3, [r3]
 5513 1bac 524A     		ldr	r2, .L175+8
 5514 1bae 4C21     		movs	r1, #76
 5515 1bb0 D154     		strb	r1, [r2, r3]
 537:.\pathfinder.c ****                   instructions[counter + 1] = i - prev_intersection;
 5516              		.loc 1 537 0
 5517 1bb2 07F51653 		add	r3, r7, #9600
 5518 1bb6 03F13203 		add	r3, r3, #50
 5519 1bba 1B88     		ldrh	r3, [r3]
 5520 1bbc 0133     		adds	r3, r3, #1
 5521 1bbe 07F51652 		add	r2, r7, #9600
 5522 1bc2 02F12002 		add	r2, r2, #32
 5523 1bc6 1268     		ldr	r2, [r2]
 5524 1bc8 D1B2     		uxtb	r1, r2
 5525 1bca 07F51652 		add	r2, r7, #9600
 5526 1bce 02F13402 		add	r2, r2, #52
 5527 1bd2 1268     		ldr	r2, [r2]
 5528 1bd4 D2B2     		uxtb	r2, r2
 5529 1bd6 8A1A     		subs	r2, r1, r2
 5530 1bd8 D1B2     		uxtb	r1, r2
ARM GAS  C:\Users\Logan\AppData\Local\Temp\ccWP3ZaE.s 			page 108


 5531 1bda 474A     		ldr	r2, .L175+8
 5532 1bdc D154     		strb	r1, [r2, r3]
 538:.\pathfinder.c ****                   counter+=2;
 5533              		.loc 1 538 0
 5534 1bde 07F51653 		add	r3, r7, #9600
 5535 1be2 03F13203 		add	r3, r3, #50
 5536 1be6 1B88     		ldrh	r3, [r3]	@ movhi
 5537 1be8 0233     		adds	r3, r3, #2
 5538 1bea 07F51652 		add	r2, r7, #9600
 5539 1bee 02F13202 		add	r2, r2, #50
 5540 1bf2 1380     		strh	r3, [r2]	@ movhi
 539:.\pathfinder.c ****                   prev_intersection = i;
 5541              		.loc 1 539 0
 5542 1bf4 07F51653 		add	r3, r7, #9600
 5543 1bf8 03F12003 		add	r3, r3, #32
 5544 1bfc 1B68     		ldr	r3, [r3]
 5545 1bfe 07F51652 		add	r2, r7, #9600
 5546 1c02 02F13402 		add	r2, r2, #52
 5547 1c06 1360     		str	r3, [r2]
 5548 1c08 EAE0     		b	.L144
 5549              	.L143:
 540:.\pathfinder.c ****                }else if((path[i][DIR] == 4 && path[i + 1][DIR] == 1) || (path[i][DIR] == 2 && path[
 5550              		.loc 1 540 0
 5551 1c0a 3949     		ldr	r1, .L175
 5552 1c0c 07F51653 		add	r3, r7, #9600
 5553 1c10 03F12003 		add	r3, r3, #32
 5554 1c14 1A68     		ldr	r2, [r3]
 5555 1c16 1346     		mov	r3, r2
 5556 1c18 5B00     		lsls	r3, r3, #1
 5557 1c1a 1344     		add	r3, r3, r2
 5558 1c1c 9B00     		lsls	r3, r3, #2
 5559 1c1e 0B44     		add	r3, r3, r1
 5560 1c20 0833     		adds	r3, r3, #8
 5561 1c22 1B68     		ldr	r3, [r3]
 5562 1c24 042B     		cmp	r3, #4
 5563 1c26 0FD1     		bne	.L145
 5564              		.loc 1 540 0 is_stmt 0 discriminator 1
 5565 1c28 07F51653 		add	r3, r7, #9600
 5566 1c2c 03F12003 		add	r3, r3, #32
 5567 1c30 1B68     		ldr	r3, [r3]
 5568 1c32 5A1C     		adds	r2, r3, #1
 5569 1c34 2E49     		ldr	r1, .L175
 5570 1c36 1346     		mov	r3, r2
 5571 1c38 5B00     		lsls	r3, r3, #1
 5572 1c3a 1344     		add	r3, r3, r2
 5573 1c3c 9B00     		lsls	r3, r3, #2
 5574 1c3e 0B44     		add	r3, r3, r1
 5575 1c40 0833     		adds	r3, r3, #8
 5576 1c42 1B68     		ldr	r3, [r3]
 5577 1c44 012B     		cmp	r3, #1
 5578 1c46 1ED0     		beq	.L146
 5579              	.L145:
 5580              		.loc 1 540 0 discriminator 3
 5581 1c48 2949     		ldr	r1, .L175
 5582 1c4a 07F51653 		add	r3, r7, #9600
 5583 1c4e 03F12003 		add	r3, r3, #32
 5584 1c52 1A68     		ldr	r2, [r3]
ARM GAS  C:\Users\Logan\AppData\Local\Temp\ccWP3ZaE.s 			page 109


 5585 1c54 1346     		mov	r3, r2
 5586 1c56 5B00     		lsls	r3, r3, #1
 5587 1c58 1344     		add	r3, r3, r2
 5588 1c5a 9B00     		lsls	r3, r3, #2
 5589 1c5c 0B44     		add	r3, r3, r1
 5590 1c5e 0833     		adds	r3, r3, #8
 5591 1c60 1B68     		ldr	r3, [r3]
 5592 1c62 022B     		cmp	r3, #2
 5593 1c64 4AD1     		bne	.L147
 5594              		.loc 1 540 0 discriminator 4
 5595 1c66 07F51653 		add	r3, r7, #9600
 5596 1c6a 03F12003 		add	r3, r3, #32
 5597 1c6e 1B68     		ldr	r3, [r3]
 5598 1c70 5A1C     		adds	r2, r3, #1
 5599 1c72 1F49     		ldr	r1, .L175
 5600 1c74 1346     		mov	r3, r2
 5601 1c76 5B00     		lsls	r3, r3, #1
 5602 1c78 1344     		add	r3, r3, r2
 5603 1c7a 9B00     		lsls	r3, r3, #2
 5604 1c7c 0B44     		add	r3, r3, r1
 5605 1c7e 0833     		adds	r3, r3, #8
 5606 1c80 1B68     		ldr	r3, [r3]
 5607 1c82 032B     		cmp	r3, #3
 5608 1c84 3AD1     		bne	.L147
 5609              	.L146:
 541:.\pathfinder.c ****                   //printf("U/D intersection found (%d) [direction = %d] -- TURN RIGHT (%d, %d)\n",
 542:.\pathfinder.c ****                   instructions[counter] = RIGHT;
 5610              		.loc 1 542 0 is_stmt 1
 5611 1c86 07F51653 		add	r3, r7, #9600
 5612 1c8a 03F13203 		add	r3, r3, #50
 5613 1c8e 1B88     		ldrh	r3, [r3]
 5614 1c90 194A     		ldr	r2, .L175+8
 5615 1c92 5221     		movs	r1, #82
 5616 1c94 D154     		strb	r1, [r2, r3]
 543:.\pathfinder.c ****                   instructions[counter + 1] = i - prev_intersection;
 5617              		.loc 1 543 0
 5618 1c96 07F51653 		add	r3, r7, #9600
 5619 1c9a 03F13203 		add	r3, r3, #50
 5620 1c9e 1B88     		ldrh	r3, [r3]
 5621 1ca0 0133     		adds	r3, r3, #1
 5622 1ca2 07F51652 		add	r2, r7, #9600
 5623 1ca6 02F12002 		add	r2, r2, #32
 5624 1caa 1268     		ldr	r2, [r2]
 5625 1cac D1B2     		uxtb	r1, r2
 5626 1cae 07F51652 		add	r2, r7, #9600
 5627 1cb2 02F13402 		add	r2, r2, #52
 5628 1cb6 1268     		ldr	r2, [r2]
 5629 1cb8 D2B2     		uxtb	r2, r2
 5630 1cba 8A1A     		subs	r2, r1, r2
 5631 1cbc D1B2     		uxtb	r1, r2
 5632 1cbe 0E4A     		ldr	r2, .L175+8
 5633 1cc0 D154     		strb	r1, [r2, r3]
 544:.\pathfinder.c ****                   counter+=2;
 5634              		.loc 1 544 0
 5635 1cc2 07F51653 		add	r3, r7, #9600
 5636 1cc6 03F13203 		add	r3, r3, #50
 5637 1cca 1B88     		ldrh	r3, [r3]	@ movhi
ARM GAS  C:\Users\Logan\AppData\Local\Temp\ccWP3ZaE.s 			page 110


 5638 1ccc 0233     		adds	r3, r3, #2
 5639 1cce 07F51652 		add	r2, r7, #9600
 5640 1cd2 02F13202 		add	r2, r2, #50
 5641 1cd6 1380     		strh	r3, [r2]	@ movhi
 545:.\pathfinder.c ****                   prev_intersection = i;
 5642              		.loc 1 545 0
 5643 1cd8 07F51653 		add	r3, r7, #9600
 5644 1cdc 03F12003 		add	r3, r3, #32
 5645 1ce0 1B68     		ldr	r3, [r3]
 5646 1ce2 07F51652 		add	r2, r7, #9600
 5647 1ce6 02F13402 		add	r2, r2, #52
 5648 1cea 1360     		str	r3, [r2]
 5649 1cec 78E0     		b	.L144
 5650              	.L176:
 5651 1cee 00BF     		.align	2
 5652              	.L175:
 5653 1cf0 00000000 		.word	path
 5654 1cf4 00000000 		.word	map
 5655 1cf8 00000000 		.word	instructions
 5656              	.L147:
 546:.\pathfinder.c ****                }else if ((path[i][DIR] == 4 && path[i + 1][DIR] == 2) || (path[i][DIR] == 2 && path
 5657              		.loc 1 546 0
 5658 1cfc A749     		ldr	r1, .L177
 5659 1cfe 07F51653 		add	r3, r7, #9600
 5660 1d02 03F12003 		add	r3, r3, #32
 5661 1d06 1A68     		ldr	r2, [r3]
 5662 1d08 1346     		mov	r3, r2
 5663 1d0a 5B00     		lsls	r3, r3, #1
 5664 1d0c 1344     		add	r3, r3, r2
 5665 1d0e 9B00     		lsls	r3, r3, #2
 5666 1d10 0B44     		add	r3, r3, r1
 5667 1d12 0833     		adds	r3, r3, #8
 5668 1d14 1B68     		ldr	r3, [r3]
 5669 1d16 042B     		cmp	r3, #4
 5670 1d18 0FD1     		bne	.L148
 5671              		.loc 1 546 0 is_stmt 0 discriminator 1
 5672 1d1a 07F51653 		add	r3, r7, #9600
 5673 1d1e 03F12003 		add	r3, r3, #32
 5674 1d22 1B68     		ldr	r3, [r3]
 5675 1d24 5A1C     		adds	r2, r3, #1
 5676 1d26 9D49     		ldr	r1, .L177
 5677 1d28 1346     		mov	r3, r2
 5678 1d2a 5B00     		lsls	r3, r3, #1
 5679 1d2c 1344     		add	r3, r3, r2
 5680 1d2e 9B00     		lsls	r3, r3, #2
 5681 1d30 0B44     		add	r3, r3, r1
 5682 1d32 0833     		adds	r3, r3, #8
 5683 1d34 1B68     		ldr	r3, [r3]
 5684 1d36 022B     		cmp	r3, #2
 5685 1d38 1ED0     		beq	.L149
 5686              	.L148:
 5687              		.loc 1 546 0 discriminator 3
 5688 1d3a 9849     		ldr	r1, .L177
 5689 1d3c 07F51653 		add	r3, r7, #9600
 5690 1d40 03F12003 		add	r3, r3, #32
 5691 1d44 1A68     		ldr	r2, [r3]
 5692 1d46 1346     		mov	r3, r2
ARM GAS  C:\Users\Logan\AppData\Local\Temp\ccWP3ZaE.s 			page 111


 5693 1d48 5B00     		lsls	r3, r3, #1
 5694 1d4a 1344     		add	r3, r3, r2
 5695 1d4c 9B00     		lsls	r3, r3, #2
 5696 1d4e 0B44     		add	r3, r3, r1
 5697 1d50 0833     		adds	r3, r3, #8
 5698 1d52 1B68     		ldr	r3, [r3]
 5699 1d54 022B     		cmp	r3, #2
 5700 1d56 78D1     		bne	.L150
 5701              		.loc 1 546 0 discriminator 4
 5702 1d58 07F51653 		add	r3, r7, #9600
 5703 1d5c 03F12003 		add	r3, r3, #32
 5704 1d60 1B68     		ldr	r3, [r3]
 5705 1d62 5A1C     		adds	r2, r3, #1
 5706 1d64 8D49     		ldr	r1, .L177
 5707 1d66 1346     		mov	r3, r2
 5708 1d68 5B00     		lsls	r3, r3, #1
 5709 1d6a 1344     		add	r3, r3, r2
 5710 1d6c 9B00     		lsls	r3, r3, #2
 5711 1d6e 0B44     		add	r3, r3, r1
 5712 1d70 0833     		adds	r3, r3, #8
 5713 1d72 1B68     		ldr	r3, [r3]
 5714 1d74 042B     		cmp	r3, #4
 5715 1d76 68D1     		bne	.L150
 5716              	.L149:
 547:.\pathfinder.c ****                   //printf("3 U/D intersection found (%d) [direction = %d] -- TURN U-TURN (%d, %d)\
 548:.\pathfinder.c ****                   instructions[counter] = UTURN;
 5717              		.loc 1 548 0 is_stmt 1
 5718 1d78 07F51653 		add	r3, r7, #9600
 5719 1d7c 03F13203 		add	r3, r3, #50
 5720 1d80 1B88     		ldrh	r3, [r3]
 5721 1d82 874A     		ldr	r2, .L177+4
 5722 1d84 5521     		movs	r1, #85
 5723 1d86 D154     		strb	r1, [r2, r3]
 549:.\pathfinder.c ****                   instructions[counter + 1] = i - prev_intersection;
 5724              		.loc 1 549 0
 5725 1d88 07F51653 		add	r3, r7, #9600
 5726 1d8c 03F13203 		add	r3, r3, #50
 5727 1d90 1B88     		ldrh	r3, [r3]
 5728 1d92 0133     		adds	r3, r3, #1
 5729 1d94 07F51652 		add	r2, r7, #9600
 5730 1d98 02F12002 		add	r2, r2, #32
 5731 1d9c 1268     		ldr	r2, [r2]
 5732 1d9e D1B2     		uxtb	r1, r2
 5733 1da0 07F51652 		add	r2, r7, #9600
 5734 1da4 02F13402 		add	r2, r2, #52
 5735 1da8 1268     		ldr	r2, [r2]
 5736 1daa D2B2     		uxtb	r2, r2
 5737 1dac 8A1A     		subs	r2, r1, r2
 5738 1dae D1B2     		uxtb	r1, r2
 5739 1db0 7B4A     		ldr	r2, .L177+4
 5740 1db2 D154     		strb	r1, [r2, r3]
 550:.\pathfinder.c ****                   counter+=2;
 5741              		.loc 1 550 0
 5742 1db4 07F51653 		add	r3, r7, #9600
 5743 1db8 03F13203 		add	r3, r3, #50
 5744 1dbc 1B88     		ldrh	r3, [r3]	@ movhi
 5745 1dbe 0233     		adds	r3, r3, #2
ARM GAS  C:\Users\Logan\AppData\Local\Temp\ccWP3ZaE.s 			page 112


 5746 1dc0 07F51652 		add	r2, r7, #9600
 5747 1dc4 02F13202 		add	r2, r2, #50
 5748 1dc8 1380     		strh	r3, [r2]	@ movhi
 551:.\pathfinder.c ****                   prev_intersection = i;
 5749              		.loc 1 551 0
 5750 1dca 07F51653 		add	r3, r7, #9600
 5751 1dce 03F12003 		add	r3, r3, #32
 5752 1dd2 1B68     		ldr	r3, [r3]
 5753 1dd4 07F51652 		add	r2, r7, #9600
 5754 1dd8 02F13402 		add	r2, r2, #52
 5755 1ddc 1360     		str	r3, [r2]
 5756 1dde 34E0     		b	.L150
 5757              	.L144:
 5758 1de0 33E0     		b	.L150
 5759              	.L140:
 552:.\pathfinder.c ****                }else{
 553:.\pathfinder.c ****                  // printf("ERROR: -Prev %d, current %d || COUNTER: %d (%d, %d)\n", path[i + 1][DIR
 554:.\pathfinder.c ****                }
 555:.\pathfinder.c ****             }else{
 556:.\pathfinder.c ****                //printf("U/D intersection found (%d) [direction = %d] (%d, %d)\n", tmpCounter, path
 557:.\pathfinder.c ****                instructions[counter] = STRAIGHT;
 5760              		.loc 1 557 0
 5761 1de2 07F51653 		add	r3, r7, #9600
 5762 1de6 03F13203 		add	r3, r3, #50
 5763 1dea 1B88     		ldrh	r3, [r3]
 5764 1dec 6C4A     		ldr	r2, .L177+4
 5765 1dee 5321     		movs	r1, #83
 5766 1df0 D154     		strb	r1, [r2, r3]
 558:.\pathfinder.c ****                instructions[counter + 1] = i - prev_intersection;
 5767              		.loc 1 558 0
 5768 1df2 07F51653 		add	r3, r7, #9600
 5769 1df6 03F13203 		add	r3, r3, #50
 5770 1dfa 1B88     		ldrh	r3, [r3]
 5771 1dfc 0133     		adds	r3, r3, #1
 5772 1dfe 07F51652 		add	r2, r7, #9600
 5773 1e02 02F12002 		add	r2, r2, #32
 5774 1e06 1268     		ldr	r2, [r2]
 5775 1e08 D1B2     		uxtb	r1, r2
 5776 1e0a 07F51652 		add	r2, r7, #9600
 5777 1e0e 02F13402 		add	r2, r2, #52
 5778 1e12 1268     		ldr	r2, [r2]
 5779 1e14 D2B2     		uxtb	r2, r2
 5780 1e16 8A1A     		subs	r2, r1, r2
 5781 1e18 D1B2     		uxtb	r1, r2
 5782 1e1a 614A     		ldr	r2, .L177+4
 5783 1e1c D154     		strb	r1, [r2, r3]
 559:.\pathfinder.c ****                counter+=2;
 5784              		.loc 1 559 0
 5785 1e1e 07F51653 		add	r3, r7, #9600
 5786 1e22 03F13203 		add	r3, r3, #50
 5787 1e26 1B88     		ldrh	r3, [r3]	@ movhi
 5788 1e28 0233     		adds	r3, r3, #2
 5789 1e2a 07F51652 		add	r2, r7, #9600
 5790 1e2e 02F13202 		add	r2, r2, #50
 5791 1e32 1380     		strh	r3, [r2]	@ movhi
 560:.\pathfinder.c ****                prev_intersection = i;
 5792              		.loc 1 560 0
ARM GAS  C:\Users\Logan\AppData\Local\Temp\ccWP3ZaE.s 			page 113


 5793 1e34 07F51653 		add	r3, r7, #9600
 5794 1e38 03F12003 		add	r3, r3, #32
 5795 1e3c 1B68     		ldr	r3, [r3]
 5796 1e3e 07F51652 		add	r2, r7, #9600
 5797 1e42 02F13402 		add	r2, r2, #52
 5798 1e46 1360     		str	r3, [r2]
 533:.\pathfinder.c ****                if((path[i][DIR] == 4 && path[i + 1][DIR] == 3) || (path[i][DIR] == 2 && path[i + 1]
 5799              		.loc 1 533 0
 5800 1e48 71E0     		b	.L119
 5801              	.L150:
 533:.\pathfinder.c ****                if((path[i][DIR] == 4 && path[i + 1][DIR] == 3) || (path[i][DIR] == 2 && path[i + 1]
 5802              		.loc 1 533 0 is_stmt 0 discriminator 6
 5803 1e4a 70E0     		b	.L119
 5804              	.L139:
 561:.\pathfinder.c ****             }
 562:.\pathfinder.c **** 
 563:.\pathfinder.c ****          }else{
 564:.\pathfinder.c ****             if ((path[i][DIR] == 4 && path[i + 1][DIR] == 2) || (path[i][DIR] == 2 && path[i + 1][D
 5805              		.loc 1 564 0 is_stmt 1
 5806 1e4c 5349     		ldr	r1, .L177
 5807 1e4e 07F51653 		add	r3, r7, #9600
 5808 1e52 03F12003 		add	r3, r3, #32
 5809 1e56 1A68     		ldr	r2, [r3]
 5810 1e58 1346     		mov	r3, r2
 5811 1e5a 5B00     		lsls	r3, r3, #1
 5812 1e5c 1344     		add	r3, r3, r2
 5813 1e5e 9B00     		lsls	r3, r3, #2
 5814 1e60 0B44     		add	r3, r3, r1
 5815 1e62 0833     		adds	r3, r3, #8
 5816 1e64 1B68     		ldr	r3, [r3]
 5817 1e66 042B     		cmp	r3, #4
 5818 1e68 0FD1     		bne	.L151
 5819              		.loc 1 564 0 is_stmt 0 discriminator 1
 5820 1e6a 07F51653 		add	r3, r7, #9600
 5821 1e6e 03F12003 		add	r3, r3, #32
 5822 1e72 1B68     		ldr	r3, [r3]
 5823 1e74 5A1C     		adds	r2, r3, #1
 5824 1e76 4949     		ldr	r1, .L177
 5825 1e78 1346     		mov	r3, r2
 5826 1e7a 5B00     		lsls	r3, r3, #1
 5827 1e7c 1344     		add	r3, r3, r2
 5828 1e7e 9B00     		lsls	r3, r3, #2
 5829 1e80 0B44     		add	r3, r3, r1
 5830 1e82 0833     		adds	r3, r3, #8
 5831 1e84 1B68     		ldr	r3, [r3]
 5832 1e86 022B     		cmp	r3, #2
 5833 1e88 1ED0     		beq	.L152
 5834              	.L151:
 5835              		.loc 1 564 0 discriminator 3
 5836 1e8a 4449     		ldr	r1, .L177
 5837 1e8c 07F51653 		add	r3, r7, #9600
 5838 1e90 03F12003 		add	r3, r3, #32
 5839 1e94 1A68     		ldr	r2, [r3]
 5840 1e96 1346     		mov	r3, r2
 5841 1e98 5B00     		lsls	r3, r3, #1
 5842 1e9a 1344     		add	r3, r3, r2
 5843 1e9c 9B00     		lsls	r3, r3, #2
ARM GAS  C:\Users\Logan\AppData\Local\Temp\ccWP3ZaE.s 			page 114


 5844 1e9e 0B44     		add	r3, r3, r1
 5845 1ea0 0833     		adds	r3, r3, #8
 5846 1ea2 1B68     		ldr	r3, [r3]
 5847 1ea4 022B     		cmp	r3, #2
 5848 1ea6 42D1     		bne	.L119
 5849              		.loc 1 564 0 discriminator 4
 5850 1ea8 07F51653 		add	r3, r7, #9600
 5851 1eac 03F12003 		add	r3, r3, #32
 5852 1eb0 1B68     		ldr	r3, [r3]
 5853 1eb2 5A1C     		adds	r2, r3, #1
 5854 1eb4 3949     		ldr	r1, .L177
 5855 1eb6 1346     		mov	r3, r2
 5856 1eb8 5B00     		lsls	r3, r3, #1
 5857 1eba 1344     		add	r3, r3, r2
 5858 1ebc 9B00     		lsls	r3, r3, #2
 5859 1ebe 0B44     		add	r3, r3, r1
 5860 1ec0 0833     		adds	r3, r3, #8
 5861 1ec2 1B68     		ldr	r3, [r3]
 5862 1ec4 042B     		cmp	r3, #4
 5863 1ec6 32D1     		bne	.L119
 5864              	.L152:
 565:.\pathfinder.c ****                //printf("5 U/D intersection found (%d) [direction = %d] -- TURN U-TURN  (%d, %d)\n"
 566:.\pathfinder.c ****                instructions[counter] = UTURN;
 5865              		.loc 1 566 0 is_stmt 1
 5866 1ec8 07F51653 		add	r3, r7, #9600
 5867 1ecc 03F13203 		add	r3, r3, #50
 5868 1ed0 1B88     		ldrh	r3, [r3]
 5869 1ed2 334A     		ldr	r2, .L177+4
 5870 1ed4 5521     		movs	r1, #85
 5871 1ed6 D154     		strb	r1, [r2, r3]
 567:.\pathfinder.c ****                instructions[counter + 1] = i - prev_intersection;
 5872              		.loc 1 567 0
 5873 1ed8 07F51653 		add	r3, r7, #9600
 5874 1edc 03F13203 		add	r3, r3, #50
 5875 1ee0 1B88     		ldrh	r3, [r3]
 5876 1ee2 0133     		adds	r3, r3, #1
 5877 1ee4 07F51652 		add	r2, r7, #9600
 5878 1ee8 02F12002 		add	r2, r2, #32
 5879 1eec 1268     		ldr	r2, [r2]
 5880 1eee D1B2     		uxtb	r1, r2
 5881 1ef0 07F51652 		add	r2, r7, #9600
 5882 1ef4 02F13402 		add	r2, r2, #52
 5883 1ef8 1268     		ldr	r2, [r2]
 5884 1efa D2B2     		uxtb	r2, r2
 5885 1efc 8A1A     		subs	r2, r1, r2
 5886 1efe D1B2     		uxtb	r1, r2
 5887 1f00 274A     		ldr	r2, .L177+4
 5888 1f02 D154     		strb	r1, [r2, r3]
 568:.\pathfinder.c ****                counter+=2;
 5889              		.loc 1 568 0
 5890 1f04 07F51653 		add	r3, r7, #9600
 5891 1f08 03F13203 		add	r3, r3, #50
 5892 1f0c 1B88     		ldrh	r3, [r3]	@ movhi
 5893 1f0e 0233     		adds	r3, r3, #2
 5894 1f10 07F51652 		add	r2, r7, #9600
 5895 1f14 02F13202 		add	r2, r2, #50
 5896 1f18 1380     		strh	r3, [r2]	@ movhi
ARM GAS  C:\Users\Logan\AppData\Local\Temp\ccWP3ZaE.s 			page 115


 569:.\pathfinder.c ****                prev_intersection = i;
 5897              		.loc 1 569 0
 5898 1f1a 07F51653 		add	r3, r7, #9600
 5899 1f1e 03F12003 		add	r3, r3, #32
 5900 1f22 1B68     		ldr	r3, [r3]
 5901 1f24 07F51652 		add	r2, r7, #9600
 5902 1f28 02F13402 		add	r2, r2, #52
 5903 1f2c 1360     		str	r3, [r2]
 5904              	.L119:
 570:.\pathfinder.c ****             }else{
 571:.\pathfinder.c ****          }
 572:.\pathfinder.c ****          }
 573:.\pathfinder.c ****       }
 574:.\pathfinder.c ****     }
 575:.\pathfinder.c **** 
 576:.\pathfinder.c **** 
 577:.\pathfinder.c ****       tmpCounter++;
 5905              		.loc 1 577 0 discriminator 2
 5906 1f2e 07F51653 		add	r3, r7, #9600
 5907 1f32 03F12C03 		add	r3, r3, #44
 5908 1f36 1B68     		ldr	r3, [r3]
 5909 1f38 0133     		adds	r3, r3, #1
 5910 1f3a 07F51652 		add	r2, r7, #9600
 5911 1f3e 02F12C02 		add	r2, r2, #44
 5912 1f42 1360     		str	r3, [r2]
 350:.\pathfinder.c ****     skip = 0;
 5913              		.loc 1 350 0 discriminator 2
 5914 1f44 07F51653 		add	r3, r7, #9600
 5915 1f48 03F12003 		add	r3, r3, #32
 5916 1f4c 1B68     		ldr	r3, [r3]
 5917 1f4e 0133     		adds	r3, r3, #1
 5918 1f50 07F51652 		add	r2, r7, #9600
 5919 1f54 02F12002 		add	r2, r2, #32
 5920 1f58 1360     		str	r3, [r2]
 5921              	.L52:
 350:.\pathfinder.c ****     skip = 0;
 5922              		.loc 1 350 0 is_stmt 0 discriminator 1
 5923 1f5a 07F51653 		add	r3, r7, #9600
 5924 1f5e 03F12003 		add	r3, r3, #32
 5925 1f62 1A68     		ldr	r2, [r3]
 5926 1f64 07F51653 		add	r3, r7, #9600
 5927 1f68 03F11803 		add	r3, r3, #24
 5928 1f6c 1B68     		ldr	r3, [r3]
 5929 1f6e 9A42     		cmp	r2, r3
 5930 1f70 FEF68EA8 		blt	.L153
 578:.\pathfinder.c ****    }
 579:.\pathfinder.c **** 
 580:.\pathfinder.c ****    instructions[counter] = '\0';
 5931              		.loc 1 580 0 is_stmt 1
 5932 1f74 07F51653 		add	r3, r7, #9600
 5933 1f78 03F13203 		add	r3, r3, #50
 5934 1f7c 1B88     		ldrh	r3, [r3]
 5935 1f7e 084A     		ldr	r2, .L177+4
 5936 1f80 0021     		movs	r1, #0
 5937 1f82 D154     		strb	r1, [r2, r3]
 581:.\pathfinder.c ****    return counter;
 5938              		.loc 1 581 0
ARM GAS  C:\Users\Logan\AppData\Local\Temp\ccWP3ZaE.s 			page 116


 5939 1f84 07F51653 		add	r3, r7, #9600
 5940 1f88 03F13203 		add	r3, r3, #50
 5941 1f8c 1B88     		ldrh	r3, [r3]
 582:.\pathfinder.c **** }
 5942              		.loc 1 582 0
 5943 1f8e 1846     		mov	r0, r3
 5944 1f90 07F51657 		add	r7, r7, #9600
 5945 1f94 3C37     		adds	r7, r7, #60
 5946              		.cfi_def_cfa_offset 12
 5947 1f96 BD46     		mov	sp, r7
 5948              		.cfi_def_cfa_register 13
 5949              		@ sp needed
 5950 1f98 90BD     		pop	{r4, r7, pc}
 5951              	.L178:
 5952 1f9a 00BF     		.align	2
 5953              	.L177:
 5954 1f9c 00000000 		.word	path
 5955 1fa0 00000000 		.word	instructions
 5956              		.cfi_endproc
 5957              	.LFE65:
 5958              		.size	generateEntireMapDirections, .-generateEntireMapDirections
 5959              		.section	.rodata
 5960              		.align	2
 5961              	.LC0:
 5962 0000 70617468 		.ascii	"pathing from %d,%d to %d,%d from dir %d\015\012\000"
 5962      696E6720 
 5962      66726F6D 
 5962      2025642C 
 5962      25642074 
 5963 002a 0000     		.section	.text.generateDirections,"ax",%progbits
 5964              		.align	2
 5965              		.global	generateDirections
 5966              		.thumb
 5967              		.thumb_func
 5968              		.type	generateDirections, %function
 5969              	generateDirections:
 5970              	.LFB66:
 583:.\pathfinder.c **** 
 584:.\pathfinder.c **** 
 585:.\pathfinder.c **** uint32_t generateDirections(){
 5971              		.loc 1 585 0
 5972              		.cfi_startproc
 5973              		@ args = 0, pretend = 0, frame = 152
 5974              		@ frame_needed = 1, uses_anonymous_args = 0
 5975 0000 B0B5     		push	{r4, r5, r7, lr}
 5976              		.cfi_def_cfa_offset 16
 5977              		.cfi_offset 4, -16
 5978              		.cfi_offset 5, -12
 5979              		.cfi_offset 7, -8
 5980              		.cfi_offset 14, -4
 5981 0002 AAB0     		sub	sp, sp, #168
 5982              		.cfi_def_cfa_offset 184
 5983 0004 04AF     		add	r7, sp, #16
 5984              		.cfi_def_cfa 7, 168
 586:.\pathfinder.c ****    uint32_t counter = 0;
 5985              		.loc 1 586 0
 5986 0006 0023     		movs	r3, #0
ARM GAS  C:\Users\Logan\AppData\Local\Temp\ccWP3ZaE.s 			page 117


 5987 0008 C7F89430 		str	r3, [r7, #148]
 587:.\pathfinder.c ****    uint32_t prev_intersection = 0;
 5988              		.loc 1 587 0
 5989 000c 0023     		movs	r3, #0
 5990 000e C7F89030 		str	r3, [r7, #144]
 588:.\pathfinder.c ****    int food_count;
 589:.\pathfinder.c ****     
 590:.\pathfinder.c ****    for(food_count = 0; food_count < food_length; food_count++)
 5991              		.loc 1 590 0
 5992 0012 0023     		movs	r3, #0
 5993 0014 C7F88C30 		str	r3, [r7, #140]
 5994 0018 00F074BC 		b	.L180
 5995              	.L219:
 5996              	.LBB7:
 591:.\pathfinder.c **** {   
 592:.\pathfinder.c ****     prev_intersection = 0;
 5997              		.loc 1 592 0
 5998 001c 0023     		movs	r3, #0
 5999 001e C7F89030 		str	r3, [r7, #144]
 593:.\pathfinder.c ****     if(counter != 0)
 6000              		.loc 1 593 0
 6001 0022 D7F89430 		ldr	r3, [r7, #148]
 6002 0026 002B     		cmp	r3, #0
 6003 0028 07D0     		beq	.L181
 594:.\pathfinder.c ****     {
 595:.\pathfinder.c ****         start[0] = destination[0];
 6004              		.loc 1 595 0
 6005 002a B14B     		ldr	r3, .L221
 6006 002c 1B68     		ldr	r3, [r3]
 6007 002e B14A     		ldr	r2, .L221+4
 6008 0030 1360     		str	r3, [r2]
 596:.\pathfinder.c ****         start[1] = destination[1];
 6009              		.loc 1 596 0
 6010 0032 AF4B     		ldr	r3, .L221
 6011 0034 5B68     		ldr	r3, [r3, #4]
 6012 0036 AF4A     		ldr	r2, .L221+4
 6013 0038 5360     		str	r3, [r2, #4]
 6014              	.L181:
 597:.\pathfinder.c ****         
 598:.\pathfinder.c **** //        if(robot_direction != tracked_direction)
 599:.\pathfinder.c **** //        {
 600:.\pathfinder.c **** //            if((tracked_direction == (robot_direction - 1)) || ((tracked_direction == 3) && (robo
 601:.\pathfinder.c **** //            {
 602:.\pathfinder.c **** //                instructions[counter] = RIGHT;
 603:.\pathfinder.c **** //                counter++;
 604:.\pathfinder.c **** //            }
 605:.\pathfinder.c **** //            else if((tracked_direction == (robot_direction + 1)) || ((tracked_direction == 0) && 
 606:.\pathfinder.c **** //            {
 607:.\pathfinder.c **** //                instructions[counter] = LEFT;
 608:.\pathfinder.c **** //                counter++;
 609:.\pathfinder.c **** //            }
 610:.\pathfinder.c **** //        }
 611:.\pathfinder.c ****     }
 612:.\pathfinder.c ****     
 613:.\pathfinder.c ****     destination[0] = food_list[food_count][0];
 6015              		.loc 1 613 0
 6016 003a AF4A     		ldr	r2, .L221+8
ARM GAS  C:\Users\Logan\AppData\Local\Temp\ccWP3ZaE.s 			page 118


 6017 003c D7F88C30 		ldr	r3, [r7, #140]
 6018 0040 52F83330 		ldr	r3, [r2, r3, lsl #3]
 6019 0044 AA4A     		ldr	r2, .L221
 6020 0046 1360     		str	r3, [r2]
 614:.\pathfinder.c ****     destination[1] = food_list[food_count][1];
 6021              		.loc 1 614 0
 6022 0048 AB4A     		ldr	r2, .L221+8
 6023 004a D7F88C30 		ldr	r3, [r7, #140]
 6024 004e DB00     		lsls	r3, r3, #3
 6025 0050 1344     		add	r3, r3, r2
 6026 0052 5B68     		ldr	r3, [r3, #4]
 6027 0054 A64A     		ldr	r2, .L221
 6028 0056 5360     		str	r3, [r2, #4]
 615:.\pathfinder.c ****     
 616:.\pathfinder.c ****     char message[128];
 617:.\pathfinder.c ****     sprintf(message, "pathing from %d,%d to %d,%d from dir %d\r\n", start[0], start[1], destination
 6029              		.loc 1 617 0
 6030 0058 A64B     		ldr	r3, .L221+4
 6031 005a 1D68     		ldr	r5, [r3]
 6032 005c A54B     		ldr	r3, .L221+4
 6033 005e 5C68     		ldr	r4, [r3, #4]
 6034 0060 A34B     		ldr	r3, .L221
 6035 0062 1968     		ldr	r1, [r3]
 6036 0064 A24B     		ldr	r3, .L221
 6037 0066 5A68     		ldr	r2, [r3, #4]
 6038 0068 A44B     		ldr	r3, .L221+12
 6039 006a 1B68     		ldr	r3, [r3]
 6040 006c 381D     		adds	r0, r7, #4
 6041 006e 0091     		str	r1, [sp]
 6042 0070 0192     		str	r2, [sp, #4]
 6043 0072 0293     		str	r3, [sp, #8]
 6044 0074 A249     		ldr	r1, .L221+16
 6045 0076 2A46     		mov	r2, r5
 6046 0078 2346     		mov	r3, r4
 6047 007a FFF7FEFF 		bl	sprintf
 618:.\pathfinder.c ****     UART_PutString(message);
 6048              		.loc 1 618 0
 6049 007e 3B1D     		adds	r3, r7, #4
 6050 0080 1846     		mov	r0, r3
 6051 0082 FFF7FEFF 		bl	UART_PutString
 619:.\pathfinder.c ****     
 620:.\pathfinder.c ****    int end = djikstras(map, food_list, path, start, destination);
 6052              		.loc 1 620 0
 6053 0086 9A4B     		ldr	r3, .L221
 6054 0088 0093     		str	r3, [sp]
 6055 008a 9E48     		ldr	r0, .L221+20
 6056 008c 9A49     		ldr	r1, .L221+8
 6057 008e 9E4A     		ldr	r2, .L221+24
 6058 0090 984B     		ldr	r3, .L221+4
 6059 0092 FFF7FEFF 		bl	djikstras
 6060 0096 0346     		mov	r3, r0
 6061 0098 C7F88430 		str	r3, [r7, #132]
 621:.\pathfinder.c **** 
 622:.\pathfinder.c ****    int i;
 623:.\pathfinder.c ****    for(i = end; i >= 1; i--){
 6062              		.loc 1 623 0
 6063 009c D7F88430 		ldr	r3, [r7, #132]
ARM GAS  C:\Users\Logan\AppData\Local\Temp\ccWP3ZaE.s 			page 119


 6064 00a0 C7F88830 		str	r3, [r7, #136]
 6065 00a4 00F006BC 		b	.L182
 6066              	.L217:
 624:.\pathfinder.c ****       if(path[i][DIR] == 1 || path[i][DIR] == 3){
 6067              		.loc 1 624 0
 6068 00a8 9749     		ldr	r1, .L221+24
 6069 00aa D7F88820 		ldr	r2, [r7, #136]
 6070 00ae 1346     		mov	r3, r2
 6071 00b0 5B00     		lsls	r3, r3, #1
 6072 00b2 1344     		add	r3, r3, r2
 6073 00b4 9B00     		lsls	r3, r3, #2
 6074 00b6 0B44     		add	r3, r3, r1
 6075 00b8 0833     		adds	r3, r3, #8
 6076 00ba 1B68     		ldr	r3, [r3]
 6077 00bc 012B     		cmp	r3, #1
 6078 00be 0CD0     		beq	.L183
 6079              		.loc 1 624 0 is_stmt 0 discriminator 1
 6080 00c0 9149     		ldr	r1, .L221+24
 6081 00c2 D7F88820 		ldr	r2, [r7, #136]
 6082 00c6 1346     		mov	r3, r2
 6083 00c8 5B00     		lsls	r3, r3, #1
 6084 00ca 1344     		add	r3, r3, r2
 6085 00cc 9B00     		lsls	r3, r3, #2
 6086 00ce 0B44     		add	r3, r3, r1
 6087 00d0 0833     		adds	r3, r3, #8
 6088 00d2 1B68     		ldr	r3, [r3]
 6089 00d4 032B     		cmp	r3, #3
 6090 00d6 40F0FA81 		bne	.L184
 6091              	.L183:
 625:.\pathfinder.c ****          //There should be a check that it is within the map
 626:.\pathfinder.c ****          if(map[path[i][Y]][path[i][X] - 1] == PATH || map[path[i][Y]][path[i][X] + 1] == PATH){
 6092              		.loc 1 626 0 is_stmt 1
 6093 00da 8B49     		ldr	r1, .L221+24
 6094 00dc D7F88820 		ldr	r2, [r7, #136]
 6095 00e0 1346     		mov	r3, r2
 6096 00e2 5B00     		lsls	r3, r3, #1
 6097 00e4 1344     		add	r3, r3, r2
 6098 00e6 9B00     		lsls	r3, r3, #2
 6099 00e8 0B44     		add	r3, r3, r1
 6100 00ea 1A68     		ldr	r2, [r3]
 6101 00ec 8648     		ldr	r0, .L221+24
 6102 00ee D7F88810 		ldr	r1, [r7, #136]
 6103 00f2 0B46     		mov	r3, r1
 6104 00f4 5B00     		lsls	r3, r3, #1
 6105 00f6 0B44     		add	r3, r3, r1
 6106 00f8 9B00     		lsls	r3, r3, #2
 6107 00fa 0344     		add	r3, r3, r0
 6108 00fc 0433     		adds	r3, r3, #4
 6109 00fe 1B68     		ldr	r3, [r3]
 6110 0100 591E     		subs	r1, r3, #1
 6111 0102 8048     		ldr	r0, .L221+20
 6112 0104 1346     		mov	r3, r2
 6113 0106 DB00     		lsls	r3, r3, #3
 6114 0108 1344     		add	r3, r3, r2
 6115 010a 5B00     		lsls	r3, r3, #1
 6116 010c 1344     		add	r3, r3, r2
 6117 010e 0B44     		add	r3, r3, r1
ARM GAS  C:\Users\Logan\AppData\Local\Temp\ccWP3ZaE.s 			page 120


 6118 0110 50F82330 		ldr	r3, [r0, r3, lsl #2]
 6119 0114 002B     		cmp	r3, #0
 6120 0116 1FD0     		beq	.L185
 6121              		.loc 1 626 0 is_stmt 0 discriminator 1
 6122 0118 7B49     		ldr	r1, .L221+24
 6123 011a D7F88820 		ldr	r2, [r7, #136]
 6124 011e 1346     		mov	r3, r2
 6125 0120 5B00     		lsls	r3, r3, #1
 6126 0122 1344     		add	r3, r3, r2
 6127 0124 9B00     		lsls	r3, r3, #2
 6128 0126 0B44     		add	r3, r3, r1
 6129 0128 1A68     		ldr	r2, [r3]
 6130 012a 7748     		ldr	r0, .L221+24
 6131 012c D7F88810 		ldr	r1, [r7, #136]
 6132 0130 0B46     		mov	r3, r1
 6133 0132 5B00     		lsls	r3, r3, #1
 6134 0134 0B44     		add	r3, r3, r1
 6135 0136 9B00     		lsls	r3, r3, #2
 6136 0138 0344     		add	r3, r3, r0
 6137 013a 0433     		adds	r3, r3, #4
 6138 013c 1B68     		ldr	r3, [r3]
 6139 013e 591C     		adds	r1, r3, #1
 6140 0140 7048     		ldr	r0, .L221+20
 6141 0142 1346     		mov	r3, r2
 6142 0144 DB00     		lsls	r3, r3, #3
 6143 0146 1344     		add	r3, r3, r2
 6144 0148 5B00     		lsls	r3, r3, #1
 6145 014a 1344     		add	r3, r3, r2
 6146 014c 0B44     		add	r3, r3, r1
 6147 014e 50F82330 		ldr	r3, [r0, r3, lsl #2]
 6148 0152 002B     		cmp	r3, #0
 6149 0154 40F06081 		bne	.L186
 6150              	.L185:
 627:.\pathfinder.c ****             if(path[i][DIR] != path[i - 1][DIR]){
 6151              		.loc 1 627 0 is_stmt 1
 6152 0158 6B49     		ldr	r1, .L221+24
 6153 015a D7F88820 		ldr	r2, [r7, #136]
 6154 015e 1346     		mov	r3, r2
 6155 0160 5B00     		lsls	r3, r3, #1
 6156 0162 1344     		add	r3, r3, r2
 6157 0164 9B00     		lsls	r3, r3, #2
 6158 0166 0B44     		add	r3, r3, r1
 6159 0168 0833     		adds	r3, r3, #8
 6160 016a 1968     		ldr	r1, [r3]
 6161 016c D7F88830 		ldr	r3, [r7, #136]
 6162 0170 5A1E     		subs	r2, r3, #1
 6163 0172 6548     		ldr	r0, .L221+24
 6164 0174 1346     		mov	r3, r2
 6165 0176 5B00     		lsls	r3, r3, #1
 6166 0178 1344     		add	r3, r3, r2
 6167 017a 9B00     		lsls	r3, r3, #2
 6168 017c 0344     		add	r3, r3, r0
 6169 017e 0833     		adds	r3, r3, #8
 6170 0180 1B68     		ldr	r3, [r3]
 6171 0182 9942     		cmp	r1, r3
 6172 0184 00F01F81 		beq	.L187
 628:.\pathfinder.c ****                //current direction - the next direction > 0 turn left otherwise turn right
ARM GAS  C:\Users\Logan\AppData\Local\Temp\ccWP3ZaE.s 			page 121


 629:.\pathfinder.c ****                if((path[i][DIR] == 1 && path[i-1][DIR] == 4) || (path[i][DIR] == 3 && path[i-1][DIR
 6173              		.loc 1 629 0
 6174 0188 5F49     		ldr	r1, .L221+24
 6175 018a D7F88820 		ldr	r2, [r7, #136]
 6176 018e 1346     		mov	r3, r2
 6177 0190 5B00     		lsls	r3, r3, #1
 6178 0192 1344     		add	r3, r3, r2
 6179 0194 9B00     		lsls	r3, r3, #2
 6180 0196 0B44     		add	r3, r3, r1
 6181 0198 0833     		adds	r3, r3, #8
 6182 019a 1B68     		ldr	r3, [r3]
 6183 019c 012B     		cmp	r3, #1
 6184 019e 0CD1     		bne	.L188
 6185              		.loc 1 629 0 is_stmt 0 discriminator 1
 6186 01a0 D7F88830 		ldr	r3, [r7, #136]
 6187 01a4 5A1E     		subs	r2, r3, #1
 6188 01a6 5849     		ldr	r1, .L221+24
 6189 01a8 1346     		mov	r3, r2
 6190 01aa 5B00     		lsls	r3, r3, #1
 6191 01ac 1344     		add	r3, r3, r2
 6192 01ae 9B00     		lsls	r3, r3, #2
 6193 01b0 0B44     		add	r3, r3, r1
 6194 01b2 0833     		adds	r3, r3, #8
 6195 01b4 1B68     		ldr	r3, [r3]
 6196 01b6 042B     		cmp	r3, #4
 6197 01b8 18D0     		beq	.L189
 6198              	.L188:
 6199              		.loc 1 629 0 discriminator 3
 6200 01ba 5349     		ldr	r1, .L221+24
 6201 01bc D7F88820 		ldr	r2, [r7, #136]
 6202 01c0 1346     		mov	r3, r2
 6203 01c2 5B00     		lsls	r3, r3, #1
 6204 01c4 1344     		add	r3, r3, r2
 6205 01c6 9B00     		lsls	r3, r3, #2
 6206 01c8 0B44     		add	r3, r3, r1
 6207 01ca 0833     		adds	r3, r3, #8
 6208 01cc 1B68     		ldr	r3, [r3]
 6209 01ce 032B     		cmp	r3, #3
 6210 01d0 34D1     		bne	.L190
 6211              		.loc 1 629 0 discriminator 4
 6212 01d2 D7F88830 		ldr	r3, [r7, #136]
 6213 01d6 5A1E     		subs	r2, r3, #1
 6214 01d8 4B49     		ldr	r1, .L221+24
 6215 01da 1346     		mov	r3, r2
 6216 01dc 5B00     		lsls	r3, r3, #1
 6217 01de 1344     		add	r3, r3, r2
 6218 01e0 9B00     		lsls	r3, r3, #2
 6219 01e2 0B44     		add	r3, r3, r1
 6220 01e4 0833     		adds	r3, r3, #8
 6221 01e6 1B68     		ldr	r3, [r3]
 6222 01e8 022B     		cmp	r3, #2
 6223 01ea 27D1     		bne	.L190
 6224              	.L189:
 630:.\pathfinder.c ****                   //printf("L/R intersection found (%d) [direction = %d] -- TURN LEFT\n", end - i +
 631:.\pathfinder.c ****                   instructions[counter] = LEFT;
 6225              		.loc 1 631 0 is_stmt 1
 6226 01ec 474A     		ldr	r2, .L221+28
ARM GAS  C:\Users\Logan\AppData\Local\Temp\ccWP3ZaE.s 			page 122


 6227 01ee D7F89430 		ldr	r3, [r7, #148]
 6228 01f2 1344     		add	r3, r3, r2
 6229 01f4 4C22     		movs	r2, #76
 6230 01f6 1A70     		strb	r2, [r3]
 632:.\pathfinder.c ****                   instructions[counter + 1] = (end - i + 1 )- prev_intersection;
 6231              		.loc 1 632 0
 6232 01f8 D7F89430 		ldr	r3, [r7, #148]
 6233 01fc 0133     		adds	r3, r3, #1
 6234 01fe D7F88420 		ldr	r2, [r7, #132]
 6235 0202 D1B2     		uxtb	r1, r2
 6236 0204 D7F88820 		ldr	r2, [r7, #136]
 6237 0208 D2B2     		uxtb	r2, r2
 6238 020a 8A1A     		subs	r2, r1, r2
 6239 020c D1B2     		uxtb	r1, r2
 6240 020e D7F89020 		ldr	r2, [r7, #144]
 6241 0212 D2B2     		uxtb	r2, r2
 6242 0214 8A1A     		subs	r2, r1, r2
 6243 0216 D2B2     		uxtb	r2, r2
 6244 0218 0132     		adds	r2, r2, #1
 6245 021a D1B2     		uxtb	r1, r2
 6246 021c 3B4A     		ldr	r2, .L221+28
 6247 021e D154     		strb	r1, [r2, r3]
 633:.\pathfinder.c ****                   counter += 2;
 6248              		.loc 1 633 0
 6249 0220 D7F89430 		ldr	r3, [r7, #148]
 6250 0224 0233     		adds	r3, r3, #2
 6251 0226 C7F89430 		str	r3, [r7, #148]
 634:.\pathfinder.c ****                   prev_intersection = end - i + 1;//save the number of blocks travelled previously
 6252              		.loc 1 634 0
 6253 022a D7F88420 		ldr	r2, [r7, #132]
 6254 022e D7F88830 		ldr	r3, [r7, #136]
 6255 0232 D31A     		subs	r3, r2, r3
 6256 0234 0133     		adds	r3, r3, #1
 6257 0236 C7F89030 		str	r3, [r7, #144]
 6258 023a C3E0     		b	.L191
 6259              	.L190:
 635:.\pathfinder.c ****                }else if((path[i][DIR] == 1 && path[i-1][DIR] == 2) || (path[i][DIR] == 3 && path[i-
 6260              		.loc 1 635 0
 6261 023c 3249     		ldr	r1, .L221+24
 6262 023e D7F88820 		ldr	r2, [r7, #136]
 6263 0242 1346     		mov	r3, r2
 6264 0244 5B00     		lsls	r3, r3, #1
 6265 0246 1344     		add	r3, r3, r2
 6266 0248 9B00     		lsls	r3, r3, #2
 6267 024a 0B44     		add	r3, r3, r1
 6268 024c 0833     		adds	r3, r3, #8
 6269 024e 1B68     		ldr	r3, [r3]
 6270 0250 012B     		cmp	r3, #1
 6271 0252 0CD1     		bne	.L192
 6272              		.loc 1 635 0 is_stmt 0 discriminator 1
 6273 0254 D7F88830 		ldr	r3, [r7, #136]
 6274 0258 5A1E     		subs	r2, r3, #1
 6275 025a 2B49     		ldr	r1, .L221+24
 6276 025c 1346     		mov	r3, r2
 6277 025e 5B00     		lsls	r3, r3, #1
 6278 0260 1344     		add	r3, r3, r2
 6279 0262 9B00     		lsls	r3, r3, #2
ARM GAS  C:\Users\Logan\AppData\Local\Temp\ccWP3ZaE.s 			page 123


 6280 0264 0B44     		add	r3, r3, r1
 6281 0266 0833     		adds	r3, r3, #8
 6282 0268 1B68     		ldr	r3, [r3]
 6283 026a 022B     		cmp	r3, #2
 6284 026c 18D0     		beq	.L193
 6285              	.L192:
 6286              		.loc 1 635 0 discriminator 3
 6287 026e 2649     		ldr	r1, .L221+24
 6288 0270 D7F88820 		ldr	r2, [r7, #136]
 6289 0274 1346     		mov	r3, r2
 6290 0276 5B00     		lsls	r3, r3, #1
 6291 0278 1344     		add	r3, r3, r2
 6292 027a 9B00     		lsls	r3, r3, #2
 6293 027c 0B44     		add	r3, r3, r1
 6294 027e 0833     		adds	r3, r3, #8
 6295 0280 1B68     		ldr	r3, [r3]
 6296 0282 032B     		cmp	r3, #3
 6297 0284 44D1     		bne	.L194
 6298              		.loc 1 635 0 discriminator 4
 6299 0286 D7F88830 		ldr	r3, [r7, #136]
 6300 028a 5A1E     		subs	r2, r3, #1
 6301 028c 1E49     		ldr	r1, .L221+24
 6302 028e 1346     		mov	r3, r2
 6303 0290 5B00     		lsls	r3, r3, #1
 6304 0292 1344     		add	r3, r3, r2
 6305 0294 9B00     		lsls	r3, r3, #2
 6306 0296 0B44     		add	r3, r3, r1
 6307 0298 0833     		adds	r3, r3, #8
 6308 029a 1B68     		ldr	r3, [r3]
 6309 029c 042B     		cmp	r3, #4
 6310 029e 37D1     		bne	.L194
 6311              	.L193:
 636:.\pathfinder.c ****                   //printf("L/R intersection found (%d) [direction = %d] -- TURN RIGHT\n", end - i 
 637:.\pathfinder.c ****                   instructions[counter] = RIGHT;
 6312              		.loc 1 637 0 is_stmt 1
 6313 02a0 1A4A     		ldr	r2, .L221+28
 6314 02a2 D7F89430 		ldr	r3, [r7, #148]
 6315 02a6 1344     		add	r3, r3, r2
 6316 02a8 5222     		movs	r2, #82
 6317 02aa 1A70     		strb	r2, [r3]
 638:.\pathfinder.c ****                   instructions[counter + 1] = (end - i + 1 )- prev_intersection;
 6318              		.loc 1 638 0
 6319 02ac D7F89430 		ldr	r3, [r7, #148]
 6320 02b0 0133     		adds	r3, r3, #1
 6321 02b2 D7F88420 		ldr	r2, [r7, #132]
 6322 02b6 D1B2     		uxtb	r1, r2
 6323 02b8 D7F88820 		ldr	r2, [r7, #136]
 6324 02bc D2B2     		uxtb	r2, r2
 6325 02be 8A1A     		subs	r2, r1, r2
 6326 02c0 D1B2     		uxtb	r1, r2
 6327 02c2 D7F89020 		ldr	r2, [r7, #144]
 6328 02c6 D2B2     		uxtb	r2, r2
 6329 02c8 8A1A     		subs	r2, r1, r2
 6330 02ca D2B2     		uxtb	r2, r2
 6331 02cc 0132     		adds	r2, r2, #1
 6332 02ce D1B2     		uxtb	r1, r2
 6333 02d0 0E4A     		ldr	r2, .L221+28
ARM GAS  C:\Users\Logan\AppData\Local\Temp\ccWP3ZaE.s 			page 124


 6334 02d2 D154     		strb	r1, [r2, r3]
 639:.\pathfinder.c ****                   counter += 2;
 6335              		.loc 1 639 0
 6336 02d4 D7F89430 		ldr	r3, [r7, #148]
 6337 02d8 0233     		adds	r3, r3, #2
 6338 02da C7F89430 		str	r3, [r7, #148]
 640:.\pathfinder.c ****                   prev_intersection = end - i + 1;
 6339              		.loc 1 640 0
 6340 02de D7F88420 		ldr	r2, [r7, #132]
 6341 02e2 D7F88830 		ldr	r3, [r7, #136]
 6342 02e6 D31A     		subs	r3, r2, r3
 6343 02e8 0133     		adds	r3, r3, #1
 6344 02ea C7F89030 		str	r3, [r7, #144]
 6345 02ee 69E0     		b	.L191
 6346              	.L222:
 6347              		.align	2
 6348              	.L221:
 6349 02f0 00000000 		.word	destination
 6350 02f4 00000000 		.word	start
 6351 02f8 00000000 		.word	food_list
 6352 02fc 00000000 		.word	robot_direction
 6353 0300 00000000 		.word	.LC0
 6354 0304 00000000 		.word	map
 6355 0308 00000000 		.word	path
 6356 030c 00000000 		.word	instructions
 6357              	.L194:
 641:.\pathfinder.c ****                }else if ((path[i][DIR] == 1 && path[i-1][DIR] == 3) || (path[i][DIR] == 3 && path[i
 6358              		.loc 1 641 0
 6359 0310 C749     		ldr	r1, .L223
 6360 0312 D7F88820 		ldr	r2, [r7, #136]
 6361 0316 1346     		mov	r3, r2
 6362 0318 5B00     		lsls	r3, r3, #1
 6363 031a 1344     		add	r3, r3, r2
 6364 031c 9B00     		lsls	r3, r3, #2
 6365 031e 0B44     		add	r3, r3, r1
 6366 0320 0833     		adds	r3, r3, #8
 6367 0322 1B68     		ldr	r3, [r3]
 6368 0324 012B     		cmp	r3, #1
 6369 0326 0CD1     		bne	.L195
 6370              		.loc 1 641 0 is_stmt 0 discriminator 1
 6371 0328 D7F88830 		ldr	r3, [r7, #136]
 6372 032c 5A1E     		subs	r2, r3, #1
 6373 032e C049     		ldr	r1, .L223
 6374 0330 1346     		mov	r3, r2
 6375 0332 5B00     		lsls	r3, r3, #1
 6376 0334 1344     		add	r3, r3, r2
 6377 0336 9B00     		lsls	r3, r3, #2
 6378 0338 0B44     		add	r3, r3, r1
 6379 033a 0833     		adds	r3, r3, #8
 6380 033c 1B68     		ldr	r3, [r3]
 6381 033e 032B     		cmp	r3, #3
 6382 0340 18D0     		beq	.L196
 6383              	.L195:
 6384              		.loc 1 641 0 discriminator 3
 6385 0342 BB49     		ldr	r1, .L223
 6386 0344 D7F88820 		ldr	r2, [r7, #136]
 6387 0348 1346     		mov	r3, r2
ARM GAS  C:\Users\Logan\AppData\Local\Temp\ccWP3ZaE.s 			page 125


 6388 034a 5B00     		lsls	r3, r3, #1
 6389 034c 1344     		add	r3, r3, r2
 6390 034e 9B00     		lsls	r3, r3, #2
 6391 0350 0B44     		add	r3, r3, r1
 6392 0352 0833     		adds	r3, r3, #8
 6393 0354 1B68     		ldr	r3, [r3]
 6394 0356 032B     		cmp	r3, #3
 6395 0358 5DD1     		bne	.L197
 6396              		.loc 1 641 0 discriminator 4
 6397 035a D7F88830 		ldr	r3, [r7, #136]
 6398 035e 5A1E     		subs	r2, r3, #1
 6399 0360 B349     		ldr	r1, .L223
 6400 0362 1346     		mov	r3, r2
 6401 0364 5B00     		lsls	r3, r3, #1
 6402 0366 1344     		add	r3, r3, r2
 6403 0368 9B00     		lsls	r3, r3, #2
 6404 036a 0B44     		add	r3, r3, r1
 6405 036c 0833     		adds	r3, r3, #8
 6406 036e 1B68     		ldr	r3, [r3]
 6407 0370 012B     		cmp	r3, #1
 6408 0372 50D1     		bne	.L197
 6409              	.L196:
 642:.\pathfinder.c ****                   //printf("L/R intersection found (%d) [direction = %d] -- TURN U-TURN\n", end - i
 643:.\pathfinder.c ****                   instructions[counter] = UTURN;
 6410              		.loc 1 643 0 is_stmt 1
 6411 0374 AF4A     		ldr	r2, .L223+4
 6412 0376 D7F89430 		ldr	r3, [r7, #148]
 6413 037a 1344     		add	r3, r3, r2
 6414 037c 5522     		movs	r2, #85
 6415 037e 1A70     		strb	r2, [r3]
 644:.\pathfinder.c ****                   instructions[counter + 1] = (end - i + 1 )- prev_intersection;
 6416              		.loc 1 644 0
 6417 0380 D7F89430 		ldr	r3, [r7, #148]
 6418 0384 0133     		adds	r3, r3, #1
 6419 0386 D7F88420 		ldr	r2, [r7, #132]
 6420 038a D1B2     		uxtb	r1, r2
 6421 038c D7F88820 		ldr	r2, [r7, #136]
 6422 0390 D2B2     		uxtb	r2, r2
 6423 0392 8A1A     		subs	r2, r1, r2
 6424 0394 D1B2     		uxtb	r1, r2
 6425 0396 D7F89020 		ldr	r2, [r7, #144]
 6426 039a D2B2     		uxtb	r2, r2
 6427 039c 8A1A     		subs	r2, r1, r2
 6428 039e D2B2     		uxtb	r2, r2
 6429 03a0 0132     		adds	r2, r2, #1
 6430 03a2 D1B2     		uxtb	r1, r2
 6431 03a4 A34A     		ldr	r2, .L223+4
 6432 03a6 D154     		strb	r1, [r2, r3]
 645:.\pathfinder.c ****                   counter += 2;
 6433              		.loc 1 645 0
 6434 03a8 D7F89430 		ldr	r3, [r7, #148]
 6435 03ac 0233     		adds	r3, r3, #2
 6436 03ae C7F89430 		str	r3, [r7, #148]
 646:.\pathfinder.c ****                   prev_intersection = end - i + 1;
 6437              		.loc 1 646 0
 6438 03b2 D7F88420 		ldr	r2, [r7, #132]
 6439 03b6 D7F88830 		ldr	r3, [r7, #136]
ARM GAS  C:\Users\Logan\AppData\Local\Temp\ccWP3ZaE.s 			page 126


 6440 03ba D31A     		subs	r3, r2, r3
 6441 03bc 0133     		adds	r3, r3, #1
 6442 03be C7F89030 		str	r3, [r7, #144]
 6443 03c2 28E0     		b	.L197
 6444              	.L191:
 6445 03c4 27E0     		b	.L197
 6446              	.L187:
 647:.\pathfinder.c ****                }else{
 648:.\pathfinder.c ****                   //printf("Prev %d, current %d\n",path[i-1][DIR], path[i][DIR]);
 649:.\pathfinder.c ****                }
 650:.\pathfinder.c ****             }else{
 651:.\pathfinder.c ****                //printf("L/R intersection found (%d) [direction = %d]\n", end - i + 1, path[i][DIR]
 652:.\pathfinder.c ****                instructions[counter] = STRAIGHT;
 6447              		.loc 1 652 0
 6448 03c6 9B4A     		ldr	r2, .L223+4
 6449 03c8 D7F89430 		ldr	r3, [r7, #148]
 6450 03cc 1344     		add	r3, r3, r2
 6451 03ce 5322     		movs	r2, #83
 6452 03d0 1A70     		strb	r2, [r3]
 653:.\pathfinder.c ****                instructions[counter + 1] = (end - i + 1 )- prev_intersection;
 6453              		.loc 1 653 0
 6454 03d2 D7F89430 		ldr	r3, [r7, #148]
 6455 03d6 0133     		adds	r3, r3, #1
 6456 03d8 D7F88420 		ldr	r2, [r7, #132]
 6457 03dc D1B2     		uxtb	r1, r2
 6458 03de D7F88820 		ldr	r2, [r7, #136]
 6459 03e2 D2B2     		uxtb	r2, r2
 6460 03e4 8A1A     		subs	r2, r1, r2
 6461 03e6 D1B2     		uxtb	r1, r2
 6462 03e8 D7F89020 		ldr	r2, [r7, #144]
 6463 03ec D2B2     		uxtb	r2, r2
 6464 03ee 8A1A     		subs	r2, r1, r2
 6465 03f0 D2B2     		uxtb	r2, r2
 6466 03f2 0132     		adds	r2, r2, #1
 6467 03f4 D1B2     		uxtb	r1, r2
 6468 03f6 8F4A     		ldr	r2, .L223+4
 6469 03f8 D154     		strb	r1, [r2, r3]
 654:.\pathfinder.c ****                counter += 2;
 6470              		.loc 1 654 0
 6471 03fa D7F89430 		ldr	r3, [r7, #148]
 6472 03fe 0233     		adds	r3, r3, #2
 6473 0400 C7F89430 		str	r3, [r7, #148]
 655:.\pathfinder.c ****                prev_intersection = end - i + 1;
 6474              		.loc 1 655 0
 6475 0404 D7F88420 		ldr	r2, [r7, #132]
 6476 0408 D7F88830 		ldr	r3, [r7, #136]
 6477 040c D31A     		subs	r3, r2, r3
 6478 040e 0133     		adds	r3, r3, #1
 6479 0410 C7F89030 		str	r3, [r7, #144]
 627:.\pathfinder.c ****                //current direction - the next direction > 0 turn left otherwise turn right
 6480              		.loc 1 627 0
 6481 0414 5AE0     		b	.L198
 6482              	.L197:
 627:.\pathfinder.c ****                //current direction - the next direction > 0 turn left otherwise turn right
 6483              		.loc 1 627 0 is_stmt 0 discriminator 1
 6484 0416 59E0     		b	.L198
 6485              	.L186:
ARM GAS  C:\Users\Logan\AppData\Local\Temp\ccWP3ZaE.s 			page 127


 656:.\pathfinder.c ****             }
 657:.\pathfinder.c ****          }else{//not an intersection
 658:.\pathfinder.c ****             if ((path[i][DIR] == 1 && path[i-1][DIR] == 3) || (path[i][DIR] == 3 && path[i-1][DIR] 
 6486              		.loc 1 658 0 is_stmt 1
 6487 0418 8549     		ldr	r1, .L223
 6488 041a D7F88820 		ldr	r2, [r7, #136]
 6489 041e 1346     		mov	r3, r2
 6490 0420 5B00     		lsls	r3, r3, #1
 6491 0422 1344     		add	r3, r3, r2
 6492 0424 9B00     		lsls	r3, r3, #2
 6493 0426 0B44     		add	r3, r3, r1
 6494 0428 0833     		adds	r3, r3, #8
 6495 042a 1B68     		ldr	r3, [r3]
 6496 042c 012B     		cmp	r3, #1
 6497 042e 0CD1     		bne	.L199
 6498              		.loc 1 658 0 is_stmt 0 discriminator 1
 6499 0430 D7F88830 		ldr	r3, [r7, #136]
 6500 0434 5A1E     		subs	r2, r3, #1
 6501 0436 7E49     		ldr	r1, .L223
 6502 0438 1346     		mov	r3, r2
 6503 043a 5B00     		lsls	r3, r3, #1
 6504 043c 1344     		add	r3, r3, r2
 6505 043e 9B00     		lsls	r3, r3, #2
 6506 0440 0B44     		add	r3, r3, r1
 6507 0442 0833     		adds	r3, r3, #8
 6508 0444 1B68     		ldr	r3, [r3]
 6509 0446 032B     		cmp	r3, #3
 6510 0448 18D0     		beq	.L200
 6511              	.L199:
 6512              		.loc 1 658 0 discriminator 3
 6513 044a 7949     		ldr	r1, .L223
 6514 044c D7F88820 		ldr	r2, [r7, #136]
 6515 0450 1346     		mov	r3, r2
 6516 0452 5B00     		lsls	r3, r3, #1
 6517 0454 1344     		add	r3, r3, r2
 6518 0456 9B00     		lsls	r3, r3, #2
 6519 0458 0B44     		add	r3, r3, r1
 6520 045a 0833     		adds	r3, r3, #8
 6521 045c 1B68     		ldr	r3, [r3]
 6522 045e 032B     		cmp	r3, #3
 6523 0460 34D1     		bne	.L198
 6524              		.loc 1 658 0 discriminator 4
 6525 0462 D7F88830 		ldr	r3, [r7, #136]
 6526 0466 5A1E     		subs	r2, r3, #1
 6527 0468 7149     		ldr	r1, .L223
 6528 046a 1346     		mov	r3, r2
 6529 046c 5B00     		lsls	r3, r3, #1
 6530 046e 1344     		add	r3, r3, r2
 6531 0470 9B00     		lsls	r3, r3, #2
 6532 0472 0B44     		add	r3, r3, r1
 6533 0474 0833     		adds	r3, r3, #8
 6534 0476 1B68     		ldr	r3, [r3]
 6535 0478 012B     		cmp	r3, #1
 6536 047a 27D1     		bne	.L198
 6537              	.L200:
 659:.\pathfinder.c ****                //printf("L/R intersection found (%d) [direction = %d] -- TURN U-TURN\n", end - i + 
 660:.\pathfinder.c ****                instructions[counter] = UTURN;
ARM GAS  C:\Users\Logan\AppData\Local\Temp\ccWP3ZaE.s 			page 128


 6538              		.loc 1 660 0 is_stmt 1
 6539 047c 6D4A     		ldr	r2, .L223+4
 6540 047e D7F89430 		ldr	r3, [r7, #148]
 6541 0482 1344     		add	r3, r3, r2
 6542 0484 5522     		movs	r2, #85
 6543 0486 1A70     		strb	r2, [r3]
 661:.\pathfinder.c ****                instructions[counter + 1] = (end - i + 1 )- prev_intersection;
 6544              		.loc 1 661 0
 6545 0488 D7F89430 		ldr	r3, [r7, #148]
 6546 048c 0133     		adds	r3, r3, #1
 6547 048e D7F88420 		ldr	r2, [r7, #132]
 6548 0492 D1B2     		uxtb	r1, r2
 6549 0494 D7F88820 		ldr	r2, [r7, #136]
 6550 0498 D2B2     		uxtb	r2, r2
 6551 049a 8A1A     		subs	r2, r1, r2
 6552 049c D1B2     		uxtb	r1, r2
 6553 049e D7F89020 		ldr	r2, [r7, #144]
 6554 04a2 D2B2     		uxtb	r2, r2
 6555 04a4 8A1A     		subs	r2, r1, r2
 6556 04a6 D2B2     		uxtb	r2, r2
 6557 04a8 0132     		adds	r2, r2, #1
 6558 04aa D1B2     		uxtb	r1, r2
 6559 04ac 614A     		ldr	r2, .L223+4
 6560 04ae D154     		strb	r1, [r2, r3]
 662:.\pathfinder.c ****                counter += 2;
 6561              		.loc 1 662 0
 6562 04b0 D7F89430 		ldr	r3, [r7, #148]
 6563 04b4 0233     		adds	r3, r3, #2
 6564 04b6 C7F89430 		str	r3, [r7, #148]
 663:.\pathfinder.c ****                prev_intersection = end - i + 1;
 6565              		.loc 1 663 0
 6566 04ba D7F88420 		ldr	r2, [r7, #132]
 6567 04be D7F88830 		ldr	r3, [r7, #136]
 6568 04c2 D31A     		subs	r3, r2, r3
 6569 04c4 0133     		adds	r3, r3, #1
 6570 04c6 C7F89030 		str	r3, [r7, #144]
 626:.\pathfinder.c ****             if(path[i][DIR] != path[i - 1][DIR]){
 6571              		.loc 1 626 0
 6572 04ca EEE1     		b	.L201
 6573              	.L198:
 626:.\pathfinder.c ****             if(path[i][DIR] != path[i - 1][DIR]){
 6574              		.loc 1 626 0 is_stmt 0 discriminator 2
 6575 04cc EDE1     		b	.L201
 6576              	.L184:
 664:.\pathfinder.c ****             }else{
 665:.\pathfinder.c ****             //printf("[(%d), direction = %d]\n", end - i + 1, path[i][DIR]);
 666:.\pathfinder.c ****          }
 667:.\pathfinder.c ****          }
 668:.\pathfinder.c ****       }else{
 669:.\pathfinder.c ****          if(map[path[i][Y] - 1][path[i][X]] == PATH || map[path[i][Y] + 1][path[i][X]] == PATH){
 6577              		.loc 1 669 0 is_stmt 1
 6578 04ce 5849     		ldr	r1, .L223
 6579 04d0 D7F88820 		ldr	r2, [r7, #136]
 6580 04d4 1346     		mov	r3, r2
 6581 04d6 5B00     		lsls	r3, r3, #1
 6582 04d8 1344     		add	r3, r3, r2
 6583 04da 9B00     		lsls	r3, r3, #2
ARM GAS  C:\Users\Logan\AppData\Local\Temp\ccWP3ZaE.s 			page 129


 6584 04dc 0B44     		add	r3, r3, r1
 6585 04de 1B68     		ldr	r3, [r3]
 6586 04e0 5A1E     		subs	r2, r3, #1
 6587 04e2 5348     		ldr	r0, .L223
 6588 04e4 D7F88810 		ldr	r1, [r7, #136]
 6589 04e8 0B46     		mov	r3, r1
 6590 04ea 5B00     		lsls	r3, r3, #1
 6591 04ec 0B44     		add	r3, r3, r1
 6592 04ee 9B00     		lsls	r3, r3, #2
 6593 04f0 0344     		add	r3, r3, r0
 6594 04f2 0433     		adds	r3, r3, #4
 6595 04f4 1968     		ldr	r1, [r3]
 6596 04f6 5048     		ldr	r0, .L223+8
 6597 04f8 1346     		mov	r3, r2
 6598 04fa DB00     		lsls	r3, r3, #3
 6599 04fc 1344     		add	r3, r3, r2
 6600 04fe 5B00     		lsls	r3, r3, #1
 6601 0500 1344     		add	r3, r3, r2
 6602 0502 0B44     		add	r3, r3, r1
 6603 0504 50F82330 		ldr	r3, [r0, r3, lsl #2]
 6604 0508 002B     		cmp	r3, #0
 6605 050a 1FD0     		beq	.L202
 6606              		.loc 1 669 0 is_stmt 0 discriminator 1
 6607 050c 4849     		ldr	r1, .L223
 6608 050e D7F88820 		ldr	r2, [r7, #136]
 6609 0512 1346     		mov	r3, r2
 6610 0514 5B00     		lsls	r3, r3, #1
 6611 0516 1344     		add	r3, r3, r2
 6612 0518 9B00     		lsls	r3, r3, #2
 6613 051a 0B44     		add	r3, r3, r1
 6614 051c 1B68     		ldr	r3, [r3]
 6615 051e 5A1C     		adds	r2, r3, #1
 6616 0520 4348     		ldr	r0, .L223
 6617 0522 D7F88810 		ldr	r1, [r7, #136]
 6618 0526 0B46     		mov	r3, r1
 6619 0528 5B00     		lsls	r3, r3, #1
 6620 052a 0B44     		add	r3, r3, r1
 6621 052c 9B00     		lsls	r3, r3, #2
 6622 052e 0344     		add	r3, r3, r0
 6623 0530 0433     		adds	r3, r3, #4
 6624 0532 1968     		ldr	r1, [r3]
 6625 0534 4048     		ldr	r0, .L223+8
 6626 0536 1346     		mov	r3, r2
 6627 0538 DB00     		lsls	r3, r3, #3
 6628 053a 1344     		add	r3, r3, r2
 6629 053c 5B00     		lsls	r3, r3, #1
 6630 053e 1344     		add	r3, r3, r2
 6631 0540 0B44     		add	r3, r3, r1
 6632 0542 50F82330 		ldr	r3, [r0, r3, lsl #2]
 6633 0546 002B     		cmp	r3, #0
 6634 0548 40F05681 		bne	.L203
 6635              	.L202:
 670:.\pathfinder.c ****             if(path[i][DIR] != path[i - 1][DIR]){
 6636              		.loc 1 670 0 is_stmt 1
 6637 054c 3849     		ldr	r1, .L223
 6638 054e D7F88820 		ldr	r2, [r7, #136]
 6639 0552 1346     		mov	r3, r2
ARM GAS  C:\Users\Logan\AppData\Local\Temp\ccWP3ZaE.s 			page 130


 6640 0554 5B00     		lsls	r3, r3, #1
 6641 0556 1344     		add	r3, r3, r2
 6642 0558 9B00     		lsls	r3, r3, #2
 6643 055a 0B44     		add	r3, r3, r1
 6644 055c 0833     		adds	r3, r3, #8
 6645 055e 1968     		ldr	r1, [r3]
 6646 0560 D7F88830 		ldr	r3, [r7, #136]
 6647 0564 5A1E     		subs	r2, r3, #1
 6648 0566 3248     		ldr	r0, .L223
 6649 0568 1346     		mov	r3, r2
 6650 056a 5B00     		lsls	r3, r3, #1
 6651 056c 1344     		add	r3, r3, r2
 6652 056e 9B00     		lsls	r3, r3, #2
 6653 0570 0344     		add	r3, r3, r0
 6654 0572 0833     		adds	r3, r3, #8
 6655 0574 1B68     		ldr	r3, [r3]
 6656 0576 9942     		cmp	r1, r3
 6657 0578 00F01581 		beq	.L204
 671:.\pathfinder.c ****                if((path[i][DIR] == 4 && path[i-1][DIR] == 3) || (path[i][DIR] == 2 && path[i-1][DIR
 6658              		.loc 1 671 0
 6659 057c 2C49     		ldr	r1, .L223
 6660 057e D7F88820 		ldr	r2, [r7, #136]
 6661 0582 1346     		mov	r3, r2
 6662 0584 5B00     		lsls	r3, r3, #1
 6663 0586 1344     		add	r3, r3, r2
 6664 0588 9B00     		lsls	r3, r3, #2
 6665 058a 0B44     		add	r3, r3, r1
 6666 058c 0833     		adds	r3, r3, #8
 6667 058e 1B68     		ldr	r3, [r3]
 6668 0590 042B     		cmp	r3, #4
 6669 0592 0CD1     		bne	.L205
 6670              		.loc 1 671 0 is_stmt 0 discriminator 1
 6671 0594 D7F88830 		ldr	r3, [r7, #136]
 6672 0598 5A1E     		subs	r2, r3, #1
 6673 059a 2549     		ldr	r1, .L223
 6674 059c 1346     		mov	r3, r2
 6675 059e 5B00     		lsls	r3, r3, #1
 6676 05a0 1344     		add	r3, r3, r2
 6677 05a2 9B00     		lsls	r3, r3, #2
 6678 05a4 0B44     		add	r3, r3, r1
 6679 05a6 0833     		adds	r3, r3, #8
 6680 05a8 1B68     		ldr	r3, [r3]
 6681 05aa 032B     		cmp	r3, #3
 6682 05ac 18D0     		beq	.L206
 6683              	.L205:
 6684              		.loc 1 671 0 discriminator 3
 6685 05ae 2049     		ldr	r1, .L223
 6686 05b0 D7F88820 		ldr	r2, [r7, #136]
 6687 05b4 1346     		mov	r3, r2
 6688 05b6 5B00     		lsls	r3, r3, #1
 6689 05b8 1344     		add	r3, r3, r2
 6690 05ba 9B00     		lsls	r3, r3, #2
 6691 05bc 0B44     		add	r3, r3, r1
 6692 05be 0833     		adds	r3, r3, #8
 6693 05c0 1B68     		ldr	r3, [r3]
 6694 05c2 022B     		cmp	r3, #2
 6695 05c4 3AD1     		bne	.L207
ARM GAS  C:\Users\Logan\AppData\Local\Temp\ccWP3ZaE.s 			page 131


 6696              		.loc 1 671 0 discriminator 4
 6697 05c6 D7F88830 		ldr	r3, [r7, #136]
 6698 05ca 5A1E     		subs	r2, r3, #1
 6699 05cc 1849     		ldr	r1, .L223
 6700 05ce 1346     		mov	r3, r2
 6701 05d0 5B00     		lsls	r3, r3, #1
 6702 05d2 1344     		add	r3, r3, r2
 6703 05d4 9B00     		lsls	r3, r3, #2
 6704 05d6 0B44     		add	r3, r3, r1
 6705 05d8 0833     		adds	r3, r3, #8
 6706 05da 1B68     		ldr	r3, [r3]
 6707 05dc 012B     		cmp	r3, #1
 6708 05de 2DD1     		bne	.L207
 6709              	.L206:
 672:.\pathfinder.c ****                   //printf("U/D intersection found (%d) [direction = %d] -- TURN LEFT\n", end - i +
 673:.\pathfinder.c ****                   instructions[counter] = LEFT;
 6710              		.loc 1 673 0 is_stmt 1
 6711 05e0 144A     		ldr	r2, .L223+4
 6712 05e2 D7F89430 		ldr	r3, [r7, #148]
 6713 05e6 1344     		add	r3, r3, r2
 6714 05e8 4C22     		movs	r2, #76
 6715 05ea 1A70     		strb	r2, [r3]
 674:.\pathfinder.c ****                   instructions[counter + 1] = (end - i + 1 )- prev_intersection;
 6716              		.loc 1 674 0
 6717 05ec D7F89430 		ldr	r3, [r7, #148]
 6718 05f0 0133     		adds	r3, r3, #1
 6719 05f2 D7F88420 		ldr	r2, [r7, #132]
 6720 05f6 D1B2     		uxtb	r1, r2
 6721 05f8 D7F88820 		ldr	r2, [r7, #136]
 6722 05fc D2B2     		uxtb	r2, r2
 6723 05fe 8A1A     		subs	r2, r1, r2
 6724 0600 D1B2     		uxtb	r1, r2
 6725 0602 D7F89020 		ldr	r2, [r7, #144]
 6726 0606 D2B2     		uxtb	r2, r2
 6727 0608 8A1A     		subs	r2, r1, r2
 6728 060a D2B2     		uxtb	r2, r2
 6729 060c 0132     		adds	r2, r2, #1
 6730 060e D1B2     		uxtb	r1, r2
 6731 0610 084A     		ldr	r2, .L223+4
 6732 0612 D154     		strb	r1, [r2, r3]
 675:.\pathfinder.c ****                   counter += 2;
 6733              		.loc 1 675 0
 6734 0614 D7F89430 		ldr	r3, [r7, #148]
 6735 0618 0233     		adds	r3, r3, #2
 6736 061a C7F89430 		str	r3, [r7, #148]
 676:.\pathfinder.c ****                   prev_intersection = end - i + 1;
 6737              		.loc 1 676 0
 6738 061e D7F88420 		ldr	r2, [r7, #132]
 6739 0622 D7F88830 		ldr	r3, [r7, #136]
 6740 0626 D31A     		subs	r3, r2, r3
 6741 0628 0133     		adds	r3, r3, #1
 6742 062a C7F89030 		str	r3, [r7, #144]
 6743 062e B9E0     		b	.L208
 6744              	.L224:
 6745              		.align	2
 6746              	.L223:
 6747 0630 00000000 		.word	path
ARM GAS  C:\Users\Logan\AppData\Local\Temp\ccWP3ZaE.s 			page 132


 6748 0634 00000000 		.word	instructions
 6749 0638 00000000 		.word	map
 6750              	.L207:
 677:.\pathfinder.c ****                }else if((path[i][DIR] == 4 && path[i-1][DIR] == 1) || (path[i][DIR] == 2 && path[i-
 6751              		.loc 1 677 0
 6752 063c B849     		ldr	r1, .L225
 6753 063e D7F88820 		ldr	r2, [r7, #136]
 6754 0642 1346     		mov	r3, r2
 6755 0644 5B00     		lsls	r3, r3, #1
 6756 0646 1344     		add	r3, r3, r2
 6757 0648 9B00     		lsls	r3, r3, #2
 6758 064a 0B44     		add	r3, r3, r1
 6759 064c 0833     		adds	r3, r3, #8
 6760 064e 1B68     		ldr	r3, [r3]
 6761 0650 042B     		cmp	r3, #4
 6762 0652 0CD1     		bne	.L209
 6763              		.loc 1 677 0 is_stmt 0 discriminator 1
 6764 0654 D7F88830 		ldr	r3, [r7, #136]
 6765 0658 5A1E     		subs	r2, r3, #1
 6766 065a B149     		ldr	r1, .L225
 6767 065c 1346     		mov	r3, r2
 6768 065e 5B00     		lsls	r3, r3, #1
 6769 0660 1344     		add	r3, r3, r2
 6770 0662 9B00     		lsls	r3, r3, #2
 6771 0664 0B44     		add	r3, r3, r1
 6772 0666 0833     		adds	r3, r3, #8
 6773 0668 1B68     		ldr	r3, [r3]
 6774 066a 012B     		cmp	r3, #1
 6775 066c 18D0     		beq	.L210
 6776              	.L209:
 6777              		.loc 1 677 0 discriminator 3
 6778 066e AC49     		ldr	r1, .L225
 6779 0670 D7F88820 		ldr	r2, [r7, #136]
 6780 0674 1346     		mov	r3, r2
 6781 0676 5B00     		lsls	r3, r3, #1
 6782 0678 1344     		add	r3, r3, r2
 6783 067a 9B00     		lsls	r3, r3, #2
 6784 067c 0B44     		add	r3, r3, r1
 6785 067e 0833     		adds	r3, r3, #8
 6786 0680 1B68     		ldr	r3, [r3]
 6787 0682 022B     		cmp	r3, #2
 6788 0684 34D1     		bne	.L211
 6789              		.loc 1 677 0 discriminator 4
 6790 0686 D7F88830 		ldr	r3, [r7, #136]
 6791 068a 5A1E     		subs	r2, r3, #1
 6792 068c A449     		ldr	r1, .L225
 6793 068e 1346     		mov	r3, r2
 6794 0690 5B00     		lsls	r3, r3, #1
 6795 0692 1344     		add	r3, r3, r2
 6796 0694 9B00     		lsls	r3, r3, #2
 6797 0696 0B44     		add	r3, r3, r1
 6798 0698 0833     		adds	r3, r3, #8
 6799 069a 1B68     		ldr	r3, [r3]
 6800 069c 032B     		cmp	r3, #3
 6801 069e 27D1     		bne	.L211
 6802              	.L210:
 678:.\pathfinder.c ****                   //printf("U/D intersection found (%d) [direction = %d] -- TURN RIGHT\n", end - i 
ARM GAS  C:\Users\Logan\AppData\Local\Temp\ccWP3ZaE.s 			page 133


 679:.\pathfinder.c ****                   instructions[counter] = RIGHT;
 6803              		.loc 1 679 0 is_stmt 1
 6804 06a0 A04A     		ldr	r2, .L225+4
 6805 06a2 D7F89430 		ldr	r3, [r7, #148]
 6806 06a6 1344     		add	r3, r3, r2
 6807 06a8 5222     		movs	r2, #82
 6808 06aa 1A70     		strb	r2, [r3]
 680:.\pathfinder.c ****                   instructions[counter + 1] = (end - i + 1 )- prev_intersection;
 6809              		.loc 1 680 0
 6810 06ac D7F89430 		ldr	r3, [r7, #148]
 6811 06b0 0133     		adds	r3, r3, #1
 6812 06b2 D7F88420 		ldr	r2, [r7, #132]
 6813 06b6 D1B2     		uxtb	r1, r2
 6814 06b8 D7F88820 		ldr	r2, [r7, #136]
 6815 06bc D2B2     		uxtb	r2, r2
 6816 06be 8A1A     		subs	r2, r1, r2
 6817 06c0 D1B2     		uxtb	r1, r2
 6818 06c2 D7F89020 		ldr	r2, [r7, #144]
 6819 06c6 D2B2     		uxtb	r2, r2
 6820 06c8 8A1A     		subs	r2, r1, r2
 6821 06ca D2B2     		uxtb	r2, r2
 6822 06cc 0132     		adds	r2, r2, #1
 6823 06ce D1B2     		uxtb	r1, r2
 6824 06d0 944A     		ldr	r2, .L225+4
 6825 06d2 D154     		strb	r1, [r2, r3]
 681:.\pathfinder.c ****                   counter += 2;
 6826              		.loc 1 681 0
 6827 06d4 D7F89430 		ldr	r3, [r7, #148]
 6828 06d8 0233     		adds	r3, r3, #2
 6829 06da C7F89430 		str	r3, [r7, #148]
 682:.\pathfinder.c ****                   prev_intersection = end - i + 1;
 6830              		.loc 1 682 0
 6831 06de D7F88420 		ldr	r2, [r7, #132]
 6832 06e2 D7F88830 		ldr	r3, [r7, #136]
 6833 06e6 D31A     		subs	r3, r2, r3
 6834 06e8 0133     		adds	r3, r3, #1
 6835 06ea C7F89030 		str	r3, [r7, #144]
 6836 06ee 59E0     		b	.L208
 6837              	.L211:
 683:.\pathfinder.c ****                }else if ((path[i][DIR] == 4 && path[i-1][DIR] == 2) || (path[i][DIR] == 2 && path[i
 6838              		.loc 1 683 0
 6839 06f0 8B49     		ldr	r1, .L225
 6840 06f2 D7F88820 		ldr	r2, [r7, #136]
 6841 06f6 1346     		mov	r3, r2
 6842 06f8 5B00     		lsls	r3, r3, #1
 6843 06fa 1344     		add	r3, r3, r2
 6844 06fc 9B00     		lsls	r3, r3, #2
 6845 06fe 0B44     		add	r3, r3, r1
 6846 0700 0833     		adds	r3, r3, #8
 6847 0702 1B68     		ldr	r3, [r3]
 6848 0704 042B     		cmp	r3, #4
 6849 0706 0CD1     		bne	.L212
 6850              		.loc 1 683 0 is_stmt 0 discriminator 1
 6851 0708 D7F88830 		ldr	r3, [r7, #136]
 6852 070c 5A1E     		subs	r2, r3, #1
 6853 070e 8449     		ldr	r1, .L225
 6854 0710 1346     		mov	r3, r2
ARM GAS  C:\Users\Logan\AppData\Local\Temp\ccWP3ZaE.s 			page 134


 6855 0712 5B00     		lsls	r3, r3, #1
 6856 0714 1344     		add	r3, r3, r2
 6857 0716 9B00     		lsls	r3, r3, #2
 6858 0718 0B44     		add	r3, r3, r1
 6859 071a 0833     		adds	r3, r3, #8
 6860 071c 1B68     		ldr	r3, [r3]
 6861 071e 022B     		cmp	r3, #2
 6862 0720 18D0     		beq	.L213
 6863              	.L212:
 6864              		.loc 1 683 0 discriminator 3
 6865 0722 7F49     		ldr	r1, .L225
 6866 0724 D7F88820 		ldr	r2, [r7, #136]
 6867 0728 1346     		mov	r3, r2
 6868 072a 5B00     		lsls	r3, r3, #1
 6869 072c 1344     		add	r3, r3, r2
 6870 072e 9B00     		lsls	r3, r3, #2
 6871 0730 0B44     		add	r3, r3, r1
 6872 0732 0833     		adds	r3, r3, #8
 6873 0734 1B68     		ldr	r3, [r3]
 6874 0736 022B     		cmp	r3, #2
 6875 0738 5DD1     		bne	.L214
 6876              		.loc 1 683 0 discriminator 4
 6877 073a D7F88830 		ldr	r3, [r7, #136]
 6878 073e 5A1E     		subs	r2, r3, #1
 6879 0740 7749     		ldr	r1, .L225
 6880 0742 1346     		mov	r3, r2
 6881 0744 5B00     		lsls	r3, r3, #1
 6882 0746 1344     		add	r3, r3, r2
 6883 0748 9B00     		lsls	r3, r3, #2
 6884 074a 0B44     		add	r3, r3, r1
 6885 074c 0833     		adds	r3, r3, #8
 6886 074e 1B68     		ldr	r3, [r3]
 6887 0750 042B     		cmp	r3, #4
 6888 0752 50D1     		bne	.L214
 6889              	.L213:
 684:.\pathfinder.c ****                   //printf("U/D intersection found (%d) [direction = %d] -- TURN U-TURN\n", end - i
 685:.\pathfinder.c ****                   instructions[counter] = UTURN;
 6890              		.loc 1 685 0 is_stmt 1
 6891 0754 734A     		ldr	r2, .L225+4
 6892 0756 D7F89430 		ldr	r3, [r7, #148]
 6893 075a 1344     		add	r3, r3, r2
 6894 075c 5522     		movs	r2, #85
 6895 075e 1A70     		strb	r2, [r3]
 686:.\pathfinder.c ****                   instructions[counter + 1] = (end - i + 1 )- prev_intersection;
 6896              		.loc 1 686 0
 6897 0760 D7F89430 		ldr	r3, [r7, #148]
 6898 0764 0133     		adds	r3, r3, #1
 6899 0766 D7F88420 		ldr	r2, [r7, #132]
 6900 076a D1B2     		uxtb	r1, r2
 6901 076c D7F88820 		ldr	r2, [r7, #136]
 6902 0770 D2B2     		uxtb	r2, r2
 6903 0772 8A1A     		subs	r2, r1, r2
 6904 0774 D1B2     		uxtb	r1, r2
 6905 0776 D7F89020 		ldr	r2, [r7, #144]
 6906 077a D2B2     		uxtb	r2, r2
 6907 077c 8A1A     		subs	r2, r1, r2
 6908 077e D2B2     		uxtb	r2, r2
ARM GAS  C:\Users\Logan\AppData\Local\Temp\ccWP3ZaE.s 			page 135


 6909 0780 0132     		adds	r2, r2, #1
 6910 0782 D1B2     		uxtb	r1, r2
 6911 0784 674A     		ldr	r2, .L225+4
 6912 0786 D154     		strb	r1, [r2, r3]
 687:.\pathfinder.c ****                   counter += 2;
 6913              		.loc 1 687 0
 6914 0788 D7F89430 		ldr	r3, [r7, #148]
 6915 078c 0233     		adds	r3, r3, #2
 6916 078e C7F89430 		str	r3, [r7, #148]
 688:.\pathfinder.c ****                   prev_intersection = end - i + 1;
 6917              		.loc 1 688 0
 6918 0792 D7F88420 		ldr	r2, [r7, #132]
 6919 0796 D7F88830 		ldr	r3, [r7, #136]
 6920 079a D31A     		subs	r3, r2, r3
 6921 079c 0133     		adds	r3, r3, #1
 6922 079e C7F89030 		str	r3, [r7, #144]
 6923 07a2 28E0     		b	.L214
 6924              	.L208:
 6925 07a4 27E0     		b	.L214
 6926              	.L204:
 689:.\pathfinder.c ****                }else{
 690:.\pathfinder.c ****                   //printf("Prev %d, current %d\n", path[i-1][DIR], path[i][DIR]);
 691:.\pathfinder.c ****                }
 692:.\pathfinder.c ****             }else{
 693:.\pathfinder.c ****                //printf("U/D intersection found (%d) [direction = %d]\n", end - i + 1, path[i][DIR]
 694:.\pathfinder.c ****                instructions[counter] = STRAIGHT;
 6927              		.loc 1 694 0
 6928 07a6 5F4A     		ldr	r2, .L225+4
 6929 07a8 D7F89430 		ldr	r3, [r7, #148]
 6930 07ac 1344     		add	r3, r3, r2
 6931 07ae 5322     		movs	r2, #83
 6932 07b0 1A70     		strb	r2, [r3]
 695:.\pathfinder.c ****                instructions[counter + 1] = (end - i + 1 )- prev_intersection;
 6933              		.loc 1 695 0
 6934 07b2 D7F89430 		ldr	r3, [r7, #148]
 6935 07b6 0133     		adds	r3, r3, #1
 6936 07b8 D7F88420 		ldr	r2, [r7, #132]
 6937 07bc D1B2     		uxtb	r1, r2
 6938 07be D7F88820 		ldr	r2, [r7, #136]
 6939 07c2 D2B2     		uxtb	r2, r2
 6940 07c4 8A1A     		subs	r2, r1, r2
 6941 07c6 D1B2     		uxtb	r1, r2
 6942 07c8 D7F89020 		ldr	r2, [r7, #144]
 6943 07cc D2B2     		uxtb	r2, r2
 6944 07ce 8A1A     		subs	r2, r1, r2
 6945 07d0 D2B2     		uxtb	r2, r2
 6946 07d2 0132     		adds	r2, r2, #1
 6947 07d4 D1B2     		uxtb	r1, r2
 6948 07d6 534A     		ldr	r2, .L225+4
 6949 07d8 D154     		strb	r1, [r2, r3]
 696:.\pathfinder.c ****                counter += 2;
 6950              		.loc 1 696 0
 6951 07da D7F89430 		ldr	r3, [r7, #148]
 6952 07de 0233     		adds	r3, r3, #2
 6953 07e0 C7F89430 		str	r3, [r7, #148]
 697:.\pathfinder.c ****                prev_intersection = end - i + 1;
 6954              		.loc 1 697 0
ARM GAS  C:\Users\Logan\AppData\Local\Temp\ccWP3ZaE.s 			page 136


 6955 07e4 D7F88420 		ldr	r2, [r7, #132]
 6956 07e8 D7F88830 		ldr	r3, [r7, #136]
 6957 07ec D31A     		subs	r3, r2, r3
 6958 07ee 0133     		adds	r3, r3, #1
 6959 07f0 C7F89030 		str	r3, [r7, #144]
 670:.\pathfinder.c ****                if((path[i][DIR] == 4 && path[i-1][DIR] == 3) || (path[i][DIR] == 2 && path[i-1][DIR
 6960              		.loc 1 670 0
 6961 07f4 59E0     		b	.L201
 6962              	.L214:
 670:.\pathfinder.c ****                if((path[i][DIR] == 4 && path[i-1][DIR] == 3) || (path[i][DIR] == 2 && path[i-1][DIR
 6963              		.loc 1 670 0 is_stmt 0 discriminator 3
 6964 07f6 58E0     		b	.L201
 6965              	.L203:
 698:.\pathfinder.c ****             }
 699:.\pathfinder.c **** 
 700:.\pathfinder.c ****          }else{
 701:.\pathfinder.c ****             if ((path[i][DIR] == 4 && path[i-1][DIR] == 2) || (path[i][DIR] == 2 && path[i-1][DIR] 
 6966              		.loc 1 701 0 is_stmt 1
 6967 07f8 4949     		ldr	r1, .L225
 6968 07fa D7F88820 		ldr	r2, [r7, #136]
 6969 07fe 1346     		mov	r3, r2
 6970 0800 5B00     		lsls	r3, r3, #1
 6971 0802 1344     		add	r3, r3, r2
 6972 0804 9B00     		lsls	r3, r3, #2
 6973 0806 0B44     		add	r3, r3, r1
 6974 0808 0833     		adds	r3, r3, #8
 6975 080a 1B68     		ldr	r3, [r3]
 6976 080c 042B     		cmp	r3, #4
 6977 080e 0CD1     		bne	.L215
 6978              		.loc 1 701 0 is_stmt 0 discriminator 1
 6979 0810 D7F88830 		ldr	r3, [r7, #136]
 6980 0814 5A1E     		subs	r2, r3, #1
 6981 0816 4249     		ldr	r1, .L225
 6982 0818 1346     		mov	r3, r2
 6983 081a 5B00     		lsls	r3, r3, #1
 6984 081c 1344     		add	r3, r3, r2
 6985 081e 9B00     		lsls	r3, r3, #2
 6986 0820 0B44     		add	r3, r3, r1
 6987 0822 0833     		adds	r3, r3, #8
 6988 0824 1B68     		ldr	r3, [r3]
 6989 0826 022B     		cmp	r3, #2
 6990 0828 18D0     		beq	.L216
 6991              	.L215:
 6992              		.loc 1 701 0 discriminator 3
 6993 082a 3D49     		ldr	r1, .L225
 6994 082c D7F88820 		ldr	r2, [r7, #136]
 6995 0830 1346     		mov	r3, r2
 6996 0832 5B00     		lsls	r3, r3, #1
 6997 0834 1344     		add	r3, r3, r2
 6998 0836 9B00     		lsls	r3, r3, #2
 6999 0838 0B44     		add	r3, r3, r1
 7000 083a 0833     		adds	r3, r3, #8
 7001 083c 1B68     		ldr	r3, [r3]
 7002 083e 022B     		cmp	r3, #2
 7003 0840 33D1     		bne	.L201
 7004              		.loc 1 701 0 discriminator 4
 7005 0842 D7F88830 		ldr	r3, [r7, #136]
ARM GAS  C:\Users\Logan\AppData\Local\Temp\ccWP3ZaE.s 			page 137


 7006 0846 5A1E     		subs	r2, r3, #1
 7007 0848 3549     		ldr	r1, .L225
 7008 084a 1346     		mov	r3, r2
 7009 084c 5B00     		lsls	r3, r3, #1
 7010 084e 1344     		add	r3, r3, r2
 7011 0850 9B00     		lsls	r3, r3, #2
 7012 0852 0B44     		add	r3, r3, r1
 7013 0854 0833     		adds	r3, r3, #8
 7014 0856 1B68     		ldr	r3, [r3]
 7015 0858 042B     		cmp	r3, #4
 7016 085a 26D1     		bne	.L201
 7017              	.L216:
 702:.\pathfinder.c ****                //printf("U/D intersection found (%d) [direction = %d] -- TURN U-TURN\n", end - i + 
 703:.\pathfinder.c ****                instructions[counter] = UTURN;
 7018              		.loc 1 703 0 is_stmt 1
 7019 085c 314A     		ldr	r2, .L225+4
 7020 085e D7F89430 		ldr	r3, [r7, #148]
 7021 0862 1344     		add	r3, r3, r2
 7022 0864 5522     		movs	r2, #85
 7023 0866 1A70     		strb	r2, [r3]
 704:.\pathfinder.c ****                instructions[counter + 1] = (end - i + 1 )- prev_intersection;
 7024              		.loc 1 704 0
 7025 0868 D7F89430 		ldr	r3, [r7, #148]
 7026 086c 0133     		adds	r3, r3, #1
 7027 086e D7F88420 		ldr	r2, [r7, #132]
 7028 0872 D1B2     		uxtb	r1, r2
 7029 0874 D7F88820 		ldr	r2, [r7, #136]
 7030 0878 D2B2     		uxtb	r2, r2
 7031 087a 8A1A     		subs	r2, r1, r2
 7032 087c D1B2     		uxtb	r1, r2
 7033 087e D7F89020 		ldr	r2, [r7, #144]
 7034 0882 D2B2     		uxtb	r2, r2
 7035 0884 8A1A     		subs	r2, r1, r2
 7036 0886 D2B2     		uxtb	r2, r2
 7037 0888 0132     		adds	r2, r2, #1
 7038 088a D1B2     		uxtb	r1, r2
 7039 088c 254A     		ldr	r2, .L225+4
 7040 088e D154     		strb	r1, [r2, r3]
 705:.\pathfinder.c ****                counter += 2;
 7041              		.loc 1 705 0
 7042 0890 D7F89430 		ldr	r3, [r7, #148]
 7043 0894 0233     		adds	r3, r3, #2
 7044 0896 C7F89430 		str	r3, [r7, #148]
 706:.\pathfinder.c ****                prev_intersection = end - i + 1;
 7045              		.loc 1 706 0
 7046 089a D7F88420 		ldr	r2, [r7, #132]
 7047 089e D7F88830 		ldr	r3, [r7, #136]
 7048 08a2 D31A     		subs	r3, r2, r3
 7049 08a4 0133     		adds	r3, r3, #1
 7050 08a6 C7F89030 		str	r3, [r7, #144]
 7051              	.L201:
 623:.\pathfinder.c ****       if(path[i][DIR] == 1 || path[i][DIR] == 3){
 7052              		.loc 1 623 0 discriminator 2
 7053 08aa D7F88830 		ldr	r3, [r7, #136]
 7054 08ae 013B     		subs	r3, r3, #1
 7055 08b0 C7F88830 		str	r3, [r7, #136]
 7056              	.L182:
ARM GAS  C:\Users\Logan\AppData\Local\Temp\ccWP3ZaE.s 			page 138


 623:.\pathfinder.c ****       if(path[i][DIR] == 1 || path[i][DIR] == 3){
 7057              		.loc 1 623 0 is_stmt 0 discriminator 1
 7058 08b4 D7F88830 		ldr	r3, [r7, #136]
 7059 08b8 002B     		cmp	r3, #0
 7060 08ba 3FF7F5AB 		bgt	.L217
 707:.\pathfinder.c ****             }else{
 708:.\pathfinder.c ****            // printf("[(%d), direction = %d]\n", end - i + 1, path[i][DIR]);
 709:.\pathfinder.c ****          }
 710:.\pathfinder.c ****          }
 711:.\pathfinder.c ****       }
 712:.\pathfinder.c ****     
 713:.\pathfinder.c ****    }
 714:.\pathfinder.c ****     if((end - prev_intersection) > 0){
 7061              		.loc 1 714 0 is_stmt 1
 7062 08be D7F88420 		ldr	r2, [r7, #132]
 7063 08c2 D7F89030 		ldr	r3, [r7, #144]
 7064 08c6 9A42     		cmp	r2, r3
 7065 08c8 17D0     		beq	.L218
 715:.\pathfinder.c ****         instructions[counter] = DRIVE;
 7066              		.loc 1 715 0
 7067 08ca 164A     		ldr	r2, .L225+4
 7068 08cc D7F89430 		ldr	r3, [r7, #148]
 7069 08d0 1344     		add	r3, r3, r2
 7070 08d2 4422     		movs	r2, #68
 7071 08d4 1A70     		strb	r2, [r3]
 716:.\pathfinder.c ****         instructions[counter + 1] = end - prev_intersection;
 7072              		.loc 1 716 0
 7073 08d6 D7F89430 		ldr	r3, [r7, #148]
 7074 08da 0133     		adds	r3, r3, #1
 7075 08dc D7F88420 		ldr	r2, [r7, #132]
 7076 08e0 D1B2     		uxtb	r1, r2
 7077 08e2 D7F89020 		ldr	r2, [r7, #144]
 7078 08e6 D2B2     		uxtb	r2, r2
 7079 08e8 8A1A     		subs	r2, r1, r2
 7080 08ea D1B2     		uxtb	r1, r2
 7081 08ec 0D4A     		ldr	r2, .L225+4
 7082 08ee D154     		strb	r1, [r2, r3]
 717:.\pathfinder.c ****         counter += 2;
 7083              		.loc 1 717 0
 7084 08f0 D7F89430 		ldr	r3, [r7, #148]
 7085 08f4 0233     		adds	r3, r3, #2
 7086 08f6 C7F89430 		str	r3, [r7, #148]
 7087              	.L218:
 7088              	.LBE7:
 590:.\pathfinder.c **** {   
 7089              		.loc 1 590 0 discriminator 2
 7090 08fa D7F88C30 		ldr	r3, [r7, #140]
 7091 08fe 0133     		adds	r3, r3, #1
 7092 0900 C7F88C30 		str	r3, [r7, #140]
 7093              	.L180:
 590:.\pathfinder.c **** {   
 7094              		.loc 1 590 0 is_stmt 0 discriminator 1
 7095 0904 D7F88C20 		ldr	r2, [r7, #140]
 7096 0908 074B     		ldr	r3, .L225+8
 7097 090a 1B68     		ldr	r3, [r3]
 7098 090c 9A42     		cmp	r2, r3
 7099 090e FFF485AB 		bcc	.L219
ARM GAS  C:\Users\Logan\AppData\Local\Temp\ccWP3ZaE.s 			page 139


 718:.\pathfinder.c ****     }
 719:.\pathfinder.c ****    //instructions[counter] = '\0';
 720:.\pathfinder.c **** }
 721:.\pathfinder.c ****    return counter;
 7100              		.loc 1 721 0 is_stmt 1
 7101 0912 D7F89430 		ldr	r3, [r7, #148]
 722:.\pathfinder.c **** }
 7102              		.loc 1 722 0
 7103 0916 1846     		mov	r0, r3
 7104 0918 9837     		adds	r7, r7, #152
 7105              		.cfi_def_cfa_offset 16
 7106 091a BD46     		mov	sp, r7
 7107              		.cfi_def_cfa_register 13
 7108              		@ sp needed
 7109 091c B0BD     		pop	{r4, r5, r7, pc}
 7110              	.L226:
 7111 091e 00BF     		.align	2
 7112              	.L225:
 7113 0920 00000000 		.word	path
 7114 0924 00000000 		.word	instructions
 7115 0928 00000000 		.word	food_length
 7116              		.cfi_endproc
 7117              	.LFE66:
 7118              		.size	generateDirections, .-generateDirections
 7119              		.text
 7120              	.Letext0:
 7121              		.file 2 "c:\\program files (x86)\\cypress\\psoc creator\\3.3\\psoc creator\\import\\gnu\\arm\\4.9.
 7122              		.file 3 "c:\\program files (x86)\\cypress\\psoc creator\\3.3\\psoc creator\\import\\gnu\\arm\\4.9.
 7123              		.file 4 "Generated_Source\\PSoC5/cytypes.h"
 7124              		.file 5 "Generated_Source\\PSoC5/core_cm3.h"
 7125              		.file 6 ".\\pathfinder.h"
 7126              		.section	.debug_info,"",%progbits
 7127              	.Ldebug_info0:
 7128 0000 FF060000 		.4byte	0x6ff
 7129 0004 0400     		.2byte	0x4
 7130 0006 00000000 		.4byte	.Ldebug_abbrev0
 7131 000a 04       		.byte	0x4
 7132 000b 01       		.uleb128 0x1
 7133 000c ED000000 		.4byte	.LASF64
 7134 0010 01       		.byte	0x1
 7135 0011 84020000 		.4byte	.LASF65
 7136 0015 06030000 		.4byte	.LASF66
 7137 0019 00000000 		.4byte	.Ldebug_ranges0+0
 7138 001d 00000000 		.4byte	0
 7139 0021 00000000 		.4byte	.Ldebug_line0
 7140 0025 02       		.uleb128 0x2
 7141 0026 01       		.byte	0x1
 7142 0027 06       		.byte	0x6
 7143 0028 ED010000 		.4byte	.LASF0
 7144 002c 02       		.uleb128 0x2
 7145 002d 01       		.byte	0x1
 7146 002e 08       		.byte	0x8
 7147 002f C4010000 		.4byte	.LASF1
 7148 0033 02       		.uleb128 0x2
 7149 0034 02       		.byte	0x2
 7150 0035 05       		.byte	0x5
 7151 0036 2F000000 		.4byte	.LASF2
ARM GAS  C:\Users\Logan\AppData\Local\Temp\ccWP3ZaE.s 			page 140


 7152 003a 02       		.uleb128 0x2
 7153 003b 02       		.byte	0x2
 7154 003c 07       		.byte	0x7
 7155 003d AE020000 		.4byte	.LASF3
 7156 0041 03       		.uleb128 0x3
 7157 0042 6F030000 		.4byte	.LASF5
 7158 0046 02       		.byte	0x2
 7159 0047 3F       		.byte	0x3f
 7160 0048 4C000000 		.4byte	0x4c
 7161 004c 02       		.uleb128 0x2
 7162 004d 04       		.byte	0x4
 7163 004e 05       		.byte	0x5
 7164 004f 9D020000 		.4byte	.LASF4
 7165 0053 03       		.uleb128 0x3
 7166 0054 1F000000 		.4byte	.LASF6
 7167 0058 02       		.byte	0x2
 7168 0059 41       		.byte	0x41
 7169 005a 5E000000 		.4byte	0x5e
 7170 005e 02       		.uleb128 0x2
 7171 005f 04       		.byte	0x4
 7172 0060 07       		.byte	0x7
 7173 0061 32020000 		.4byte	.LASF7
 7174 0065 02       		.uleb128 0x2
 7175 0066 08       		.byte	0x8
 7176 0067 05       		.byte	0x5
 7177 0068 B1000000 		.4byte	.LASF8
 7178 006c 02       		.uleb128 0x2
 7179 006d 08       		.byte	0x8
 7180 006e 07       		.byte	0x7
 7181 006f F9010000 		.4byte	.LASF9
 7182 0073 04       		.uleb128 0x4
 7183 0074 04       		.byte	0x4
 7184 0075 05       		.byte	0x5
 7185 0076 696E7400 		.ascii	"int\000"
 7186 007a 02       		.uleb128 0x2
 7187 007b 04       		.byte	0x4
 7188 007c 07       		.byte	0x7
 7189 007d 25020000 		.4byte	.LASF10
 7190 0081 02       		.uleb128 0x2
 7191 0082 04       		.byte	0x4
 7192 0083 07       		.byte	0x7
 7193 0084 89030000 		.4byte	.LASF11
 7194 0088 02       		.uleb128 0x2
 7195 0089 01       		.byte	0x1
 7196 008a 08       		.byte	0x8
 7197 008b 93020000 		.4byte	.LASF12
 7198 008f 02       		.uleb128 0x2
 7199 0090 08       		.byte	0x8
 7200 0091 04       		.byte	0x4
 7201 0092 F5020000 		.4byte	.LASF13
 7202 0096 02       		.uleb128 0x2
 7203 0097 04       		.byte	0x4
 7204 0098 04       		.byte	0x4
 7205 0099 AB000000 		.4byte	.LASF14
 7206 009d 02       		.uleb128 0x2
 7207 009e 08       		.byte	0x8
 7208 009f 04       		.byte	0x4
ARM GAS  C:\Users\Logan\AppData\Local\Temp\ccWP3ZaE.s 			page 141


 7209 00a0 A6010000 		.4byte	.LASF15
 7210 00a4 03       		.uleb128 0x3
 7211 00a5 A6020000 		.4byte	.LASF16
 7212 00a9 03       		.byte	0x3
 7213 00aa 2C       		.byte	0x2c
 7214 00ab 41000000 		.4byte	0x41
 7215 00af 03       		.uleb128 0x3
 7216 00b0 10020000 		.4byte	.LASF17
 7217 00b4 03       		.byte	0x3
 7218 00b5 2D       		.byte	0x2d
 7219 00b6 53000000 		.4byte	0x53
 7220 00ba 05       		.uleb128 0x5
 7221 00bb 9C000000 		.4byte	.LASF18
 7222 00bf 04       		.byte	0x4
 7223 00c0 9301     		.2byte	0x193
 7224 00c2 3A000000 		.4byte	0x3a
 7225 00c6 06       		.uleb128 0x6
 7226 00c7 AF000000 		.4byte	0xaf
 7227 00cb D6000000 		.4byte	0xd6
 7228 00cf 07       		.uleb128 0x7
 7229 00d0 81000000 		.4byte	0x81
 7230 00d4 01       		.byte	0x1
 7231 00d5 00       		.byte	0
 7232 00d6 08       		.uleb128 0x8
 7233 00d7 A1010000 		.4byte	.LASF25
 7234 00db 20       		.byte	0x20
 7235 00dc 01       		.byte	0x1
 7236 00dd 1A       		.byte	0x1a
 7237 00de 3F010000 		.4byte	0x13f
 7238 00e2 09       		.uleb128 0x9
 7239 00e3 79030000 		.4byte	.LASF19
 7240 00e7 01       		.byte	0x1
 7241 00e8 1B       		.byte	0x1b
 7242 00e9 AF000000 		.4byte	0xaf
 7243 00ed 00       		.byte	0
 7244 00ee 09       		.uleb128 0x9
 7245 00ef A3000000 		.4byte	.LASF20
 7246 00f3 01       		.byte	0x1
 7247 00f4 1C       		.byte	0x1c
 7248 00f5 AF000000 		.4byte	0xaf
 7249 00f9 04       		.byte	0x4
 7250 00fa 09       		.uleb128 0x9
 7251 00fb 98020000 		.4byte	.LASF21
 7252 00ff 01       		.byte	0x1
 7253 0100 1D       		.byte	0x1d
 7254 0101 BA000000 		.4byte	0xba
 7255 0105 08       		.byte	0x8
 7256 0106 0A       		.uleb128 0xa
 7257 0107 7800     		.ascii	"x\000"
 7258 0109 01       		.byte	0x1
 7259 010a 1E       		.byte	0x1e
 7260 010b AF000000 		.4byte	0xaf
 7261 010f 0C       		.byte	0xc
 7262 0110 0A       		.uleb128 0xa
 7263 0111 7900     		.ascii	"y\000"
 7264 0113 01       		.byte	0x1
 7265 0114 1F       		.byte	0x1f
ARM GAS  C:\Users\Logan\AppData\Local\Temp\ccWP3ZaE.s 			page 142


 7266 0115 AF000000 		.4byte	0xaf
 7267 0119 10       		.byte	0x10
 7268 011a 09       		.uleb128 0x9
 7269 011b CD020000 		.4byte	.LASF22
 7270 011f 01       		.byte	0x1
 7271 0120 20       		.byte	0x20
 7272 0121 3F010000 		.4byte	0x13f
 7273 0125 14       		.byte	0x14
 7274 0126 09       		.uleb128 0x9
 7275 0127 06000000 		.4byte	.LASF23
 7276 012b 01       		.byte	0x1
 7277 012c 23       		.byte	0x23
 7278 012d BA000000 		.4byte	0xba
 7279 0131 18       		.byte	0x18
 7280 0132 09       		.uleb128 0x9
 7281 0133 7F000000 		.4byte	.LASF24
 7282 0137 01       		.byte	0x1
 7283 0138 24       		.byte	0x24
 7284 0139 AF000000 		.4byte	0xaf
 7285 013d 1C       		.byte	0x1c
 7286 013e 00       		.byte	0
 7287 013f 0B       		.uleb128 0xb
 7288 0140 04       		.byte	0x4
 7289 0141 D6000000 		.4byte	0xd6
 7290 0145 03       		.uleb128 0x3
 7291 0146 A1010000 		.4byte	.LASF25
 7292 014a 01       		.byte	0x1
 7293 014b 25       		.byte	0x25
 7294 014c D6000000 		.4byte	0xd6
 7295 0150 0C       		.uleb128 0xc
 7296 0151 9A030000 		.4byte	.LASF44
 7297 0155 01       		.byte	0x1
 7298 0156 30       		.byte	0x30
 7299 0157 AF000000 		.4byte	0xaf
 7300 015b 00000000 		.4byte	.LFB63
 7301 015f 840B0000 		.4byte	.LFE63-.LFB63
 7302 0163 01       		.uleb128 0x1
 7303 0164 9C       		.byte	0x9c
 7304 0165 E0020000 		.4byte	0x2e0
 7305 0169 0D       		.uleb128 0xd
 7306 016a 6D617000 		.ascii	"map\000"
 7307 016e 01       		.byte	0x1
 7308 016f 30       		.byte	0x30
 7309 0170 F0020000 		.4byte	0x2f0
 7310 0174 04       		.uleb128 0x4
 7311 0175 91       		.byte	0x91
 7312 0176 FC857F   		.sleb128 -15620
 7313 0179 0E       		.uleb128 0xe
 7314 017a FC020000 		.4byte	.LASF26
 7315 017e 01       		.byte	0x1
 7316 017f 30       		.byte	0x30
 7317 0180 F6020000 		.4byte	0x2f6
 7318 0184 04       		.uleb128 0x4
 7319 0185 91       		.byte	0x91
 7320 0186 F8857F   		.sleb128 -15624
 7321 0189 0E       		.uleb128 0xe
 7322 018a 79030000 		.4byte	.LASF19
ARM GAS  C:\Users\Logan\AppData\Local\Temp\ccWP3ZaE.s 			page 143


 7323 018e 01       		.byte	0x1
 7324 018f 30       		.byte	0x30
 7325 0190 0C030000 		.4byte	0x30c
 7326 0194 04       		.uleb128 0x4
 7327 0195 91       		.byte	0x91
 7328 0196 F4857F   		.sleb128 -15628
 7329 0199 0E       		.uleb128 0xe
 7330 019a 5A020000 		.4byte	.LASF27
 7331 019e 01       		.byte	0x1
 7332 019f 30       		.byte	0x30
 7333 01a0 12030000 		.4byte	0x312
 7334 01a4 04       		.uleb128 0x4
 7335 01a5 91       		.byte	0x91
 7336 01a6 F0857F   		.sleb128 -15632
 7337 01a9 0E       		.uleb128 0xe
 7338 01aa E9020000 		.4byte	.LASF28
 7339 01ae 01       		.byte	0x1
 7340 01af 30       		.byte	0x30
 7341 01b0 12030000 		.4byte	0x312
 7342 01b4 02       		.uleb128 0x2
 7343 01b5 91       		.byte	0x91
 7344 01b6 00       		.sleb128 0
 7345 01b7 0F       		.uleb128 0xf
 7346 01b8 00000000 		.4byte	.LASF29
 7347 01bc 01       		.byte	0x1
 7348 01bd 31       		.byte	0x31
 7349 01be 18030000 		.4byte	0x318
 7350 01c2 04       		.uleb128 0x4
 7351 01c3 91       		.byte	0x91
 7352 01c4 A0B87F   		.sleb128 -9184
 7353 01c7 10       		.uleb128 0x10
 7354 01c8 6900     		.ascii	"i\000"
 7355 01ca 01       		.byte	0x1
 7356 01cb 33       		.byte	0x33
 7357 01cc AF000000 		.4byte	0xaf
 7358 01d0 02       		.uleb128 0x2
 7359 01d1 91       		.byte	0x91
 7360 01d2 6C       		.sleb128 -20
 7361 01d3 0F       		.uleb128 0xf
 7362 01d4 92030000 		.4byte	.LASF30
 7363 01d8 01       		.byte	0x1
 7364 01d9 44       		.byte	0x44
 7365 01da C6000000 		.4byte	0xc6
 7366 01de 04       		.uleb128 0x4
 7367 01df 91       		.byte	0x91
 7368 01e0 98B87F   		.sleb128 -9192
 7369 01e3 0F       		.uleb128 0xf
 7370 01e4 39000000 		.4byte	.LASF31
 7371 01e8 01       		.byte	0x1
 7372 01e9 48       		.byte	0x48
 7373 01ea AF000000 		.4byte	0xaf
 7374 01ee 02       		.uleb128 0x2
 7375 01ef 91       		.byte	0x91
 7376 01f0 64       		.sleb128 -28
 7377 01f1 0F       		.uleb128 0xf
 7378 01f2 15000000 		.4byte	.LASF32
 7379 01f6 01       		.byte	0x1
ARM GAS  C:\Users\Logan\AppData\Local\Temp\ccWP3ZaE.s 			page 144


 7380 01f7 49       		.byte	0x49
 7381 01f8 2E030000 		.4byte	0x32e
 7382 01fc 04       		.uleb128 0x4
 7383 01fd 91       		.byte	0x91
 7384 01fe 98867F   		.sleb128 -15592
 7385 0201 0F       		.uleb128 0xf
 7386 0202 7B010000 		.4byte	.LASF33
 7387 0206 01       		.byte	0x1
 7388 0207 4B       		.byte	0x4b
 7389 0208 C6000000 		.4byte	0xc6
 7390 020c 04       		.uleb128 0x4
 7391 020d 91       		.byte	0x91
 7392 020e 90867F   		.sleb128 -15600
 7393 0211 0F       		.uleb128 0xf
 7394 0212 89010000 		.4byte	.LASF34
 7395 0216 01       		.byte	0x1
 7396 0217 4C       		.byte	0x4c
 7397 0218 AF000000 		.4byte	0xaf
 7398 021c 02       		.uleb128 0x2
 7399 021d 91       		.byte	0x91
 7400 021e 44       		.sleb128 -60
 7401 021f 0F       		.uleb128 0xf
 7402 0220 60020000 		.4byte	.LASF35
 7403 0224 01       		.byte	0x1
 7404 0225 4D       		.byte	0x4d
 7405 0226 AF000000 		.4byte	0xaf
 7406 022a 02       		.uleb128 0x2
 7407 022b 91       		.byte	0x91
 7408 022c 60       		.sleb128 -32
 7409 022d 0F       		.uleb128 0xf
 7410 022e D2010000 		.4byte	.LASF36
 7411 0232 01       		.byte	0x1
 7412 0233 4E       		.byte	0x4e
 7413 0234 AF000000 		.4byte	0xaf
 7414 0238 02       		.uleb128 0x2
 7415 0239 91       		.byte	0x91
 7416 023a 5C       		.sleb128 -36
 7417 023b 0F       		.uleb128 0xf
 7418 023c 89000000 		.4byte	.LASF37
 7419 0240 01       		.byte	0x1
 7420 0241 4F       		.byte	0x4f
 7421 0242 BA000000 		.4byte	0xba
 7422 0246 02       		.uleb128 0x2
 7423 0247 91       		.byte	0x91
 7424 0248 42       		.sleb128 -62
 7425 0249 0F       		.uleb128 0xf
 7426 024a 44020000 		.4byte	.LASF38
 7427 024e 01       		.byte	0x1
 7428 024f 50       		.byte	0x50
 7429 0250 C6000000 		.4byte	0xc6
 7430 0254 04       		.uleb128 0x4
 7431 0255 91       		.byte	0x91
 7432 0256 88867F   		.sleb128 -15608
 7433 0259 0F       		.uleb128 0xf
 7434 025a B1030000 		.4byte	.LASF39
 7435 025e 01       		.byte	0x1
 7436 025f 51       		.byte	0x51
ARM GAS  C:\Users\Logan\AppData\Local\Temp\ccWP3ZaE.s 			page 145


 7437 0260 AF000000 		.4byte	0xaf
 7438 0264 02       		.uleb128 0x2
 7439 0265 91       		.byte	0x91
 7440 0266 58       		.sleb128 -40
 7441 0267 0F       		.uleb128 0xf
 7442 0268 C1020000 		.4byte	.LASF40
 7443 026c 01       		.byte	0x1
 7444 026d 52       		.byte	0x52
 7445 026e C6000000 		.4byte	0xc6
 7446 0272 04       		.uleb128 0x4
 7447 0273 91       		.byte	0x91
 7448 0274 80867F   		.sleb128 -15616
 7449 0277 0F       		.uleb128 0xf
 7450 0278 4D020000 		.4byte	.LASF41
 7451 027c 01       		.byte	0x1
 7452 027d 53       		.byte	0x53
 7453 027e BA000000 		.4byte	0xba
 7454 0282 02       		.uleb128 0x2
 7455 0283 91       		.byte	0x91
 7456 0284 56       		.sleb128 -42
 7457 0285 0F       		.uleb128 0xf
 7458 0286 77000000 		.4byte	.LASF42
 7459 028a 01       		.byte	0x1
 7460 028b 54       		.byte	0x54
 7461 028c AF000000 		.4byte	0xaf
 7462 0290 02       		.uleb128 0x2
 7463 0291 91       		.byte	0x91
 7464 0292 50       		.sleb128 -48
 7465 0293 11       		.uleb128 0x11
 7466 0294 32000000 		.4byte	.LBB2
 7467 0298 E8010000 		.4byte	.LBE2-.LBB2
 7468 029c AD020000 		.4byte	0x2ad
 7469 02a0 10       		.uleb128 0x10
 7470 02a1 6A00     		.ascii	"j\000"
 7471 02a3 01       		.byte	0x1
 7472 02a4 35       		.byte	0x35
 7473 02a5 AF000000 		.4byte	0xaf
 7474 02a9 02       		.uleb128 0x2
 7475 02aa 91       		.byte	0x91
 7476 02ab 68       		.sleb128 -24
 7477 02ac 00       		.byte	0
 7478 02ad 11       		.uleb128 0x11
 7479 02ae AE030000 		.4byte	.LBB3
 7480 02b2 52050000 		.4byte	.LBE3-.LBB3
 7481 02b6 C7020000 		.4byte	0x2c7
 7482 02ba 10       		.uleb128 0x10
 7483 02bb 6900     		.ascii	"i\000"
 7484 02bd 01       		.byte	0x1
 7485 02be 8E       		.byte	0x8e
 7486 02bf 73000000 		.4byte	0x73
 7487 02c3 02       		.uleb128 0x2
 7488 02c4 91       		.byte	0x91
 7489 02c5 4C       		.sleb128 -52
 7490 02c6 00       		.byte	0
 7491 02c7 12       		.uleb128 0x12
 7492 02c8 84090000 		.4byte	.LBB4
 7493 02cc EE010000 		.4byte	.LBE4-.LBB4
ARM GAS  C:\Users\Logan\AppData\Local\Temp\ccWP3ZaE.s 			page 146


 7494 02d0 0F       		.uleb128 0xf
 7495 02d1 19020000 		.4byte	.LASF43
 7496 02d5 01       		.byte	0x1
 7497 02d6 AB       		.byte	0xab
 7498 02d7 45030000 		.4byte	0x345
 7499 02db 02       		.uleb128 0x2
 7500 02dc 91       		.byte	0x91
 7501 02dd 48       		.sleb128 -56
 7502 02de 00       		.byte	0
 7503 02df 00       		.byte	0
 7504 02e0 06       		.uleb128 0x6
 7505 02e1 AF000000 		.4byte	0xaf
 7506 02e5 F0020000 		.4byte	0x2f0
 7507 02e9 07       		.uleb128 0x7
 7508 02ea 81000000 		.4byte	0x81
 7509 02ee 12       		.byte	0x12
 7510 02ef 00       		.byte	0
 7511 02f0 0B       		.uleb128 0xb
 7512 02f1 04       		.byte	0x4
 7513 02f2 E0020000 		.4byte	0x2e0
 7514 02f6 0B       		.uleb128 0xb
 7515 02f7 04       		.byte	0x4
 7516 02f8 C6000000 		.4byte	0xc6
 7517 02fc 06       		.uleb128 0x6
 7518 02fd AF000000 		.4byte	0xaf
 7519 0301 0C030000 		.4byte	0x30c
 7520 0305 07       		.uleb128 0x7
 7521 0306 81000000 		.4byte	0x81
 7522 030a 02       		.byte	0x2
 7523 030b 00       		.byte	0
 7524 030c 0B       		.uleb128 0xb
 7525 030d 04       		.byte	0x4
 7526 030e FC020000 		.4byte	0x2fc
 7527 0312 0B       		.uleb128 0xb
 7528 0313 04       		.byte	0x4
 7529 0314 AF000000 		.4byte	0xaf
 7530 0318 06       		.uleb128 0x6
 7531 0319 45010000 		.4byte	0x145
 7532 031d 2E030000 		.4byte	0x32e
 7533 0321 07       		.uleb128 0x7
 7534 0322 81000000 		.4byte	0x81
 7535 0326 0E       		.byte	0xe
 7536 0327 07       		.uleb128 0x7
 7537 0328 81000000 		.4byte	0x81
 7538 032c 12       		.byte	0x12
 7539 032d 00       		.byte	0
 7540 032e 06       		.uleb128 0x6
 7541 032f AF000000 		.4byte	0xaf
 7542 0333 45030000 		.4byte	0x345
 7543 0337 13       		.uleb128 0x13
 7544 0338 81000000 		.4byte	0x81
 7545 033c 1F03     		.2byte	0x31f
 7546 033e 07       		.uleb128 0x7
 7547 033f 81000000 		.4byte	0x81
 7548 0343 01       		.byte	0x1
 7549 0344 00       		.byte	0
 7550 0345 0B       		.uleb128 0xb
ARM GAS  C:\Users\Logan\AppData\Local\Temp\ccWP3ZaE.s 			page 147


 7551 0346 04       		.byte	0x4
 7552 0347 45010000 		.4byte	0x145
 7553 034b 0C       		.uleb128 0xc
 7554 034c 79020000 		.4byte	.LASF45
 7555 0350 01       		.byte	0x1
 7556 0351 C2       		.byte	0xc2
 7557 0352 AF000000 		.4byte	0xaf
 7558 0356 00000000 		.4byte	.LFB64
 7559 035a E8090000 		.4byte	.LFE64-.LFB64
 7560 035e 01       		.uleb128 0x1
 7561 035f 9C       		.byte	0x9c
 7562 0360 CE040000 		.4byte	0x4ce
 7563 0364 0D       		.uleb128 0xd
 7564 0365 6D617000 		.ascii	"map\000"
 7565 0369 01       		.byte	0x1
 7566 036a C2       		.byte	0xc2
 7567 036b F0020000 		.4byte	0x2f0
 7568 036f 04       		.uleb128 0x4
 7569 0370 91       		.byte	0x91
 7570 0371 FC857F   		.sleb128 -15620
 7571 0374 0E       		.uleb128 0xe
 7572 0375 FC020000 		.4byte	.LASF26
 7573 0379 01       		.byte	0x1
 7574 037a C2       		.byte	0xc2
 7575 037b F6020000 		.4byte	0x2f6
 7576 037f 04       		.uleb128 0x4
 7577 0380 91       		.byte	0x91
 7578 0381 F8857F   		.sleb128 -15624
 7579 0384 0E       		.uleb128 0xe
 7580 0385 79030000 		.4byte	.LASF19
 7581 0389 01       		.byte	0x1
 7582 038a C2       		.byte	0xc2
 7583 038b 0C030000 		.4byte	0x30c
 7584 038f 04       		.uleb128 0x4
 7585 0390 91       		.byte	0x91
 7586 0391 F4857F   		.sleb128 -15628
 7587 0394 0E       		.uleb128 0xe
 7588 0395 5A020000 		.4byte	.LASF27
 7589 0399 01       		.byte	0x1
 7590 039a C2       		.byte	0xc2
 7591 039b 12030000 		.4byte	0x312
 7592 039f 04       		.uleb128 0x4
 7593 03a0 91       		.byte	0x91
 7594 03a1 F0857F   		.sleb128 -15632
 7595 03a4 0E       		.uleb128 0xe
 7596 03a5 E9020000 		.4byte	.LASF28
 7597 03a9 01       		.byte	0x1
 7598 03aa C2       		.byte	0xc2
 7599 03ab 12030000 		.4byte	0x312
 7600 03af 02       		.uleb128 0x2
 7601 03b0 91       		.byte	0x91
 7602 03b1 00       		.sleb128 0
 7603 03b2 0E       		.uleb128 0xe
 7604 03b3 7F000000 		.4byte	.LASF24
 7605 03b7 01       		.byte	0x1
 7606 03b8 C2       		.byte	0xc2
 7607 03b9 AF000000 		.4byte	0xaf
ARM GAS  C:\Users\Logan\AppData\Local\Temp\ccWP3ZaE.s 			page 148


 7608 03bd 02       		.uleb128 0x2
 7609 03be 91       		.byte	0x91
 7610 03bf 04       		.sleb128 4
 7611 03c0 0F       		.uleb128 0xf
 7612 03c1 00000000 		.4byte	.LASF29
 7613 03c5 01       		.byte	0x1
 7614 03c6 C4       		.byte	0xc4
 7615 03c7 18030000 		.4byte	0x318
 7616 03cb 04       		.uleb128 0x4
 7617 03cc 91       		.byte	0x91
 7618 03cd A0B87F   		.sleb128 -9184
 7619 03d0 10       		.uleb128 0x10
 7620 03d1 6900     		.ascii	"i\000"
 7621 03d3 01       		.byte	0x1
 7622 03d4 C6       		.byte	0xc6
 7623 03d5 AF000000 		.4byte	0xaf
 7624 03d9 02       		.uleb128 0x2
 7625 03da 91       		.byte	0x91
 7626 03db 6C       		.sleb128 -20
 7627 03dc 10       		.uleb128 0x10
 7628 03dd 6A00     		.ascii	"j\000"
 7629 03df 01       		.byte	0x1
 7630 03e0 C6       		.byte	0xc6
 7631 03e1 AF000000 		.4byte	0xaf
 7632 03e5 02       		.uleb128 0x2
 7633 03e6 91       		.byte	0x91
 7634 03e7 68       		.sleb128 -24
 7635 03e8 0F       		.uleb128 0xf
 7636 03e9 92030000 		.4byte	.LASF30
 7637 03ed 01       		.byte	0x1
 7638 03ee D6       		.byte	0xd6
 7639 03ef C6000000 		.4byte	0xc6
 7640 03f3 04       		.uleb128 0x4
 7641 03f4 91       		.byte	0x91
 7642 03f5 98B87F   		.sleb128 -9192
 7643 03f8 0F       		.uleb128 0xf
 7644 03f9 39000000 		.4byte	.LASF31
 7645 03fd 01       		.byte	0x1
 7646 03fe DA       		.byte	0xda
 7647 03ff AF000000 		.4byte	0xaf
 7648 0403 02       		.uleb128 0x2
 7649 0404 91       		.byte	0x91
 7650 0405 64       		.sleb128 -28
 7651 0406 0F       		.uleb128 0xf
 7652 0407 15000000 		.4byte	.LASF32
 7653 040b 01       		.byte	0x1
 7654 040c DB       		.byte	0xdb
 7655 040d 2E030000 		.4byte	0x32e
 7656 0411 04       		.uleb128 0x4
 7657 0412 91       		.byte	0x91
 7658 0413 98867F   		.sleb128 -15592
 7659 0416 0F       		.uleb128 0xf
 7660 0417 7B010000 		.4byte	.LASF33
 7661 041b 01       		.byte	0x1
 7662 041c DD       		.byte	0xdd
 7663 041d C6000000 		.4byte	0xc6
 7664 0421 04       		.uleb128 0x4
ARM GAS  C:\Users\Logan\AppData\Local\Temp\ccWP3ZaE.s 			page 149


 7665 0422 91       		.byte	0x91
 7666 0423 90867F   		.sleb128 -15600
 7667 0426 0F       		.uleb128 0xf
 7668 0427 89010000 		.4byte	.LASF34
 7669 042b 01       		.byte	0x1
 7670 042c DE       		.byte	0xde
 7671 042d AF000000 		.4byte	0xaf
 7672 0431 02       		.uleb128 0x2
 7673 0432 91       		.byte	0x91
 7674 0433 44       		.sleb128 -60
 7675 0434 0F       		.uleb128 0xf
 7676 0435 60020000 		.4byte	.LASF35
 7677 0439 01       		.byte	0x1
 7678 043a DF       		.byte	0xdf
 7679 043b AF000000 		.4byte	0xaf
 7680 043f 02       		.uleb128 0x2
 7681 0440 91       		.byte	0x91
 7682 0441 60       		.sleb128 -32
 7683 0442 0F       		.uleb128 0xf
 7684 0443 D2010000 		.4byte	.LASF36
 7685 0447 01       		.byte	0x1
 7686 0448 E0       		.byte	0xe0
 7687 0449 AF000000 		.4byte	0xaf
 7688 044d 02       		.uleb128 0x2
 7689 044e 91       		.byte	0x91
 7690 044f 5C       		.sleb128 -36
 7691 0450 0F       		.uleb128 0xf
 7692 0451 89000000 		.4byte	.LASF37
 7693 0455 01       		.byte	0x1
 7694 0456 E1       		.byte	0xe1
 7695 0457 BA000000 		.4byte	0xba
 7696 045b 02       		.uleb128 0x2
 7697 045c 91       		.byte	0x91
 7698 045d 42       		.sleb128 -62
 7699 045e 0F       		.uleb128 0xf
 7700 045f 44020000 		.4byte	.LASF38
 7701 0463 01       		.byte	0x1
 7702 0464 E2       		.byte	0xe2
 7703 0465 C6000000 		.4byte	0xc6
 7704 0469 04       		.uleb128 0x4
 7705 046a 91       		.byte	0x91
 7706 046b 88867F   		.sleb128 -15608
 7707 046e 0F       		.uleb128 0xf
 7708 046f B1030000 		.4byte	.LASF39
 7709 0473 01       		.byte	0x1
 7710 0474 E3       		.byte	0xe3
 7711 0475 AF000000 		.4byte	0xaf
 7712 0479 02       		.uleb128 0x2
 7713 047a 91       		.byte	0x91
 7714 047b 58       		.sleb128 -40
 7715 047c 0F       		.uleb128 0xf
 7716 047d C1020000 		.4byte	.LASF40
 7717 0481 01       		.byte	0x1
 7718 0482 E4       		.byte	0xe4
 7719 0483 C6000000 		.4byte	0xc6
 7720 0487 04       		.uleb128 0x4
 7721 0488 91       		.byte	0x91
ARM GAS  C:\Users\Logan\AppData\Local\Temp\ccWP3ZaE.s 			page 150


 7722 0489 80867F   		.sleb128 -15616
 7723 048c 0F       		.uleb128 0xf
 7724 048d 4D020000 		.4byte	.LASF41
 7725 0491 01       		.byte	0x1
 7726 0492 E5       		.byte	0xe5
 7727 0493 AF000000 		.4byte	0xaf
 7728 0497 02       		.uleb128 0x2
 7729 0498 91       		.byte	0x91
 7730 0499 54       		.sleb128 -44
 7731 049a 0F       		.uleb128 0xf
 7732 049b 77000000 		.4byte	.LASF42
 7733 049f 01       		.byte	0x1
 7734 04a0 E6       		.byte	0xe6
 7735 04a1 AF000000 		.4byte	0xaf
 7736 04a5 02       		.uleb128 0x2
 7737 04a6 91       		.byte	0x91
 7738 04a7 50       		.sleb128 -48
 7739 04a8 0F       		.uleb128 0xf
 7740 04a9 45030000 		.4byte	.LASF46
 7741 04ad 01       		.byte	0x1
 7742 04ae EC       		.byte	0xec
 7743 04af 73000000 		.4byte	0x73
 7744 04b3 02       		.uleb128 0x2
 7745 04b4 91       		.byte	0x91
 7746 04b5 4C       		.sleb128 -52
 7747 04b6 12       		.uleb128 0x12
 7748 04b7 BE030000 		.4byte	.LBB5
 7749 04bb 06060000 		.4byte	.LBE5-.LBB5
 7750 04bf 14       		.uleb128 0x14
 7751 04c0 6900     		.ascii	"i\000"
 7752 04c2 01       		.byte	0x1
 7753 04c3 2201     		.2byte	0x122
 7754 04c5 73000000 		.4byte	0x73
 7755 04c9 02       		.uleb128 0x2
 7756 04ca 91       		.byte	0x91
 7757 04cb 48       		.sleb128 -56
 7758 04cc 00       		.byte	0
 7759 04cd 00       		.byte	0
 7760 04ce 15       		.uleb128 0x15
 7761 04cf D1000000 		.4byte	.LASF55
 7762 04d3 01       		.byte	0x1
 7763 04d4 4801     		.2byte	0x148
 7764 04d6 AF000000 		.4byte	0xaf
 7765 04da 00000000 		.4byte	.LFB65
 7766 04de A41F0000 		.4byte	.LFE65-.LFB65
 7767 04e2 01       		.uleb128 0x1
 7768 04e3 9C       		.byte	0x9c
 7769 04e4 A6050000 		.4byte	0x5a6
 7770 04e8 14       		.uleb128 0x14
 7771 04e9 656E6400 		.ascii	"end\000"
 7772 04ed 01       		.byte	0x1
 7773 04ee 4901     		.2byte	0x149
 7774 04f0 73000000 		.4byte	0x73
 7775 04f4 02       		.uleb128 0x2
 7776 04f5 91       		.byte	0x91
 7777 04f6 50       		.sleb128 -48
 7778 04f7 16       		.uleb128 0x16
ARM GAS  C:\Users\Logan\AppData\Local\Temp\ccWP3ZaE.s 			page 151


 7779 04f8 B2010000 		.4byte	.LASF47
 7780 04fc 01       		.byte	0x1
 7781 04fd 5501     		.2byte	0x155
 7782 04ff 73000000 		.4byte	0x73
 7783 0503 02       		.uleb128 0x2
 7784 0504 91       		.byte	0x91
 7785 0505 6C       		.sleb128 -20
 7786 0506 16       		.uleb128 0x16
 7787 0507 D2010000 		.4byte	.LASF36
 7788 050b 01       		.byte	0x1
 7789 050c 5601     		.2byte	0x156
 7790 050e BA000000 		.4byte	0xba
 7791 0512 02       		.uleb128 0x2
 7792 0513 91       		.byte	0x91
 7793 0514 6A       		.sleb128 -22
 7794 0515 16       		.uleb128 0x16
 7795 0516 7E030000 		.4byte	.LASF48
 7796 051a 01       		.byte	0x1
 7797 051b 5701     		.2byte	0x157
 7798 051d 73000000 		.4byte	0x73
 7799 0521 02       		.uleb128 0x2
 7800 0522 91       		.byte	0x91
 7801 0523 64       		.sleb128 -28
 7802 0524 16       		.uleb128 0x16
 7803 0525 5F000000 		.4byte	.LASF49
 7804 0529 01       		.byte	0x1
 7805 052a 5801     		.2byte	0x158
 7806 052c 73000000 		.4byte	0x73
 7807 0530 02       		.uleb128 0x2
 7808 0531 91       		.byte	0x91
 7809 0532 60       		.sleb128 -32
 7810 0533 16       		.uleb128 0x16
 7811 0534 2A000000 		.4byte	.LASF50
 7812 0538 01       		.byte	0x1
 7813 0539 5901     		.2byte	0x159
 7814 053b 73000000 		.4byte	0x73
 7815 053f 02       		.uleb128 0x2
 7816 0540 91       		.byte	0x91
 7817 0541 5C       		.sleb128 -36
 7818 0542 14       		.uleb128 0x14
 7819 0543 6900     		.ascii	"i\000"
 7820 0545 01       		.byte	0x1
 7821 0546 5D01     		.2byte	0x15d
 7822 0548 73000000 		.4byte	0x73
 7823 054c 02       		.uleb128 0x2
 7824 054d 91       		.byte	0x91
 7825 054e 58       		.sleb128 -40
 7826 054f 12       		.uleb128 0x12
 7827 0550 6C020000 		.4byte	.LBB6
 7828 0554 B2120000 		.4byte	.LBE6-.LBB6
 7829 0558 16       		.uleb128 0x16
 7830 0559 D6020000 		.4byte	.LASF51
 7831 055d 01       		.byte	0x1
 7832 055e 6901     		.2byte	0x169
 7833 0560 A6050000 		.4byte	0x5a6
 7834 0564 04       		.uleb128 0x4
 7835 0565 91       		.byte	0x91
ARM GAS  C:\Users\Logan\AppData\Local\Temp\ccWP3ZaE.s 			page 152


 7836 0566 BCB47F   		.sleb128 -9668
 7837 0569 16       		.uleb128 0x16
 7838 056a 63030000 		.4byte	.LASF52
 7839 056e 01       		.byte	0x1
 7840 056f 6A01     		.2byte	0x16a
 7841 0571 C6000000 		.4byte	0xc6
 7842 0575 02       		.uleb128 0x2
 7843 0576 91       		.byte	0x91
 7844 0577 44       		.sleb128 -60
 7845 0578 16       		.uleb128 0x16
 7846 0579 51030000 		.4byte	.LASF53
 7847 057d 01       		.byte	0x1
 7848 057e 6B01     		.2byte	0x16b
 7849 0580 C6000000 		.4byte	0xc6
 7850 0584 03       		.uleb128 0x3
 7851 0585 91       		.byte	0x91
 7852 0586 BC7F     		.sleb128 -68
 7853 0588 16       		.uleb128 0x16
 7854 0589 6F020000 		.4byte	.LASF54
 7855 058d 01       		.byte	0x1
 7856 058e 6F01     		.2byte	0x16f
 7857 0590 73000000 		.4byte	0x73
 7858 0594 02       		.uleb128 0x2
 7859 0595 91       		.byte	0x91
 7860 0596 4C       		.sleb128 -52
 7861 0597 14       		.uleb128 0x14
 7862 0598 6A00     		.ascii	"j\000"
 7863 059a 01       		.byte	0x1
 7864 059b 7C01     		.2byte	0x17c
 7865 059d 73000000 		.4byte	0x73
 7866 05a1 02       		.uleb128 0x2
 7867 05a2 91       		.byte	0x91
 7868 05a3 54       		.sleb128 -44
 7869 05a4 00       		.byte	0
 7870 05a5 00       		.byte	0
 7871 05a6 06       		.uleb128 0x6
 7872 05a7 AF000000 		.4byte	0xaf
 7873 05ab BD050000 		.4byte	0x5bd
 7874 05af 13       		.uleb128 0x13
 7875 05b0 81000000 		.4byte	0x81
 7876 05b4 1F03     		.2byte	0x31f
 7877 05b6 07       		.uleb128 0x7
 7878 05b7 81000000 		.4byte	0x81
 7879 05bb 02       		.byte	0x2
 7880 05bc 00       		.byte	0
 7881 05bd 15       		.uleb128 0x15
 7882 05be DA010000 		.4byte	.LASF56
 7883 05c2 01       		.byte	0x1
 7884 05c3 4902     		.2byte	0x249
 7885 05c5 AF000000 		.4byte	0xaf
 7886 05c9 00000000 		.4byte	.LFB66
 7887 05cd 2C090000 		.4byte	.LFE66-.LFB66
 7888 05d1 01       		.uleb128 0x1
 7889 05d2 9C       		.byte	0x9c
 7890 05d3 3B060000 		.4byte	0x63b
 7891 05d7 16       		.uleb128 0x16
 7892 05d8 D2010000 		.4byte	.LASF36
ARM GAS  C:\Users\Logan\AppData\Local\Temp\ccWP3ZaE.s 			page 153


 7893 05dc 01       		.byte	0x1
 7894 05dd 4A02     		.2byte	0x24a
 7895 05df AF000000 		.4byte	0xaf
 7896 05e3 02       		.uleb128 0x2
 7897 05e4 91       		.byte	0x91
 7898 05e5 6C       		.sleb128 -20
 7899 05e6 16       		.uleb128 0x16
 7900 05e7 B2010000 		.4byte	.LASF47
 7901 05eb 01       		.byte	0x1
 7902 05ec 4B02     		.2byte	0x24b
 7903 05ee AF000000 		.4byte	0xaf
 7904 05f2 02       		.uleb128 0x2
 7905 05f3 91       		.byte	0x91
 7906 05f4 68       		.sleb128 -24
 7907 05f5 16       		.uleb128 0x16
 7908 05f6 91000000 		.4byte	.LASF57
 7909 05fa 01       		.byte	0x1
 7910 05fb 4C02     		.2byte	0x24c
 7911 05fd 73000000 		.4byte	0x73
 7912 0601 02       		.uleb128 0x2
 7913 0602 91       		.byte	0x91
 7914 0603 64       		.sleb128 -28
 7915 0604 12       		.uleb128 0x12
 7916 0605 1C000000 		.4byte	.LBB7
 7917 0609 DE080000 		.4byte	.LBE7-.LBB7
 7918 060d 16       		.uleb128 0x16
 7919 060e E1020000 		.4byte	.LASF58
 7920 0612 01       		.byte	0x1
 7921 0613 6802     		.2byte	0x268
 7922 0615 3B060000 		.4byte	0x63b
 7923 0619 03       		.uleb128 0x3
 7924 061a 91       		.byte	0x91
 7925 061b DC7E     		.sleb128 -164
 7926 061d 14       		.uleb128 0x14
 7927 061e 656E6400 		.ascii	"end\000"
 7928 0622 01       		.byte	0x1
 7929 0623 6C02     		.2byte	0x26c
 7930 0625 73000000 		.4byte	0x73
 7931 0629 02       		.uleb128 0x2
 7932 062a 91       		.byte	0x91
 7933 062b 5C       		.sleb128 -36
 7934 062c 14       		.uleb128 0x14
 7935 062d 6900     		.ascii	"i\000"
 7936 062f 01       		.byte	0x1
 7937 0630 6E02     		.2byte	0x26e
 7938 0632 73000000 		.4byte	0x73
 7939 0636 02       		.uleb128 0x2
 7940 0637 91       		.byte	0x91
 7941 0638 60       		.sleb128 -32
 7942 0639 00       		.byte	0
 7943 063a 00       		.byte	0
 7944 063b 06       		.uleb128 0x6
 7945 063c 88000000 		.4byte	0x88
 7946 0640 4B060000 		.4byte	0x64b
 7947 0644 07       		.uleb128 0x7
 7948 0645 81000000 		.4byte	0x81
 7949 0649 7F       		.byte	0x7f
ARM GAS  C:\Users\Logan\AppData\Local\Temp\ccWP3ZaE.s 			page 154


 7950 064a 00       		.byte	0
 7951 064b 17       		.uleb128 0x17
 7952 064c A4030000 		.4byte	.LASF59
 7953 0650 05       		.byte	0x5
 7954 0651 9606     		.2byte	0x696
 7955 0653 57060000 		.4byte	0x657
 7956 0657 18       		.uleb128 0x18
 7957 0658 A4000000 		.4byte	0xa4
 7958 065c 06       		.uleb128 0x6
 7959 065d AF000000 		.4byte	0xaf
 7960 0661 72060000 		.4byte	0x672
 7961 0665 07       		.uleb128 0x7
 7962 0666 81000000 		.4byte	0x81
 7963 066a 0E       		.byte	0xe
 7964 066b 07       		.uleb128 0x7
 7965 066c 81000000 		.4byte	0x81
 7966 0670 12       		.byte	0x12
 7967 0671 00       		.byte	0
 7968 0672 19       		.uleb128 0x19
 7969 0673 6D617000 		.ascii	"map\000"
 7970 0677 06       		.byte	0x6
 7971 0678 1B       		.byte	0x1b
 7972 0679 5C060000 		.4byte	0x65c
 7973 067d 06       		.uleb128 0x6
 7974 067e AF000000 		.4byte	0xaf
 7975 0682 93060000 		.4byte	0x693
 7976 0686 07       		.uleb128 0x7
 7977 0687 81000000 		.4byte	0x81
 7978 068b 05       		.byte	0x5
 7979 068c 07       		.uleb128 0x7
 7980 068d 81000000 		.4byte	0x81
 7981 0691 01       		.byte	0x1
 7982 0692 00       		.byte	0
 7983 0693 1A       		.uleb128 0x1a
 7984 0694 FC020000 		.4byte	.LASF26
 7985 0698 06       		.byte	0x6
 7986 0699 1D       		.byte	0x1d
 7987 069a 7D060000 		.4byte	0x67d
 7988 069e 1A       		.uleb128 0x1a
 7989 069f 79030000 		.4byte	.LASF19
 7990 06a3 06       		.byte	0x6
 7991 06a4 1E       		.byte	0x1e
 7992 06a5 A6050000 		.4byte	0x5a6
 7993 06a9 1A       		.uleb128 0x1a
 7994 06aa 5A020000 		.4byte	.LASF27
 7995 06ae 06       		.byte	0x6
 7996 06af 1F       		.byte	0x1f
 7997 06b0 C6000000 		.4byte	0xc6
 7998 06b4 1A       		.uleb128 0x1a
 7999 06b5 E9020000 		.4byte	.LASF28
 8000 06b9 06       		.byte	0x6
 8001 06ba 20       		.byte	0x20
 8002 06bb C6000000 		.4byte	0xc6
 8003 06bf 1A       		.uleb128 0x1a
 8004 06c0 4F000000 		.4byte	.LASF60
 8005 06c4 06       		.byte	0x6
 8006 06c5 21       		.byte	0x21
ARM GAS  C:\Users\Logan\AppData\Local\Temp\ccWP3ZaE.s 			page 155


 8007 06c6 AF000000 		.4byte	0xaf
 8008 06ca 1B       		.uleb128 0x1b
 8009 06cb BF000000 		.4byte	.LASF61
 8010 06cf 06       		.byte	0x6
 8011 06d0 22       		.byte	0x22
 8012 06d1 AF000000 		.4byte	0xaf
 8013 06d5 05       		.uleb128 0x5
 8014 06d6 03       		.byte	0x3
 8015 06d7 00000000 		.4byte	tracked_direction
 8016 06db 1A       		.uleb128 0x1a
 8017 06dc 95010000 		.4byte	.LASF62
 8018 06e0 06       		.byte	0x6
 8019 06e1 23       		.byte	0x23
 8020 06e2 AF000000 		.4byte	0xaf
 8021 06e6 06       		.uleb128 0x6
 8022 06e7 88000000 		.4byte	0x88
 8023 06eb F7060000 		.4byte	0x6f7
 8024 06ef 13       		.uleb128 0x13
 8025 06f0 81000000 		.4byte	0x81
 8026 06f4 1F03     		.2byte	0x31f
 8027 06f6 00       		.byte	0
 8028 06f7 1A       		.uleb128 0x1a
 8029 06f8 BF030000 		.4byte	.LASF63
 8030 06fc 06       		.byte	0x6
 8031 06fd 24       		.byte	0x24
 8032 06fe E6060000 		.4byte	0x6e6
 8033 0702 00       		.byte	0
 8034              		.section	.debug_abbrev,"",%progbits
 8035              	.Ldebug_abbrev0:
 8036 0000 01       		.uleb128 0x1
 8037 0001 11       		.uleb128 0x11
 8038 0002 01       		.byte	0x1
 8039 0003 25       		.uleb128 0x25
 8040 0004 0E       		.uleb128 0xe
 8041 0005 13       		.uleb128 0x13
 8042 0006 0B       		.uleb128 0xb
 8043 0007 03       		.uleb128 0x3
 8044 0008 0E       		.uleb128 0xe
 8045 0009 1B       		.uleb128 0x1b
 8046 000a 0E       		.uleb128 0xe
 8047 000b 55       		.uleb128 0x55
 8048 000c 17       		.uleb128 0x17
 8049 000d 11       		.uleb128 0x11
 8050 000e 01       		.uleb128 0x1
 8051 000f 10       		.uleb128 0x10
 8052 0010 17       		.uleb128 0x17
 8053 0011 00       		.byte	0
 8054 0012 00       		.byte	0
 8055 0013 02       		.uleb128 0x2
 8056 0014 24       		.uleb128 0x24
 8057 0015 00       		.byte	0
 8058 0016 0B       		.uleb128 0xb
 8059 0017 0B       		.uleb128 0xb
 8060 0018 3E       		.uleb128 0x3e
 8061 0019 0B       		.uleb128 0xb
 8062 001a 03       		.uleb128 0x3
 8063 001b 0E       		.uleb128 0xe
ARM GAS  C:\Users\Logan\AppData\Local\Temp\ccWP3ZaE.s 			page 156


 8064 001c 00       		.byte	0
 8065 001d 00       		.byte	0
 8066 001e 03       		.uleb128 0x3
 8067 001f 16       		.uleb128 0x16
 8068 0020 00       		.byte	0
 8069 0021 03       		.uleb128 0x3
 8070 0022 0E       		.uleb128 0xe
 8071 0023 3A       		.uleb128 0x3a
 8072 0024 0B       		.uleb128 0xb
 8073 0025 3B       		.uleb128 0x3b
 8074 0026 0B       		.uleb128 0xb
 8075 0027 49       		.uleb128 0x49
 8076 0028 13       		.uleb128 0x13
 8077 0029 00       		.byte	0
 8078 002a 00       		.byte	0
 8079 002b 04       		.uleb128 0x4
 8080 002c 24       		.uleb128 0x24
 8081 002d 00       		.byte	0
 8082 002e 0B       		.uleb128 0xb
 8083 002f 0B       		.uleb128 0xb
 8084 0030 3E       		.uleb128 0x3e
 8085 0031 0B       		.uleb128 0xb
 8086 0032 03       		.uleb128 0x3
 8087 0033 08       		.uleb128 0x8
 8088 0034 00       		.byte	0
 8089 0035 00       		.byte	0
 8090 0036 05       		.uleb128 0x5
 8091 0037 16       		.uleb128 0x16
 8092 0038 00       		.byte	0
 8093 0039 03       		.uleb128 0x3
 8094 003a 0E       		.uleb128 0xe
 8095 003b 3A       		.uleb128 0x3a
 8096 003c 0B       		.uleb128 0xb
 8097 003d 3B       		.uleb128 0x3b
 8098 003e 05       		.uleb128 0x5
 8099 003f 49       		.uleb128 0x49
 8100 0040 13       		.uleb128 0x13
 8101 0041 00       		.byte	0
 8102 0042 00       		.byte	0
 8103 0043 06       		.uleb128 0x6
 8104 0044 01       		.uleb128 0x1
 8105 0045 01       		.byte	0x1
 8106 0046 49       		.uleb128 0x49
 8107 0047 13       		.uleb128 0x13
 8108 0048 01       		.uleb128 0x1
 8109 0049 13       		.uleb128 0x13
 8110 004a 00       		.byte	0
 8111 004b 00       		.byte	0
 8112 004c 07       		.uleb128 0x7
 8113 004d 21       		.uleb128 0x21
 8114 004e 00       		.byte	0
 8115 004f 49       		.uleb128 0x49
 8116 0050 13       		.uleb128 0x13
 8117 0051 2F       		.uleb128 0x2f
 8118 0052 0B       		.uleb128 0xb
 8119 0053 00       		.byte	0
 8120 0054 00       		.byte	0
ARM GAS  C:\Users\Logan\AppData\Local\Temp\ccWP3ZaE.s 			page 157


 8121 0055 08       		.uleb128 0x8
 8122 0056 13       		.uleb128 0x13
 8123 0057 01       		.byte	0x1
 8124 0058 03       		.uleb128 0x3
 8125 0059 0E       		.uleb128 0xe
 8126 005a 0B       		.uleb128 0xb
 8127 005b 0B       		.uleb128 0xb
 8128 005c 3A       		.uleb128 0x3a
 8129 005d 0B       		.uleb128 0xb
 8130 005e 3B       		.uleb128 0x3b
 8131 005f 0B       		.uleb128 0xb
 8132 0060 01       		.uleb128 0x1
 8133 0061 13       		.uleb128 0x13
 8134 0062 00       		.byte	0
 8135 0063 00       		.byte	0
 8136 0064 09       		.uleb128 0x9
 8137 0065 0D       		.uleb128 0xd
 8138 0066 00       		.byte	0
 8139 0067 03       		.uleb128 0x3
 8140 0068 0E       		.uleb128 0xe
 8141 0069 3A       		.uleb128 0x3a
 8142 006a 0B       		.uleb128 0xb
 8143 006b 3B       		.uleb128 0x3b
 8144 006c 0B       		.uleb128 0xb
 8145 006d 49       		.uleb128 0x49
 8146 006e 13       		.uleb128 0x13
 8147 006f 38       		.uleb128 0x38
 8148 0070 0B       		.uleb128 0xb
 8149 0071 00       		.byte	0
 8150 0072 00       		.byte	0
 8151 0073 0A       		.uleb128 0xa
 8152 0074 0D       		.uleb128 0xd
 8153 0075 00       		.byte	0
 8154 0076 03       		.uleb128 0x3
 8155 0077 08       		.uleb128 0x8
 8156 0078 3A       		.uleb128 0x3a
 8157 0079 0B       		.uleb128 0xb
 8158 007a 3B       		.uleb128 0x3b
 8159 007b 0B       		.uleb128 0xb
 8160 007c 49       		.uleb128 0x49
 8161 007d 13       		.uleb128 0x13
 8162 007e 38       		.uleb128 0x38
 8163 007f 0B       		.uleb128 0xb
 8164 0080 00       		.byte	0
 8165 0081 00       		.byte	0
 8166 0082 0B       		.uleb128 0xb
 8167 0083 0F       		.uleb128 0xf
 8168 0084 00       		.byte	0
 8169 0085 0B       		.uleb128 0xb
 8170 0086 0B       		.uleb128 0xb
 8171 0087 49       		.uleb128 0x49
 8172 0088 13       		.uleb128 0x13
 8173 0089 00       		.byte	0
 8174 008a 00       		.byte	0
 8175 008b 0C       		.uleb128 0xc
 8176 008c 2E       		.uleb128 0x2e
 8177 008d 01       		.byte	0x1
ARM GAS  C:\Users\Logan\AppData\Local\Temp\ccWP3ZaE.s 			page 158


 8178 008e 3F       		.uleb128 0x3f
 8179 008f 19       		.uleb128 0x19
 8180 0090 03       		.uleb128 0x3
 8181 0091 0E       		.uleb128 0xe
 8182 0092 3A       		.uleb128 0x3a
 8183 0093 0B       		.uleb128 0xb
 8184 0094 3B       		.uleb128 0x3b
 8185 0095 0B       		.uleb128 0xb
 8186 0096 27       		.uleb128 0x27
 8187 0097 19       		.uleb128 0x19
 8188 0098 49       		.uleb128 0x49
 8189 0099 13       		.uleb128 0x13
 8190 009a 11       		.uleb128 0x11
 8191 009b 01       		.uleb128 0x1
 8192 009c 12       		.uleb128 0x12
 8193 009d 06       		.uleb128 0x6
 8194 009e 40       		.uleb128 0x40
 8195 009f 18       		.uleb128 0x18
 8196 00a0 9642     		.uleb128 0x2116
 8197 00a2 19       		.uleb128 0x19
 8198 00a3 01       		.uleb128 0x1
 8199 00a4 13       		.uleb128 0x13
 8200 00a5 00       		.byte	0
 8201 00a6 00       		.byte	0
 8202 00a7 0D       		.uleb128 0xd
 8203 00a8 05       		.uleb128 0x5
 8204 00a9 00       		.byte	0
 8205 00aa 03       		.uleb128 0x3
 8206 00ab 08       		.uleb128 0x8
 8207 00ac 3A       		.uleb128 0x3a
 8208 00ad 0B       		.uleb128 0xb
 8209 00ae 3B       		.uleb128 0x3b
 8210 00af 0B       		.uleb128 0xb
 8211 00b0 49       		.uleb128 0x49
 8212 00b1 13       		.uleb128 0x13
 8213 00b2 02       		.uleb128 0x2
 8214 00b3 18       		.uleb128 0x18
 8215 00b4 00       		.byte	0
 8216 00b5 00       		.byte	0
 8217 00b6 0E       		.uleb128 0xe
 8218 00b7 05       		.uleb128 0x5
 8219 00b8 00       		.byte	0
 8220 00b9 03       		.uleb128 0x3
 8221 00ba 0E       		.uleb128 0xe
 8222 00bb 3A       		.uleb128 0x3a
 8223 00bc 0B       		.uleb128 0xb
 8224 00bd 3B       		.uleb128 0x3b
 8225 00be 0B       		.uleb128 0xb
 8226 00bf 49       		.uleb128 0x49
 8227 00c0 13       		.uleb128 0x13
 8228 00c1 02       		.uleb128 0x2
 8229 00c2 18       		.uleb128 0x18
 8230 00c3 00       		.byte	0
 8231 00c4 00       		.byte	0
 8232 00c5 0F       		.uleb128 0xf
 8233 00c6 34       		.uleb128 0x34
 8234 00c7 00       		.byte	0
ARM GAS  C:\Users\Logan\AppData\Local\Temp\ccWP3ZaE.s 			page 159


 8235 00c8 03       		.uleb128 0x3
 8236 00c9 0E       		.uleb128 0xe
 8237 00ca 3A       		.uleb128 0x3a
 8238 00cb 0B       		.uleb128 0xb
 8239 00cc 3B       		.uleb128 0x3b
 8240 00cd 0B       		.uleb128 0xb
 8241 00ce 49       		.uleb128 0x49
 8242 00cf 13       		.uleb128 0x13
 8243 00d0 02       		.uleb128 0x2
 8244 00d1 18       		.uleb128 0x18
 8245 00d2 00       		.byte	0
 8246 00d3 00       		.byte	0
 8247 00d4 10       		.uleb128 0x10
 8248 00d5 34       		.uleb128 0x34
 8249 00d6 00       		.byte	0
 8250 00d7 03       		.uleb128 0x3
 8251 00d8 08       		.uleb128 0x8
 8252 00d9 3A       		.uleb128 0x3a
 8253 00da 0B       		.uleb128 0xb
 8254 00db 3B       		.uleb128 0x3b
 8255 00dc 0B       		.uleb128 0xb
 8256 00dd 49       		.uleb128 0x49
 8257 00de 13       		.uleb128 0x13
 8258 00df 02       		.uleb128 0x2
 8259 00e0 18       		.uleb128 0x18
 8260 00e1 00       		.byte	0
 8261 00e2 00       		.byte	0
 8262 00e3 11       		.uleb128 0x11
 8263 00e4 0B       		.uleb128 0xb
 8264 00e5 01       		.byte	0x1
 8265 00e6 11       		.uleb128 0x11
 8266 00e7 01       		.uleb128 0x1
 8267 00e8 12       		.uleb128 0x12
 8268 00e9 06       		.uleb128 0x6
 8269 00ea 01       		.uleb128 0x1
 8270 00eb 13       		.uleb128 0x13
 8271 00ec 00       		.byte	0
 8272 00ed 00       		.byte	0
 8273 00ee 12       		.uleb128 0x12
 8274 00ef 0B       		.uleb128 0xb
 8275 00f0 01       		.byte	0x1
 8276 00f1 11       		.uleb128 0x11
 8277 00f2 01       		.uleb128 0x1
 8278 00f3 12       		.uleb128 0x12
 8279 00f4 06       		.uleb128 0x6
 8280 00f5 00       		.byte	0
 8281 00f6 00       		.byte	0
 8282 00f7 13       		.uleb128 0x13
 8283 00f8 21       		.uleb128 0x21
 8284 00f9 00       		.byte	0
 8285 00fa 49       		.uleb128 0x49
 8286 00fb 13       		.uleb128 0x13
 8287 00fc 2F       		.uleb128 0x2f
 8288 00fd 05       		.uleb128 0x5
 8289 00fe 00       		.byte	0
 8290 00ff 00       		.byte	0
 8291 0100 14       		.uleb128 0x14
ARM GAS  C:\Users\Logan\AppData\Local\Temp\ccWP3ZaE.s 			page 160


 8292 0101 34       		.uleb128 0x34
 8293 0102 00       		.byte	0
 8294 0103 03       		.uleb128 0x3
 8295 0104 08       		.uleb128 0x8
 8296 0105 3A       		.uleb128 0x3a
 8297 0106 0B       		.uleb128 0xb
 8298 0107 3B       		.uleb128 0x3b
 8299 0108 05       		.uleb128 0x5
 8300 0109 49       		.uleb128 0x49
 8301 010a 13       		.uleb128 0x13
 8302 010b 02       		.uleb128 0x2
 8303 010c 18       		.uleb128 0x18
 8304 010d 00       		.byte	0
 8305 010e 00       		.byte	0
 8306 010f 15       		.uleb128 0x15
 8307 0110 2E       		.uleb128 0x2e
 8308 0111 01       		.byte	0x1
 8309 0112 3F       		.uleb128 0x3f
 8310 0113 19       		.uleb128 0x19
 8311 0114 03       		.uleb128 0x3
 8312 0115 0E       		.uleb128 0xe
 8313 0116 3A       		.uleb128 0x3a
 8314 0117 0B       		.uleb128 0xb
 8315 0118 3B       		.uleb128 0x3b
 8316 0119 05       		.uleb128 0x5
 8317 011a 49       		.uleb128 0x49
 8318 011b 13       		.uleb128 0x13
 8319 011c 11       		.uleb128 0x11
 8320 011d 01       		.uleb128 0x1
 8321 011e 12       		.uleb128 0x12
 8322 011f 06       		.uleb128 0x6
 8323 0120 40       		.uleb128 0x40
 8324 0121 18       		.uleb128 0x18
 8325 0122 9642     		.uleb128 0x2116
 8326 0124 19       		.uleb128 0x19
 8327 0125 01       		.uleb128 0x1
 8328 0126 13       		.uleb128 0x13
 8329 0127 00       		.byte	0
 8330 0128 00       		.byte	0
 8331 0129 16       		.uleb128 0x16
 8332 012a 34       		.uleb128 0x34
 8333 012b 00       		.byte	0
 8334 012c 03       		.uleb128 0x3
 8335 012d 0E       		.uleb128 0xe
 8336 012e 3A       		.uleb128 0x3a
 8337 012f 0B       		.uleb128 0xb
 8338 0130 3B       		.uleb128 0x3b
 8339 0131 05       		.uleb128 0x5
 8340 0132 49       		.uleb128 0x49
 8341 0133 13       		.uleb128 0x13
 8342 0134 02       		.uleb128 0x2
 8343 0135 18       		.uleb128 0x18
 8344 0136 00       		.byte	0
 8345 0137 00       		.byte	0
 8346 0138 17       		.uleb128 0x17
 8347 0139 34       		.uleb128 0x34
 8348 013a 00       		.byte	0
ARM GAS  C:\Users\Logan\AppData\Local\Temp\ccWP3ZaE.s 			page 161


 8349 013b 03       		.uleb128 0x3
 8350 013c 0E       		.uleb128 0xe
 8351 013d 3A       		.uleb128 0x3a
 8352 013e 0B       		.uleb128 0xb
 8353 013f 3B       		.uleb128 0x3b
 8354 0140 05       		.uleb128 0x5
 8355 0141 49       		.uleb128 0x49
 8356 0142 13       		.uleb128 0x13
 8357 0143 3F       		.uleb128 0x3f
 8358 0144 19       		.uleb128 0x19
 8359 0145 3C       		.uleb128 0x3c
 8360 0146 19       		.uleb128 0x19
 8361 0147 00       		.byte	0
 8362 0148 00       		.byte	0
 8363 0149 18       		.uleb128 0x18
 8364 014a 35       		.uleb128 0x35
 8365 014b 00       		.byte	0
 8366 014c 49       		.uleb128 0x49
 8367 014d 13       		.uleb128 0x13
 8368 014e 00       		.byte	0
 8369 014f 00       		.byte	0
 8370 0150 19       		.uleb128 0x19
 8371 0151 34       		.uleb128 0x34
 8372 0152 00       		.byte	0
 8373 0153 03       		.uleb128 0x3
 8374 0154 08       		.uleb128 0x8
 8375 0155 3A       		.uleb128 0x3a
 8376 0156 0B       		.uleb128 0xb
 8377 0157 3B       		.uleb128 0x3b
 8378 0158 0B       		.uleb128 0xb
 8379 0159 49       		.uleb128 0x49
 8380 015a 13       		.uleb128 0x13
 8381 015b 3F       		.uleb128 0x3f
 8382 015c 19       		.uleb128 0x19
 8383 015d 3C       		.uleb128 0x3c
 8384 015e 19       		.uleb128 0x19
 8385 015f 00       		.byte	0
 8386 0160 00       		.byte	0
 8387 0161 1A       		.uleb128 0x1a
 8388 0162 34       		.uleb128 0x34
 8389 0163 00       		.byte	0
 8390 0164 03       		.uleb128 0x3
 8391 0165 0E       		.uleb128 0xe
 8392 0166 3A       		.uleb128 0x3a
 8393 0167 0B       		.uleb128 0xb
 8394 0168 3B       		.uleb128 0x3b
 8395 0169 0B       		.uleb128 0xb
 8396 016a 49       		.uleb128 0x49
 8397 016b 13       		.uleb128 0x13
 8398 016c 3F       		.uleb128 0x3f
 8399 016d 19       		.uleb128 0x19
 8400 016e 3C       		.uleb128 0x3c
 8401 016f 19       		.uleb128 0x19
 8402 0170 00       		.byte	0
 8403 0171 00       		.byte	0
 8404 0172 1B       		.uleb128 0x1b
 8405 0173 34       		.uleb128 0x34
ARM GAS  C:\Users\Logan\AppData\Local\Temp\ccWP3ZaE.s 			page 162


 8406 0174 00       		.byte	0
 8407 0175 03       		.uleb128 0x3
 8408 0176 0E       		.uleb128 0xe
 8409 0177 3A       		.uleb128 0x3a
 8410 0178 0B       		.uleb128 0xb
 8411 0179 3B       		.uleb128 0x3b
 8412 017a 0B       		.uleb128 0xb
 8413 017b 49       		.uleb128 0x49
 8414 017c 13       		.uleb128 0x13
 8415 017d 3F       		.uleb128 0x3f
 8416 017e 19       		.uleb128 0x19
 8417 017f 02       		.uleb128 0x2
 8418 0180 18       		.uleb128 0x18
 8419 0181 00       		.byte	0
 8420 0182 00       		.byte	0
 8421 0183 00       		.byte	0
 8422              		.section	.debug_aranges,"",%progbits
 8423 0000 34000000 		.4byte	0x34
 8424 0004 0200     		.2byte	0x2
 8425 0006 00000000 		.4byte	.Ldebug_info0
 8426 000a 04       		.byte	0x4
 8427 000b 00       		.byte	0
 8428 000c 0000     		.2byte	0
 8429 000e 0000     		.2byte	0
 8430 0010 00000000 		.4byte	.LFB63
 8431 0014 840B0000 		.4byte	.LFE63-.LFB63
 8432 0018 00000000 		.4byte	.LFB64
 8433 001c E8090000 		.4byte	.LFE64-.LFB64
 8434 0020 00000000 		.4byte	.LFB65
 8435 0024 A41F0000 		.4byte	.LFE65-.LFB65
 8436 0028 00000000 		.4byte	.LFB66
 8437 002c 2C090000 		.4byte	.LFE66-.LFB66
 8438 0030 00000000 		.4byte	0
 8439 0034 00000000 		.4byte	0
 8440              		.section	.debug_ranges,"",%progbits
 8441              	.Ldebug_ranges0:
 8442 0000 00000000 		.4byte	.LFB63
 8443 0004 840B0000 		.4byte	.LFE63
 8444 0008 00000000 		.4byte	.LFB64
 8445 000c E8090000 		.4byte	.LFE64
 8446 0010 00000000 		.4byte	.LFB65
 8447 0014 A41F0000 		.4byte	.LFE65
 8448 0018 00000000 		.4byte	.LFB66
 8449 001c 2C090000 		.4byte	.LFE66
 8450 0020 00000000 		.4byte	0
 8451 0024 00000000 		.4byte	0
 8452              		.section	.debug_line,"",%progbits
 8453              	.Ldebug_line0:
 8454 0000 53080000 		.section	.debug_str,"MS",%progbits,1
 8454      02006101 
 8454      00000201 
 8454      FB0E0D00 
 8454      01010101 
 8455              	.LASF29:
 8456 0000 4E6F6465 		.ascii	"Nodes\000"
 8456      7300
 8457              	.LASF23:
ARM GAS  C:\Users\Logan\AppData\Local\Temp\ccWP3ZaE.s 			page 163


 8458 0006 74656E74 		.ascii	"tentative_cost\000"
 8458      61746976 
 8458      655F636F 
 8458      737400
 8459              	.LASF32:
 8460 0015 6E657874 		.ascii	"nextNodes\000"
 8460      4E6F6465 
 8460      7300
 8461              	.LASF6:
 8462 001f 5F5F7569 		.ascii	"__uint32_t\000"
 8462      6E743332 
 8462      5F7400
 8463              	.LASF50:
 8464 002a 736B6970 		.ascii	"skip\000"
 8464      00
 8465              	.LASF2:
 8466 002f 73686F72 		.ascii	"short int\000"
 8466      7420696E 
 8466      7400
 8467              	.LASF31:
 8468 0039 746F7461 		.ascii	"totalIterationCounter\000"
 8468      6C497465 
 8468      72617469 
 8468      6F6E436F 
 8468      756E7465 
 8469              	.LASF60:
 8470 004f 726F626F 		.ascii	"robot_direction\000"
 8470      745F6469 
 8470      72656374 
 8470      696F6E00 
 8471              	.LASF49:
 8472 005f 696E7465 		.ascii	"inter_prev_intersection\000"
 8472      725F7072 
 8472      65765F69 
 8472      6E746572 
 8472      73656374 
 8473              	.LASF42:
 8474 0077 6861734E 		.ascii	"hasNext\000"
 8474      65787400 
 8475              	.LASF24:
 8476 007f 64697265 		.ascii	"direction\000"
 8476      6374696F 
 8476      6E00
 8477              	.LASF37:
 8478 0089 746D7043 		.ascii	"tmpCost\000"
 8478      6F737400 
 8479              	.LASF57:
 8480 0091 666F6F64 		.ascii	"food_count\000"
 8480      5F636F75 
 8480      6E7400
 8481              	.LASF18:
 8482 009c 75696E74 		.ascii	"uint16\000"
 8482      313600
 8483              	.LASF20:
 8484 00a3 76697369 		.ascii	"visited\000"
 8484      74656400 
 8485              	.LASF14:
ARM GAS  C:\Users\Logan\AppData\Local\Temp\ccWP3ZaE.s 			page 164


 8486 00ab 666C6F61 		.ascii	"float\000"
 8486      7400
 8487              	.LASF8:
 8488 00b1 6C6F6E67 		.ascii	"long long int\000"
 8488      206C6F6E 
 8488      6720696E 
 8488      7400
 8489              	.LASF61:
 8490 00bf 74726163 		.ascii	"tracked_direction\000"
 8490      6B65645F 
 8490      64697265 
 8490      6374696F 
 8490      6E00
 8491              	.LASF55:
 8492 00d1 67656E65 		.ascii	"generateEntireMapDirections\000"
 8492      72617465 
 8492      456E7469 
 8492      72654D61 
 8492      70446972 
 8493              	.LASF64:
 8494 00ed 474E5520 		.ascii	"GNU C 4.9.3 20150303 (release) [ARM/embedded-4_9-br"
 8494      4320342E 
 8494      392E3320 
 8494      32303135 
 8494      30333033 
 8495 0120 616E6368 		.ascii	"anch revision 221220] -mcpu=cortex-m3 -mthumb -g -O"
 8495      20726576 
 8495      6973696F 
 8495      6E203232 
 8495      31323230 
 8496 0153 30202D66 		.ascii	"0 -ffunction-sections -ffat-lto-objects\000"
 8496      66756E63 
 8496      74696F6E 
 8496      2D736563 
 8496      74696F6E 
 8497              	.LASF33:
 8498 017b 74656E74 		.ascii	"tentativeNode\000"
 8498      61746976 
 8498      654E6F64 
 8498      6500
 8499              	.LASF34:
 8500 0189 756E7265 		.ascii	"unreachable\000"
 8500      61636861 
 8500      626C6500 
 8501              	.LASF62:
 8502 0195 666F6F64 		.ascii	"food_length\000"
 8502      5F6C656E 
 8502      67746800 
 8503              	.LASF25:
 8504 01a1 6E6F6465 		.ascii	"node\000"
 8504      00
 8505              	.LASF15:
 8506 01a6 6C6F6E67 		.ascii	"long double\000"
 8506      20646F75 
 8506      626C6500 
 8507              	.LASF47:
 8508 01b2 70726576 		.ascii	"prev_intersection\000"
ARM GAS  C:\Users\Logan\AppData\Local\Temp\ccWP3ZaE.s 			page 165


 8508      5F696E74 
 8508      65727365 
 8508      6374696F 
 8508      6E00
 8509              	.LASF1:
 8510 01c4 756E7369 		.ascii	"unsigned char\000"
 8510      676E6564 
 8510      20636861 
 8510      7200
 8511              	.LASF36:
 8512 01d2 636F756E 		.ascii	"counter\000"
 8512      74657200 
 8513              	.LASF56:
 8514 01da 67656E65 		.ascii	"generateDirections\000"
 8514      72617465 
 8514      44697265 
 8514      6374696F 
 8514      6E7300
 8515              	.LASF0:
 8516 01ed 7369676E 		.ascii	"signed char\000"
 8516      65642063 
 8516      68617200 
 8517              	.LASF9:
 8518 01f9 6C6F6E67 		.ascii	"long long unsigned int\000"
 8518      206C6F6E 
 8518      6720756E 
 8518      7369676E 
 8518      65642069 
 8519              	.LASF17:
 8520 0210 75696E74 		.ascii	"uint32_t\000"
 8520      33325F74 
 8520      00
 8521              	.LASF43:
 8522 0219 63757272 		.ascii	"currentNode\000"
 8522      656E744E 
 8522      6F646500 
 8523              	.LASF10:
 8524 0225 756E7369 		.ascii	"unsigned int\000"
 8524      676E6564 
 8524      20696E74 
 8524      00
 8525              	.LASF7:
 8526 0232 6C6F6E67 		.ascii	"long unsigned int\000"
 8526      20756E73 
 8526      69676E65 
 8526      6420696E 
 8526      7400
 8527              	.LASF38:
 8528 0244 6E657874 		.ascii	"nextNode\000"
 8528      4E6F6465 
 8528      00
 8529              	.LASF41:
 8530 024d 6E657874 		.ascii	"nextNodeCost\000"
 8530      4E6F6465 
 8530      436F7374 
 8530      00
 8531              	.LASF27:
ARM GAS  C:\Users\Logan\AppData\Local\Temp\ccWP3ZaE.s 			page 166


 8532 025a 73746172 		.ascii	"start\000"
 8532      7400
 8533              	.LASF35:
 8534 0260 636F726E 		.ascii	"corner_penalty\000"
 8534      65725F70 
 8534      656E616C 
 8534      747900
 8535              	.LASF54:
 8536 026f 696E7465 		.ascii	"inter_end\000"
 8536      725F656E 
 8536      6400
 8537              	.LASF45:
 8538 0279 44657074 		.ascii	"DepthFirst\000"
 8538      68466972 
 8538      737400
 8539              	.LASF65:
 8540 0284 2E5C7061 		.ascii	".\\pathfinder.c\000"
 8540      74686669 
 8540      6E646572 
 8540      2E6300
 8541              	.LASF12:
 8542 0293 63686172 		.ascii	"char\000"
 8542      00
 8543              	.LASF21:
 8544 0298 636F7374 		.ascii	"cost\000"
 8544      00
 8545              	.LASF4:
 8546 029d 6C6F6E67 		.ascii	"long int\000"
 8546      20696E74 
 8546      00
 8547              	.LASF16:
 8548 02a6 696E7433 		.ascii	"int32_t\000"
 8548      325F7400 
 8549              	.LASF3:
 8550 02ae 73686F72 		.ascii	"short unsigned int\000"
 8550      7420756E 
 8550      7369676E 
 8550      65642069 
 8550      6E7400
 8551              	.LASF40:
 8552 02c1 746D704E 		.ascii	"tmpNextNode\000"
 8552      6578744E 
 8552      6F646500 
 8553              	.LASF22:
 8554 02cd 70726576 		.ascii	"prevNode\000"
 8554      4E6F6465 
 8554      00
 8555              	.LASF51:
 8556 02d6 696E7465 		.ascii	"inter_path\000"
 8556      725F7061 
 8556      746800
 8557              	.LASF58:
 8558 02e1 6D657373 		.ascii	"message\000"
 8558      61676500 
 8559              	.LASF28:
 8560 02e9 64657374 		.ascii	"destination\000"
 8560      696E6174 
ARM GAS  C:\Users\Logan\AppData\Local\Temp\ccWP3ZaE.s 			page 167


 8560      696F6E00 
 8561              	.LASF13:
 8562 02f5 646F7562 		.ascii	"double\000"
 8562      6C6500
 8563              	.LASF26:
 8564 02fc 666F6F64 		.ascii	"food_list\000"
 8564      5F6C6973 
 8564      7400
 8565              	.LASF66:
 8566 0306 433A5C55 		.ascii	"C:\\Users\\Logan\\Desktop\\repos\\CS301-Team-Repo\\"
 8566      73657273 
 8566      5C4C6F67 
 8566      616E5C44 
 8566      65736B74 
 8567 0333 43533330 		.ascii	"CS301_Class.cydsn\000"
 8567      315F436C 
 8567      6173732E 
 8567      63796473 
 8567      6E00
 8568              	.LASF46:
 8569 0345 70617468 		.ascii	"path_couter\000"
 8569      5F636F75 
 8569      74657200 
 8570              	.LASF53:
 8571 0351 696E7465 		.ascii	"inter_destination\000"
 8571      725F6465 
 8571      7374696E 
 8571      6174696F 
 8571      6E00
 8572              	.LASF52:
 8573 0363 696E7465 		.ascii	"inter_start\000"
 8573      725F7374 
 8573      61727400 
 8574              	.LASF5:
 8575 036f 5F5F696E 		.ascii	"__int32_t\000"
 8575      7433325F 
 8575      7400
 8576              	.LASF19:
 8577 0379 70617468 		.ascii	"path\000"
 8577      00
 8578              	.LASF48:
 8579 037e 746D7043 		.ascii	"tmpCounter\000"
 8579      6F756E74 
 8579      657200
 8580              	.LASF11:
 8581 0389 73697A65 		.ascii	"sizetype\000"
 8581      74797065 
 8581      00
 8582              	.LASF30:
 8583 0392 63757272 		.ascii	"current\000"
 8583      656E7400 
 8584              	.LASF44:
 8585 039a 646A696B 		.ascii	"djikstras\000"
 8585      73747261 
 8585      7300
 8586              	.LASF59:
 8587 03a4 49544D5F 		.ascii	"ITM_RxBuffer\000"
ARM GAS  C:\Users\Logan\AppData\Local\Temp\ccWP3ZaE.s 			page 168


 8587      52784275 
 8587      66666572 
 8587      00
 8588              	.LASF39:
 8589 03b1 6E657874 		.ascii	"nextNodeIndex\000"
 8589      4E6F6465 
 8589      496E6465 
 8589      7800
 8590              	.LASF63:
 8591 03bf 696E7374 		.ascii	"instructions\000"
 8591      72756374 
 8591      696F6E73 
 8591      00
 8592              		.ident	"GCC: (GNU Tools for ARM Embedded Processors) 4.9.3 20150303 (release) [ARM/embedded-4_9-br
