ARM GAS  C:\Users\Tomas\AppData\Local\Temp\cc4KjDQP.s 			page 1


   1              		.syntax unified
   2              		.cpu cortex-m3
   3              		.fpu softvfp
   4              		.eabi_attribute 20, 1
   5              		.eabi_attribute 21, 1
   6              		.eabi_attribute 23, 3
   7              		.eabi_attribute 24, 1
   8              		.eabi_attribute 25, 1
   9              		.eabi_attribute 26, 1
  10              		.eabi_attribute 30, 6
  11              		.eabi_attribute 34, 1
  12              		.eabi_attribute 18, 4
  13              		.thumb
  14              		.file	"pathfinder.c"
  15              		.text
  16              	.Ltext0:
  17              		.cfi_sections	.debug_frame
  18              		.comm	tracked_direction,4,4
  19              		.section	.text.djikstras,"ax",%progbits
  20              		.align	2
  21              		.global	djikstras
  22              		.thumb
  23              		.thumb_func
  24              		.type	djikstras, %function
  25              	djikstras:
  26              	.LFB63:
  27              		.file 1 ".\\pathfinder.c"
   1:.\pathfinder.c **** #include "pathfinder.h"
   2:.\pathfinder.c **** //define the variables
   3:.\pathfinder.c **** #define VALUE_OF_FOOD 0 //penalty for going over food pellets.
   4:.\pathfinder.c **** #define DEFAULT_NODE_COST 10 //the cost of moving to a normal node.
   5:.\pathfinder.c **** #define CORNER_PENALTY 0 //penalty for changing direction.
   6:.\pathfinder.c **** #define PATH 0 //idicates weather the path is the 1s or the 0s.
   7:.\pathfinder.c **** 
   8:.\pathfinder.c **** 
   9:.\pathfinder.c **** 
  10:.\pathfinder.c **** #define STRAIGHT 'S'
  11:.\pathfinder.c **** #define LEFT 'L'
  12:.\pathfinder.c **** #define RIGHT 'R'
  13:.\pathfinder.c **** #define UTURN 'U'
  14:.\pathfinder.c **** #define DRIVE 'D'
  15:.\pathfinder.c **** 
  16:.\pathfinder.c **** #define INF_16 65535
  17:.\pathfinder.c **** 
  18:.\pathfinder.c **** #define VISITED 1
  19:.\pathfinder.c **** #define UNVISITED 0
  20:.\pathfinder.c **** 
  21:.\pathfinder.c **** #define X 1
  22:.\pathfinder.c **** #define Y 0
  23:.\pathfinder.c **** #define DIR 2
  24:.\pathfinder.c **** 
  25:.\pathfinder.c **** //struct for nodes
  26:.\pathfinder.c **** typedef struct node{
  27:.\pathfinder.c ****    uint32_t path;// 1
  28:.\pathfinder.c ****    uint32_t visited;// 2
  29:.\pathfinder.c ****    uint16 cost;// 6
  30:.\pathfinder.c ****    uint32_t x;
ARM GAS  C:\Users\Tomas\AppData\Local\Temp\cc4KjDQP.s 			page 2


  31:.\pathfinder.c ****    uint32_t y;
  32:.\pathfinder.c ****    struct node* prevNode;
  33:.\pathfinder.c ****    //uint32_t previous_y;// 4
  34:.\pathfinder.c ****    //uint32_t previous_x; // 5
  35:.\pathfinder.c ****    uint16 tentative_cost; // 3
  36:.\pathfinder.c ****    uint32_t direction;
  37:.\pathfinder.c **** } node;
  38:.\pathfinder.c **** 
  39:.\pathfinder.c **** /**pathfinding algorithm
  40:.\pathfinder.c **** * returns the length of the path array 0 if no path is found
  41:.\pathfinder.c **** * map - map to be searched through (needs size)
  42:.\pathfinder.c **** * food_list - list of food (needs size)
  43:.\pathfinder.c **** * path - will be filled with the path found by the algorithm
  44:.\pathfinder.c **** * start - is the start node duh
  45:.\pathfinder.c **** * destination - end node
  46:.\pathfinder.c **** * direction - the initial direction of the robot
  47:.\pathfinder.c **** */
  48:.\pathfinder.c **** uint32_t djikstras(uint32_t map[Y_SIZE][X_SIZE], uint32_t food_list[6][2], uint32_t path[DEFAULT_AR
  28              		.loc 1 48 0
  29              		.cfi_startproc
  30              		@ args = 4, pretend = 0, frame = 15616
  31              		@ frame_needed = 1, uses_anonymous_args = 0
  32 0000 B0B5     		push	{r4, r5, r7, lr}
  33              		.cfi_def_cfa_offset 16
  34              		.cfi_offset 4, -16
  35              		.cfi_offset 5, -12
  36              		.cfi_offset 7, -8
  37              		.cfi_offset 14, -4
  38 0002 ADF5745D 		sub	sp, sp, #15616
  39              		.cfi_def_cfa_offset 15632
  40 0006 00AF     		add	r7, sp, #0
  41              		.cfi_def_cfa_register 7
  42 0008 07F14004 		add	r4, r7, #64
  43 000c 343C     		subs	r4, r4, #52
  44 000e 2060     		str	r0, [r4]
  45 0010 07F14000 		add	r0, r7, #64
  46 0014 3838     		subs	r0, r0, #56
  47 0016 0160     		str	r1, [r0]
  48 0018 07F14001 		add	r1, r7, #64
  49 001c 3C39     		subs	r1, r1, #60
  50 001e 0A60     		str	r2, [r1]
  51 0020 3A46     		mov	r2, r7
  52 0022 1360     		str	r3, [r2]
  49:.\pathfinder.c ****    node Nodes[Y_SIZE][X_SIZE];
  50:.\pathfinder.c ****    //fill up the default information for each node
  51:.\pathfinder.c ****     uint32_t i;
  52:.\pathfinder.c ****    for(i = 0; i < Y_SIZE; i++){
  53              		.loc 1 52 0
  54 0024 0023     		movs	r3, #0
  55 0026 07F57352 		add	r2, r7, #15552
  56 002a 02F13C02 		add	r2, r2, #60
  57 002e 1360     		str	r3, [r2]
  58 0030 FEE0     		b	.L2
  59              	.L5:
  60              	.LBB2:
  53:.\pathfinder.c ****       uint32_t j;
  54:.\pathfinder.c ****       for(j = 0; j < X_SIZE; j++){
ARM GAS  C:\Users\Tomas\AppData\Local\Temp\cc4KjDQP.s 			page 3


  61              		.loc 1 54 0
  62 0032 0023     		movs	r3, #0
  63 0034 07F57352 		add	r2, r7, #15552
  64 0038 02F13802 		add	r2, r2, #56
  65 003c 1360     		str	r3, [r2]
  66 003e E4E0     		b	.L3
  67              	.L4:
  55:.\pathfinder.c ****             Nodes[i][j].path = map[i][j];//map information
  68              		.loc 1 55 0 discriminator 3
  69 0040 07F57353 		add	r3, r7, #15552
  70 0044 03F13C03 		add	r3, r3, #60
  71 0048 1B68     		ldr	r3, [r3]
  72 004a 4C22     		movs	r2, #76
  73 004c 02FB03F2 		mul	r2, r2, r3
  74 0050 07F14003 		add	r3, r7, #64
  75 0054 343B     		subs	r3, r3, #52
  76 0056 1B68     		ldr	r3, [r3]
  77 0058 1344     		add	r3, r3, r2
  78 005a 07F57352 		add	r2, r7, #15552
  79 005e 02F13802 		add	r2, r2, #56
  80 0062 1268     		ldr	r2, [r2]
  81 0064 53F82200 		ldr	r0, [r3, r2, lsl #2]
  82 0068 07F5CA52 		add	r2, r7, #6464
  83 006c 103A     		subs	r2, r2, #16
  84 006e 07F57353 		add	r3, r7, #15552
  85 0072 03F13C03 		add	r3, r3, #60
  86 0076 1968     		ldr	r1, [r3]
  87 0078 0B46     		mov	r3, r1
  88 007a DB00     		lsls	r3, r3, #3
  89 007c 0B44     		add	r3, r3, r1
  90 007e 5B00     		lsls	r3, r3, #1
  91 0080 0B44     		add	r3, r3, r1
  92 0082 07F57351 		add	r1, r7, #15552
  93 0086 01F13801 		add	r1, r1, #56
  94 008a 0968     		ldr	r1, [r1]
  95 008c 0B44     		add	r3, r3, r1
  96 008e 5B01     		lsls	r3, r3, #5
  97 0090 1344     		add	r3, r3, r2
  98 0092 1860     		str	r0, [r3]
  56:.\pathfinder.c ****             //printf("%d\n", map[i][j]);
  57:.\pathfinder.c ****             Nodes[i][j].visited = UNVISITED; //set all unvisited
  99              		.loc 1 57 0 discriminator 3
 100 0094 07F5CA52 		add	r2, r7, #6464
 101 0098 103A     		subs	r2, r2, #16
 102 009a 07F57353 		add	r3, r7, #15552
 103 009e 03F13C03 		add	r3, r3, #60
 104 00a2 1968     		ldr	r1, [r3]
 105 00a4 0B46     		mov	r3, r1
 106 00a6 DB00     		lsls	r3, r3, #3
 107 00a8 0B44     		add	r3, r3, r1
 108 00aa 5B00     		lsls	r3, r3, #1
 109 00ac 0B44     		add	r3, r3, r1
 110 00ae 07F57351 		add	r1, r7, #15552
 111 00b2 01F13801 		add	r1, r1, #56
 112 00b6 0968     		ldr	r1, [r1]
 113 00b8 0B44     		add	r3, r3, r1
 114 00ba 5B01     		lsls	r3, r3, #5
ARM GAS  C:\Users\Tomas\AppData\Local\Temp\cc4KjDQP.s 			page 4


 115 00bc 1344     		add	r3, r3, r2
 116 00be 0022     		movs	r2, #0
 117 00c0 5A60     		str	r2, [r3, #4]
  58:.\pathfinder.c ****             Nodes[i][j].cost = DEFAULT_NODE_COST; // seet the cost of going to this node to the def
 118              		.loc 1 58 0 discriminator 3
 119 00c2 07F5CA52 		add	r2, r7, #6464
 120 00c6 103A     		subs	r2, r2, #16
 121 00c8 07F57353 		add	r3, r7, #15552
 122 00cc 03F13C03 		add	r3, r3, #60
 123 00d0 1968     		ldr	r1, [r3]
 124 00d2 0B46     		mov	r3, r1
 125 00d4 DB00     		lsls	r3, r3, #3
 126 00d6 0B44     		add	r3, r3, r1
 127 00d8 5B00     		lsls	r3, r3, #1
 128 00da 0B44     		add	r3, r3, r1
 129 00dc 07F57351 		add	r1, r7, #15552
 130 00e0 01F13801 		add	r1, r1, #56
 131 00e4 0968     		ldr	r1, [r1]
 132 00e6 0B44     		add	r3, r3, r1
 133 00e8 5B01     		lsls	r3, r3, #5
 134 00ea 1344     		add	r3, r3, r2
 135 00ec 0833     		adds	r3, r3, #8
 136 00ee 0A22     		movs	r2, #10
 137 00f0 1A80     		strh	r2, [r3]	@ movhi
  59:.\pathfinder.c ****             Nodes[i][j].y = i;
 138              		.loc 1 59 0 discriminator 3
 139 00f2 07F5CA52 		add	r2, r7, #6464
 140 00f6 103A     		subs	r2, r2, #16
 141 00f8 07F57353 		add	r3, r7, #15552
 142 00fc 03F13C03 		add	r3, r3, #60
 143 0100 1968     		ldr	r1, [r3]
 144 0102 0B46     		mov	r3, r1
 145 0104 DB00     		lsls	r3, r3, #3
 146 0106 0B44     		add	r3, r3, r1
 147 0108 5B00     		lsls	r3, r3, #1
 148 010a 0B44     		add	r3, r3, r1
 149 010c 07F57351 		add	r1, r7, #15552
 150 0110 01F13801 		add	r1, r1, #56
 151 0114 0968     		ldr	r1, [r1]
 152 0116 0B44     		add	r3, r3, r1
 153 0118 5B01     		lsls	r3, r3, #5
 154 011a 1344     		add	r3, r3, r2
 155 011c 1033     		adds	r3, r3, #16
 156 011e 07F57352 		add	r2, r7, #15552
 157 0122 02F13C02 		add	r2, r2, #60
 158 0126 1268     		ldr	r2, [r2]
 159 0128 1A60     		str	r2, [r3]
  60:.\pathfinder.c ****             Nodes[i][j].x = j;
 160              		.loc 1 60 0 discriminator 3
 161 012a 07F5CA52 		add	r2, r7, #6464
 162 012e 103A     		subs	r2, r2, #16
 163 0130 07F57353 		add	r3, r7, #15552
 164 0134 03F13C03 		add	r3, r3, #60
 165 0138 1968     		ldr	r1, [r3]
 166 013a 0B46     		mov	r3, r1
 167 013c DB00     		lsls	r3, r3, #3
 168 013e 0B44     		add	r3, r3, r1
ARM GAS  C:\Users\Tomas\AppData\Local\Temp\cc4KjDQP.s 			page 5


 169 0140 5B00     		lsls	r3, r3, #1
 170 0142 0B44     		add	r3, r3, r1
 171 0144 07F57351 		add	r1, r7, #15552
 172 0148 01F13801 		add	r1, r1, #56
 173 014c 0968     		ldr	r1, [r1]
 174 014e 0B44     		add	r3, r3, r1
 175 0150 5B01     		lsls	r3, r3, #5
 176 0152 1344     		add	r3, r3, r2
 177 0154 0833     		adds	r3, r3, #8
 178 0156 07F57352 		add	r2, r7, #15552
 179 015a 02F13802 		add	r2, r2, #56
 180 015e 1268     		ldr	r2, [r2]
 181 0160 5A60     		str	r2, [r3, #4]
  61:.\pathfinder.c ****             Nodes[i][j].prevNode = 0;
 182              		.loc 1 61 0 discriminator 3
 183 0162 07F5CA52 		add	r2, r7, #6464
 184 0166 103A     		subs	r2, r2, #16
 185 0168 07F57353 		add	r3, r7, #15552
 186 016c 03F13C03 		add	r3, r3, #60
 187 0170 1968     		ldr	r1, [r3]
 188 0172 0B46     		mov	r3, r1
 189 0174 DB00     		lsls	r3, r3, #3
 190 0176 0B44     		add	r3, r3, r1
 191 0178 5B00     		lsls	r3, r3, #1
 192 017a 0B44     		add	r3, r3, r1
 193 017c 07F57351 		add	r1, r7, #15552
 194 0180 01F13801 		add	r1, r1, #56
 195 0184 0968     		ldr	r1, [r1]
 196 0186 0B44     		add	r3, r3, r1
 197 0188 5B01     		lsls	r3, r3, #5
 198 018a 1344     		add	r3, r3, r2
 199 018c 1033     		adds	r3, r3, #16
 200 018e 0022     		movs	r2, #0
 201 0190 5A60     		str	r2, [r3, #4]
  62:.\pathfinder.c ****             Nodes[i][j].tentative_cost = INF_16;// set the current cost to infinity
 202              		.loc 1 62 0 discriminator 3
 203 0192 07F5CA52 		add	r2, r7, #6464
 204 0196 103A     		subs	r2, r2, #16
 205 0198 07F57353 		add	r3, r7, #15552
 206 019c 03F13C03 		add	r3, r3, #60
 207 01a0 1968     		ldr	r1, [r3]
 208 01a2 0B46     		mov	r3, r1
 209 01a4 DB00     		lsls	r3, r3, #3
 210 01a6 0B44     		add	r3, r3, r1
 211 01a8 5B00     		lsls	r3, r3, #1
 212 01aa 0B44     		add	r3, r3, r1
 213 01ac 07F57351 		add	r1, r7, #15552
 214 01b0 01F13801 		add	r1, r1, #56
 215 01b4 0968     		ldr	r1, [r1]
 216 01b6 0B44     		add	r3, r3, r1
 217 01b8 5B01     		lsls	r3, r3, #5
 218 01ba 1344     		add	r3, r3, r2
 219 01bc 1833     		adds	r3, r3, #24
 220 01be 4FF6FF72 		movw	r2, #65535
 221 01c2 1A80     		strh	r2, [r3]	@ movhi
  63:.\pathfinder.c ****             Nodes[i][j].direction = 0;
 222              		.loc 1 63 0 discriminator 3
ARM GAS  C:\Users\Tomas\AppData\Local\Temp\cc4KjDQP.s 			page 6


 223 01c4 07F5CA52 		add	r2, r7, #6464
 224 01c8 103A     		subs	r2, r2, #16
 225 01ca 07F57353 		add	r3, r7, #15552
 226 01ce 03F13C03 		add	r3, r3, #60
 227 01d2 1968     		ldr	r1, [r3]
 228 01d4 0B46     		mov	r3, r1
 229 01d6 DB00     		lsls	r3, r3, #3
 230 01d8 0B44     		add	r3, r3, r1
 231 01da 5B00     		lsls	r3, r3, #1
 232 01dc 0B44     		add	r3, r3, r1
 233 01de 07F57351 		add	r1, r7, #15552
 234 01e2 01F13801 		add	r1, r1, #56
 235 01e6 0968     		ldr	r1, [r1]
 236 01e8 0B44     		add	r3, r3, r1
 237 01ea 5B01     		lsls	r3, r3, #5
 238 01ec 1344     		add	r3, r3, r2
 239 01ee 1833     		adds	r3, r3, #24
 240 01f0 0022     		movs	r2, #0
 241 01f2 5A60     		str	r2, [r3, #4]
  54:.\pathfinder.c ****             Nodes[i][j].path = map[i][j];//map information
 242              		.loc 1 54 0 discriminator 3
 243 01f4 07F57353 		add	r3, r7, #15552
 244 01f8 03F13803 		add	r3, r3, #56
 245 01fc 1B68     		ldr	r3, [r3]
 246 01fe 0133     		adds	r3, r3, #1
 247 0200 07F57352 		add	r2, r7, #15552
 248 0204 02F13802 		add	r2, r2, #56
 249 0208 1360     		str	r3, [r2]
 250              	.L3:
  54:.\pathfinder.c ****             Nodes[i][j].path = map[i][j];//map information
 251              		.loc 1 54 0 is_stmt 0 discriminator 1
 252 020a 07F57353 		add	r3, r7, #15552
 253 020e 03F13803 		add	r3, r3, #56
 254 0212 1B68     		ldr	r3, [r3]
 255 0214 122B     		cmp	r3, #18
 256 0216 7FF613AF 		bls	.L4
 257              	.LBE2:
  52:.\pathfinder.c ****       uint32_t j;
 258              		.loc 1 52 0 is_stmt 1 discriminator 2
 259 021a 07F57353 		add	r3, r7, #15552
 260 021e 03F13C03 		add	r3, r3, #60
 261 0222 1B68     		ldr	r3, [r3]
 262 0224 0133     		adds	r3, r3, #1
 263 0226 07F57352 		add	r2, r7, #15552
 264 022a 02F13C02 		add	r2, r2, #60
 265 022e 1360     		str	r3, [r2]
 266              	.L2:
  52:.\pathfinder.c ****       uint32_t j;
 267              		.loc 1 52 0 is_stmt 0 discriminator 1
 268 0230 07F57353 		add	r3, r7, #15552
 269 0234 03F13C03 		add	r3, r3, #60
 270 0238 1B68     		ldr	r3, [r3]
 271 023a 0E2B     		cmp	r3, #14
 272 023c 7FF6F9AE 		bls	.L5
  64:.\pathfinder.c ****       }
  65:.\pathfinder.c ****    }
  66:.\pathfinder.c **** 
ARM GAS  C:\Users\Tomas\AppData\Local\Temp\cc4KjDQP.s 			page 7


  67:.\pathfinder.c **** 
  68:.\pathfinder.c ****    uint32_t current[2];
  69:.\pathfinder.c ****    //memcpy(current, start, sizeof(current));//because nothing works in c the way you want it to
  70:.\pathfinder.c ****    current[Y] = start[Y];
 273              		.loc 1 70 0 is_stmt 1
 274 0240 3B46     		mov	r3, r7
 275 0242 1B68     		ldr	r3, [r3]
 276 0244 1A68     		ldr	r2, [r3]
 277 0246 07F5CA53 		add	r3, r7, #6464
 278 024a 183B     		subs	r3, r3, #24
 279 024c 1A60     		str	r2, [r3]
  71:.\pathfinder.c ****    current[X] = start[X];
 280              		.loc 1 71 0
 281 024e 3B46     		mov	r3, r7
 282 0250 1B68     		ldr	r3, [r3]
 283 0252 5A68     		ldr	r2, [r3, #4]
 284 0254 07F5CA53 		add	r3, r7, #6464
 285 0258 183B     		subs	r3, r3, #24
 286 025a 5A60     		str	r2, [r3, #4]
  72:.\pathfinder.c ****    uint32_t totalIterationCounter = 0;
 287              		.loc 1 72 0
 288 025c 0023     		movs	r3, #0
 289 025e 07F57352 		add	r2, r7, #15552
 290 0262 02F13402 		add	r2, r2, #52
 291 0266 1360     		str	r3, [r2]
  73:.\pathfinder.c ****    uint32_t nextNodes[DEFAULT_ARRAY_SIZE][2] = {0};
 292              		.loc 1 73 0
 293 0268 07F14003 		add	r3, r7, #64
 294 026c 183B     		subs	r3, r3, #24
 295 026e 1A46     		mov	r2, r3
 296 0270 4FF4C853 		mov	r3, #6400
 297 0274 1046     		mov	r0, r2
 298 0276 0021     		movs	r1, #0
 299 0278 1A46     		mov	r2, r3
 300 027a FFF7FEFF 		bl	memset
  74:.\pathfinder.c ****    //uint32_t nextNodesDirection[DEFAULT_ARRAY_SIZE] = {0};
  75:.\pathfinder.c ****    uint32_t tentativeNode[2] = {0};//x and y coordinate of the next node
 301              		.loc 1 75 0
 302 027e 07F14003 		add	r3, r7, #64
 303 0282 203B     		subs	r3, r3, #32
 304 0284 0022     		movs	r2, #0
 305 0286 1A60     		str	r2, [r3]
 306 0288 0022     		movs	r2, #0
 307 028a 5A60     		str	r2, [r3, #4]
  76:.\pathfinder.c ****    uint32_t unreachable = 0;
 308              		.loc 1 76 0
 309 028c 0023     		movs	r3, #0
 310 028e 07F57352 		add	r2, r7, #15552
 311 0292 02F11402 		add	r2, r2, #20
 312 0296 1360     		str	r3, [r2]
  77:.\pathfinder.c ****    uint32_t corner_penalty = 0;
 313              		.loc 1 77 0
 314 0298 0023     		movs	r3, #0
 315 029a 07F57352 		add	r2, r7, #15552
 316 029e 02F13002 		add	r2, r2, #48
 317 02a2 1360     		str	r3, [r2]
  78:.\pathfinder.c ****    uint32_t counter = 0;
ARM GAS  C:\Users\Tomas\AppData\Local\Temp\cc4KjDQP.s 			page 8


 318              		.loc 1 78 0
 319 02a4 0023     		movs	r3, #0
 320 02a6 07F57352 		add	r2, r7, #15552
 321 02aa 02F12C02 		add	r2, r2, #44
 322 02ae 1360     		str	r3, [r2]
  79:.\pathfinder.c ****    uint16 tmpCost = 0;
 323              		.loc 1 79 0
 324 02b0 0023     		movs	r3, #0
 325 02b2 07F57352 		add	r2, r7, #15552
 326 02b6 02F11202 		add	r2, r2, #18
 327 02ba 1380     		strh	r3, [r2]	@ movhi
  80:.\pathfinder.c ****    uint32_t nextNode[2] = {0, 0};
 328              		.loc 1 80 0
 329 02bc 07F14003 		add	r3, r7, #64
 330 02c0 283B     		subs	r3, r3, #40
 331 02c2 0022     		movs	r2, #0
 332 02c4 1A60     		str	r2, [r3]
 333 02c6 07F14003 		add	r3, r7, #64
 334 02ca 283B     		subs	r3, r3, #40
 335 02cc 0022     		movs	r2, #0
 336 02ce 5A60     		str	r2, [r3, #4]
  81:.\pathfinder.c ****    uint32_t nextNodeIndex = 0;
 337              		.loc 1 81 0
 338 02d0 0023     		movs	r3, #0
 339 02d2 07F57352 		add	r2, r7, #15552
 340 02d6 02F12802 		add	r2, r2, #40
 341 02da 1360     		str	r3, [r2]
  82:.\pathfinder.c ****    uint32_t tmpNextNode[2] = {0};
 342              		.loc 1 82 0
 343 02dc 07F14003 		add	r3, r7, #64
 344 02e0 303B     		subs	r3, r3, #48
 345 02e2 0022     		movs	r2, #0
 346 02e4 1A60     		str	r2, [r3]
 347 02e6 0022     		movs	r2, #0
 348 02e8 5A60     		str	r2, [r3, #4]
  83:.\pathfinder.c ****    uint16 nextNodeCost = 0;
 349              		.loc 1 83 0
 350 02ea 0023     		movs	r3, #0
 351 02ec 07F57352 		add	r2, r7, #15552
 352 02f0 02F12602 		add	r2, r2, #38
 353 02f4 1380     		strh	r3, [r2]	@ movhi
  84:.\pathfinder.c ****    uint32_t hasNext = 1;
 354              		.loc 1 84 0
 355 02f6 0123     		movs	r3, #1
 356 02f8 07F57352 		add	r2, r7, #15552
 357 02fc 02F12002 		add	r2, r2, #32
 358 0300 1360     		str	r3, [r2]
  85:.\pathfinder.c **** 
  86:.\pathfinder.c ****    Nodes[current[Y]][current[X]].tentative_cost = 0;
 359              		.loc 1 86 0
 360 0302 07F5CA53 		add	r3, r7, #6464
 361 0306 183B     		subs	r3, r3, #24
 362 0308 1968     		ldr	r1, [r3]
 363 030a 07F5CA53 		add	r3, r7, #6464
 364 030e 183B     		subs	r3, r3, #24
 365 0310 5868     		ldr	r0, [r3, #4]
 366 0312 07F5CA52 		add	r2, r7, #6464
ARM GAS  C:\Users\Tomas\AppData\Local\Temp\cc4KjDQP.s 			page 9


 367 0316 103A     		subs	r2, r2, #16
 368 0318 0B46     		mov	r3, r1
 369 031a DB00     		lsls	r3, r3, #3
 370 031c 0B44     		add	r3, r3, r1
 371 031e 5B00     		lsls	r3, r3, #1
 372 0320 0B44     		add	r3, r3, r1
 373 0322 0344     		add	r3, r3, r0
 374 0324 5B01     		lsls	r3, r3, #5
 375 0326 1344     		add	r3, r3, r2
 376 0328 1833     		adds	r3, r3, #24
 377 032a 0022     		movs	r2, #0
 378 032c 1A80     		strh	r2, [r3]	@ movhi
  87:.\pathfinder.c ****    Nodes[current[Y]][current[X]].prevNode = &Nodes[current[Y]][current[X]];
 379              		.loc 1 87 0
 380 032e 07F5CA53 		add	r3, r7, #6464
 381 0332 183B     		subs	r3, r3, #24
 382 0334 1968     		ldr	r1, [r3]
 383 0336 07F5CA53 		add	r3, r7, #6464
 384 033a 183B     		subs	r3, r3, #24
 385 033c 5C68     		ldr	r4, [r3, #4]
 386 033e 07F5CA53 		add	r3, r7, #6464
 387 0342 183B     		subs	r3, r3, #24
 388 0344 1868     		ldr	r0, [r3]
 389 0346 07F5CA53 		add	r3, r7, #6464
 390 034a 183B     		subs	r3, r3, #24
 391 034c 5D68     		ldr	r5, [r3, #4]
 392 034e 07F5CA52 		add	r2, r7, #6464
 393 0352 103A     		subs	r2, r2, #16
 394 0354 0346     		mov	r3, r0
 395 0356 DB00     		lsls	r3, r3, #3
 396 0358 0344     		add	r3, r3, r0
 397 035a 5B00     		lsls	r3, r3, #1
 398 035c 0344     		add	r3, r3, r0
 399 035e 2B44     		add	r3, r3, r5
 400 0360 5B01     		lsls	r3, r3, #5
 401 0362 D018     		adds	r0, r2, r3
 402 0364 07F5CA52 		add	r2, r7, #6464
 403 0368 103A     		subs	r2, r2, #16
 404 036a 0B46     		mov	r3, r1
 405 036c DB00     		lsls	r3, r3, #3
 406 036e 0B44     		add	r3, r3, r1
 407 0370 5B00     		lsls	r3, r3, #1
 408 0372 0B44     		add	r3, r3, r1
 409 0374 2344     		add	r3, r3, r4
 410 0376 5B01     		lsls	r3, r3, #5
 411 0378 1344     		add	r3, r3, r2
 412 037a 1033     		adds	r3, r3, #16
 413 037c 5860     		str	r0, [r3, #4]
  88:.\pathfinder.c ****    Nodes[current[Y]][current[X]].direction = robot_direction;
 414              		.loc 1 88 0
 415 037e 07F5CA53 		add	r3, r7, #6464
 416 0382 183B     		subs	r3, r3, #24
 417 0384 1968     		ldr	r1, [r3]
 418 0386 07F5CA53 		add	r3, r7, #6464
 419 038a 183B     		subs	r3, r3, #24
 420 038c 5C68     		ldr	r4, [r3, #4]
 421 038e 3E4B     		ldr	r3, .L26
ARM GAS  C:\Users\Tomas\AppData\Local\Temp\cc4KjDQP.s 			page 10


 422 0390 1868     		ldr	r0, [r3]
 423 0392 07F5CA52 		add	r2, r7, #6464
 424 0396 103A     		subs	r2, r2, #16
 425 0398 0B46     		mov	r3, r1
 426 039a DB00     		lsls	r3, r3, #3
 427 039c 0B44     		add	r3, r3, r1
 428 039e 5B00     		lsls	r3, r3, #1
 429 03a0 0B44     		add	r3, r3, r1
 430 03a2 2344     		add	r3, r3, r4
 431 03a4 5B01     		lsls	r3, r3, #5
 432 03a6 1344     		add	r3, r3, r2
 433 03a8 1833     		adds	r3, r3, #24
 434 03aa 5860     		str	r0, [r3, #4]
  89:.\pathfinder.c **** 
  90:.\pathfinder.c ****    //early exit, run until x and y are equal
  91:.\pathfinder.c ****    while(!((current[Y] == destination[Y]) && (current[X] == destination[X])) && hasNext == 1){
 435              		.loc 1 91 0
 436 03ac A8E2     		b	.L6
 437              	.L20:
 438              	.LBB3:
  92:.\pathfinder.c ****       counter = 1;
 439              		.loc 1 92 0
 440 03ae 0123     		movs	r3, #1
 441 03b0 07F57352 		add	r2, r7, #15552
 442 03b4 02F12C02 		add	r2, r2, #44
 443 03b8 1360     		str	r3, [r2]
  93:.\pathfinder.c ****       Nodes[current[Y]][current[1]].visited = VISITED; // set visitetd to true
 444              		.loc 1 93 0
 445 03ba 07F5CA53 		add	r3, r7, #6464
 446 03be 183B     		subs	r3, r3, #24
 447 03c0 1968     		ldr	r1, [r3]
 448 03c2 07F5CA53 		add	r3, r7, #6464
 449 03c6 183B     		subs	r3, r3, #24
 450 03c8 5868     		ldr	r0, [r3, #4]
 451 03ca 07F5CA52 		add	r2, r7, #6464
 452 03ce 103A     		subs	r2, r2, #16
 453 03d0 0B46     		mov	r3, r1
 454 03d2 DB00     		lsls	r3, r3, #3
 455 03d4 0B44     		add	r3, r3, r1
 456 03d6 5B00     		lsls	r3, r3, #1
 457 03d8 0B44     		add	r3, r3, r1
 458 03da 0344     		add	r3, r3, r0
 459 03dc 5B01     		lsls	r3, r3, #5
 460 03de 1344     		add	r3, r3, r2
 461 03e0 0122     		movs	r2, #1
 462 03e2 5A60     		str	r2, [r3, #4]
  94:.\pathfinder.c ****       //printf("main loop %d | X: %d | Y: %d\n", Nodes[current[0]][current[1]].visited, Nodes[curre
  95:.\pathfinder.c ****       while(counter <= 4){
 463              		.loc 1 95 0
 464 03e4 82E1     		b	.L7
 465              	.L14:
  96:.\pathfinder.c ****          corner_penalty = 0;
 466              		.loc 1 96 0
 467 03e6 0023     		movs	r3, #0
 468 03e8 07F57352 		add	r2, r7, #15552
 469 03ec 02F13002 		add	r2, r2, #48
 470 03f0 1360     		str	r3, [r2]
ARM GAS  C:\Users\Tomas\AppData\Local\Temp\cc4KjDQP.s 			page 11


  97:.\pathfinder.c ****          if(counter == 1){
 471              		.loc 1 97 0
 472 03f2 07F57353 		add	r3, r7, #15552
 473 03f6 03F12C03 		add	r3, r3, #44
 474 03fa 1B68     		ldr	r3, [r3]
 475 03fc 012B     		cmp	r3, #1
 476 03fe 11D1     		bne	.L8
  98:.\pathfinder.c ****             tentativeNode[Y] = current[Y] - 1;
 477              		.loc 1 98 0
 478 0400 07F5CA53 		add	r3, r7, #6464
 479 0404 183B     		subs	r3, r3, #24
 480 0406 1B68     		ldr	r3, [r3]
 481 0408 5A1E     		subs	r2, r3, #1
 482 040a 07F14003 		add	r3, r7, #64
 483 040e 203B     		subs	r3, r3, #32
 484 0410 1A60     		str	r2, [r3]
  99:.\pathfinder.c ****             tentativeNode[X] = current[X];
 485              		.loc 1 99 0
 486 0412 07F5CA53 		add	r3, r7, #6464
 487 0416 183B     		subs	r3, r3, #24
 488 0418 5A68     		ldr	r2, [r3, #4]
 489 041a 07F14003 		add	r3, r7, #64
 490 041e 203B     		subs	r3, r3, #32
 491 0420 5A60     		str	r2, [r3, #4]
 492 0422 4BE0     		b	.L9
 493              	.L8:
 100:.\pathfinder.c ****          }else if(counter == 2){
 494              		.loc 1 100 0
 495 0424 07F57353 		add	r3, r7, #15552
 496 0428 03F12C03 		add	r3, r3, #44
 497 042c 1B68     		ldr	r3, [r3]
 498 042e 022B     		cmp	r3, #2
 499 0430 11D1     		bne	.L10
 101:.\pathfinder.c ****             tentativeNode[Y] = current[Y];
 500              		.loc 1 101 0
 501 0432 07F5CA53 		add	r3, r7, #6464
 502 0436 183B     		subs	r3, r3, #24
 503 0438 1A68     		ldr	r2, [r3]
 504 043a 07F14003 		add	r3, r7, #64
 505 043e 203B     		subs	r3, r3, #32
 506 0440 1A60     		str	r2, [r3]
 102:.\pathfinder.c ****             tentativeNode[X] = current[X] + 1;
 507              		.loc 1 102 0
 508 0442 07F5CA53 		add	r3, r7, #6464
 509 0446 183B     		subs	r3, r3, #24
 510 0448 5B68     		ldr	r3, [r3, #4]
 511 044a 5A1C     		adds	r2, r3, #1
 512 044c 07F14003 		add	r3, r7, #64
 513 0450 203B     		subs	r3, r3, #32
 514 0452 5A60     		str	r2, [r3, #4]
 515 0454 32E0     		b	.L9
 516              	.L10:
 103:.\pathfinder.c ****          }else if(counter == 3){
 517              		.loc 1 103 0
 518 0456 07F57353 		add	r3, r7, #15552
 519 045a 03F12C03 		add	r3, r3, #44
 520 045e 1B68     		ldr	r3, [r3]
ARM GAS  C:\Users\Tomas\AppData\Local\Temp\cc4KjDQP.s 			page 12


 521 0460 032B     		cmp	r3, #3
 522 0462 13D1     		bne	.L11
 104:.\pathfinder.c ****             tentativeNode[Y] = current[Y] + 1;
 523              		.loc 1 104 0
 524 0464 07F5CA53 		add	r3, r7, #6464
 525 0468 183B     		subs	r3, r3, #24
 526 046a 1B68     		ldr	r3, [r3]
 527 046c 5A1C     		adds	r2, r3, #1
 528 046e 07F14003 		add	r3, r7, #64
 529 0472 203B     		subs	r3, r3, #32
 530 0474 1A60     		str	r2, [r3]
 105:.\pathfinder.c ****             tentativeNode[X] = current[X];
 531              		.loc 1 105 0
 532 0476 07F5CA53 		add	r3, r7, #6464
 533 047a 183B     		subs	r3, r3, #24
 534 047c 5A68     		ldr	r2, [r3, #4]
 535 047e 07F14003 		add	r3, r7, #64
 536 0482 203B     		subs	r3, r3, #32
 537 0484 5A60     		str	r2, [r3, #4]
 538 0486 19E0     		b	.L9
 539              	.L27:
 540              		.align	2
 541              	.L26:
 542 0488 00000000 		.word	robot_direction
 543              	.L11:
 106:.\pathfinder.c ****          }else if(counter == 4){
 544              		.loc 1 106 0
 545 048c 07F57353 		add	r3, r7, #15552
 546 0490 03F12C03 		add	r3, r3, #44
 547 0494 1B68     		ldr	r3, [r3]
 548 0496 042B     		cmp	r3, #4
 549 0498 10D1     		bne	.L9
 107:.\pathfinder.c ****             tentativeNode[Y] = current[Y];
 550              		.loc 1 107 0
 551 049a 07F5CA53 		add	r3, r7, #6464
 552 049e 183B     		subs	r3, r3, #24
 553 04a0 1A68     		ldr	r2, [r3]
 554 04a2 07F14003 		add	r3, r7, #64
 555 04a6 203B     		subs	r3, r3, #32
 556 04a8 1A60     		str	r2, [r3]
 108:.\pathfinder.c ****             tentativeNode[X] = current[X] - 1;
 557              		.loc 1 108 0
 558 04aa 07F5CA53 		add	r3, r7, #6464
 559 04ae 183B     		subs	r3, r3, #24
 560 04b0 5B68     		ldr	r3, [r3, #4]
 561 04b2 5A1E     		subs	r2, r3, #1
 562 04b4 07F14003 		add	r3, r7, #64
 563 04b8 203B     		subs	r3, r3, #32
 564 04ba 5A60     		str	r2, [r3, #4]
 565              	.L9:
 109:.\pathfinder.c ****          }
 110:.\pathfinder.c ****          if(counter != robot_direction){
 566              		.loc 1 110 0
 567 04bc 994B     		ldr	r3, .L28
 568 04be 1B68     		ldr	r3, [r3]
 569 04c0 07F57352 		add	r2, r7, #15552
 570 04c4 02F12C02 		add	r2, r2, #44
ARM GAS  C:\Users\Tomas\AppData\Local\Temp\cc4KjDQP.s 			page 13


 571 04c8 1268     		ldr	r2, [r2]
 572 04ca 9A42     		cmp	r2, r3
 573 04cc 05D0     		beq	.L12
 111:.\pathfinder.c ****             corner_penalty = CORNER_PENALTY;
 574              		.loc 1 111 0
 575 04ce 0023     		movs	r3, #0
 576 04d0 07F57352 		add	r2, r7, #15552
 577 04d4 02F13002 		add	r2, r2, #48
 578 04d8 1360     		str	r3, [r2]
 579              	.L12:
 112:.\pathfinder.c ****          }
 113:.\pathfinder.c **** 
 114:.\pathfinder.c ****          if(tentativeNode[Y] >= 0 && tentativeNode[X] >= 0 && tentativeNode[Y] <= Y_SIZE && tentati
 580              		.loc 1 114 0
 581 04da 07F14003 		add	r3, r7, #64
 582 04de 203B     		subs	r3, r3, #32
 583 04e0 1B68     		ldr	r3, [r3]
 584 04e2 0F2B     		cmp	r3, #15
 585 04e4 00F2F780 		bhi	.L13
 586              		.loc 1 114 0 is_stmt 0 discriminator 1
 587 04e8 07F14003 		add	r3, r7, #64
 588 04ec 203B     		subs	r3, r3, #32
 589 04ee 5B68     		ldr	r3, [r3, #4]
 590 04f0 132B     		cmp	r3, #19
 591 04f2 00F2F080 		bhi	.L13
 115:.\pathfinder.c ****             if(Nodes[tentativeNode[Y]][tentativeNode[X]].path == PATH){//check the node is a path
 592              		.loc 1 115 0 is_stmt 1
 593 04f6 07F14003 		add	r3, r7, #64
 594 04fa 203B     		subs	r3, r3, #32
 595 04fc 1968     		ldr	r1, [r3]
 596 04fe 07F14003 		add	r3, r7, #64
 597 0502 203B     		subs	r3, r3, #32
 598 0504 5868     		ldr	r0, [r3, #4]
 599 0506 07F5CA52 		add	r2, r7, #6464
 600 050a 103A     		subs	r2, r2, #16
 601 050c 0B46     		mov	r3, r1
 602 050e DB00     		lsls	r3, r3, #3
 603 0510 0B44     		add	r3, r3, r1
 604 0512 5B00     		lsls	r3, r3, #1
 605 0514 0B44     		add	r3, r3, r1
 606 0516 0344     		add	r3, r3, r0
 607 0518 5B01     		lsls	r3, r3, #5
 608 051a 1344     		add	r3, r3, r2
 609 051c 1B68     		ldr	r3, [r3]
 610 051e 002B     		cmp	r3, #0
 611 0520 40F0D980 		bne	.L13
 116:.\pathfinder.c ****                //printf("3\n", hasNext);
 117:.\pathfinder.c ****                tmpCost = Nodes[current[Y]][current[X]].tentative_cost + Nodes[tentativeNode[Y]][ten
 612              		.loc 1 117 0
 613 0524 07F5CA53 		add	r3, r7, #6464
 614 0528 183B     		subs	r3, r3, #24
 615 052a 1968     		ldr	r1, [r3]
 616 052c 07F5CA53 		add	r3, r7, #6464
 617 0530 183B     		subs	r3, r3, #24
 618 0532 5868     		ldr	r0, [r3, #4]
 619 0534 07F5CA52 		add	r2, r7, #6464
 620 0538 103A     		subs	r2, r2, #16
ARM GAS  C:\Users\Tomas\AppData\Local\Temp\cc4KjDQP.s 			page 14


 621 053a 0B46     		mov	r3, r1
 622 053c DB00     		lsls	r3, r3, #3
 623 053e 0B44     		add	r3, r3, r1
 624 0540 5B00     		lsls	r3, r3, #1
 625 0542 0B44     		add	r3, r3, r1
 626 0544 0344     		add	r3, r3, r0
 627 0546 5B01     		lsls	r3, r3, #5
 628 0548 1344     		add	r3, r3, r2
 629 054a 1833     		adds	r3, r3, #24
 630 054c 1888     		ldrh	r0, [r3]
 631 054e 07F14003 		add	r3, r7, #64
 632 0552 203B     		subs	r3, r3, #32
 633 0554 1968     		ldr	r1, [r3]
 634 0556 07F14003 		add	r3, r7, #64
 635 055a 203B     		subs	r3, r3, #32
 636 055c 5C68     		ldr	r4, [r3, #4]
 637 055e 07F5CA52 		add	r2, r7, #6464
 638 0562 103A     		subs	r2, r2, #16
 639 0564 0B46     		mov	r3, r1
 640 0566 DB00     		lsls	r3, r3, #3
 641 0568 0B44     		add	r3, r3, r1
 642 056a 5B00     		lsls	r3, r3, #1
 643 056c 0B44     		add	r3, r3, r1
 644 056e 2344     		add	r3, r3, r4
 645 0570 5B01     		lsls	r3, r3, #5
 646 0572 1344     		add	r3, r3, r2
 647 0574 0833     		adds	r3, r3, #8
 648 0576 1B88     		ldrh	r3, [r3]
 649 0578 0344     		add	r3, r3, r0
 650 057a 9AB2     		uxth	r2, r3
 651 057c 07F57353 		add	r3, r7, #15552
 652 0580 03F13003 		add	r3, r3, #48
 653 0584 1B68     		ldr	r3, [r3]
 654 0586 9BB2     		uxth	r3, r3
 655 0588 1344     		add	r3, r3, r2
 656 058a 07F57352 		add	r2, r7, #15552
 657 058e 02F11202 		add	r2, r2, #18
 658 0592 1380     		strh	r3, [r2]	@ movhi
 118:.\pathfinder.c ****                if(tmpCost < Nodes[tentativeNode[Y]][tentativeNode[X]].tentative_cost){
 659              		.loc 1 118 0
 660 0594 07F14003 		add	r3, r7, #64
 661 0598 203B     		subs	r3, r3, #32
 662 059a 1968     		ldr	r1, [r3]
 663 059c 07F14003 		add	r3, r7, #64
 664 05a0 203B     		subs	r3, r3, #32
 665 05a2 5868     		ldr	r0, [r3, #4]
 666 05a4 07F5CA52 		add	r2, r7, #6464
 667 05a8 103A     		subs	r2, r2, #16
 668 05aa 0B46     		mov	r3, r1
 669 05ac DB00     		lsls	r3, r3, #3
 670 05ae 0B44     		add	r3, r3, r1
 671 05b0 5B00     		lsls	r3, r3, #1
 672 05b2 0B44     		add	r3, r3, r1
 673 05b4 0344     		add	r3, r3, r0
 674 05b6 5B01     		lsls	r3, r3, #5
 675 05b8 1344     		add	r3, r3, r2
 676 05ba 1833     		adds	r3, r3, #24
ARM GAS  C:\Users\Tomas\AppData\Local\Temp\cc4KjDQP.s 			page 15


 677 05bc 1B88     		ldrh	r3, [r3]
 678 05be 07F57352 		add	r2, r7, #15552
 679 05c2 02F11202 		add	r2, r2, #18
 680 05c6 1288     		ldrh	r2, [r2]
 681 05c8 9A42     		cmp	r2, r3
 682 05ca 80F08480 		bcs	.L13
 119:.\pathfinder.c ****                   //printf("5 %d\n", tmpCost);
 120:.\pathfinder.c ****                   Nodes[tentativeNode[Y]][tentativeNode[X]].tentative_cost = tmpCost;
 683              		.loc 1 120 0
 684 05ce 07F14003 		add	r3, r7, #64
 685 05d2 203B     		subs	r3, r3, #32
 686 05d4 1968     		ldr	r1, [r3]
 687 05d6 07F14003 		add	r3, r7, #64
 688 05da 203B     		subs	r3, r3, #32
 689 05dc 5868     		ldr	r0, [r3, #4]
 690 05de 07F5CA52 		add	r2, r7, #6464
 691 05e2 103A     		subs	r2, r2, #16
 692 05e4 0B46     		mov	r3, r1
 693 05e6 DB00     		lsls	r3, r3, #3
 694 05e8 0B44     		add	r3, r3, r1
 695 05ea 5B00     		lsls	r3, r3, #1
 696 05ec 0B44     		add	r3, r3, r1
 697 05ee 0344     		add	r3, r3, r0
 698 05f0 5B01     		lsls	r3, r3, #5
 699 05f2 1344     		add	r3, r3, r2
 700 05f4 1833     		adds	r3, r3, #24
 701 05f6 07F57352 		add	r2, r7, #15552
 702 05fa 02F11202 		add	r2, r2, #18
 703 05fe 1288     		ldrh	r2, [r2]	@ movhi
 704 0600 1A80     		strh	r2, [r3]	@ movhi
 121:.\pathfinder.c ****                   //printf("6 currentX : %d, currentY : %d\n", current[0], current[1]);
 122:.\pathfinder.c **** 
 123:.\pathfinder.c ****                   //printf("Discovered node at X : %d, Y : %d\n", tentativeNode[0], tentativeNode[1
 124:.\pathfinder.c ****                   Nodes[tentativeNode[Y]][tentativeNode[X]].prevNode = &Nodes[current[Y]][current[1
 705              		.loc 1 124 0
 706 0602 07F14003 		add	r3, r7, #64
 707 0606 203B     		subs	r3, r3, #32
 708 0608 1968     		ldr	r1, [r3]
 709 060a 07F14003 		add	r3, r7, #64
 710 060e 203B     		subs	r3, r3, #32
 711 0610 5C68     		ldr	r4, [r3, #4]
 712 0612 07F5CA53 		add	r3, r7, #6464
 713 0616 183B     		subs	r3, r3, #24
 714 0618 1868     		ldr	r0, [r3]
 715 061a 07F5CA53 		add	r3, r7, #6464
 716 061e 183B     		subs	r3, r3, #24
 717 0620 5D68     		ldr	r5, [r3, #4]
 718 0622 07F5CA52 		add	r2, r7, #6464
 719 0626 103A     		subs	r2, r2, #16
 720 0628 0346     		mov	r3, r0
 721 062a DB00     		lsls	r3, r3, #3
 722 062c 0344     		add	r3, r3, r0
 723 062e 5B00     		lsls	r3, r3, #1
 724 0630 0344     		add	r3, r3, r0
 725 0632 2B44     		add	r3, r3, r5
 726 0634 5B01     		lsls	r3, r3, #5
 727 0636 D018     		adds	r0, r2, r3
ARM GAS  C:\Users\Tomas\AppData\Local\Temp\cc4KjDQP.s 			page 16


 728 0638 07F5CA52 		add	r2, r7, #6464
 729 063c 103A     		subs	r2, r2, #16
 730 063e 0B46     		mov	r3, r1
 731 0640 DB00     		lsls	r3, r3, #3
 732 0642 0B44     		add	r3, r3, r1
 733 0644 5B00     		lsls	r3, r3, #1
 734 0646 0B44     		add	r3, r3, r1
 735 0648 2344     		add	r3, r3, r4
 736 064a 5B01     		lsls	r3, r3, #5
 737 064c 1344     		add	r3, r3, r2
 738 064e 1033     		adds	r3, r3, #16
 739 0650 5860     		str	r0, [r3, #4]
 125:.\pathfinder.c ****                   nextNodes[totalIterationCounter][Y] = tentativeNode[Y];
 740              		.loc 1 125 0
 741 0652 07F14003 		add	r3, r7, #64
 742 0656 203B     		subs	r3, r3, #32
 743 0658 1968     		ldr	r1, [r3]
 744 065a 07F14003 		add	r3, r7, #64
 745 065e 183B     		subs	r3, r3, #24
 746 0660 07F57352 		add	r2, r7, #15552
 747 0664 02F13402 		add	r2, r2, #52
 748 0668 1268     		ldr	r2, [r2]
 749 066a 43F83210 		str	r1, [r3, r2, lsl #3]
 126:.\pathfinder.c ****                   nextNodes[totalIterationCounter][X] = tentativeNode[X];
 750              		.loc 1 126 0
 751 066e 07F14003 		add	r3, r7, #64
 752 0672 203B     		subs	r3, r3, #32
 753 0674 5968     		ldr	r1, [r3, #4]
 754 0676 07F14002 		add	r2, r7, #64
 755 067a 183A     		subs	r2, r2, #24
 756 067c 07F57353 		add	r3, r7, #15552
 757 0680 03F13403 		add	r3, r3, #52
 758 0684 1B68     		ldr	r3, [r3]
 759 0686 DB00     		lsls	r3, r3, #3
 760 0688 1344     		add	r3, r3, r2
 761 068a 5960     		str	r1, [r3, #4]
 127:.\pathfinder.c ****                   Nodes[tentativeNode[Y]][tentativeNode[X]].direction = counter;
 762              		.loc 1 127 0
 763 068c 07F14003 		add	r3, r7, #64
 764 0690 203B     		subs	r3, r3, #32
 765 0692 1968     		ldr	r1, [r3]
 766 0694 07F14003 		add	r3, r7, #64
 767 0698 203B     		subs	r3, r3, #32
 768 069a 5868     		ldr	r0, [r3, #4]
 769 069c 07F5CA52 		add	r2, r7, #6464
 770 06a0 103A     		subs	r2, r2, #16
 771 06a2 0B46     		mov	r3, r1
 772 06a4 DB00     		lsls	r3, r3, #3
 773 06a6 0B44     		add	r3, r3, r1
 774 06a8 5B00     		lsls	r3, r3, #1
 775 06aa 0B44     		add	r3, r3, r1
 776 06ac 0344     		add	r3, r3, r0
 777 06ae 5B01     		lsls	r3, r3, #5
 778 06b0 1344     		add	r3, r3, r2
 779 06b2 1833     		adds	r3, r3, #24
 780 06b4 07F57352 		add	r2, r7, #15552
 781 06b8 02F12C02 		add	r2, r2, #44
ARM GAS  C:\Users\Tomas\AppData\Local\Temp\cc4KjDQP.s 			page 17


 782 06bc 1268     		ldr	r2, [r2]
 783 06be 5A60     		str	r2, [r3, #4]
 128:.\pathfinder.c ****                   //nextNodesDirection[totalIterationCounter] = counter;
 129:.\pathfinder.c ****                   totalIterationCounter = 1 + totalIterationCounter;
 784              		.loc 1 129 0
 785 06c0 07F57353 		add	r3, r7, #15552
 786 06c4 03F13403 		add	r3, r3, #52
 787 06c8 1B68     		ldr	r3, [r3]
 788 06ca 0133     		adds	r3, r3, #1
 789 06cc 07F57352 		add	r2, r7, #15552
 790 06d0 02F13402 		add	r2, r2, #52
 791 06d4 1360     		str	r3, [r2]
 792              	.L13:
 130:.\pathfinder.c ****                }
 131:.\pathfinder.c ****             }
 132:.\pathfinder.c ****          }
 133:.\pathfinder.c ****          counter++;
 793              		.loc 1 133 0
 794 06d6 07F57353 		add	r3, r7, #15552
 795 06da 03F12C03 		add	r3, r3, #44
 796 06de 1B68     		ldr	r3, [r3]
 797 06e0 0133     		adds	r3, r3, #1
 798 06e2 07F57352 		add	r2, r7, #15552
 799 06e6 02F12C02 		add	r2, r2, #44
 800 06ea 1360     		str	r3, [r2]
 801              	.L7:
  95:.\pathfinder.c ****          corner_penalty = 0;
 802              		.loc 1 95 0
 803 06ec 07F57353 		add	r3, r7, #15552
 804 06f0 03F12C03 		add	r3, r3, #44
 805 06f4 1B68     		ldr	r3, [r3]
 806 06f6 042B     		cmp	r3, #4
 807 06f8 7FF675AE 		bls	.L14
 134:.\pathfinder.c ****       }
 135:.\pathfinder.c ****       //set the default cost value so that the for loop will find the lowest unvisited node
 136:.\pathfinder.c ****       nextNodeCost = INF_16;
 808              		.loc 1 136 0
 809 06fc 4FF6FF73 		movw	r3, #65535
 810 0700 07F57352 		add	r2, r7, #15552
 811 0704 02F12602 		add	r2, r2, #38
 812 0708 1380     		strh	r3, [r2]	@ movhi
 137:.\pathfinder.c ****       //find the lowest unvisited node
 138:.\pathfinder.c ****       hasNext = 0;
 813              		.loc 1 138 0
 814 070a 0023     		movs	r3, #0
 815 070c 07F57352 		add	r2, r7, #15552
 816 0710 02F12002 		add	r2, r2, #32
 817 0714 1360     		str	r3, [r2]
 139:.\pathfinder.c **** 
 140:.\pathfinder.c ****       //find the next node to visit
 141:.\pathfinder.c ****       //printf("totalIterationCounter : %d\n", totalIterationCounter);
 142:.\pathfinder.c ****         int i;
 143:.\pathfinder.c ****       for(i = 0; i < totalIterationCounter; i++){
 818              		.loc 1 143 0
 819 0716 0023     		movs	r3, #0
 820 0718 07F57352 		add	r2, r7, #15552
 821 071c 02F11C02 		add	r2, r2, #28
ARM GAS  C:\Users\Tomas\AppData\Local\Temp\cc4KjDQP.s 			page 18


 822 0720 1360     		str	r3, [r2]
 823 0722 ACE0     		b	.L15
 824              	.L29:
 825              		.align	2
 826              	.L28:
 827 0724 00000000 		.word	robot_direction
 828              	.L17:
 144:.\pathfinder.c ****          //printf("i : %d\n", i);
 145:.\pathfinder.c ****          tmpNextNode[Y] = nextNodes[i][Y];
 829              		.loc 1 145 0
 830 0728 07F14003 		add	r3, r7, #64
 831 072c 183B     		subs	r3, r3, #24
 832 072e 07F57352 		add	r2, r7, #15552
 833 0732 02F11C02 		add	r2, r2, #28
 834 0736 1268     		ldr	r2, [r2]
 835 0738 53F83220 		ldr	r2, [r3, r2, lsl #3]
 836 073c 07F14003 		add	r3, r7, #64
 837 0740 303B     		subs	r3, r3, #48
 838 0742 1A60     		str	r2, [r3]
 146:.\pathfinder.c ****          tmpNextNode[X] = nextNodes[i][X];
 839              		.loc 1 146 0
 840 0744 07F14002 		add	r2, r7, #64
 841 0748 183A     		subs	r2, r2, #24
 842 074a 07F57353 		add	r3, r7, #15552
 843 074e 03F11C03 		add	r3, r3, #28
 844 0752 1B68     		ldr	r3, [r3]
 845 0754 DB00     		lsls	r3, r3, #3
 846 0756 1344     		add	r3, r3, r2
 847 0758 5A68     		ldr	r2, [r3, #4]
 848 075a 07F14003 		add	r3, r7, #64
 849 075e 303B     		subs	r3, r3, #48
 850 0760 5A60     		str	r2, [r3, #4]
 147:.\pathfinder.c ****          //printf("tentative_cost : %d\n", Nodes[nextNodes[i][0]][nextNodes[i][1]].tentative_cost);
 148:.\pathfinder.c ****          if(Nodes[nextNodes[i][Y]][nextNodes[i][X]].tentative_cost < nextNodeCost){
 851              		.loc 1 148 0
 852 0762 07F14003 		add	r3, r7, #64
 853 0766 183B     		subs	r3, r3, #24
 854 0768 07F57352 		add	r2, r7, #15552
 855 076c 02F11C02 		add	r2, r2, #28
 856 0770 1268     		ldr	r2, [r2]
 857 0772 53F83210 		ldr	r1, [r3, r2, lsl #3]
 858 0776 07F14002 		add	r2, r7, #64
 859 077a 183A     		subs	r2, r2, #24
 860 077c 07F57353 		add	r3, r7, #15552
 861 0780 03F11C03 		add	r3, r3, #28
 862 0784 1B68     		ldr	r3, [r3]
 863 0786 DB00     		lsls	r3, r3, #3
 864 0788 1344     		add	r3, r3, r2
 865 078a 5868     		ldr	r0, [r3, #4]
 866 078c 07F5CA52 		add	r2, r7, #6464
 867 0790 103A     		subs	r2, r2, #16
 868 0792 0B46     		mov	r3, r1
 869 0794 DB00     		lsls	r3, r3, #3
 870 0796 0B44     		add	r3, r3, r1
 871 0798 5B00     		lsls	r3, r3, #1
 872 079a 0B44     		add	r3, r3, r1
 873 079c 0344     		add	r3, r3, r0
ARM GAS  C:\Users\Tomas\AppData\Local\Temp\cc4KjDQP.s 			page 19


 874 079e 5B01     		lsls	r3, r3, #5
 875 07a0 1344     		add	r3, r3, r2
 876 07a2 1833     		adds	r3, r3, #24
 877 07a4 1B88     		ldrh	r3, [r3]
 878 07a6 07F57352 		add	r2, r7, #15552
 879 07aa 02F12602 		add	r2, r2, #38
 880 07ae 1288     		ldrh	r2, [r2]
 881 07b0 9A42     		cmp	r2, r3
 882 07b2 59D9     		bls	.L16
 149:.\pathfinder.c ****             //printf("1 : %d\n", Nodes[nextNodes[i][0]][nextNodes[i][1]].tentative_cost);
 150:.\pathfinder.c ****             if(Nodes[nextNodes[i][Y]][nextNodes[i][X]].visited == UNVISITED){
 883              		.loc 1 150 0
 884 07b4 07F14003 		add	r3, r7, #64
 885 07b8 183B     		subs	r3, r3, #24
 886 07ba 07F57352 		add	r2, r7, #15552
 887 07be 02F11C02 		add	r2, r2, #28
 888 07c2 1268     		ldr	r2, [r2]
 889 07c4 53F83210 		ldr	r1, [r3, r2, lsl #3]
 890 07c8 07F14002 		add	r2, r7, #64
 891 07cc 183A     		subs	r2, r2, #24
 892 07ce 07F57353 		add	r3, r7, #15552
 893 07d2 03F11C03 		add	r3, r3, #28
 894 07d6 1B68     		ldr	r3, [r3]
 895 07d8 DB00     		lsls	r3, r3, #3
 896 07da 1344     		add	r3, r3, r2
 897 07dc 5868     		ldr	r0, [r3, #4]
 898 07de 07F5CA52 		add	r2, r7, #6464
 899 07e2 103A     		subs	r2, r2, #16
 900 07e4 0B46     		mov	r3, r1
 901 07e6 DB00     		lsls	r3, r3, #3
 902 07e8 0B44     		add	r3, r3, r1
 903 07ea 5B00     		lsls	r3, r3, #1
 904 07ec 0B44     		add	r3, r3, r1
 905 07ee 0344     		add	r3, r3, r0
 906 07f0 5B01     		lsls	r3, r3, #5
 907 07f2 1344     		add	r3, r3, r2
 908 07f4 5B68     		ldr	r3, [r3, #4]
 909 07f6 002B     		cmp	r3, #0
 910 07f8 36D1     		bne	.L16
 151:.\pathfinder.c **** 
 152:.\pathfinder.c ****                //printf("2 : %d\n", Nodes[nextNodes[i][0]][nextNodes[i][1]].visited);
 153:.\pathfinder.c ****                nextNodeCost = Nodes[nextNodes[i][Y]][nextNodes[i][X]].tentative_cost;
 911              		.loc 1 153 0
 912 07fa 07F14003 		add	r3, r7, #64
 913 07fe 183B     		subs	r3, r3, #24
 914 0800 07F57352 		add	r2, r7, #15552
 915 0804 02F11C02 		add	r2, r2, #28
 916 0808 1268     		ldr	r2, [r2]
 917 080a 53F83210 		ldr	r1, [r3, r2, lsl #3]
 918 080e 07F14002 		add	r2, r7, #64
 919 0812 183A     		subs	r2, r2, #24
 920 0814 07F57353 		add	r3, r7, #15552
 921 0818 03F11C03 		add	r3, r3, #28
 922 081c 1B68     		ldr	r3, [r3]
 923 081e DB00     		lsls	r3, r3, #3
 924 0820 1344     		add	r3, r3, r2
 925 0822 5868     		ldr	r0, [r3, #4]
ARM GAS  C:\Users\Tomas\AppData\Local\Temp\cc4KjDQP.s 			page 20


 926 0824 07F5CA52 		add	r2, r7, #6464
 927 0828 103A     		subs	r2, r2, #16
 928 082a 0B46     		mov	r3, r1
 929 082c DB00     		lsls	r3, r3, #3
 930 082e 0B44     		add	r3, r3, r1
 931 0830 5B00     		lsls	r3, r3, #1
 932 0832 0B44     		add	r3, r3, r1
 933 0834 0344     		add	r3, r3, r0
 934 0836 5B01     		lsls	r3, r3, #5
 935 0838 1344     		add	r3, r3, r2
 936 083a 1833     		adds	r3, r3, #24
 937 083c 1B88     		ldrh	r3, [r3]	@ movhi
 938 083e 07F57352 		add	r2, r7, #15552
 939 0842 02F12602 		add	r2, r2, #38
 940 0846 1380     		strh	r3, [r2]	@ movhi
 154:.\pathfinder.c **** 
 155:.\pathfinder.c ****                nextNodeIndex = i;
 941              		.loc 1 155 0
 942 0848 07F57353 		add	r3, r7, #15552
 943 084c 03F11C03 		add	r3, r3, #28
 944 0850 1B68     		ldr	r3, [r3]
 945 0852 07F57352 		add	r2, r7, #15552
 946 0856 02F12802 		add	r2, r2, #40
 947 085a 1360     		str	r3, [r2]
 156:.\pathfinder.c ****                hasNext = 1;
 948              		.loc 1 156 0
 949 085c 0123     		movs	r3, #1
 950 085e 07F57352 		add	r2, r7, #15552
 951 0862 02F12002 		add	r2, r2, #32
 952 0866 1360     		str	r3, [r2]
 953              	.L16:
 143:.\pathfinder.c ****          //printf("i : %d\n", i);
 954              		.loc 1 143 0 discriminator 2
 955 0868 07F57353 		add	r3, r7, #15552
 956 086c 03F11C03 		add	r3, r3, #28
 957 0870 1B68     		ldr	r3, [r3]
 958 0872 0133     		adds	r3, r3, #1
 959 0874 07F57352 		add	r2, r7, #15552
 960 0878 02F11C02 		add	r2, r2, #28
 961 087c 1360     		str	r3, [r2]
 962              	.L15:
 143:.\pathfinder.c ****          //printf("i : %d\n", i);
 963              		.loc 1 143 0 is_stmt 0 discriminator 1
 964 087e 07F57353 		add	r3, r7, #15552
 965 0882 03F11C03 		add	r3, r3, #28
 966 0886 1A68     		ldr	r2, [r3]
 967 0888 07F57353 		add	r3, r7, #15552
 968 088c 03F13403 		add	r3, r3, #52
 969 0890 1B68     		ldr	r3, [r3]
 970 0892 9A42     		cmp	r2, r3
 971 0894 FFF448AF 		bcc	.L17
 157:.\pathfinder.c ****             }
 158:.\pathfinder.c ****          }
 159:.\pathfinder.c ****       }
 160:.\pathfinder.c ****       //printf("has next %d\n", hasNext);
 161:.\pathfinder.c ****       current[Y] = nextNodes[nextNodeIndex][Y];
 972              		.loc 1 161 0 is_stmt 1
ARM GAS  C:\Users\Tomas\AppData\Local\Temp\cc4KjDQP.s 			page 21


 973 0898 07F14003 		add	r3, r7, #64
 974 089c 183B     		subs	r3, r3, #24
 975 089e 07F57352 		add	r2, r7, #15552
 976 08a2 02F12802 		add	r2, r2, #40
 977 08a6 1268     		ldr	r2, [r2]
 978 08a8 53F83220 		ldr	r2, [r3, r2, lsl #3]
 979 08ac 07F5CA53 		add	r3, r7, #6464
 980 08b0 183B     		subs	r3, r3, #24
 981 08b2 1A60     		str	r2, [r3]
 162:.\pathfinder.c ****       current[X] = nextNodes[nextNodeIndex][X];
 982              		.loc 1 162 0
 983 08b4 07F14002 		add	r2, r7, #64
 984 08b8 183A     		subs	r2, r2, #24
 985 08ba 07F57353 		add	r3, r7, #15552
 986 08be 03F12803 		add	r3, r3, #40
 987 08c2 1B68     		ldr	r3, [r3]
 988 08c4 DB00     		lsls	r3, r3, #3
 989 08c6 1344     		add	r3, r3, r2
 990 08c8 5A68     		ldr	r2, [r3, #4]
 991 08ca 07F5CA53 		add	r3, r7, #6464
 992 08ce 183B     		subs	r3, r3, #24
 993 08d0 5A60     		str	r2, [r3, #4]
 163:.\pathfinder.c ****       robot_direction = Nodes[current[Y]][current[X]].direction;
 994              		.loc 1 163 0
 995 08d2 07F5CA53 		add	r3, r7, #6464
 996 08d6 183B     		subs	r3, r3, #24
 997 08d8 1968     		ldr	r1, [r3]
 998 08da 07F5CA53 		add	r3, r7, #6464
 999 08de 183B     		subs	r3, r3, #24
 1000 08e0 5868     		ldr	r0, [r3, #4]
 1001 08e2 07F5CA52 		add	r2, r7, #6464
 1002 08e6 103A     		subs	r2, r2, #16
 1003 08e8 0B46     		mov	r3, r1
 1004 08ea DB00     		lsls	r3, r3, #3
 1005 08ec 0B44     		add	r3, r3, r1
 1006 08ee 5B00     		lsls	r3, r3, #1
 1007 08f0 0B44     		add	r3, r3, r1
 1008 08f2 0344     		add	r3, r3, r0
 1009 08f4 5B01     		lsls	r3, r3, #5
 1010 08f6 1344     		add	r3, r3, r2
 1011 08f8 1833     		adds	r3, r3, #24
 1012 08fa 5B68     		ldr	r3, [r3, #4]
 1013 08fc A04A     		ldr	r2, .L30
 1014 08fe 1360     		str	r3, [r2]
 1015              	.L6:
 1016              	.LBE3:
  91:.\pathfinder.c ****       counter = 1;
 1017              		.loc 1 91 0
 1018 0900 07F5CA53 		add	r3, r7, #6464
 1019 0904 183B     		subs	r3, r3, #24
 1020 0906 1A68     		ldr	r2, [r3]
 1021 0908 07F57453 		add	r3, r7, #15616
 1022 090c 03F11003 		add	r3, r3, #16
 1023 0910 1B68     		ldr	r3, [r3]
 1024 0912 1B68     		ldr	r3, [r3]
 1025 0914 9A42     		cmp	r2, r3
 1026 0916 0CD1     		bne	.L18
ARM GAS  C:\Users\Tomas\AppData\Local\Temp\cc4KjDQP.s 			page 22


  91:.\pathfinder.c ****       counter = 1;
 1027              		.loc 1 91 0 is_stmt 0 discriminator 2
 1028 0918 07F5CA53 		add	r3, r7, #6464
 1029 091c 183B     		subs	r3, r3, #24
 1030 091e 5A68     		ldr	r2, [r3, #4]
 1031 0920 07F57453 		add	r3, r7, #15616
 1032 0924 03F11003 		add	r3, r3, #16
 1033 0928 1B68     		ldr	r3, [r3]
 1034 092a 0433     		adds	r3, r3, #4
 1035 092c 1B68     		ldr	r3, [r3]
 1036 092e 9A42     		cmp	r2, r3
 1037 0930 07D0     		beq	.L19
 1038              	.L18:
  91:.\pathfinder.c ****       counter = 1;
 1039              		.loc 1 91 0 discriminator 3
 1040 0932 07F57353 		add	r3, r7, #15552
 1041 0936 03F12003 		add	r3, r3, #32
 1042 093a 1B68     		ldr	r3, [r3]
 1043 093c 012B     		cmp	r3, #1
 1044 093e 3FF436AD 		beq	.L20
 1045              	.L19:
 164:.\pathfinder.c **** 
 165:.\pathfinder.c ****    }
 166:.\pathfinder.c **** 
 167:.\pathfinder.c ****    counter = 0;
 1046              		.loc 1 167 0 is_stmt 1
 1047 0942 0023     		movs	r3, #0
 1048 0944 07F57352 		add	r2, r7, #15552
 1049 0948 02F12C02 		add	r2, r2, #44
 1050 094c 1360     		str	r3, [r2]
 168:.\pathfinder.c ****    //printf("Node %d | X: %d | Y: %d\n", counter, current[0], current[1]);
 169:.\pathfinder.c ****    if((current[Y] == destination[Y]) && (current[X] == destination[X])){
 1051              		.loc 1 169 0
 1052 094e 07F5CA53 		add	r3, r7, #6464
 1053 0952 183B     		subs	r3, r3, #24
 1054 0954 1A68     		ldr	r2, [r3]
 1055 0956 07F57453 		add	r3, r7, #15616
 1056 095a 03F11003 		add	r3, r3, #16
 1057 095e 1B68     		ldr	r3, [r3]
 1058 0960 1B68     		ldr	r3, [r3]
 1059 0962 9A42     		cmp	r2, r3
 1060 0964 40F00581 		bne	.L21
 1061              		.loc 1 169 0 is_stmt 0 discriminator 1
 1062 0968 07F5CA53 		add	r3, r7, #6464
 1063 096c 183B     		subs	r3, r3, #24
 1064 096e 5A68     		ldr	r2, [r3, #4]
 1065 0970 07F57453 		add	r3, r7, #15616
 1066 0974 03F11003 		add	r3, r3, #16
 1067 0978 1B68     		ldr	r3, [r3]
 1068 097a 0433     		adds	r3, r3, #4
 1069 097c 1B68     		ldr	r3, [r3]
 1070 097e 9A42     		cmp	r2, r3
 1071 0980 40F0F780 		bne	.L21
 1072              	.LBB4:
 170:.\pathfinder.c ****       //printf("1 : startX: %d, startY: %d\n", start[0], start[1]);
 171:.\pathfinder.c ****       node* currentNode = &(Nodes[current[Y]][current[X]]);
 1073              		.loc 1 171 0 is_stmt 1
ARM GAS  C:\Users\Tomas\AppData\Local\Temp\cc4KjDQP.s 			page 23


 1074 0984 07F5CA53 		add	r3, r7, #6464
 1075 0988 183B     		subs	r3, r3, #24
 1076 098a 1968     		ldr	r1, [r3]
 1077 098c 07F5CA53 		add	r3, r7, #6464
 1078 0990 183B     		subs	r3, r3, #24
 1079 0992 5868     		ldr	r0, [r3, #4]
 1080 0994 07F5CA52 		add	r2, r7, #6464
 1081 0998 103A     		subs	r2, r2, #16
 1082 099a 0B46     		mov	r3, r1
 1083 099c DB00     		lsls	r3, r3, #3
 1084 099e 0B44     		add	r3, r3, r1
 1085 09a0 5B00     		lsls	r3, r3, #1
 1086 09a2 0B44     		add	r3, r3, r1
 1087 09a4 0344     		add	r3, r3, r0
 1088 09a6 5B01     		lsls	r3, r3, #5
 1089 09a8 1344     		add	r3, r3, r2
 1090 09aa 07F57352 		add	r2, r7, #15552
 1091 09ae 02F11802 		add	r2, r2, #24
 1092 09b2 1360     		str	r3, [r2]
 172:.\pathfinder.c ****       while(!((currentNode->y == start[Y]) && (currentNode->x == start[X]))){
 1093              		.loc 1 172 0
 1094 09b4 6AE0     		b	.L22
 1095              	.L23:
 173:.\pathfinder.c ****          //printf("1 : %d\n", Nodes[nextNodes[i][0]][nextNodes[i][1]].tentative_cost);
 174:.\pathfinder.c ****          path[counter][Y] = currentNode->y;
 1096              		.loc 1 174 0
 1097 09b6 07F57353 		add	r3, r7, #15552
 1098 09ba 03F12C03 		add	r3, r3, #44
 1099 09be 1A68     		ldr	r2, [r3]
 1100 09c0 1346     		mov	r3, r2
 1101 09c2 5B00     		lsls	r3, r3, #1
 1102 09c4 1344     		add	r3, r3, r2
 1103 09c6 9B00     		lsls	r3, r3, #2
 1104 09c8 1A46     		mov	r2, r3
 1105 09ca 07F14003 		add	r3, r7, #64
 1106 09ce 3C3B     		subs	r3, r3, #60
 1107 09d0 1B68     		ldr	r3, [r3]
 1108 09d2 1344     		add	r3, r3, r2
 1109 09d4 07F57352 		add	r2, r7, #15552
 1110 09d8 02F11802 		add	r2, r2, #24
 1111 09dc 1268     		ldr	r2, [r2]
 1112 09de 1269     		ldr	r2, [r2, #16]
 1113 09e0 1A60     		str	r2, [r3]
 175:.\pathfinder.c ****          path[counter][X] = currentNode->x;
 1114              		.loc 1 175 0
 1115 09e2 07F57353 		add	r3, r7, #15552
 1116 09e6 03F12C03 		add	r3, r3, #44
 1117 09ea 1A68     		ldr	r2, [r3]
 1118 09ec 1346     		mov	r3, r2
 1119 09ee 5B00     		lsls	r3, r3, #1
 1120 09f0 1344     		add	r3, r3, r2
 1121 09f2 9B00     		lsls	r3, r3, #2
 1122 09f4 1A46     		mov	r2, r3
 1123 09f6 07F14003 		add	r3, r7, #64
 1124 09fa 3C3B     		subs	r3, r3, #60
 1125 09fc 1B68     		ldr	r3, [r3]
 1126 09fe 1344     		add	r3, r3, r2
ARM GAS  C:\Users\Tomas\AppData\Local\Temp\cc4KjDQP.s 			page 24


 1127 0a00 07F57352 		add	r2, r7, #15552
 1128 0a04 02F11802 		add	r2, r2, #24
 1129 0a08 1268     		ldr	r2, [r2]
 1130 0a0a D268     		ldr	r2, [r2, #12]
 1131 0a0c 5A60     		str	r2, [r3, #4]
 176:.\pathfinder.c ****          path[counter][DIR] = Nodes[currentNode->y][currentNode->x].direction;
 1132              		.loc 1 176 0
 1133 0a0e 07F57353 		add	r3, r7, #15552
 1134 0a12 03F12C03 		add	r3, r3, #44
 1135 0a16 1A68     		ldr	r2, [r3]
 1136 0a18 1346     		mov	r3, r2
 1137 0a1a 5B00     		lsls	r3, r3, #1
 1138 0a1c 1344     		add	r3, r3, r2
 1139 0a1e 9B00     		lsls	r3, r3, #2
 1140 0a20 1A46     		mov	r2, r3
 1141 0a22 07F14003 		add	r3, r7, #64
 1142 0a26 3C3B     		subs	r3, r3, #60
 1143 0a28 1B68     		ldr	r3, [r3]
 1144 0a2a 9818     		adds	r0, r3, r2
 1145 0a2c 07F57353 		add	r3, r7, #15552
 1146 0a30 03F11803 		add	r3, r3, #24
 1147 0a34 1B68     		ldr	r3, [r3]
 1148 0a36 1969     		ldr	r1, [r3, #16]
 1149 0a38 07F57353 		add	r3, r7, #15552
 1150 0a3c 03F11803 		add	r3, r3, #24
 1151 0a40 1B68     		ldr	r3, [r3]
 1152 0a42 DC68     		ldr	r4, [r3, #12]
 1153 0a44 07F5CA52 		add	r2, r7, #6464
 1154 0a48 103A     		subs	r2, r2, #16
 1155 0a4a 0B46     		mov	r3, r1
 1156 0a4c DB00     		lsls	r3, r3, #3
 1157 0a4e 0B44     		add	r3, r3, r1
 1158 0a50 5B00     		lsls	r3, r3, #1
 1159 0a52 0B44     		add	r3, r3, r1
 1160 0a54 2344     		add	r3, r3, r4
 1161 0a56 5B01     		lsls	r3, r3, #5
 1162 0a58 1344     		add	r3, r3, r2
 1163 0a5a 1833     		adds	r3, r3, #24
 1164 0a5c 5B68     		ldr	r3, [r3, #4]
 1165 0a5e 8360     		str	r3, [r0, #8]
 177:.\pathfinder.c ****          //printf("direction2 %d\n", path[0][DIR]);
 178:.\pathfinder.c ****          currentNode = currentNode->prevNode;
 1166              		.loc 1 178 0
 1167 0a60 07F57353 		add	r3, r7, #15552
 1168 0a64 03F11803 		add	r3, r3, #24
 1169 0a68 1B68     		ldr	r3, [r3]
 1170 0a6a 5B69     		ldr	r3, [r3, #20]
 1171 0a6c 07F57352 		add	r2, r7, #15552
 1172 0a70 02F11802 		add	r2, r2, #24
 1173 0a74 1360     		str	r3, [r2]
 179:.\pathfinder.c **** 
 180:.\pathfinder.c ****          counter++;
 1174              		.loc 1 180 0
 1175 0a76 07F57353 		add	r3, r7, #15552
 1176 0a7a 03F12C03 		add	r3, r3, #44
 1177 0a7e 1B68     		ldr	r3, [r3]
 1178 0a80 0133     		adds	r3, r3, #1
ARM GAS  C:\Users\Tomas\AppData\Local\Temp\cc4KjDQP.s 			page 25


 1179 0a82 07F57352 		add	r2, r7, #15552
 1180 0a86 02F12C02 		add	r2, r2, #44
 1181 0a8a 1360     		str	r3, [r2]
 1182              	.L22:
 172:.\pathfinder.c ****          //printf("1 : %d\n", Nodes[nextNodes[i][0]][nextNodes[i][1]].tentative_cost);
 1183              		.loc 1 172 0
 1184 0a8c 07F57353 		add	r3, r7, #15552
 1185 0a90 03F11803 		add	r3, r3, #24
 1186 0a94 1B68     		ldr	r3, [r3]
 1187 0a96 1A69     		ldr	r2, [r3, #16]
 1188 0a98 3B46     		mov	r3, r7
 1189 0a9a 1B68     		ldr	r3, [r3]
 1190 0a9c 1B68     		ldr	r3, [r3]
 1191 0a9e 9A42     		cmp	r2, r3
 1192 0aa0 89D1     		bne	.L23
 172:.\pathfinder.c ****          //printf("1 : %d\n", Nodes[nextNodes[i][0]][nextNodes[i][1]].tentative_cost);
 1193              		.loc 1 172 0 is_stmt 0 discriminator 1
 1194 0aa2 07F57353 		add	r3, r7, #15552
 1195 0aa6 03F11803 		add	r3, r3, #24
 1196 0aaa 1B68     		ldr	r3, [r3]
 1197 0aac DA68     		ldr	r2, [r3, #12]
 1198 0aae 3B46     		mov	r3, r7
 1199 0ab0 1B68     		ldr	r3, [r3]
 1200 0ab2 0433     		adds	r3, r3, #4
 1201 0ab4 1B68     		ldr	r3, [r3]
 1202 0ab6 9A42     		cmp	r2, r3
 1203 0ab8 7FF47DAF 		bne	.L23
 181:.\pathfinder.c ****       }
 182:.\pathfinder.c ****       path[counter][Y] = currentNode->y;
 1204              		.loc 1 182 0 is_stmt 1
 1205 0abc 07F57353 		add	r3, r7, #15552
 1206 0ac0 03F12C03 		add	r3, r3, #44
 1207 0ac4 1A68     		ldr	r2, [r3]
 1208 0ac6 1346     		mov	r3, r2
 1209 0ac8 5B00     		lsls	r3, r3, #1
 1210 0aca 1344     		add	r3, r3, r2
 1211 0acc 9B00     		lsls	r3, r3, #2
 1212 0ace 1A46     		mov	r2, r3
 1213 0ad0 07F14003 		add	r3, r7, #64
 1214 0ad4 3C3B     		subs	r3, r3, #60
 1215 0ad6 1B68     		ldr	r3, [r3]
 1216 0ad8 1344     		add	r3, r3, r2
 1217 0ada 07F57352 		add	r2, r7, #15552
 1218 0ade 02F11802 		add	r2, r2, #24
 1219 0ae2 1268     		ldr	r2, [r2]
 1220 0ae4 1269     		ldr	r2, [r2, #16]
 1221 0ae6 1A60     		str	r2, [r3]
 183:.\pathfinder.c ****       path[counter][X] = currentNode->x;
 1222              		.loc 1 183 0
 1223 0ae8 07F57353 		add	r3, r7, #15552
 1224 0aec 03F12C03 		add	r3, r3, #44
 1225 0af0 1A68     		ldr	r2, [r3]
 1226 0af2 1346     		mov	r3, r2
 1227 0af4 5B00     		lsls	r3, r3, #1
 1228 0af6 1344     		add	r3, r3, r2
 1229 0af8 9B00     		lsls	r3, r3, #2
 1230 0afa 1A46     		mov	r2, r3
ARM GAS  C:\Users\Tomas\AppData\Local\Temp\cc4KjDQP.s 			page 26


 1231 0afc 07F14003 		add	r3, r7, #64
 1232 0b00 3C3B     		subs	r3, r3, #60
 1233 0b02 1B68     		ldr	r3, [r3]
 1234 0b04 1344     		add	r3, r3, r2
 1235 0b06 07F57352 		add	r2, r7, #15552
 1236 0b0a 02F11802 		add	r2, r2, #24
 1237 0b0e 1268     		ldr	r2, [r2]
 1238 0b10 D268     		ldr	r2, [r2, #12]
 1239 0b12 5A60     		str	r2, [r3, #4]
 184:.\pathfinder.c ****       path[counter][DIR] = Nodes[currentNode->y][currentNode->x].direction;
 1240              		.loc 1 184 0
 1241 0b14 07F57353 		add	r3, r7, #15552
 1242 0b18 03F12C03 		add	r3, r3, #44
 1243 0b1c 1A68     		ldr	r2, [r3]
 1244 0b1e 1346     		mov	r3, r2
 1245 0b20 5B00     		lsls	r3, r3, #1
 1246 0b22 1344     		add	r3, r3, r2
 1247 0b24 9B00     		lsls	r3, r3, #2
 1248 0b26 1A46     		mov	r2, r3
 1249 0b28 07F14003 		add	r3, r7, #64
 1250 0b2c 3C3B     		subs	r3, r3, #60
 1251 0b2e 1B68     		ldr	r3, [r3]
 1252 0b30 9818     		adds	r0, r3, r2
 1253 0b32 07F57353 		add	r3, r7, #15552
 1254 0b36 03F11803 		add	r3, r3, #24
 1255 0b3a 1B68     		ldr	r3, [r3]
 1256 0b3c 1969     		ldr	r1, [r3, #16]
 1257 0b3e 07F57353 		add	r3, r7, #15552
 1258 0b42 03F11803 		add	r3, r3, #24
 1259 0b46 1B68     		ldr	r3, [r3]
 1260 0b48 DC68     		ldr	r4, [r3, #12]
 1261 0b4a 07F5CA52 		add	r2, r7, #6464
 1262 0b4e 103A     		subs	r2, r2, #16
 1263 0b50 0B46     		mov	r3, r1
 1264 0b52 DB00     		lsls	r3, r3, #3
 1265 0b54 0B44     		add	r3, r3, r1
 1266 0b56 5B00     		lsls	r3, r3, #1
 1267 0b58 0B44     		add	r3, r3, r1
 1268 0b5a 2344     		add	r3, r3, r4
 1269 0b5c 5B01     		lsls	r3, r3, #5
 1270 0b5e 1344     		add	r3, r3, r2
 1271 0b60 1833     		adds	r3, r3, #24
 1272 0b62 5B68     		ldr	r3, [r3, #4]
 1273 0b64 8360     		str	r3, [r0, #8]
 185:.\pathfinder.c ****       return counter;
 1274              		.loc 1 185 0
 1275 0b66 07F57353 		add	r3, r7, #15552
 1276 0b6a 03F12C03 		add	r3, r3, #44
 1277 0b6e 1B68     		ldr	r3, [r3]
 1278 0b70 00E0     		b	.L25
 1279              	.L21:
 1280              	.LBE4:
 186:.\pathfinder.c ****    }else{
 187:.\pathfinder.c ****       return 0;
 1281              		.loc 1 187 0
 1282 0b72 0023     		movs	r3, #0
 1283              	.L25:
ARM GAS  C:\Users\Tomas\AppData\Local\Temp\cc4KjDQP.s 			page 27


 188:.\pathfinder.c ****    }
 189:.\pathfinder.c **** 
 190:.\pathfinder.c ****    //return 0;
 191:.\pathfinder.c **** }
 1284              		.loc 1 191 0 discriminator 1
 1285 0b74 1846     		mov	r0, r3
 1286 0b76 07F57457 		add	r7, r7, #15616
 1287              		.cfi_def_cfa_offset 16
 1288 0b7a BD46     		mov	sp, r7
 1289              		.cfi_def_cfa_register 13
 1290              		@ sp needed
 1291 0b7c B0BD     		pop	{r4, r5, r7, pc}
 1292              	.L31:
 1293 0b7e 00BF     		.align	2
 1294              	.L30:
 1295 0b80 00000000 		.word	robot_direction
 1296              		.cfi_endproc
 1297              	.LFE63:
 1298              		.size	djikstras, .-djikstras
 1299              		.section	.text.DepthFirst,"ax",%progbits
 1300              		.align	2
 1301              		.global	DepthFirst
 1302              		.thumb
 1303              		.thumb_func
 1304              		.type	DepthFirst, %function
 1305              	DepthFirst:
 1306              	.LFB64:
 192:.\pathfinder.c **** 
 193:.\pathfinder.c **** 
 194:.\pathfinder.c **** uint32_t DepthFirst(uint32_t map[Y_SIZE][X_SIZE], uint32_t food_list[6][2], uint32_t path[DEFAULT_A
 1307              		.loc 1 194 0
 1308              		.cfi_startproc
 1309              		@ args = 8, pretend = 0, frame = 15616
 1310              		@ frame_needed = 1, uses_anonymous_args = 0
 1311 0000 B0B5     		push	{r4, r5, r7, lr}
 1312              		.cfi_def_cfa_offset 16
 1313              		.cfi_offset 4, -16
 1314              		.cfi_offset 5, -12
 1315              		.cfi_offset 7, -8
 1316              		.cfi_offset 14, -4
 1317 0002 ADF5745D 		sub	sp, sp, #15616
 1318              		.cfi_def_cfa_offset 15632
 1319 0006 00AF     		add	r7, sp, #0
 1320              		.cfi_def_cfa_register 7
 1321 0008 07F14004 		add	r4, r7, #64
 1322 000c 343C     		subs	r4, r4, #52
 1323 000e 2060     		str	r0, [r4]
 1324 0010 07F14000 		add	r0, r7, #64
 1325 0014 3838     		subs	r0, r0, #56
 1326 0016 0160     		str	r1, [r0]
 1327 0018 07F14001 		add	r1, r7, #64
 1328 001c 3C39     		subs	r1, r1, #60
 1329 001e 0A60     		str	r2, [r1]
 1330 0020 3A46     		mov	r2, r7
 1331 0022 1360     		str	r3, [r2]
 195:.\pathfinder.c ****    //printf("Finding path\n");
 196:.\pathfinder.c ****    node Nodes[Y_SIZE][X_SIZE];
ARM GAS  C:\Users\Tomas\AppData\Local\Temp\cc4KjDQP.s 			page 28


 197:.\pathfinder.c ****    //fill up the default information for each node
 198:.\pathfinder.c ****    uint32_t i, j;
 199:.\pathfinder.c ****    for(i = 0; i < Y_SIZE; i++){
 1332              		.loc 1 199 0
 1333 0024 0023     		movs	r3, #0
 1334 0026 07F57352 		add	r2, r7, #15552
 1335 002a 02F13C02 		add	r2, r2, #60
 1336 002e 1360     		str	r3, [r2]
 1337 0030 FDE0     		b	.L33
 1338              	.L36:
 200:.\pathfinder.c ****       for(j = 0; j < X_SIZE; j++){
 1339              		.loc 1 200 0
 1340 0032 0023     		movs	r3, #0
 1341 0034 07F57352 		add	r2, r7, #15552
 1342 0038 02F13802 		add	r2, r2, #56
 1343 003c 1360     		str	r3, [r2]
 1344 003e E3E0     		b	.L34
 1345              	.L35:
 201:.\pathfinder.c ****             Nodes[i][j].path = map[i][j];//map information
 1346              		.loc 1 201 0 discriminator 3
 1347 0040 07F57353 		add	r3, r7, #15552
 1348 0044 03F13C03 		add	r3, r3, #60
 1349 0048 1B68     		ldr	r3, [r3]
 1350 004a 4C22     		movs	r2, #76
 1351 004c 02FB03F2 		mul	r2, r2, r3
 1352 0050 07F14003 		add	r3, r7, #64
 1353 0054 343B     		subs	r3, r3, #52
 1354 0056 1B68     		ldr	r3, [r3]
 1355 0058 1344     		add	r3, r3, r2
 1356 005a 07F57352 		add	r2, r7, #15552
 1357 005e 02F13802 		add	r2, r2, #56
 1358 0062 1268     		ldr	r2, [r2]
 1359 0064 53F82200 		ldr	r0, [r3, r2, lsl #2]
 1360 0068 07F5CA52 		add	r2, r7, #6464
 1361 006c 103A     		subs	r2, r2, #16
 1362 006e 07F57353 		add	r3, r7, #15552
 1363 0072 03F13C03 		add	r3, r3, #60
 1364 0076 1968     		ldr	r1, [r3]
 1365 0078 0B46     		mov	r3, r1
 1366 007a DB00     		lsls	r3, r3, #3
 1367 007c 0B44     		add	r3, r3, r1
 1368 007e 5B00     		lsls	r3, r3, #1
 1369 0080 0B44     		add	r3, r3, r1
 1370 0082 07F57351 		add	r1, r7, #15552
 1371 0086 01F13801 		add	r1, r1, #56
 1372 008a 0968     		ldr	r1, [r1]
 1373 008c 0B44     		add	r3, r3, r1
 1374 008e 5B01     		lsls	r3, r3, #5
 1375 0090 1344     		add	r3, r3, r2
 1376 0092 1860     		str	r0, [r3]
 202:.\pathfinder.c ****             //printf("%d\n", map[i][j]);
 203:.\pathfinder.c ****             Nodes[i][j].visited = UNVISITED; //set all unvisited
 1377              		.loc 1 203 0 discriminator 3
 1378 0094 07F5CA52 		add	r2, r7, #6464
 1379 0098 103A     		subs	r2, r2, #16
 1380 009a 07F57353 		add	r3, r7, #15552
 1381 009e 03F13C03 		add	r3, r3, #60
ARM GAS  C:\Users\Tomas\AppData\Local\Temp\cc4KjDQP.s 			page 29


 1382 00a2 1968     		ldr	r1, [r3]
 1383 00a4 0B46     		mov	r3, r1
 1384 00a6 DB00     		lsls	r3, r3, #3
 1385 00a8 0B44     		add	r3, r3, r1
 1386 00aa 5B00     		lsls	r3, r3, #1
 1387 00ac 0B44     		add	r3, r3, r1
 1388 00ae 07F57351 		add	r1, r7, #15552
 1389 00b2 01F13801 		add	r1, r1, #56
 1390 00b6 0968     		ldr	r1, [r1]
 1391 00b8 0B44     		add	r3, r3, r1
 1392 00ba 5B01     		lsls	r3, r3, #5
 1393 00bc 1344     		add	r3, r3, r2
 1394 00be 0022     		movs	r2, #0
 1395 00c0 5A60     		str	r2, [r3, #4]
 204:.\pathfinder.c ****             Nodes[i][j].cost = DEFAULT_NODE_COST; // seet the cost of going to this node to the def
 1396              		.loc 1 204 0 discriminator 3
 1397 00c2 07F5CA52 		add	r2, r7, #6464
 1398 00c6 103A     		subs	r2, r2, #16
 1399 00c8 07F57353 		add	r3, r7, #15552
 1400 00cc 03F13C03 		add	r3, r3, #60
 1401 00d0 1968     		ldr	r1, [r3]
 1402 00d2 0B46     		mov	r3, r1
 1403 00d4 DB00     		lsls	r3, r3, #3
 1404 00d6 0B44     		add	r3, r3, r1
 1405 00d8 5B00     		lsls	r3, r3, #1
 1406 00da 0B44     		add	r3, r3, r1
 1407 00dc 07F57351 		add	r1, r7, #15552
 1408 00e0 01F13801 		add	r1, r1, #56
 1409 00e4 0968     		ldr	r1, [r1]
 1410 00e6 0B44     		add	r3, r3, r1
 1411 00e8 5B01     		lsls	r3, r3, #5
 1412 00ea 1344     		add	r3, r3, r2
 1413 00ec 0833     		adds	r3, r3, #8
 1414 00ee 0A22     		movs	r2, #10
 1415 00f0 1A80     		strh	r2, [r3]	@ movhi
 205:.\pathfinder.c ****             Nodes[i][j].y = i;
 1416              		.loc 1 205 0 discriminator 3
 1417 00f2 07F5CA52 		add	r2, r7, #6464
 1418 00f6 103A     		subs	r2, r2, #16
 1419 00f8 07F57353 		add	r3, r7, #15552
 1420 00fc 03F13C03 		add	r3, r3, #60
 1421 0100 1968     		ldr	r1, [r3]
 1422 0102 0B46     		mov	r3, r1
 1423 0104 DB00     		lsls	r3, r3, #3
 1424 0106 0B44     		add	r3, r3, r1
 1425 0108 5B00     		lsls	r3, r3, #1
 1426 010a 0B44     		add	r3, r3, r1
 1427 010c 07F57351 		add	r1, r7, #15552
 1428 0110 01F13801 		add	r1, r1, #56
 1429 0114 0968     		ldr	r1, [r1]
 1430 0116 0B44     		add	r3, r3, r1
 1431 0118 5B01     		lsls	r3, r3, #5
 1432 011a 1344     		add	r3, r3, r2
 1433 011c 1033     		adds	r3, r3, #16
 1434 011e 07F57352 		add	r2, r7, #15552
 1435 0122 02F13C02 		add	r2, r2, #60
 1436 0126 1268     		ldr	r2, [r2]
ARM GAS  C:\Users\Tomas\AppData\Local\Temp\cc4KjDQP.s 			page 30


 1437 0128 1A60     		str	r2, [r3]
 206:.\pathfinder.c ****             Nodes[i][j].x = j;
 1438              		.loc 1 206 0 discriminator 3
 1439 012a 07F5CA52 		add	r2, r7, #6464
 1440 012e 103A     		subs	r2, r2, #16
 1441 0130 07F57353 		add	r3, r7, #15552
 1442 0134 03F13C03 		add	r3, r3, #60
 1443 0138 1968     		ldr	r1, [r3]
 1444 013a 0B46     		mov	r3, r1
 1445 013c DB00     		lsls	r3, r3, #3
 1446 013e 0B44     		add	r3, r3, r1
 1447 0140 5B00     		lsls	r3, r3, #1
 1448 0142 0B44     		add	r3, r3, r1
 1449 0144 07F57351 		add	r1, r7, #15552
 1450 0148 01F13801 		add	r1, r1, #56
 1451 014c 0968     		ldr	r1, [r1]
 1452 014e 0B44     		add	r3, r3, r1
 1453 0150 5B01     		lsls	r3, r3, #5
 1454 0152 1344     		add	r3, r3, r2
 1455 0154 0833     		adds	r3, r3, #8
 1456 0156 07F57352 		add	r2, r7, #15552
 1457 015a 02F13802 		add	r2, r2, #56
 1458 015e 1268     		ldr	r2, [r2]
 1459 0160 5A60     		str	r2, [r3, #4]
 207:.\pathfinder.c ****             Nodes[i][j].prevNode = 0;
 1460              		.loc 1 207 0 discriminator 3
 1461 0162 07F5CA52 		add	r2, r7, #6464
 1462 0166 103A     		subs	r2, r2, #16
 1463 0168 07F57353 		add	r3, r7, #15552
 1464 016c 03F13C03 		add	r3, r3, #60
 1465 0170 1968     		ldr	r1, [r3]
 1466 0172 0B46     		mov	r3, r1
 1467 0174 DB00     		lsls	r3, r3, #3
 1468 0176 0B44     		add	r3, r3, r1
 1469 0178 5B00     		lsls	r3, r3, #1
 1470 017a 0B44     		add	r3, r3, r1
 1471 017c 07F57351 		add	r1, r7, #15552
 1472 0180 01F13801 		add	r1, r1, #56
 1473 0184 0968     		ldr	r1, [r1]
 1474 0186 0B44     		add	r3, r3, r1
 1475 0188 5B01     		lsls	r3, r3, #5
 1476 018a 1344     		add	r3, r3, r2
 1477 018c 1033     		adds	r3, r3, #16
 1478 018e 0022     		movs	r2, #0
 1479 0190 5A60     		str	r2, [r3, #4]
 208:.\pathfinder.c ****             Nodes[i][j].tentative_cost = 0;// set the current cost to infinity
 1480              		.loc 1 208 0 discriminator 3
 1481 0192 07F5CA52 		add	r2, r7, #6464
 1482 0196 103A     		subs	r2, r2, #16
 1483 0198 07F57353 		add	r3, r7, #15552
 1484 019c 03F13C03 		add	r3, r3, #60
 1485 01a0 1968     		ldr	r1, [r3]
 1486 01a2 0B46     		mov	r3, r1
 1487 01a4 DB00     		lsls	r3, r3, #3
 1488 01a6 0B44     		add	r3, r3, r1
 1489 01a8 5B00     		lsls	r3, r3, #1
 1490 01aa 0B44     		add	r3, r3, r1
ARM GAS  C:\Users\Tomas\AppData\Local\Temp\cc4KjDQP.s 			page 31


 1491 01ac 07F57351 		add	r1, r7, #15552
 1492 01b0 01F13801 		add	r1, r1, #56
 1493 01b4 0968     		ldr	r1, [r1]
 1494 01b6 0B44     		add	r3, r3, r1
 1495 01b8 5B01     		lsls	r3, r3, #5
 1496 01ba 1344     		add	r3, r3, r2
 1497 01bc 1833     		adds	r3, r3, #24
 1498 01be 0022     		movs	r2, #0
 1499 01c0 1A80     		strh	r2, [r3]	@ movhi
 209:.\pathfinder.c ****             Nodes[i][j].direction = 0;
 1500              		.loc 1 209 0 discriminator 3
 1501 01c2 07F5CA52 		add	r2, r7, #6464
 1502 01c6 103A     		subs	r2, r2, #16
 1503 01c8 07F57353 		add	r3, r7, #15552
 1504 01cc 03F13C03 		add	r3, r3, #60
 1505 01d0 1968     		ldr	r1, [r3]
 1506 01d2 0B46     		mov	r3, r1
 1507 01d4 DB00     		lsls	r3, r3, #3
 1508 01d6 0B44     		add	r3, r3, r1
 1509 01d8 5B00     		lsls	r3, r3, #1
 1510 01da 0B44     		add	r3, r3, r1
 1511 01dc 07F57351 		add	r1, r7, #15552
 1512 01e0 01F13801 		add	r1, r1, #56
 1513 01e4 0968     		ldr	r1, [r1]
 1514 01e6 0B44     		add	r3, r3, r1
 1515 01e8 5B01     		lsls	r3, r3, #5
 1516 01ea 1344     		add	r3, r3, r2
 1517 01ec 1833     		adds	r3, r3, #24
 1518 01ee 0022     		movs	r2, #0
 1519 01f0 5A60     		str	r2, [r3, #4]
 200:.\pathfinder.c ****             Nodes[i][j].path = map[i][j];//map information
 1520              		.loc 1 200 0 discriminator 3
 1521 01f2 07F57353 		add	r3, r7, #15552
 1522 01f6 03F13803 		add	r3, r3, #56
 1523 01fa 1B68     		ldr	r3, [r3]
 1524 01fc 0133     		adds	r3, r3, #1
 1525 01fe 07F57352 		add	r2, r7, #15552
 1526 0202 02F13802 		add	r2, r2, #56
 1527 0206 1360     		str	r3, [r2]
 1528              	.L34:
 200:.\pathfinder.c ****             Nodes[i][j].path = map[i][j];//map information
 1529              		.loc 1 200 0 is_stmt 0 discriminator 1
 1530 0208 07F57353 		add	r3, r7, #15552
 1531 020c 03F13803 		add	r3, r3, #56
 1532 0210 1B68     		ldr	r3, [r3]
 1533 0212 122B     		cmp	r3, #18
 1534 0214 7FF614AF 		bls	.L35
 199:.\pathfinder.c ****       for(j = 0; j < X_SIZE; j++){
 1535              		.loc 1 199 0 is_stmt 1 discriminator 2
 1536 0218 07F57353 		add	r3, r7, #15552
 1537 021c 03F13C03 		add	r3, r3, #60
 1538 0220 1B68     		ldr	r3, [r3]
 1539 0222 0133     		adds	r3, r3, #1
 1540 0224 07F57352 		add	r2, r7, #15552
 1541 0228 02F13C02 		add	r2, r2, #60
 1542 022c 1360     		str	r3, [r2]
 1543              	.L33:
ARM GAS  C:\Users\Tomas\AppData\Local\Temp\cc4KjDQP.s 			page 32


 199:.\pathfinder.c ****       for(j = 0; j < X_SIZE; j++){
 1544              		.loc 1 199 0 is_stmt 0 discriminator 1
 1545 022e 07F57353 		add	r3, r7, #15552
 1546 0232 03F13C03 		add	r3, r3, #60
 1547 0236 1B68     		ldr	r3, [r3]
 1548 0238 0E2B     		cmp	r3, #14
 1549 023a 7FF6FAAE 		bls	.L36
 210:.\pathfinder.c ****       }
 211:.\pathfinder.c ****    }
 212:.\pathfinder.c **** 
 213:.\pathfinder.c **** 
 214:.\pathfinder.c ****    uint32_t current[2];
 215:.\pathfinder.c ****    //memcpy(current, start, sizeof(current));//because nothing works in c the way you want it to
 216:.\pathfinder.c ****    current[Y] = start[Y];
 1550              		.loc 1 216 0 is_stmt 1
 1551 023e 3B46     		mov	r3, r7
 1552 0240 1B68     		ldr	r3, [r3]
 1553 0242 1A68     		ldr	r2, [r3]
 1554 0244 07F5CA53 		add	r3, r7, #6464
 1555 0248 183B     		subs	r3, r3, #24
 1556 024a 1A60     		str	r2, [r3]
 217:.\pathfinder.c ****    current[X] = start[X];
 1557              		.loc 1 217 0
 1558 024c 3B46     		mov	r3, r7
 1559 024e 1B68     		ldr	r3, [r3]
 1560 0250 5A68     		ldr	r2, [r3, #4]
 1561 0252 07F5CA53 		add	r3, r7, #6464
 1562 0256 183B     		subs	r3, r3, #24
 1563 0258 5A60     		str	r2, [r3, #4]
 218:.\pathfinder.c ****    uint32_t totalIterationCounter = 0;
 1564              		.loc 1 218 0
 1565 025a 0023     		movs	r3, #0
 1566 025c 07F57352 		add	r2, r7, #15552
 1567 0260 02F13402 		add	r2, r2, #52
 1568 0264 1360     		str	r3, [r2]
 219:.\pathfinder.c ****    uint32_t nextNodes[DEFAULT_ARRAY_SIZE][2] = {0};
 1569              		.loc 1 219 0
 1570 0266 07F14003 		add	r3, r7, #64
 1571 026a 183B     		subs	r3, r3, #24
 1572 026c 1A46     		mov	r2, r3
 1573 026e 4FF4C853 		mov	r3, #6400
 1574 0272 1046     		mov	r0, r2
 1575 0274 0021     		movs	r1, #0
 1576 0276 1A46     		mov	r2, r3
 1577 0278 FFF7FEFF 		bl	memset
 220:.\pathfinder.c ****    //uint32_t nextNodesDirection[DEFAULT_ARRAY_SIZE] = {0};
 221:.\pathfinder.c ****    uint32_t tentativeNode[2] = {0};//x and y coordinate of the next node
 1578              		.loc 1 221 0
 1579 027c 07F14003 		add	r3, r7, #64
 1580 0280 203B     		subs	r3, r3, #32
 1581 0282 0022     		movs	r2, #0
 1582 0284 1A60     		str	r2, [r3]
 1583 0286 0022     		movs	r2, #0
 1584 0288 5A60     		str	r2, [r3, #4]
 222:.\pathfinder.c ****    uint32_t unreachable = 0;
 1585              		.loc 1 222 0
 1586 028a 0023     		movs	r3, #0
ARM GAS  C:\Users\Tomas\AppData\Local\Temp\cc4KjDQP.s 			page 33


 1587 028c 07F57352 		add	r2, r7, #15552
 1588 0290 02F11402 		add	r2, r2, #20
 1589 0294 1360     		str	r3, [r2]
 223:.\pathfinder.c ****    uint32_t corner_penalty = 0;
 1590              		.loc 1 223 0
 1591 0296 0023     		movs	r3, #0
 1592 0298 07F57352 		add	r2, r7, #15552
 1593 029c 02F13002 		add	r2, r2, #48
 1594 02a0 1360     		str	r3, [r2]
 224:.\pathfinder.c ****    uint32_t counter = 0;
 1595              		.loc 1 224 0
 1596 02a2 0023     		movs	r3, #0
 1597 02a4 07F57352 		add	r2, r7, #15552
 1598 02a8 02F12C02 		add	r2, r2, #44
 1599 02ac 1360     		str	r3, [r2]
 225:.\pathfinder.c ****    uint16 tmpCost = 0;
 1600              		.loc 1 225 0
 1601 02ae 0023     		movs	r3, #0
 1602 02b0 07F57352 		add	r2, r7, #15552
 1603 02b4 02F11202 		add	r2, r2, #18
 1604 02b8 1380     		strh	r3, [r2]	@ movhi
 226:.\pathfinder.c ****    uint32_t nextNode[2] = {0, 0};
 1605              		.loc 1 226 0
 1606 02ba 07F14003 		add	r3, r7, #64
 1607 02be 283B     		subs	r3, r3, #40
 1608 02c0 0022     		movs	r2, #0
 1609 02c2 1A60     		str	r2, [r3]
 1610 02c4 07F14003 		add	r3, r7, #64
 1611 02c8 283B     		subs	r3, r3, #40
 1612 02ca 0022     		movs	r2, #0
 1613 02cc 5A60     		str	r2, [r3, #4]
 227:.\pathfinder.c ****    uint32_t nextNodeIndex = 0;
 1614              		.loc 1 227 0
 1615 02ce 0023     		movs	r3, #0
 1616 02d0 07F57352 		add	r2, r7, #15552
 1617 02d4 02F12802 		add	r2, r2, #40
 1618 02d8 1360     		str	r3, [r2]
 228:.\pathfinder.c ****    uint32_t tmpNextNode[2] = {0};
 1619              		.loc 1 228 0
 1620 02da 07F14003 		add	r3, r7, #64
 1621 02de 303B     		subs	r3, r3, #48
 1622 02e0 0022     		movs	r2, #0
 1623 02e2 1A60     		str	r2, [r3]
 1624 02e4 0022     		movs	r2, #0
 1625 02e6 5A60     		str	r2, [r3, #4]
 229:.\pathfinder.c ****    uint32_t nextNodeCost = 0;
 1626              		.loc 1 229 0
 1627 02e8 0023     		movs	r3, #0
 1628 02ea 07F57352 		add	r2, r7, #15552
 1629 02ee 02F12402 		add	r2, r2, #36
 1630 02f2 1360     		str	r3, [r2]
 230:.\pathfinder.c ****    uint32_t hasNext = 1;
 1631              		.loc 1 230 0
 1632 02f4 0123     		movs	r3, #1
 1633 02f6 07F57352 		add	r2, r7, #15552
 1634 02fa 02F12002 		add	r2, r2, #32
 1635 02fe 1360     		str	r3, [r2]
ARM GAS  C:\Users\Tomas\AppData\Local\Temp\cc4KjDQP.s 			page 34


 231:.\pathfinder.c **** 
 232:.\pathfinder.c ****    //set the initial variables
 233:.\pathfinder.c ****    Nodes[current[Y]][current[X]].tentative_cost = 0;
 1636              		.loc 1 233 0
 1637 0300 07F5CA53 		add	r3, r7, #6464
 1638 0304 183B     		subs	r3, r3, #24
 1639 0306 1968     		ldr	r1, [r3]
 1640 0308 07F5CA53 		add	r3, r7, #6464
 1641 030c 183B     		subs	r3, r3, #24
 1642 030e 5868     		ldr	r0, [r3, #4]
 1643 0310 07F5CA52 		add	r2, r7, #6464
 1644 0314 103A     		subs	r2, r2, #16
 1645 0316 0B46     		mov	r3, r1
 1646 0318 DB00     		lsls	r3, r3, #3
 1647 031a 0B44     		add	r3, r3, r1
 1648 031c 5B00     		lsls	r3, r3, #1
 1649 031e 0B44     		add	r3, r3, r1
 1650 0320 0344     		add	r3, r3, r0
 1651 0322 5B01     		lsls	r3, r3, #5
 1652 0324 1344     		add	r3, r3, r2
 1653 0326 1833     		adds	r3, r3, #24
 1654 0328 0022     		movs	r2, #0
 1655 032a 1A80     		strh	r2, [r3]	@ movhi
 234:.\pathfinder.c ****    Nodes[current[Y]][current[X]].prevNode = &Nodes[current[Y]][current[X]];
 1656              		.loc 1 234 0
 1657 032c 07F5CA53 		add	r3, r7, #6464
 1658 0330 183B     		subs	r3, r3, #24
 1659 0332 1968     		ldr	r1, [r3]
 1660 0334 07F5CA53 		add	r3, r7, #6464
 1661 0338 183B     		subs	r3, r3, #24
 1662 033a 5C68     		ldr	r4, [r3, #4]
 1663 033c 07F5CA53 		add	r3, r7, #6464
 1664 0340 183B     		subs	r3, r3, #24
 1665 0342 1868     		ldr	r0, [r3]
 1666 0344 07F5CA53 		add	r3, r7, #6464
 1667 0348 183B     		subs	r3, r3, #24
 1668 034a 5D68     		ldr	r5, [r3, #4]
 1669 034c 07F5CA52 		add	r2, r7, #6464
 1670 0350 103A     		subs	r2, r2, #16
 1671 0352 0346     		mov	r3, r0
 1672 0354 DB00     		lsls	r3, r3, #3
 1673 0356 0344     		add	r3, r3, r0
 1674 0358 5B00     		lsls	r3, r3, #1
 1675 035a 0344     		add	r3, r3, r0
 1676 035c 2B44     		add	r3, r3, r5
 1677 035e 5B01     		lsls	r3, r3, #5
 1678 0360 D018     		adds	r0, r2, r3
 1679 0362 07F5CA52 		add	r2, r7, #6464
 1680 0366 103A     		subs	r2, r2, #16
 1681 0368 0B46     		mov	r3, r1
 1682 036a DB00     		lsls	r3, r3, #3
 1683 036c 0B44     		add	r3, r3, r1
 1684 036e 5B00     		lsls	r3, r3, #1
 1685 0370 0B44     		add	r3, r3, r1
 1686 0372 2344     		add	r3, r3, r4
 1687 0374 5B01     		lsls	r3, r3, #5
 1688 0376 1344     		add	r3, r3, r2
ARM GAS  C:\Users\Tomas\AppData\Local\Temp\cc4KjDQP.s 			page 35


 1689 0378 1033     		adds	r3, r3, #16
 1690 037a 5860     		str	r0, [r3, #4]
 235:.\pathfinder.c ****    Nodes[current[Y]][current[X]].direction = direction;//TODO: changed
 1691              		.loc 1 235 0
 1692 037c 07F5CA53 		add	r3, r7, #6464
 1693 0380 183B     		subs	r3, r3, #24
 1694 0382 1968     		ldr	r1, [r3]
 1695 0384 07F5CA53 		add	r3, r7, #6464
 1696 0388 183B     		subs	r3, r3, #24
 1697 038a 5868     		ldr	r0, [r3, #4]
 1698 038c 07F5CA52 		add	r2, r7, #6464
 1699 0390 103A     		subs	r2, r2, #16
 1700 0392 0B46     		mov	r3, r1
 1701 0394 DB00     		lsls	r3, r3, #3
 1702 0396 0B44     		add	r3, r3, r1
 1703 0398 5B00     		lsls	r3, r3, #1
 1704 039a 0B44     		add	r3, r3, r1
 1705 039c 0344     		add	r3, r3, r0
 1706 039e 5B01     		lsls	r3, r3, #5
 1707 03a0 1344     		add	r3, r3, r2
 1708 03a2 1833     		adds	r3, r3, #24
 1709 03a4 07F57452 		add	r2, r7, #15616
 1710 03a8 02F11402 		add	r2, r2, #20
 1711 03ac 1268     		ldr	r2, [r2]
 1712 03ae 5A60     		str	r2, [r3, #4]
 236:.\pathfinder.c ****    int path_couter = 0;
 1713              		.loc 1 236 0
 1714 03b0 0023     		movs	r3, #0
 1715 03b2 07F57352 		add	r2, r7, #15552
 1716 03b6 02F11C02 		add	r2, r2, #28
 1717 03ba 1360     		str	r3, [r2]
 237:.\pathfinder.c **** 
 238:.\pathfinder.c ****     //account for the first node
 239:.\pathfinder.c ****       path[path_couter][Y] = current[Y];
 1718              		.loc 1 239 0
 1719 03bc 07F57353 		add	r3, r7, #15552
 1720 03c0 03F11C03 		add	r3, r3, #28
 1721 03c4 1A68     		ldr	r2, [r3]
 1722 03c6 1346     		mov	r3, r2
 1723 03c8 5B00     		lsls	r3, r3, #1
 1724 03ca 1344     		add	r3, r3, r2
 1725 03cc 9B00     		lsls	r3, r3, #2
 1726 03ce 1A46     		mov	r2, r3
 1727 03d0 07F14003 		add	r3, r7, #64
 1728 03d4 3C3B     		subs	r3, r3, #60
 1729 03d6 1B68     		ldr	r3, [r3]
 1730 03d8 1A44     		add	r2, r2, r3
 1731 03da 07F5CA53 		add	r3, r7, #6464
 1732 03de 183B     		subs	r3, r3, #24
 1733 03e0 1B68     		ldr	r3, [r3]
 1734 03e2 1360     		str	r3, [r2]
 240:.\pathfinder.c ****       path[path_couter][X] = current[X];
 1735              		.loc 1 240 0
 1736 03e4 07F57353 		add	r3, r7, #15552
 1737 03e8 03F11C03 		add	r3, r3, #28
 1738 03ec 1A68     		ldr	r2, [r3]
 1739 03ee 1346     		mov	r3, r2
ARM GAS  C:\Users\Tomas\AppData\Local\Temp\cc4KjDQP.s 			page 36


 1740 03f0 5B00     		lsls	r3, r3, #1
 1741 03f2 1344     		add	r3, r3, r2
 1742 03f4 9B00     		lsls	r3, r3, #2
 1743 03f6 1A46     		mov	r2, r3
 1744 03f8 07F14003 		add	r3, r7, #64
 1745 03fc 3C3B     		subs	r3, r3, #60
 1746 03fe 1B68     		ldr	r3, [r3]
 1747 0400 1A44     		add	r2, r2, r3
 1748 0402 07F5CA53 		add	r3, r7, #6464
 1749 0406 183B     		subs	r3, r3, #24
 1750 0408 5B68     		ldr	r3, [r3, #4]
 1751 040a 5360     		str	r3, [r2, #4]
 241:.\pathfinder.c ****       path[path_couter][DIR] = Nodes[current[Y]][current[X]].direction;
 1752              		.loc 1 241 0
 1753 040c 07F57353 		add	r3, r7, #15552
 1754 0410 03F11C03 		add	r3, r3, #28
 1755 0414 1A68     		ldr	r2, [r3]
 1756 0416 1346     		mov	r3, r2
 1757 0418 5B00     		lsls	r3, r3, #1
 1758 041a 1344     		add	r3, r3, r2
 1759 041c 9B00     		lsls	r3, r3, #2
 1760 041e 1A46     		mov	r2, r3
 1761 0420 07F14003 		add	r3, r7, #64
 1762 0424 3C3B     		subs	r3, r3, #60
 1763 0426 1B68     		ldr	r3, [r3]
 1764 0428 9818     		adds	r0, r3, r2
 1765 042a 07F5CA53 		add	r3, r7, #6464
 1766 042e 183B     		subs	r3, r3, #24
 1767 0430 1968     		ldr	r1, [r3]
 1768 0432 07F5CA53 		add	r3, r7, #6464
 1769 0436 183B     		subs	r3, r3, #24
 1770 0438 5C68     		ldr	r4, [r3, #4]
 1771 043a 07F5CA52 		add	r2, r7, #6464
 1772 043e 103A     		subs	r2, r2, #16
 1773 0440 0B46     		mov	r3, r1
 1774 0442 DB00     		lsls	r3, r3, #3
 1775 0444 0B44     		add	r3, r3, r1
 1776 0446 5B00     		lsls	r3, r3, #1
 1777 0448 0B44     		add	r3, r3, r1
 1778 044a 2344     		add	r3, r3, r4
 1779 044c 5B01     		lsls	r3, r3, #5
 1780 044e 1344     		add	r3, r3, r2
 1781 0450 1833     		adds	r3, r3, #24
 1782 0452 5B68     		ldr	r3, [r3, #4]
 1783 0454 8360     		str	r3, [r0, #8]
 242:.\pathfinder.c ****       path_couter++;
 1784              		.loc 1 242 0
 1785 0456 07F57353 		add	r3, r7, #15552
 1786 045a 03F11C03 		add	r3, r3, #28
 1787 045e 1B68     		ldr	r3, [r3]
 1788 0460 0133     		adds	r3, r3, #1
 1789 0462 07F57352 		add	r2, r7, #15552
 1790 0466 02F11C02 		add	r2, r2, #28
 1791 046a 1360     		str	r3, [r2]
 243:.\pathfinder.c **** 
 244:.\pathfinder.c ****    //early exit, run until x and y are equal
 245:.\pathfinder.c ****    while(hasNext == 1){
ARM GAS  C:\Users\Tomas\AppData\Local\Temp\cc4KjDQP.s 			page 37


 1792              		.loc 1 245 0
 1793 046c 02E3     		b	.L37
 1794              	.L49:
 1795              	.LBB5:
 246:.\pathfinder.c ****       counter = 1;
 1796              		.loc 1 246 0
 1797 046e 0123     		movs	r3, #1
 1798 0470 07F57352 		add	r2, r7, #15552
 1799 0474 02F12C02 		add	r2, r2, #44
 1800 0478 1360     		str	r3, [r2]
 247:.\pathfinder.c ****       Nodes[current[Y]][current[1]].visited = VISITED; // set visited to true
 1801              		.loc 1 247 0
 1802 047a 07F5CA53 		add	r3, r7, #6464
 1803 047e 183B     		subs	r3, r3, #24
 1804 0480 1968     		ldr	r1, [r3]
 1805 0482 07F5CA53 		add	r3, r7, #6464
 1806 0486 183B     		subs	r3, r3, #24
 1807 0488 5868     		ldr	r0, [r3, #4]
 1808 048a 07F5CA52 		add	r2, r7, #6464
 1809 048e 103A     		subs	r2, r2, #16
 1810 0490 0B46     		mov	r3, r1
 1811 0492 DB00     		lsls	r3, r3, #3
 1812 0494 0B44     		add	r3, r3, r1
 1813 0496 5B00     		lsls	r3, r3, #1
 1814 0498 0B44     		add	r3, r3, r1
 1815 049a 0344     		add	r3, r3, r0
 1816 049c 5B01     		lsls	r3, r3, #5
 1817 049e 1344     		add	r3, r3, r2
 1818 04a0 0122     		movs	r2, #1
 1819 04a2 5A60     		str	r2, [r3, #4]
 248:.\pathfinder.c ****       //printf("main loop %d | X: %d | Y: %d\n", Nodes[current[0]][current[1]].visited, Nodes[curre
 249:.\pathfinder.c ****       while(counter <= 4){
 1820              		.loc 1 249 0
 1821 04a4 83E1     		b	.L38
 1822              	.L45:
 250:.\pathfinder.c ****          corner_penalty = 0;
 1823              		.loc 1 250 0
 1824 04a6 0023     		movs	r3, #0
 1825 04a8 07F57352 		add	r2, r7, #15552
 1826 04ac 02F13002 		add	r2, r2, #48
 1827 04b0 1360     		str	r3, [r2]
 251:.\pathfinder.c ****          if(counter == 1){
 1828              		.loc 1 251 0
 1829 04b2 07F57353 		add	r3, r7, #15552
 1830 04b6 03F12C03 		add	r3, r3, #44
 1831 04ba 1B68     		ldr	r3, [r3]
 1832 04bc 012B     		cmp	r3, #1
 1833 04be 11D1     		bne	.L39
 252:.\pathfinder.c ****             tentativeNode[Y] = current[Y] - 1;
 1834              		.loc 1 252 0
 1835 04c0 07F5CA53 		add	r3, r7, #6464
 1836 04c4 183B     		subs	r3, r3, #24
 1837 04c6 1B68     		ldr	r3, [r3]
 1838 04c8 5A1E     		subs	r2, r3, #1
 1839 04ca 07F14003 		add	r3, r7, #64
 1840 04ce 203B     		subs	r3, r3, #32
 1841 04d0 1A60     		str	r2, [r3]
ARM GAS  C:\Users\Tomas\AppData\Local\Temp\cc4KjDQP.s 			page 38


 253:.\pathfinder.c ****             tentativeNode[X] = current[X];
 1842              		.loc 1 253 0
 1843 04d2 07F5CA53 		add	r3, r7, #6464
 1844 04d6 183B     		subs	r3, r3, #24
 1845 04d8 5A68     		ldr	r2, [r3, #4]
 1846 04da 07F14003 		add	r3, r7, #64
 1847 04de 203B     		subs	r3, r3, #32
 1848 04e0 5A60     		str	r2, [r3, #4]
 1849 04e2 49E0     		b	.L40
 1850              	.L39:
 254:.\pathfinder.c ****          }else if(counter == 2){
 1851              		.loc 1 254 0
 1852 04e4 07F57353 		add	r3, r7, #15552
 1853 04e8 03F12C03 		add	r3, r3, #44
 1854 04ec 1B68     		ldr	r3, [r3]
 1855 04ee 022B     		cmp	r3, #2
 1856 04f0 11D1     		bne	.L41
 255:.\pathfinder.c ****             tentativeNode[Y] = current[Y];
 1857              		.loc 1 255 0
 1858 04f2 07F5CA53 		add	r3, r7, #6464
 1859 04f6 183B     		subs	r3, r3, #24
 1860 04f8 1A68     		ldr	r2, [r3]
 1861 04fa 07F14003 		add	r3, r7, #64
 1862 04fe 203B     		subs	r3, r3, #32
 1863 0500 1A60     		str	r2, [r3]
 256:.\pathfinder.c ****             tentativeNode[X] = current[X] + 1;
 1864              		.loc 1 256 0
 1865 0502 07F5CA53 		add	r3, r7, #6464
 1866 0506 183B     		subs	r3, r3, #24
 1867 0508 5B68     		ldr	r3, [r3, #4]
 1868 050a 5A1C     		adds	r2, r3, #1
 1869 050c 07F14003 		add	r3, r7, #64
 1870 0510 203B     		subs	r3, r3, #32
 1871 0512 5A60     		str	r2, [r3, #4]
 1872 0514 30E0     		b	.L40
 1873              	.L41:
 257:.\pathfinder.c ****          }else if(counter == 3){
 1874              		.loc 1 257 0
 1875 0516 07F57353 		add	r3, r7, #15552
 1876 051a 03F12C03 		add	r3, r3, #44
 1877 051e 1B68     		ldr	r3, [r3]
 1878 0520 032B     		cmp	r3, #3
 1879 0522 11D1     		bne	.L42
 258:.\pathfinder.c ****             tentativeNode[Y] = current[Y] + 1;
 1880              		.loc 1 258 0
 1881 0524 07F5CA53 		add	r3, r7, #6464
 1882 0528 183B     		subs	r3, r3, #24
 1883 052a 1B68     		ldr	r3, [r3]
 1884 052c 5A1C     		adds	r2, r3, #1
 1885 052e 07F14003 		add	r3, r7, #64
 1886 0532 203B     		subs	r3, r3, #32
 1887 0534 1A60     		str	r2, [r3]
 259:.\pathfinder.c ****             tentativeNode[X] = current[X];
 1888              		.loc 1 259 0
 1889 0536 07F5CA53 		add	r3, r7, #6464
 1890 053a 183B     		subs	r3, r3, #24
 1891 053c 5A68     		ldr	r2, [r3, #4]
ARM GAS  C:\Users\Tomas\AppData\Local\Temp\cc4KjDQP.s 			page 39


 1892 053e 07F14003 		add	r3, r7, #64
 1893 0542 203B     		subs	r3, r3, #32
 1894 0544 5A60     		str	r2, [r3, #4]
 1895 0546 17E0     		b	.L40
 1896              	.L42:
 260:.\pathfinder.c ****          }else if(counter == 4){
 1897              		.loc 1 260 0
 1898 0548 07F57353 		add	r3, r7, #15552
 1899 054c 03F12C03 		add	r3, r3, #44
 1900 0550 1B68     		ldr	r3, [r3]
 1901 0552 042B     		cmp	r3, #4
 1902 0554 10D1     		bne	.L40
 261:.\pathfinder.c ****             tentativeNode[Y] = current[Y];
 1903              		.loc 1 261 0
 1904 0556 07F5CA53 		add	r3, r7, #6464
 1905 055a 183B     		subs	r3, r3, #24
 1906 055c 1A68     		ldr	r2, [r3]
 1907 055e 07F14003 		add	r3, r7, #64
 1908 0562 203B     		subs	r3, r3, #32
 1909 0564 1A60     		str	r2, [r3]
 262:.\pathfinder.c ****             tentativeNode[X] = current[X] - 1;
 1910              		.loc 1 262 0
 1911 0566 07F5CA53 		add	r3, r7, #6464
 1912 056a 183B     		subs	r3, r3, #24
 1913 056c 5B68     		ldr	r3, [r3, #4]
 1914 056e 5A1E     		subs	r2, r3, #1
 1915 0570 07F14003 		add	r3, r7, #64
 1916 0574 203B     		subs	r3, r3, #32
 1917 0576 5A60     		str	r2, [r3, #4]
 1918              	.L40:
 263:.\pathfinder.c ****          }
 264:.\pathfinder.c ****          if(counter != direction){
 1919              		.loc 1 264 0
 1920 0578 07F57353 		add	r3, r7, #15552
 1921 057c 03F12C03 		add	r3, r3, #44
 1922 0580 1A68     		ldr	r2, [r3]
 1923 0582 07F57453 		add	r3, r7, #15616
 1924 0586 03F11403 		add	r3, r3, #20
 1925 058a 1B68     		ldr	r3, [r3]
 1926 058c 9A42     		cmp	r2, r3
 1927 058e 05D0     		beq	.L43
 265:.\pathfinder.c ****             corner_penalty = CORNER_PENALTY;
 1928              		.loc 1 265 0
 1929 0590 0023     		movs	r3, #0
 1930 0592 07F57352 		add	r2, r7, #15552
 1931 0596 02F13002 		add	r2, r2, #48
 1932 059a 1360     		str	r3, [r2]
 1933              	.L43:
 266:.\pathfinder.c ****          }
 267:.\pathfinder.c **** 
 268:.\pathfinder.c ****          if(tentativeNode[Y] >= 0 && tentativeNode[X] >= 0 && tentativeNode[Y] <= Y_SIZE && tentati
 1934              		.loc 1 268 0
 1935 059c 07F14003 		add	r3, r7, #64
 1936 05a0 203B     		subs	r3, r3, #32
 1937 05a2 1B68     		ldr	r3, [r3]
 1938 05a4 0F2B     		cmp	r3, #15
 1939 05a6 00F2F780 		bhi	.L44
ARM GAS  C:\Users\Tomas\AppData\Local\Temp\cc4KjDQP.s 			page 40


 1940              		.loc 1 268 0 is_stmt 0 discriminator 1
 1941 05aa 07F14003 		add	r3, r7, #64
 1942 05ae 203B     		subs	r3, r3, #32
 1943 05b0 5B68     		ldr	r3, [r3, #4]
 1944 05b2 132B     		cmp	r3, #19
 1945 05b4 00F2F080 		bhi	.L44
 269:.\pathfinder.c ****             if(Nodes[tentativeNode[Y]][tentativeNode[X]].path == PATH){//check the node is a path
 1946              		.loc 1 269 0 is_stmt 1
 1947 05b8 07F14003 		add	r3, r7, #64
 1948 05bc 203B     		subs	r3, r3, #32
 1949 05be 1968     		ldr	r1, [r3]
 1950 05c0 07F14003 		add	r3, r7, #64
 1951 05c4 203B     		subs	r3, r3, #32
 1952 05c6 5868     		ldr	r0, [r3, #4]
 1953 05c8 07F5CA52 		add	r2, r7, #6464
 1954 05cc 103A     		subs	r2, r2, #16
 1955 05ce 0B46     		mov	r3, r1
 1956 05d0 DB00     		lsls	r3, r3, #3
 1957 05d2 0B44     		add	r3, r3, r1
 1958 05d4 5B00     		lsls	r3, r3, #1
 1959 05d6 0B44     		add	r3, r3, r1
 1960 05d8 0344     		add	r3, r3, r0
 1961 05da 5B01     		lsls	r3, r3, #5
 1962 05dc 1344     		add	r3, r3, r2
 1963 05de 1B68     		ldr	r3, [r3]
 1964 05e0 002B     		cmp	r3, #0
 1965 05e2 40F0D980 		bne	.L44
 270:.\pathfinder.c ****                //printf("3\n", hasNext);
 271:.\pathfinder.c ****                tmpCost = Nodes[current[Y]][current[X]].tentative_cost + Nodes[tentativeNode[Y]][ten
 1966              		.loc 1 271 0
 1967 05e6 07F5CA53 		add	r3, r7, #6464
 1968 05ea 183B     		subs	r3, r3, #24
 1969 05ec 1968     		ldr	r1, [r3]
 1970 05ee 07F5CA53 		add	r3, r7, #6464
 1971 05f2 183B     		subs	r3, r3, #24
 1972 05f4 5868     		ldr	r0, [r3, #4]
 1973 05f6 07F5CA52 		add	r2, r7, #6464
 1974 05fa 103A     		subs	r2, r2, #16
 1975 05fc 0B46     		mov	r3, r1
 1976 05fe DB00     		lsls	r3, r3, #3
 1977 0600 0B44     		add	r3, r3, r1
 1978 0602 5B00     		lsls	r3, r3, #1
 1979 0604 0B44     		add	r3, r3, r1
 1980 0606 0344     		add	r3, r3, r0
 1981 0608 5B01     		lsls	r3, r3, #5
 1982 060a 1344     		add	r3, r3, r2
 1983 060c 1833     		adds	r3, r3, #24
 1984 060e 1888     		ldrh	r0, [r3]
 1985 0610 07F14003 		add	r3, r7, #64
 1986 0614 203B     		subs	r3, r3, #32
 1987 0616 1968     		ldr	r1, [r3]
 1988 0618 07F14003 		add	r3, r7, #64
 1989 061c 203B     		subs	r3, r3, #32
 1990 061e 5C68     		ldr	r4, [r3, #4]
 1991 0620 07F5CA52 		add	r2, r7, #6464
 1992 0624 103A     		subs	r2, r2, #16
 1993 0626 0B46     		mov	r3, r1
ARM GAS  C:\Users\Tomas\AppData\Local\Temp\cc4KjDQP.s 			page 41


 1994 0628 DB00     		lsls	r3, r3, #3
 1995 062a 0B44     		add	r3, r3, r1
 1996 062c 5B00     		lsls	r3, r3, #1
 1997 062e 0B44     		add	r3, r3, r1
 1998 0630 2344     		add	r3, r3, r4
 1999 0632 5B01     		lsls	r3, r3, #5
 2000 0634 1344     		add	r3, r3, r2
 2001 0636 0833     		adds	r3, r3, #8
 2002 0638 1B88     		ldrh	r3, [r3]
 2003 063a 0344     		add	r3, r3, r0
 2004 063c 9AB2     		uxth	r2, r3
 2005 063e 07F57353 		add	r3, r7, #15552
 2006 0642 03F13003 		add	r3, r3, #48
 2007 0646 1B68     		ldr	r3, [r3]
 2008 0648 9BB2     		uxth	r3, r3
 2009 064a 1344     		add	r3, r3, r2
 2010 064c 07F57352 		add	r2, r7, #15552
 2011 0650 02F11202 		add	r2, r2, #18
 2012 0654 1380     		strh	r3, [r2]	@ movhi
 272:.\pathfinder.c ****                if(tmpCost > Nodes[tentativeNode[Y]][tentativeNode[X]].tentative_cost){
 2013              		.loc 1 272 0
 2014 0656 07F14003 		add	r3, r7, #64
 2015 065a 203B     		subs	r3, r3, #32
 2016 065c 1968     		ldr	r1, [r3]
 2017 065e 07F14003 		add	r3, r7, #64
 2018 0662 203B     		subs	r3, r3, #32
 2019 0664 5868     		ldr	r0, [r3, #4]
 2020 0666 07F5CA52 		add	r2, r7, #6464
 2021 066a 103A     		subs	r2, r2, #16
 2022 066c 0B46     		mov	r3, r1
 2023 066e DB00     		lsls	r3, r3, #3
 2024 0670 0B44     		add	r3, r3, r1
 2025 0672 5B00     		lsls	r3, r3, #1
 2026 0674 0B44     		add	r3, r3, r1
 2027 0676 0344     		add	r3, r3, r0
 2028 0678 5B01     		lsls	r3, r3, #5
 2029 067a 1344     		add	r3, r3, r2
 2030 067c 1833     		adds	r3, r3, #24
 2031 067e 1B88     		ldrh	r3, [r3]
 2032 0680 07F57352 		add	r2, r7, #15552
 2033 0684 02F11202 		add	r2, r2, #18
 2034 0688 1288     		ldrh	r2, [r2]
 2035 068a 9A42     		cmp	r2, r3
 2036 068c 40F28480 		bls	.L44
 273:.\pathfinder.c ****                   //printf("5 %d\n", tmpCost);
 274:.\pathfinder.c ****                   Nodes[tentativeNode[Y]][tentativeNode[X]].tentative_cost = tmpCost;
 2037              		.loc 1 274 0
 2038 0690 07F14003 		add	r3, r7, #64
 2039 0694 203B     		subs	r3, r3, #32
 2040 0696 1968     		ldr	r1, [r3]
 2041 0698 07F14003 		add	r3, r7, #64
 2042 069c 203B     		subs	r3, r3, #32
 2043 069e 5868     		ldr	r0, [r3, #4]
 2044 06a0 07F5CA52 		add	r2, r7, #6464
 2045 06a4 103A     		subs	r2, r2, #16
 2046 06a6 0B46     		mov	r3, r1
 2047 06a8 DB00     		lsls	r3, r3, #3
ARM GAS  C:\Users\Tomas\AppData\Local\Temp\cc4KjDQP.s 			page 42


 2048 06aa 0B44     		add	r3, r3, r1
 2049 06ac 5B00     		lsls	r3, r3, #1
 2050 06ae 0B44     		add	r3, r3, r1
 2051 06b0 0344     		add	r3, r3, r0
 2052 06b2 5B01     		lsls	r3, r3, #5
 2053 06b4 1344     		add	r3, r3, r2
 2054 06b6 1833     		adds	r3, r3, #24
 2055 06b8 07F57352 		add	r2, r7, #15552
 2056 06bc 02F11202 		add	r2, r2, #18
 2057 06c0 1288     		ldrh	r2, [r2]	@ movhi
 2058 06c2 1A80     		strh	r2, [r3]	@ movhi
 275:.\pathfinder.c ****                   //printf("6 currentX : %d, currentY : %d\n", current[0], current[1]);
 276:.\pathfinder.c **** 
 277:.\pathfinder.c ****                   //printf("Discovered node at X : %d, Y : %d\n", tentativeNode[0], tentativeNode[1
 278:.\pathfinder.c ****                   Nodes[tentativeNode[Y]][tentativeNode[X]].prevNode = &Nodes[current[Y]][current[1
 2059              		.loc 1 278 0
 2060 06c4 07F14003 		add	r3, r7, #64
 2061 06c8 203B     		subs	r3, r3, #32
 2062 06ca 1968     		ldr	r1, [r3]
 2063 06cc 07F14003 		add	r3, r7, #64
 2064 06d0 203B     		subs	r3, r3, #32
 2065 06d2 5C68     		ldr	r4, [r3, #4]
 2066 06d4 07F5CA53 		add	r3, r7, #6464
 2067 06d8 183B     		subs	r3, r3, #24
 2068 06da 1868     		ldr	r0, [r3]
 2069 06dc 07F5CA53 		add	r3, r7, #6464
 2070 06e0 183B     		subs	r3, r3, #24
 2071 06e2 5D68     		ldr	r5, [r3, #4]
 2072 06e4 07F5CA52 		add	r2, r7, #6464
 2073 06e8 103A     		subs	r2, r2, #16
 2074 06ea 0346     		mov	r3, r0
 2075 06ec DB00     		lsls	r3, r3, #3
 2076 06ee 0344     		add	r3, r3, r0
 2077 06f0 5B00     		lsls	r3, r3, #1
 2078 06f2 0344     		add	r3, r3, r0
 2079 06f4 2B44     		add	r3, r3, r5
 2080 06f6 5B01     		lsls	r3, r3, #5
 2081 06f8 D018     		adds	r0, r2, r3
 2082 06fa 07F5CA52 		add	r2, r7, #6464
 2083 06fe 103A     		subs	r2, r2, #16
 2084 0700 0B46     		mov	r3, r1
 2085 0702 DB00     		lsls	r3, r3, #3
 2086 0704 0B44     		add	r3, r3, r1
 2087 0706 5B00     		lsls	r3, r3, #1
 2088 0708 0B44     		add	r3, r3, r1
 2089 070a 2344     		add	r3, r3, r4
 2090 070c 5B01     		lsls	r3, r3, #5
 2091 070e 1344     		add	r3, r3, r2
 2092 0710 1033     		adds	r3, r3, #16
 2093 0712 5860     		str	r0, [r3, #4]
 279:.\pathfinder.c ****                   nextNodes[totalIterationCounter][Y] = tentativeNode[Y];
 2094              		.loc 1 279 0
 2095 0714 07F14003 		add	r3, r7, #64
 2096 0718 203B     		subs	r3, r3, #32
 2097 071a 1968     		ldr	r1, [r3]
 2098 071c 07F14003 		add	r3, r7, #64
 2099 0720 183B     		subs	r3, r3, #24
ARM GAS  C:\Users\Tomas\AppData\Local\Temp\cc4KjDQP.s 			page 43


 2100 0722 07F57352 		add	r2, r7, #15552
 2101 0726 02F13402 		add	r2, r2, #52
 2102 072a 1268     		ldr	r2, [r2]
 2103 072c 43F83210 		str	r1, [r3, r2, lsl #3]
 280:.\pathfinder.c ****                   nextNodes[totalIterationCounter][X] = tentativeNode[X];
 2104              		.loc 1 280 0
 2105 0730 07F14003 		add	r3, r7, #64
 2106 0734 203B     		subs	r3, r3, #32
 2107 0736 5968     		ldr	r1, [r3, #4]
 2108 0738 07F14002 		add	r2, r7, #64
 2109 073c 183A     		subs	r2, r2, #24
 2110 073e 07F57353 		add	r3, r7, #15552
 2111 0742 03F13403 		add	r3, r3, #52
 2112 0746 1B68     		ldr	r3, [r3]
 2113 0748 DB00     		lsls	r3, r3, #3
 2114 074a 1344     		add	r3, r3, r2
 2115 074c 5960     		str	r1, [r3, #4]
 281:.\pathfinder.c ****                   Nodes[tentativeNode[Y]][tentativeNode[X]].direction = counter;
 2116              		.loc 1 281 0
 2117 074e 07F14003 		add	r3, r7, #64
 2118 0752 203B     		subs	r3, r3, #32
 2119 0754 1968     		ldr	r1, [r3]
 2120 0756 07F14003 		add	r3, r7, #64
 2121 075a 203B     		subs	r3, r3, #32
 2122 075c 5868     		ldr	r0, [r3, #4]
 2123 075e 07F5CA52 		add	r2, r7, #6464
 2124 0762 103A     		subs	r2, r2, #16
 2125 0764 0B46     		mov	r3, r1
 2126 0766 DB00     		lsls	r3, r3, #3
 2127 0768 0B44     		add	r3, r3, r1
 2128 076a 5B00     		lsls	r3, r3, #1
 2129 076c 0B44     		add	r3, r3, r1
 2130 076e 0344     		add	r3, r3, r0
 2131 0770 5B01     		lsls	r3, r3, #5
 2132 0772 1344     		add	r3, r3, r2
 2133 0774 1833     		adds	r3, r3, #24
 2134 0776 07F57352 		add	r2, r7, #15552
 2135 077a 02F12C02 		add	r2, r2, #44
 2136 077e 1268     		ldr	r2, [r2]
 2137 0780 5A60     		str	r2, [r3, #4]
 282:.\pathfinder.c ****                   //nextNodesDirection[totalIterationCounter] = counter;
 283:.\pathfinder.c ****                   totalIterationCounter = 1 + totalIterationCounter;
 2138              		.loc 1 283 0
 2139 0782 07F57353 		add	r3, r7, #15552
 2140 0786 03F13403 		add	r3, r3, #52
 2141 078a 1B68     		ldr	r3, [r3]
 2142 078c 0133     		adds	r3, r3, #1
 2143 078e 07F57352 		add	r2, r7, #15552
 2144 0792 02F13402 		add	r2, r2, #52
 2145 0796 1360     		str	r3, [r2]
 2146              	.L44:
 284:.\pathfinder.c ****                }
 285:.\pathfinder.c ****             }
 286:.\pathfinder.c ****          }
 287:.\pathfinder.c ****          counter++;
 2147              		.loc 1 287 0
 2148 0798 07F57353 		add	r3, r7, #15552
ARM GAS  C:\Users\Tomas\AppData\Local\Temp\cc4KjDQP.s 			page 44


 2149 079c 03F12C03 		add	r3, r3, #44
 2150 07a0 1B68     		ldr	r3, [r3]
 2151 07a2 0133     		adds	r3, r3, #1
 2152 07a4 07F57352 		add	r2, r7, #15552
 2153 07a8 02F12C02 		add	r2, r2, #44
 2154 07ac 1360     		str	r3, [r2]
 2155              	.L38:
 249:.\pathfinder.c ****          corner_penalty = 0;
 2156              		.loc 1 249 0
 2157 07ae 07F57353 		add	r3, r7, #15552
 2158 07b2 03F12C03 		add	r3, r3, #44
 2159 07b6 1B68     		ldr	r3, [r3]
 2160 07b8 042B     		cmp	r3, #4
 2161 07ba 7FF674AE 		bls	.L45
 288:.\pathfinder.c ****       }
 289:.\pathfinder.c ****       //set the default cost value so that the for loop will find the lowest unvisited node
 290:.\pathfinder.c ****       nextNodeCost = 0;
 2162              		.loc 1 290 0
 2163 07be 0023     		movs	r3, #0
 2164 07c0 07F57352 		add	r2, r7, #15552
 2165 07c4 02F12402 		add	r2, r2, #36
 2166 07c8 1360     		str	r3, [r2]
 291:.\pathfinder.c ****       //find the lowest unvisited node
 292:.\pathfinder.c ****       hasNext = 0;
 2167              		.loc 1 292 0
 2168 07ca 0023     		movs	r3, #0
 2169 07cc 07F57352 		add	r2, r7, #15552
 2170 07d0 02F12002 		add	r2, r2, #32
 2171 07d4 1360     		str	r3, [r2]
 293:.\pathfinder.c **** 
 294:.\pathfinder.c ****       //find the next node to visit
 295:.\pathfinder.c ****       //printf("totalIterationCounter : %d\n", totalIterationCounter);
 296:.\pathfinder.c ****         int i;
 297:.\pathfinder.c ****       for(i = 0; i < totalIterationCounter; i++){
 2172              		.loc 1 297 0
 2173 07d6 0023     		movs	r3, #0
 2174 07d8 07F57352 		add	r2, r7, #15552
 2175 07dc 02F11802 		add	r2, r2, #24
 2176 07e0 1360     		str	r3, [r2]
 2177 07e2 ABE0     		b	.L46
 2178              	.L48:
 298:.\pathfinder.c ****          //printf("i : %d\n", i);
 299:.\pathfinder.c ****          tmpNextNode[Y] = nextNodes[i][Y];
 2179              		.loc 1 299 0
 2180 07e4 07F14003 		add	r3, r7, #64
 2181 07e8 183B     		subs	r3, r3, #24
 2182 07ea 07F57352 		add	r2, r7, #15552
 2183 07ee 02F11802 		add	r2, r2, #24
 2184 07f2 1268     		ldr	r2, [r2]
 2185 07f4 53F83220 		ldr	r2, [r3, r2, lsl #3]
 2186 07f8 07F14003 		add	r3, r7, #64
 2187 07fc 303B     		subs	r3, r3, #48
 2188 07fe 1A60     		str	r2, [r3]
 300:.\pathfinder.c ****          tmpNextNode[X] = nextNodes[i][X];
 2189              		.loc 1 300 0
 2190 0800 07F14002 		add	r2, r7, #64
 2191 0804 183A     		subs	r2, r2, #24
ARM GAS  C:\Users\Tomas\AppData\Local\Temp\cc4KjDQP.s 			page 45


 2192 0806 07F57353 		add	r3, r7, #15552
 2193 080a 03F11803 		add	r3, r3, #24
 2194 080e 1B68     		ldr	r3, [r3]
 2195 0810 DB00     		lsls	r3, r3, #3
 2196 0812 1344     		add	r3, r3, r2
 2197 0814 5A68     		ldr	r2, [r3, #4]
 2198 0816 07F14003 		add	r3, r7, #64
 2199 081a 303B     		subs	r3, r3, #48
 2200 081c 5A60     		str	r2, [r3, #4]
 301:.\pathfinder.c ****          //printf("tentative_cost : %d\n", Nodes[nextNodes[i][0]][nextNodes[i][1]].tentative_cost);
 302:.\pathfinder.c ****          if(Nodes[nextNodes[i][Y]][nextNodes[i][X]].tentative_cost > nextNodeCost){
 2201              		.loc 1 302 0
 2202 081e 07F14003 		add	r3, r7, #64
 2203 0822 183B     		subs	r3, r3, #24
 2204 0824 07F57352 		add	r2, r7, #15552
 2205 0828 02F11802 		add	r2, r2, #24
 2206 082c 1268     		ldr	r2, [r2]
 2207 082e 53F83210 		ldr	r1, [r3, r2, lsl #3]
 2208 0832 07F14002 		add	r2, r7, #64
 2209 0836 183A     		subs	r2, r2, #24
 2210 0838 07F57353 		add	r3, r7, #15552
 2211 083c 03F11803 		add	r3, r3, #24
 2212 0840 1B68     		ldr	r3, [r3]
 2213 0842 DB00     		lsls	r3, r3, #3
 2214 0844 1344     		add	r3, r3, r2
 2215 0846 5868     		ldr	r0, [r3, #4]
 2216 0848 07F5CA52 		add	r2, r7, #6464
 2217 084c 103A     		subs	r2, r2, #16
 2218 084e 0B46     		mov	r3, r1
 2219 0850 DB00     		lsls	r3, r3, #3
 2220 0852 0B44     		add	r3, r3, r1
 2221 0854 5B00     		lsls	r3, r3, #1
 2222 0856 0B44     		add	r3, r3, r1
 2223 0858 0344     		add	r3, r3, r0
 2224 085a 5B01     		lsls	r3, r3, #5
 2225 085c 1344     		add	r3, r3, r2
 2226 085e 1833     		adds	r3, r3, #24
 2227 0860 1B88     		ldrh	r3, [r3]
 2228 0862 1A46     		mov	r2, r3
 2229 0864 07F57353 		add	r3, r7, #15552
 2230 0868 03F12403 		add	r3, r3, #36
 2231 086c 1B68     		ldr	r3, [r3]
 2232 086e 9A42     		cmp	r2, r3
 2233 0870 59D9     		bls	.L47
 303:.\pathfinder.c ****             //printf("1 : %d\n", Nodes[nextNodes[i][0]][nextNodes[i][1]].tentative_cost);
 304:.\pathfinder.c ****             if(Nodes[nextNodes[i][Y]][nextNodes[i][X]].visited == UNVISITED){
 2234              		.loc 1 304 0
 2235 0872 07F14003 		add	r3, r7, #64
 2236 0876 183B     		subs	r3, r3, #24
 2237 0878 07F57352 		add	r2, r7, #15552
 2238 087c 02F11802 		add	r2, r2, #24
 2239 0880 1268     		ldr	r2, [r2]
 2240 0882 53F83210 		ldr	r1, [r3, r2, lsl #3]
 2241 0886 07F14002 		add	r2, r7, #64
 2242 088a 183A     		subs	r2, r2, #24
 2243 088c 07F57353 		add	r3, r7, #15552
 2244 0890 03F11803 		add	r3, r3, #24
ARM GAS  C:\Users\Tomas\AppData\Local\Temp\cc4KjDQP.s 			page 46


 2245 0894 1B68     		ldr	r3, [r3]
 2246 0896 DB00     		lsls	r3, r3, #3
 2247 0898 1344     		add	r3, r3, r2
 2248 089a 5868     		ldr	r0, [r3, #4]
 2249 089c 07F5CA52 		add	r2, r7, #6464
 2250 08a0 103A     		subs	r2, r2, #16
 2251 08a2 0B46     		mov	r3, r1
 2252 08a4 DB00     		lsls	r3, r3, #3
 2253 08a6 0B44     		add	r3, r3, r1
 2254 08a8 5B00     		lsls	r3, r3, #1
 2255 08aa 0B44     		add	r3, r3, r1
 2256 08ac 0344     		add	r3, r3, r0
 2257 08ae 5B01     		lsls	r3, r3, #5
 2258 08b0 1344     		add	r3, r3, r2
 2259 08b2 5B68     		ldr	r3, [r3, #4]
 2260 08b4 002B     		cmp	r3, #0
 2261 08b6 36D1     		bne	.L47
 305:.\pathfinder.c **** 
 306:.\pathfinder.c **** 
 307:.\pathfinder.c ****                //printf("2 : %d\n", Nodes[nextNodes[i][0]][nextNodes[i][1]].visited);
 308:.\pathfinder.c ****                nextNodeCost = Nodes[nextNodes[i][Y]][nextNodes[i][X]].tentative_cost;
 2262              		.loc 1 308 0
 2263 08b8 07F14003 		add	r3, r7, #64
 2264 08bc 183B     		subs	r3, r3, #24
 2265 08be 07F57352 		add	r2, r7, #15552
 2266 08c2 02F11802 		add	r2, r2, #24
 2267 08c6 1268     		ldr	r2, [r2]
 2268 08c8 53F83210 		ldr	r1, [r3, r2, lsl #3]
 2269 08cc 07F14002 		add	r2, r7, #64
 2270 08d0 183A     		subs	r2, r2, #24
 2271 08d2 07F57353 		add	r3, r7, #15552
 2272 08d6 03F11803 		add	r3, r3, #24
 2273 08da 1B68     		ldr	r3, [r3]
 2274 08dc DB00     		lsls	r3, r3, #3
 2275 08de 1344     		add	r3, r3, r2
 2276 08e0 5868     		ldr	r0, [r3, #4]
 2277 08e2 07F5CA52 		add	r2, r7, #6464
 2278 08e6 103A     		subs	r2, r2, #16
 2279 08e8 0B46     		mov	r3, r1
 2280 08ea DB00     		lsls	r3, r3, #3
 2281 08ec 0B44     		add	r3, r3, r1
 2282 08ee 5B00     		lsls	r3, r3, #1
 2283 08f0 0B44     		add	r3, r3, r1
 2284 08f2 0344     		add	r3, r3, r0
 2285 08f4 5B01     		lsls	r3, r3, #5
 2286 08f6 1344     		add	r3, r3, r2
 2287 08f8 1833     		adds	r3, r3, #24
 2288 08fa 1B88     		ldrh	r3, [r3]
 2289 08fc 07F57352 		add	r2, r7, #15552
 2290 0900 02F12402 		add	r2, r2, #36
 2291 0904 1360     		str	r3, [r2]
 309:.\pathfinder.c **** 
 310:.\pathfinder.c ****                nextNodeIndex = i;
 2292              		.loc 1 310 0
 2293 0906 07F57353 		add	r3, r7, #15552
 2294 090a 03F11803 		add	r3, r3, #24
 2295 090e 1B68     		ldr	r3, [r3]
ARM GAS  C:\Users\Tomas\AppData\Local\Temp\cc4KjDQP.s 			page 47


 2296 0910 07F57352 		add	r2, r7, #15552
 2297 0914 02F12802 		add	r2, r2, #40
 2298 0918 1360     		str	r3, [r2]
 311:.\pathfinder.c ****                hasNext = 1;
 2299              		.loc 1 311 0
 2300 091a 0123     		movs	r3, #1
 2301 091c 07F57352 		add	r2, r7, #15552
 2302 0920 02F12002 		add	r2, r2, #32
 2303 0924 1360     		str	r3, [r2]
 2304              	.L47:
 297:.\pathfinder.c ****          //printf("i : %d\n", i);
 2305              		.loc 1 297 0 discriminator 2
 2306 0926 07F57353 		add	r3, r7, #15552
 2307 092a 03F11803 		add	r3, r3, #24
 2308 092e 1B68     		ldr	r3, [r3]
 2309 0930 0133     		adds	r3, r3, #1
 2310 0932 07F57352 		add	r2, r7, #15552
 2311 0936 02F11802 		add	r2, r2, #24
 2312 093a 1360     		str	r3, [r2]
 2313              	.L46:
 297:.\pathfinder.c ****          //printf("i : %d\n", i);
 2314              		.loc 1 297 0 is_stmt 0 discriminator 1
 2315 093c 07F57353 		add	r3, r7, #15552
 2316 0940 03F11803 		add	r3, r3, #24
 2317 0944 1A68     		ldr	r2, [r3]
 2318 0946 07F57353 		add	r3, r7, #15552
 2319 094a 03F13403 		add	r3, r3, #52
 2320 094e 1B68     		ldr	r3, [r3]
 2321 0950 9A42     		cmp	r2, r3
 2322 0952 FFF447AF 		bcc	.L48
 312:.\pathfinder.c ****             }
 313:.\pathfinder.c ****          }
 314:.\pathfinder.c ****       }
 315:.\pathfinder.c ****       //printf("has next %d\n", hasNext);
 316:.\pathfinder.c ****       current[Y] = nextNodes[nextNodeIndex][Y];
 2323              		.loc 1 316 0 is_stmt 1
 2324 0956 07F14003 		add	r3, r7, #64
 2325 095a 183B     		subs	r3, r3, #24
 2326 095c 07F57352 		add	r2, r7, #15552
 2327 0960 02F12802 		add	r2, r2, #40
 2328 0964 1268     		ldr	r2, [r2]
 2329 0966 53F83220 		ldr	r2, [r3, r2, lsl #3]
 2330 096a 07F5CA53 		add	r3, r7, #6464
 2331 096e 183B     		subs	r3, r3, #24
 2332 0970 1A60     		str	r2, [r3]
 317:.\pathfinder.c ****       current[X] = nextNodes[nextNodeIndex][X];
 2333              		.loc 1 317 0
 2334 0972 07F14002 		add	r2, r7, #64
 2335 0976 183A     		subs	r2, r2, #24
 2336 0978 07F57353 		add	r3, r7, #15552
 2337 097c 03F12803 		add	r3, r3, #40
 2338 0980 1B68     		ldr	r3, [r3]
 2339 0982 DB00     		lsls	r3, r3, #3
 2340 0984 1344     		add	r3, r3, r2
 2341 0986 5A68     		ldr	r2, [r3, #4]
 2342 0988 07F5CA53 		add	r3, r7, #6464
 2343 098c 183B     		subs	r3, r3, #24
ARM GAS  C:\Users\Tomas\AppData\Local\Temp\cc4KjDQP.s 			page 48


 2344 098e 5A60     		str	r2, [r3, #4]
 318:.\pathfinder.c ****       direction = Nodes[current[Y]][current[X]].direction;
 2345              		.loc 1 318 0
 2346 0990 07F5CA53 		add	r3, r7, #6464
 2347 0994 183B     		subs	r3, r3, #24
 2348 0996 1968     		ldr	r1, [r3]
 2349 0998 07F5CA53 		add	r3, r7, #6464
 2350 099c 183B     		subs	r3, r3, #24
 2351 099e 5868     		ldr	r0, [r3, #4]
 2352 09a0 07F5CA52 		add	r2, r7, #6464
 2353 09a4 103A     		subs	r2, r2, #16
 2354 09a6 0B46     		mov	r3, r1
 2355 09a8 DB00     		lsls	r3, r3, #3
 2356 09aa 0B44     		add	r3, r3, r1
 2357 09ac 5B00     		lsls	r3, r3, #1
 2358 09ae 0B44     		add	r3, r3, r1
 2359 09b0 0344     		add	r3, r3, r0
 2360 09b2 5B01     		lsls	r3, r3, #5
 2361 09b4 1344     		add	r3, r3, r2
 2362 09b6 1833     		adds	r3, r3, #24
 2363 09b8 5B68     		ldr	r3, [r3, #4]
 2364 09ba 07F57452 		add	r2, r7, #15616
 2365 09be 02F11402 		add	r2, r2, #20
 2366 09c2 1360     		str	r3, [r2]
 319:.\pathfinder.c **** 
 320:.\pathfinder.c ****       //printf("%d %d;", current[Y] + 1, current[X] + 1);
 321:.\pathfinder.c **** 
 322:.\pathfinder.c ****       //generate the path
 323:.\pathfinder.c ****       path[path_couter][Y] = current[Y];
 2367              		.loc 1 323 0
 2368 09c4 07F57353 		add	r3, r7, #15552
 2369 09c8 03F11C03 		add	r3, r3, #28
 2370 09cc 1A68     		ldr	r2, [r3]
 2371 09ce 1346     		mov	r3, r2
 2372 09d0 5B00     		lsls	r3, r3, #1
 2373 09d2 1344     		add	r3, r3, r2
 2374 09d4 9B00     		lsls	r3, r3, #2
 2375 09d6 1A46     		mov	r2, r3
 2376 09d8 07F14003 		add	r3, r7, #64
 2377 09dc 3C3B     		subs	r3, r3, #60
 2378 09de 1B68     		ldr	r3, [r3]
 2379 09e0 1A44     		add	r2, r2, r3
 2380 09e2 07F5CA53 		add	r3, r7, #6464
 2381 09e6 183B     		subs	r3, r3, #24
 2382 09e8 1B68     		ldr	r3, [r3]
 2383 09ea 1360     		str	r3, [r2]
 324:.\pathfinder.c ****       path[path_couter][X] = current[X];
 2384              		.loc 1 324 0
 2385 09ec 07F57353 		add	r3, r7, #15552
 2386 09f0 03F11C03 		add	r3, r3, #28
 2387 09f4 1A68     		ldr	r2, [r3]
 2388 09f6 1346     		mov	r3, r2
 2389 09f8 5B00     		lsls	r3, r3, #1
 2390 09fa 1344     		add	r3, r3, r2
 2391 09fc 9B00     		lsls	r3, r3, #2
 2392 09fe 1A46     		mov	r2, r3
 2393 0a00 07F14003 		add	r3, r7, #64
ARM GAS  C:\Users\Tomas\AppData\Local\Temp\cc4KjDQP.s 			page 49


 2394 0a04 3C3B     		subs	r3, r3, #60
 2395 0a06 1B68     		ldr	r3, [r3]
 2396 0a08 1A44     		add	r2, r2, r3
 2397 0a0a 07F5CA53 		add	r3, r7, #6464
 2398 0a0e 183B     		subs	r3, r3, #24
 2399 0a10 5B68     		ldr	r3, [r3, #4]
 2400 0a12 5360     		str	r3, [r2, #4]
 325:.\pathfinder.c ****       path[path_couter][DIR] = Nodes[current[Y]][current[X]].direction;
 2401              		.loc 1 325 0
 2402 0a14 07F57353 		add	r3, r7, #15552
 2403 0a18 03F11C03 		add	r3, r3, #28
 2404 0a1c 1A68     		ldr	r2, [r3]
 2405 0a1e 1346     		mov	r3, r2
 2406 0a20 5B00     		lsls	r3, r3, #1
 2407 0a22 1344     		add	r3, r3, r2
 2408 0a24 9B00     		lsls	r3, r3, #2
 2409 0a26 1A46     		mov	r2, r3
 2410 0a28 07F14003 		add	r3, r7, #64
 2411 0a2c 3C3B     		subs	r3, r3, #60
 2412 0a2e 1B68     		ldr	r3, [r3]
 2413 0a30 9818     		adds	r0, r3, r2
 2414 0a32 07F5CA53 		add	r3, r7, #6464
 2415 0a36 183B     		subs	r3, r3, #24
 2416 0a38 1968     		ldr	r1, [r3]
 2417 0a3a 07F5CA53 		add	r3, r7, #6464
 2418 0a3e 183B     		subs	r3, r3, #24
 2419 0a40 5C68     		ldr	r4, [r3, #4]
 2420 0a42 07F5CA52 		add	r2, r7, #6464
 2421 0a46 103A     		subs	r2, r2, #16
 2422 0a48 0B46     		mov	r3, r1
 2423 0a4a DB00     		lsls	r3, r3, #3
 2424 0a4c 0B44     		add	r3, r3, r1
 2425 0a4e 5B00     		lsls	r3, r3, #1
 2426 0a50 0B44     		add	r3, r3, r1
 2427 0a52 2344     		add	r3, r3, r4
 2428 0a54 5B01     		lsls	r3, r3, #5
 2429 0a56 1344     		add	r3, r3, r2
 2430 0a58 1833     		adds	r3, r3, #24
 2431 0a5a 5B68     		ldr	r3, [r3, #4]
 2432 0a5c 8360     		str	r3, [r0, #8]
 326:.\pathfinder.c ****       path_couter++;
 2433              		.loc 1 326 0
 2434 0a5e 07F57353 		add	r3, r7, #15552
 2435 0a62 03F11C03 		add	r3, r3, #28
 2436 0a66 1B68     		ldr	r3, [r3]
 2437 0a68 0133     		adds	r3, r3, #1
 2438 0a6a 07F57352 		add	r2, r7, #15552
 2439 0a6e 02F11C02 		add	r2, r2, #28
 2440 0a72 1360     		str	r3, [r2]
 2441              	.L37:
 2442              	.LBE5:
 245:.\pathfinder.c ****       counter = 1;
 2443              		.loc 1 245 0
 2444 0a74 07F57353 		add	r3, r7, #15552
 2445 0a78 03F12003 		add	r3, r3, #32
 2446 0a7c 1B68     		ldr	r3, [r3]
 2447 0a7e 012B     		cmp	r3, #1
ARM GAS  C:\Users\Tomas\AppData\Local\Temp\cc4KjDQP.s 			page 50


 2448 0a80 3FF4F5AC 		beq	.L49
 327:.\pathfinder.c ****       //printf("tent_cost : %d || NODE(%d, %d) || visited: %d\n", Nodes[current[Y]][current[X]].ten
 328:.\pathfinder.c **** 
 329:.\pathfinder.c ****    }
 330:.\pathfinder.c **** 
 331:.\pathfinder.c ****    return path_couter;
 2449              		.loc 1 331 0
 2450 0a84 07F57353 		add	r3, r7, #15552
 2451 0a88 03F11C03 		add	r3, r3, #28
 2452 0a8c 1B68     		ldr	r3, [r3]
 332:.\pathfinder.c **** }
 2453              		.loc 1 332 0
 2454 0a8e 1846     		mov	r0, r3
 2455 0a90 07F57457 		add	r7, r7, #15616
 2456              		.cfi_def_cfa_offset 16
 2457 0a94 BD46     		mov	sp, r7
 2458              		.cfi_def_cfa_register 13
 2459              		@ sp needed
 2460 0a96 B0BD     		pop	{r4, r5, r7, pc}
 2461              		.cfi_endproc
 2462              	.LFE64:
 2463              		.size	DepthFirst, .-DepthFirst
 2464              		.section	.text.generateEntireMapDirections,"ax",%progbits
 2465              		.align	2
 2466              		.global	generateEntireMapDirections
 2467              		.thumb
 2468              		.thumb_func
 2469              		.type	generateEntireMapDirections, %function
 2470              	generateEntireMapDirections:
 2471              	.LFB65:
 333:.\pathfinder.c **** 
 334:.\pathfinder.c **** uint32_t generateEntireMapDirections(){
 2472              		.loc 1 334 0
 2473              		.cfi_startproc
 2474              		@ args = 0, pretend = 0, frame = 9656
 2475              		@ frame_needed = 1, uses_anonymous_args = 0
 2476 0000 90B5     		push	{r4, r7, lr}
 2477              		.cfi_def_cfa_offset 12
 2478              		.cfi_offset 4, -12
 2479              		.cfi_offset 7, -8
 2480              		.cfi_offset 14, -4
 2481 0002 ADF5175D 		sub	sp, sp, #9664
 2482              		.cfi_def_cfa_offset 9676
 2483 0006 81B0     		sub	sp, sp, #4
 2484              		.cfi_def_cfa_offset 9680
 2485 0008 02AF     		add	r7, sp, #8
 2486              		.cfi_def_cfa 7, 9672
 335:.\pathfinder.c ****     int end = DepthFirst(map, food_list, path, start, destination, robot_direction);
 2487              		.loc 1 335 0
 2488 000a 1B4B     		ldr	r3, .L191
 2489 000c 1B68     		ldr	r3, [r3]
 2490 000e 1B4A     		ldr	r2, .L191+4
 2491 0010 0092     		str	r2, [sp]
 2492 0012 0193     		str	r3, [sp, #4]
 2493 0014 1A48     		ldr	r0, .L191+8
 2494 0016 1B49     		ldr	r1, .L191+12
 2495 0018 1B4A     		ldr	r2, .L191+16
ARM GAS  C:\Users\Tomas\AppData\Local\Temp\cc4KjDQP.s 			page 51


 2496 001a 1C4B     		ldr	r3, .L191+20
 2497 001c FFF7FEFF 		bl	DepthFirst
 2498 0020 0346     		mov	r3, r0
 2499 0022 07F51652 		add	r2, r7, #9600
 2500 0026 02F11802 		add	r2, r2, #24
 2501 002a 1360     		str	r3, [r2]
 336:.\pathfinder.c **** 
 337:.\pathfinder.c ****    /*
 338:.\pathfinder.c ****    printf("hello\n");
 339:.\pathfinder.c ****    printf("end value : %d\n", end);
 340:.\pathfinder.c ****    printf("[");
 341:.\pathfinder.c ****    for(int i = 0; i <end; i++){
 342:.\pathfinder.c ****       printf("%d  %d;", path[i][Y] + 1, path[i][X] + 1);
 343:.\pathfinder.c ****    }
 344:.\pathfinder.c ****    printf("]\n");
 345:.\pathfinder.c ****    */
 346:.\pathfinder.c **** 
 347:.\pathfinder.c ****     int prev_intersection = 0;
 2502              		.loc 1 347 0
 2503 002c 0023     		movs	r3, #0
 2504 002e 07F51652 		add	r2, r7, #9600
 2505 0032 02F13402 		add	r2, r2, #52
 2506 0036 1360     		str	r3, [r2]
 348:.\pathfinder.c ****     uint16 counter = 0;
 2507              		.loc 1 348 0
 2508 0038 0023     		movs	r3, #0
 2509 003a 07F51652 		add	r2, r7, #9600
 2510 003e 02F13202 		add	r2, r2, #50
 2511 0042 1380     		strh	r3, [r2]	@ movhi
 349:.\pathfinder.c ****     int tmpCounter = 0;
 2512              		.loc 1 349 0
 2513 0044 0023     		movs	r3, #0
 2514 0046 07F51652 		add	r2, r7, #9600
 2515 004a 02F12C02 		add	r2, r2, #44
 2516 004e 1360     		str	r3, [r2]
 350:.\pathfinder.c ****     int inter_prev_intersection = 0;
 2517              		.loc 1 350 0
 2518 0050 0023     		movs	r3, #0
 2519 0052 07F51652 		add	r2, r7, #9600
 2520 0056 02F12802 		add	r2, r2, #40
 2521 005a 1360     		str	r3, [r2]
 351:.\pathfinder.c ****     int skip = 0;
 2522              		.loc 1 351 0
 2523 005c 0023     		movs	r3, #0
 2524 005e 07F51652 		add	r2, r7, #9600
 2525 0062 02F12402 		add	r2, r2, #36
 2526 0066 1360     		str	r3, [r2]
 352:.\pathfinder.c ****    //printf("here\n");
 353:.\pathfinder.c ****    //start from the end since that's the way the path has been stored in the the array
 354:.\pathfinder.c ****    //U/D stands for up down intersection L/R stands for left right internsection
 355:.\pathfinder.c ****     int i;
 356:.\pathfinder.c ****    for(i = 0; i < end; i++){
 2527              		.loc 1 356 0
 2528 0068 0023     		movs	r3, #0
 2529 006a 07F51652 		add	r2, r7, #9600
 2530 006e 02F12002 		add	r2, r2, #32
 2531 0072 1360     		str	r3, [r2]
ARM GAS  C:\Users\Tomas\AppData\Local\Temp\cc4KjDQP.s 			page 52


 2532 0074 02F09DBC 		b	.L52
 2533              	.L192:
 2534              		.align	2
 2535              	.L191:
 2536 0078 00000000 		.word	robot_direction
 2537 007c 00000000 		.word	destination
 2538 0080 00000000 		.word	map
 2539 0084 00000000 		.word	food_list
 2540 0088 00000000 		.word	path
 2541 008c 00000000 		.word	start
 2542              	.L189:
 357:.\pathfinder.c ****     skip = 0;
 2543              		.loc 1 357 0
 2544 0090 0023     		movs	r3, #0
 2545 0092 07F51652 		add	r2, r7, #9600
 2546 0096 02F12402 		add	r2, r2, #36
 2547 009a 1360     		str	r3, [r2]
 358:.\pathfinder.c ****       //printf("%d %d;", path[i][Y] + 1, path[i][X] + 1);
 359:.\pathfinder.c ****       //if next direction is not possible from current direction then find the inter path (down, up
 360:.\pathfinder.c ****       if(!((path[i + 1][Y] == path[i][Y] + 1 && path[i + 1][X] == path[i][X]) || (path[i + 1][Y] ==
 2548              		.loc 1 360 0
 2549 009c 07F51653 		add	r3, r7, #9600
 2550 00a0 03F12003 		add	r3, r3, #32
 2551 00a4 1B68     		ldr	r3, [r3]
 2552 00a6 5A1C     		adds	r2, r3, #1
 2553 00a8 CF49     		ldr	r1, .L193
 2554 00aa 1346     		mov	r3, r2
 2555 00ac 5B00     		lsls	r3, r3, #1
 2556 00ae 1344     		add	r3, r3, r2
 2557 00b0 9B00     		lsls	r3, r3, #2
 2558 00b2 0B44     		add	r3, r3, r1
 2559 00b4 1968     		ldr	r1, [r3]
 2560 00b6 CC48     		ldr	r0, .L193
 2561 00b8 07F51653 		add	r3, r7, #9600
 2562 00bc 03F12003 		add	r3, r3, #32
 2563 00c0 1A68     		ldr	r2, [r3]
 2564 00c2 1346     		mov	r3, r2
 2565 00c4 5B00     		lsls	r3, r3, #1
 2566 00c6 1344     		add	r3, r3, r2
 2567 00c8 9B00     		lsls	r3, r3, #2
 2568 00ca 0344     		add	r3, r3, r0
 2569 00cc 1B68     		ldr	r3, [r3]
 2570 00ce 0133     		adds	r3, r3, #1
 2571 00d0 9942     		cmp	r1, r3
 2572 00d2 1DD1     		bne	.L53
 2573              		.loc 1 360 0 is_stmt 0 discriminator 2
 2574 00d4 07F51653 		add	r3, r7, #9600
 2575 00d8 03F12003 		add	r3, r3, #32
 2576 00dc 1B68     		ldr	r3, [r3]
 2577 00de 5A1C     		adds	r2, r3, #1
 2578 00e0 C149     		ldr	r1, .L193
 2579 00e2 1346     		mov	r3, r2
 2580 00e4 5B00     		lsls	r3, r3, #1
 2581 00e6 1344     		add	r3, r3, r2
 2582 00e8 9B00     		lsls	r3, r3, #2
 2583 00ea 0B44     		add	r3, r3, r1
 2584 00ec 0433     		adds	r3, r3, #4
ARM GAS  C:\Users\Tomas\AppData\Local\Temp\cc4KjDQP.s 			page 53


 2585 00ee 1968     		ldr	r1, [r3]
 2586 00f0 BD48     		ldr	r0, .L193
 2587 00f2 07F51653 		add	r3, r7, #9600
 2588 00f6 03F12003 		add	r3, r3, #32
 2589 00fa 1A68     		ldr	r2, [r3]
 2590 00fc 1346     		mov	r3, r2
 2591 00fe 5B00     		lsls	r3, r3, #1
 2592 0100 1344     		add	r3, r3, r2
 2593 0102 9B00     		lsls	r3, r3, #2
 2594 0104 0344     		add	r3, r3, r0
 2595 0106 0433     		adds	r3, r3, #4
 2596 0108 1B68     		ldr	r3, [r3]
 2597 010a 9942     		cmp	r1, r3
 2598 010c 01F06185 		beq	.L54
 2599              	.L53:
 2600              		.loc 1 360 0 discriminator 3
 2601 0110 07F51653 		add	r3, r7, #9600
 2602 0114 03F12003 		add	r3, r3, #32
 2603 0118 1B68     		ldr	r3, [r3]
 2604 011a 5A1C     		adds	r2, r3, #1
 2605 011c B249     		ldr	r1, .L193
 2606 011e 1346     		mov	r3, r2
 2607 0120 5B00     		lsls	r3, r3, #1
 2608 0122 1344     		add	r3, r3, r2
 2609 0124 9B00     		lsls	r3, r3, #2
 2610 0126 0B44     		add	r3, r3, r1
 2611 0128 1968     		ldr	r1, [r3]
 2612 012a AF48     		ldr	r0, .L193
 2613 012c 07F51653 		add	r3, r7, #9600
 2614 0130 03F12003 		add	r3, r3, #32
 2615 0134 1A68     		ldr	r2, [r3]
 2616 0136 1346     		mov	r3, r2
 2617 0138 5B00     		lsls	r3, r3, #1
 2618 013a 1344     		add	r3, r3, r2
 2619 013c 9B00     		lsls	r3, r3, #2
 2620 013e 0344     		add	r3, r3, r0
 2621 0140 1B68     		ldr	r3, [r3]
 2622 0142 013B     		subs	r3, r3, #1
 2623 0144 9942     		cmp	r1, r3
 2624 0146 1DD1     		bne	.L55
 2625              		.loc 1 360 0 discriminator 5
 2626 0148 07F51653 		add	r3, r7, #9600
 2627 014c 03F12003 		add	r3, r3, #32
 2628 0150 1B68     		ldr	r3, [r3]
 2629 0152 5A1C     		adds	r2, r3, #1
 2630 0154 A449     		ldr	r1, .L193
 2631 0156 1346     		mov	r3, r2
 2632 0158 5B00     		lsls	r3, r3, #1
 2633 015a 1344     		add	r3, r3, r2
 2634 015c 9B00     		lsls	r3, r3, #2
 2635 015e 0B44     		add	r3, r3, r1
 2636 0160 0433     		adds	r3, r3, #4
 2637 0162 1968     		ldr	r1, [r3]
 2638 0164 A048     		ldr	r0, .L193
 2639 0166 07F51653 		add	r3, r7, #9600
 2640 016a 03F12003 		add	r3, r3, #32
 2641 016e 1A68     		ldr	r2, [r3]
ARM GAS  C:\Users\Tomas\AppData\Local\Temp\cc4KjDQP.s 			page 54


 2642 0170 1346     		mov	r3, r2
 2643 0172 5B00     		lsls	r3, r3, #1
 2644 0174 1344     		add	r3, r3, r2
 2645 0176 9B00     		lsls	r3, r3, #2
 2646 0178 0344     		add	r3, r3, r0
 2647 017a 0433     		adds	r3, r3, #4
 2648 017c 1B68     		ldr	r3, [r3]
 2649 017e 9942     		cmp	r1, r3
 2650 0180 01F02785 		beq	.L54
 2651              	.L55:
 2652              		.loc 1 360 0 discriminator 6
 2653 0184 07F51653 		add	r3, r7, #9600
 2654 0188 03F12003 		add	r3, r3, #32
 2655 018c 1B68     		ldr	r3, [r3]
 2656 018e 5A1C     		adds	r2, r3, #1
 2657 0190 9549     		ldr	r1, .L193
 2658 0192 1346     		mov	r3, r2
 2659 0194 5B00     		lsls	r3, r3, #1
 2660 0196 1344     		add	r3, r3, r2
 2661 0198 9B00     		lsls	r3, r3, #2
 2662 019a 0B44     		add	r3, r3, r1
 2663 019c 0433     		adds	r3, r3, #4
 2664 019e 1968     		ldr	r1, [r3]
 2665 01a0 9148     		ldr	r0, .L193
 2666 01a2 07F51653 		add	r3, r7, #9600
 2667 01a6 03F12003 		add	r3, r3, #32
 2668 01aa 1A68     		ldr	r2, [r3]
 2669 01ac 1346     		mov	r3, r2
 2670 01ae 5B00     		lsls	r3, r3, #1
 2671 01b0 1344     		add	r3, r3, r2
 2672 01b2 9B00     		lsls	r3, r3, #2
 2673 01b4 0344     		add	r3, r3, r0
 2674 01b6 0433     		adds	r3, r3, #4
 2675 01b8 1B68     		ldr	r3, [r3]
 2676 01ba 013B     		subs	r3, r3, #1
 2677 01bc 9942     		cmp	r1, r3
 2678 01be 1BD1     		bne	.L56
 2679              		.loc 1 360 0 discriminator 8
 2680 01c0 07F51653 		add	r3, r7, #9600
 2681 01c4 03F12003 		add	r3, r3, #32
 2682 01c8 1B68     		ldr	r3, [r3]
 2683 01ca 5A1C     		adds	r2, r3, #1
 2684 01cc 8649     		ldr	r1, .L193
 2685 01ce 1346     		mov	r3, r2
 2686 01d0 5B00     		lsls	r3, r3, #1
 2687 01d2 1344     		add	r3, r3, r2
 2688 01d4 9B00     		lsls	r3, r3, #2
 2689 01d6 0B44     		add	r3, r3, r1
 2690 01d8 1968     		ldr	r1, [r3]
 2691 01da 8348     		ldr	r0, .L193
 2692 01dc 07F51653 		add	r3, r7, #9600
 2693 01e0 03F12003 		add	r3, r3, #32
 2694 01e4 1A68     		ldr	r2, [r3]
 2695 01e6 1346     		mov	r3, r2
 2696 01e8 5B00     		lsls	r3, r3, #1
 2697 01ea 1344     		add	r3, r3, r2
 2698 01ec 9B00     		lsls	r3, r3, #2
ARM GAS  C:\Users\Tomas\AppData\Local\Temp\cc4KjDQP.s 			page 55


 2699 01ee 0344     		add	r3, r3, r0
 2700 01f0 1B68     		ldr	r3, [r3]
 2701 01f2 9942     		cmp	r1, r3
 2702 01f4 01F0ED84 		beq	.L54
 2703              	.L56:
 2704              		.loc 1 360 0 discriminator 9
 2705 01f8 07F51653 		add	r3, r7, #9600
 2706 01fc 03F12003 		add	r3, r3, #32
 2707 0200 1B68     		ldr	r3, [r3]
 2708 0202 5A1C     		adds	r2, r3, #1
 2709 0204 7849     		ldr	r1, .L193
 2710 0206 1346     		mov	r3, r2
 2711 0208 5B00     		lsls	r3, r3, #1
 2712 020a 1344     		add	r3, r3, r2
 2713 020c 9B00     		lsls	r3, r3, #2
 2714 020e 0B44     		add	r3, r3, r1
 2715 0210 0433     		adds	r3, r3, #4
 2716 0212 1968     		ldr	r1, [r3]
 2717 0214 7448     		ldr	r0, .L193
 2718 0216 07F51653 		add	r3, r7, #9600
 2719 021a 03F12003 		add	r3, r3, #32
 2720 021e 1A68     		ldr	r2, [r3]
 2721 0220 1346     		mov	r3, r2
 2722 0222 5B00     		lsls	r3, r3, #1
 2723 0224 1344     		add	r3, r3, r2
 2724 0226 9B00     		lsls	r3, r3, #2
 2725 0228 0344     		add	r3, r3, r0
 2726 022a 0433     		adds	r3, r3, #4
 2727 022c 1B68     		ldr	r3, [r3]
 2728 022e 0133     		adds	r3, r3, #1
 2729 0230 9942     		cmp	r1, r3
 2730 0232 1BD1     		bne	.L57
 2731              		.loc 1 360 0 discriminator 10
 2732 0234 07F51653 		add	r3, r7, #9600
 2733 0238 03F12003 		add	r3, r3, #32
 2734 023c 1B68     		ldr	r3, [r3]
 2735 023e 5A1C     		adds	r2, r3, #1
 2736 0240 6949     		ldr	r1, .L193
 2737 0242 1346     		mov	r3, r2
 2738 0244 5B00     		lsls	r3, r3, #1
 2739 0246 1344     		add	r3, r3, r2
 2740 0248 9B00     		lsls	r3, r3, #2
 2741 024a 0B44     		add	r3, r3, r1
 2742 024c 1968     		ldr	r1, [r3]
 2743 024e 6648     		ldr	r0, .L193
 2744 0250 07F51653 		add	r3, r7, #9600
 2745 0254 03F12003 		add	r3, r3, #32
 2746 0258 1A68     		ldr	r2, [r3]
 2747 025a 1346     		mov	r3, r2
 2748 025c 5B00     		lsls	r3, r3, #1
 2749 025e 1344     		add	r3, r3, r2
 2750 0260 9B00     		lsls	r3, r3, #2
 2751 0262 0344     		add	r3, r3, r0
 2752 0264 1B68     		ldr	r3, [r3]
 2753 0266 9942     		cmp	r1, r3
 2754 0268 01F0B384 		beq	.L54
 2755              	.L57:
ARM GAS  C:\Users\Tomas\AppData\Local\Temp\cc4KjDQP.s 			page 56


 2756              	.LBB6:
 361:.\pathfinder.c ****         if((i - prev_intersection - 1) > 0){
 2757              		.loc 1 361 0 is_stmt 1
 2758 026c 07F51653 		add	r3, r7, #9600
 2759 0270 03F12003 		add	r3, r3, #32
 2760 0274 1A68     		ldr	r2, [r3]
 2761 0276 07F51653 		add	r3, r7, #9600
 2762 027a 03F13403 		add	r3, r3, #52
 2763 027e 1B68     		ldr	r3, [r3]
 2764 0280 D31A     		subs	r3, r2, r3
 2765 0282 013B     		subs	r3, r3, #1
 2766 0284 002B     		cmp	r3, #0
 2767 0286 2ADD     		ble	.L58
 362:.\pathfinder.c ****             instructions[counter] = DRIVE;
 2768              		.loc 1 362 0
 2769 0288 07F51653 		add	r3, r7, #9600
 2770 028c 03F13203 		add	r3, r3, #50
 2771 0290 1B88     		ldrh	r3, [r3]
 2772 0292 564A     		ldr	r2, .L193+4
 2773 0294 4421     		movs	r1, #68
 2774 0296 D154     		strb	r1, [r2, r3]
 363:.\pathfinder.c ****             instructions[counter + 1] = i - prev_intersection - 1;
 2775              		.loc 1 363 0
 2776 0298 07F51653 		add	r3, r7, #9600
 2777 029c 03F13203 		add	r3, r3, #50
 2778 02a0 1B88     		ldrh	r3, [r3]
 2779 02a2 0133     		adds	r3, r3, #1
 2780 02a4 07F51652 		add	r2, r7, #9600
 2781 02a8 02F12002 		add	r2, r2, #32
 2782 02ac 1268     		ldr	r2, [r2]
 2783 02ae D1B2     		uxtb	r1, r2
 2784 02b0 07F51652 		add	r2, r7, #9600
 2785 02b4 02F13402 		add	r2, r2, #52
 2786 02b8 1268     		ldr	r2, [r2]
 2787 02ba D2B2     		uxtb	r2, r2
 2788 02bc 8A1A     		subs	r2, r1, r2
 2789 02be D2B2     		uxtb	r2, r2
 2790 02c0 013A     		subs	r2, r2, #1
 2791 02c2 D1B2     		uxtb	r1, r2
 2792 02c4 494A     		ldr	r2, .L193+4
 2793 02c6 D154     		strb	r1, [r2, r3]
 364:.\pathfinder.c ****             counter += 2;
 2794              		.loc 1 364 0
 2795 02c8 07F51653 		add	r3, r7, #9600
 2796 02cc 03F13203 		add	r3, r3, #50
 2797 02d0 1B88     		ldrh	r3, [r3]	@ movhi
 2798 02d2 0233     		adds	r3, r3, #2
 2799 02d4 07F51652 		add	r2, r7, #9600
 2800 02d8 02F13202 		add	r2, r2, #50
 2801 02dc 1380     		strh	r3, [r2]	@ movhi
 2802              	.L58:
 365:.\pathfinder.c ****         }
 366:.\pathfinder.c ****         inter_prev_intersection = 0; 
 2803              		.loc 1 366 0
 2804 02de 0023     		movs	r3, #0
 2805 02e0 07F51652 		add	r2, r7, #9600
 2806 02e4 02F12802 		add	r2, r2, #40
ARM GAS  C:\Users\Tomas\AppData\Local\Temp\cc4KjDQP.s 			page 57


 2807 02e8 1360     		str	r3, [r2]
 367:.\pathfinder.c ****         uint32_t inter_path[DEFAULT_ARRAY_SIZE][3] = {0};
 2808              		.loc 1 367 0
 2809 02ea 07F13803 		add	r3, r7, #56
 2810 02ee 343B     		subs	r3, r3, #52
 2811 02f0 1A46     		mov	r2, r3
 2812 02f2 4FF41653 		mov	r3, #9600
 2813 02f6 1046     		mov	r0, r2
 2814 02f8 0021     		movs	r1, #0
 2815 02fa 1A46     		mov	r2, r3
 2816 02fc FFF7FEFF 		bl	memset
 368:.\pathfinder.c ****          uint32_t inter_start[2] = {path[i][Y], path[i][X]};//(y, x) array starts at 0
 2817              		.loc 1 368 0
 2818 0300 3949     		ldr	r1, .L193
 2819 0302 07F51653 		add	r3, r7, #9600
 2820 0306 03F12003 		add	r3, r3, #32
 2821 030a 1A68     		ldr	r2, [r3]
 2822 030c 1346     		mov	r3, r2
 2823 030e 5B00     		lsls	r3, r3, #1
 2824 0310 1344     		add	r3, r3, r2
 2825 0312 9B00     		lsls	r3, r3, #2
 2826 0314 0B44     		add	r3, r3, r1
 2827 0316 1B68     		ldr	r3, [r3]
 2828 0318 07F51652 		add	r2, r7, #9600
 2829 031c 02F10C02 		add	r2, r2, #12
 2830 0320 1360     		str	r3, [r2]
 2831 0322 3149     		ldr	r1, .L193
 2832 0324 07F51653 		add	r3, r7, #9600
 2833 0328 03F12003 		add	r3, r3, #32
 2834 032c 1A68     		ldr	r2, [r3]
 2835 032e 1346     		mov	r3, r2
 2836 0330 5B00     		lsls	r3, r3, #1
 2837 0332 1344     		add	r3, r3, r2
 2838 0334 9B00     		lsls	r3, r3, #2
 2839 0336 0B44     		add	r3, r3, r1
 2840 0338 0433     		adds	r3, r3, #4
 2841 033a 1B68     		ldr	r3, [r3]
 2842 033c 07F51652 		add	r2, r7, #9600
 2843 0340 02F11002 		add	r2, r2, #16
 2844 0344 1360     		str	r3, [r2]
 369:.\pathfinder.c ****          uint32_t inter_destination[2] = {path[i + 1][Y], path[i + 1][X]};//(y, x)
 2845              		.loc 1 369 0
 2846 0346 07F51653 		add	r3, r7, #9600
 2847 034a 03F12003 		add	r3, r3, #32
 2848 034e 1B68     		ldr	r3, [r3]
 2849 0350 5A1C     		adds	r2, r3, #1
 2850 0352 2549     		ldr	r1, .L193
 2851 0354 1346     		mov	r3, r2
 2852 0356 5B00     		lsls	r3, r3, #1
 2853 0358 1344     		add	r3, r3, r2
 2854 035a 9B00     		lsls	r3, r3, #2
 2855 035c 0B44     		add	r3, r3, r1
 2856 035e 1B68     		ldr	r3, [r3]
 2857 0360 07F51652 		add	r2, r7, #9600
 2858 0364 02F10402 		add	r2, r2, #4
 2859 0368 1360     		str	r3, [r2]
 2860 036a 07F51653 		add	r3, r7, #9600
ARM GAS  C:\Users\Tomas\AppData\Local\Temp\cc4KjDQP.s 			page 58


 2861 036e 03F12003 		add	r3, r3, #32
 2862 0372 1B68     		ldr	r3, [r3]
 2863 0374 5A1C     		adds	r2, r3, #1
 2864 0376 1C49     		ldr	r1, .L193
 2865 0378 1346     		mov	r3, r2
 2866 037a 5B00     		lsls	r3, r3, #1
 2867 037c 1344     		add	r3, r3, r2
 2868 037e 9B00     		lsls	r3, r3, #2
 2869 0380 0B44     		add	r3, r3, r1
 2870 0382 0433     		adds	r3, r3, #4
 2871 0384 1B68     		ldr	r3, [r3]
 2872 0386 07F51652 		add	r2, r7, #9600
 2873 038a 02F10802 		add	r2, r2, #8
 2874 038e 1360     		str	r3, [r2]
 370:.\pathfinder.c ****             
 371:.\pathfinder.c ****         //change the global direction
 372:.\pathfinder.c ****         robot_direction = path[i][DIR];
 2875              		.loc 1 372 0
 2876 0390 1549     		ldr	r1, .L193
 2877 0392 07F51653 		add	r3, r7, #9600
 2878 0396 03F12003 		add	r3, r3, #32
 2879 039a 1A68     		ldr	r2, [r3]
 2880 039c 1346     		mov	r3, r2
 2881 039e 5B00     		lsls	r3, r3, #1
 2882 03a0 1344     		add	r3, r3, r2
 2883 03a2 9B00     		lsls	r3, r3, #2
 2884 03a4 0B44     		add	r3, r3, r1
 2885 03a6 0833     		adds	r3, r3, #8
 2886 03a8 1B68     		ldr	r3, [r3]
 2887 03aa 114A     		ldr	r2, .L193+8
 2888 03ac 1360     		str	r3, [r2]
 373:.\pathfinder.c ****          int inter_end = djikstras(map, food_list, inter_path, inter_start, inter_destination);
 2889              		.loc 1 373 0
 2890 03ae 07F13803 		add	r3, r7, #56
 2891 03b2 343B     		subs	r3, r3, #52
 2892 03b4 07F51654 		add	r4, r7, #9600
 2893 03b8 04F10C04 		add	r4, r4, #12
 2894 03bc 07F51652 		add	r2, r7, #9600
 2895 03c0 02F10402 		add	r2, r2, #4
 2896 03c4 0092     		str	r2, [sp]
 2897 03c6 0B48     		ldr	r0, .L193+12
 2898 03c8 0B49     		ldr	r1, .L193+16
 2899 03ca 1A46     		mov	r2, r3
 2900 03cc 2346     		mov	r3, r4
 2901 03ce FFF7FEFF 		bl	djikstras
 2902 03d2 0346     		mov	r3, r0
 2903 03d4 07F51652 		add	r2, r7, #9600
 2904 03d8 02F11402 		add	r2, r2, #20
 2905 03dc 1360     		str	r3, [r2]
 374:.\pathfinder.c **** 
 375:.\pathfinder.c ****          /*
 376:.\pathfinder.c ****          printf("\nDiscontinuity found path:\n");
 377:.\pathfinder.c ****          printf("end value : %d\n", inter_end);
 378:.\pathfinder.c ****          printf("[");
 379:.\pathfinder.c ****          for(int tmpI = inter_end; tmpI >=0; tmpI--){//TODO: do you include the final value j>=1 or
 380:.\pathfinder.c ****             printf("%d  %d;", inter_path[tmpI][Y] + 1, inter_path[tmpI][X] + 1);
 381:.\pathfinder.c ****          }
ARM GAS  C:\Users\Tomas\AppData\Local\Temp\cc4KjDQP.s 			page 59


 382:.\pathfinder.c ****          printf("]\n");
 383:.\pathfinder.c ****          */
 384:.\pathfinder.c **** 
 385:.\pathfinder.c ****          //stuff
 386:.\pathfinder.c ****          int j;
 387:.\pathfinder.c ****          for(j = inter_end; j >= 1; j--){//TODO: do you include the final value j>=1 or j>=0
 2906              		.loc 1 387 0
 2907 03de 07F51653 		add	r3, r7, #9600
 2908 03e2 03F11403 		add	r3, r3, #20
 2909 03e6 09E0     		b	.L194
 2910              	.L195:
 2911              		.align	2
 2912              	.L193:
 2913 03e8 00000000 		.word	path
 2914 03ec 00000000 		.word	instructions
 2915 03f0 00000000 		.word	robot_direction
 2916 03f4 00000000 		.word	map
 2917 03f8 00000000 		.word	food_list
 2918              	.L194:
 2919 03fc 1B68     		ldr	r3, [r3]
 2920 03fe 07F51652 		add	r2, r7, #9600
 2921 0402 02F11C02 		add	r2, r2, #28
 2922 0406 1360     		str	r3, [r2]
 2923 0408 01F0CBBB 		b	.L59
 2924              	.L142:
 388:.\pathfinder.c ****             //printf("%d %d;", inter_path[j][Y] + 1, inter_path[j][X] + 1);
 389:.\pathfinder.c ****             if(inter_path[j][DIR] == 1 || inter_path[j][DIR] == 3){
 2925              		.loc 1 389 0
 2926 040c 07F13802 		add	r2, r7, #56
 2927 0410 343A     		subs	r2, r2, #52
 2928 0412 07F51653 		add	r3, r7, #9600
 2929 0416 03F11C03 		add	r3, r3, #28
 2930 041a 1968     		ldr	r1, [r3]
 2931 041c 0B46     		mov	r3, r1
 2932 041e 5B00     		lsls	r3, r3, #1
 2933 0420 0B44     		add	r3, r3, r1
 2934 0422 9B00     		lsls	r3, r3, #2
 2935 0424 1344     		add	r3, r3, r2
 2936 0426 0833     		adds	r3, r3, #8
 2937 0428 1B68     		ldr	r3, [r3]
 2938 042a 012B     		cmp	r3, #1
 2939 042c 11D0     		beq	.L60
 2940              		.loc 1 389 0 is_stmt 0 discriminator 1
 2941 042e 07F13802 		add	r2, r7, #56
 2942 0432 343A     		subs	r2, r2, #52
 2943 0434 07F51653 		add	r3, r7, #9600
 2944 0438 03F11C03 		add	r3, r3, #28
 2945 043c 1968     		ldr	r1, [r3]
 2946 043e 0B46     		mov	r3, r1
 2947 0440 5B00     		lsls	r3, r3, #1
 2948 0442 0B44     		add	r3, r3, r1
 2949 0444 9B00     		lsls	r3, r3, #2
 2950 0446 1344     		add	r3, r3, r2
 2951 0448 0833     		adds	r3, r3, #8
 2952 044a 1B68     		ldr	r3, [r3]
 2953 044c 032B     		cmp	r3, #3
 2954 044e 40F0CD85 		bne	.L61
ARM GAS  C:\Users\Tomas\AppData\Local\Temp\cc4KjDQP.s 			page 60


 2955              	.L60:
 390:.\pathfinder.c ****                        //There should be a check that it is within the map
 391:.\pathfinder.c ****                        if(map[inter_path[j][Y]][inter_path[j][X] - 1] == PATH || map[inter_path[j][
 2956              		.loc 1 391 0 is_stmt 1
 2957 0452 07F13802 		add	r2, r7, #56
 2958 0456 343A     		subs	r2, r2, #52
 2959 0458 07F51653 		add	r3, r7, #9600
 2960 045c 03F11C03 		add	r3, r3, #28
 2961 0460 1968     		ldr	r1, [r3]
 2962 0462 0B46     		mov	r3, r1
 2963 0464 5B00     		lsls	r3, r3, #1
 2964 0466 0B44     		add	r3, r3, r1
 2965 0468 9B00     		lsls	r3, r3, #2
 2966 046a 1344     		add	r3, r3, r2
 2967 046c 1968     		ldr	r1, [r3]
 2968 046e 07F13802 		add	r2, r7, #56
 2969 0472 343A     		subs	r2, r2, #52
 2970 0474 07F51653 		add	r3, r7, #9600
 2971 0478 03F11C03 		add	r3, r3, #28
 2972 047c 1868     		ldr	r0, [r3]
 2973 047e 0346     		mov	r3, r0
 2974 0480 5B00     		lsls	r3, r3, #1
 2975 0482 0344     		add	r3, r3, r0
 2976 0484 9B00     		lsls	r3, r3, #2
 2977 0486 1344     		add	r3, r3, r2
 2978 0488 0433     		adds	r3, r3, #4
 2979 048a 1B68     		ldr	r3, [r3]
 2980 048c 5A1E     		subs	r2, r3, #1
 2981 048e 9548     		ldr	r0, .L196
 2982 0490 0B46     		mov	r3, r1
 2983 0492 DB00     		lsls	r3, r3, #3
 2984 0494 0B44     		add	r3, r3, r1
 2985 0496 5B00     		lsls	r3, r3, #1
 2986 0498 0B44     		add	r3, r3, r1
 2987 049a 1344     		add	r3, r3, r2
 2988 049c 50F82330 		ldr	r3, [r0, r3, lsl #2]
 2989 04a0 002B     		cmp	r3, #0
 2990 04a2 29D0     		beq	.L62
 2991              		.loc 1 391 0 is_stmt 0 discriminator 1
 2992 04a4 07F13802 		add	r2, r7, #56
 2993 04a8 343A     		subs	r2, r2, #52
 2994 04aa 07F51653 		add	r3, r7, #9600
 2995 04ae 03F11C03 		add	r3, r3, #28
 2996 04b2 1968     		ldr	r1, [r3]
 2997 04b4 0B46     		mov	r3, r1
 2998 04b6 5B00     		lsls	r3, r3, #1
 2999 04b8 0B44     		add	r3, r3, r1
 3000 04ba 9B00     		lsls	r3, r3, #2
 3001 04bc 1344     		add	r3, r3, r2
 3002 04be 1968     		ldr	r1, [r3]
 3003 04c0 07F13802 		add	r2, r7, #56
 3004 04c4 343A     		subs	r2, r2, #52
 3005 04c6 07F51653 		add	r3, r7, #9600
 3006 04ca 03F11C03 		add	r3, r3, #28
 3007 04ce 1868     		ldr	r0, [r3]
 3008 04d0 0346     		mov	r3, r0
 3009 04d2 5B00     		lsls	r3, r3, #1
ARM GAS  C:\Users\Tomas\AppData\Local\Temp\cc4KjDQP.s 			page 61


 3010 04d4 0344     		add	r3, r3, r0
 3011 04d6 9B00     		lsls	r3, r3, #2
 3012 04d8 1344     		add	r3, r3, r2
 3013 04da 0433     		adds	r3, r3, #4
 3014 04dc 1B68     		ldr	r3, [r3]
 3015 04de 5A1C     		adds	r2, r3, #1
 3016 04e0 8048     		ldr	r0, .L196
 3017 04e2 0B46     		mov	r3, r1
 3018 04e4 DB00     		lsls	r3, r3, #3
 3019 04e6 0B44     		add	r3, r3, r1
 3020 04e8 5B00     		lsls	r3, r3, #1
 3021 04ea 0B44     		add	r3, r3, r1
 3022 04ec 1344     		add	r3, r3, r2
 3023 04ee 50F82330 		ldr	r3, [r0, r3, lsl #2]
 3024 04f2 002B     		cmp	r3, #0
 3025 04f4 40F0F282 		bne	.L63
 3026              	.L62:
 392:.\pathfinder.c ****                           if(inter_path[j][DIR] != inter_path[j - 1][DIR]){
 3027              		.loc 1 392 0 is_stmt 1
 3028 04f8 07F13802 		add	r2, r7, #56
 3029 04fc 343A     		subs	r2, r2, #52
 3030 04fe 07F51653 		add	r3, r7, #9600
 3031 0502 03F11C03 		add	r3, r3, #28
 3032 0506 1968     		ldr	r1, [r3]
 3033 0508 0B46     		mov	r3, r1
 3034 050a 5B00     		lsls	r3, r3, #1
 3035 050c 0B44     		add	r3, r3, r1
 3036 050e 9B00     		lsls	r3, r3, #2
 3037 0510 1344     		add	r3, r3, r2
 3038 0512 0833     		adds	r3, r3, #8
 3039 0514 1868     		ldr	r0, [r3]
 3040 0516 07F51653 		add	r3, r7, #9600
 3041 051a 03F11C03 		add	r3, r3, #28
 3042 051e 1B68     		ldr	r3, [r3]
 3043 0520 591E     		subs	r1, r3, #1
 3044 0522 07F13802 		add	r2, r7, #56
 3045 0526 343A     		subs	r2, r2, #52
 3046 0528 0B46     		mov	r3, r1
 3047 052a 5B00     		lsls	r3, r3, #1
 3048 052c 0B44     		add	r3, r3, r1
 3049 052e 9B00     		lsls	r3, r3, #2
 3050 0530 1344     		add	r3, r3, r2
 3051 0532 0833     		adds	r3, r3, #8
 3052 0534 1B68     		ldr	r3, [r3]
 3053 0536 9842     		cmp	r0, r3
 3054 0538 00F08682 		beq	.L64
 393:.\pathfinder.c ****                              //current direction , the next direction
 394:.\pathfinder.c ****                              if((inter_path[j][DIR] == 1 && inter_path[j - 1][DIR] == 4) || (inter_
 3055              		.loc 1 394 0
 3056 053c 07F13802 		add	r2, r7, #56
 3057 0540 343A     		subs	r2, r2, #52
 3058 0542 07F51653 		add	r3, r7, #9600
 3059 0546 03F11C03 		add	r3, r3, #28
 3060 054a 1968     		ldr	r1, [r3]
 3061 054c 0B46     		mov	r3, r1
 3062 054e 5B00     		lsls	r3, r3, #1
 3063 0550 0B44     		add	r3, r3, r1
ARM GAS  C:\Users\Tomas\AppData\Local\Temp\cc4KjDQP.s 			page 62


 3064 0552 9B00     		lsls	r3, r3, #2
 3065 0554 1344     		add	r3, r3, r2
 3066 0556 0833     		adds	r3, r3, #8
 3067 0558 1B68     		ldr	r3, [r3]
 3068 055a 012B     		cmp	r3, #1
 3069 055c 11D1     		bne	.L65
 3070              		.loc 1 394 0 is_stmt 0 discriminator 1
 3071 055e 07F51653 		add	r3, r7, #9600
 3072 0562 03F11C03 		add	r3, r3, #28
 3073 0566 1B68     		ldr	r3, [r3]
 3074 0568 591E     		subs	r1, r3, #1
 3075 056a 07F13802 		add	r2, r7, #56
 3076 056e 343A     		subs	r2, r2, #52
 3077 0570 0B46     		mov	r3, r1
 3078 0572 5B00     		lsls	r3, r3, #1
 3079 0574 0B44     		add	r3, r3, r1
 3080 0576 9B00     		lsls	r3, r3, #2
 3081 0578 1344     		add	r3, r3, r2
 3082 057a 0833     		adds	r3, r3, #8
 3083 057c 1B68     		ldr	r3, [r3]
 3084 057e 042B     		cmp	r3, #4
 3085 0580 6BD0     		beq	.L66
 3086              	.L65:
 3087              		.loc 1 394 0 discriminator 3
 3088 0582 07F13802 		add	r2, r7, #56
 3089 0586 343A     		subs	r2, r2, #52
 3090 0588 07F51653 		add	r3, r7, #9600
 3091 058c 03F11C03 		add	r3, r3, #28
 3092 0590 1968     		ldr	r1, [r3]
 3093 0592 0B46     		mov	r3, r1
 3094 0594 5B00     		lsls	r3, r3, #1
 3095 0596 0B44     		add	r3, r3, r1
 3096 0598 9B00     		lsls	r3, r3, #2
 3097 059a 1344     		add	r3, r3, r2
 3098 059c 0833     		adds	r3, r3, #8
 3099 059e 1B68     		ldr	r3, [r3]
 3100 05a0 032B     		cmp	r3, #3
 3101 05a2 11D1     		bne	.L67
 3102              		.loc 1 394 0 discriminator 4
 3103 05a4 07F51653 		add	r3, r7, #9600
 3104 05a8 03F11C03 		add	r3, r3, #28
 3105 05ac 1B68     		ldr	r3, [r3]
 3106 05ae 591E     		subs	r1, r3, #1
 3107 05b0 07F13802 		add	r2, r7, #56
 3108 05b4 343A     		subs	r2, r2, #52
 3109 05b6 0B46     		mov	r3, r1
 3110 05b8 5B00     		lsls	r3, r3, #1
 3111 05ba 0B44     		add	r3, r3, r1
 3112 05bc 9B00     		lsls	r3, r3, #2
 3113 05be 1344     		add	r3, r3, r2
 3114 05c0 0833     		adds	r3, r3, #8
 3115 05c2 1B68     		ldr	r3, [r3]
 3116 05c4 022B     		cmp	r3, #2
 3117 05c6 48D0     		beq	.L66
 3118              	.L67:
 3119              		.loc 1 394 0 discriminator 6
 3120 05c8 07F13802 		add	r2, r7, #56
ARM GAS  C:\Users\Tomas\AppData\Local\Temp\cc4KjDQP.s 			page 63


 3121 05cc 343A     		subs	r2, r2, #52
 3122 05ce 07F51653 		add	r3, r7, #9600
 3123 05d2 03F11C03 		add	r3, r3, #28
 3124 05d6 1968     		ldr	r1, [r3]
 3125 05d8 0B46     		mov	r3, r1
 3126 05da 5B00     		lsls	r3, r3, #1
 3127 05dc 0B44     		add	r3, r3, r1
 3128 05de 9B00     		lsls	r3, r3, #2
 3129 05e0 1344     		add	r3, r3, r2
 3130 05e2 0833     		adds	r3, r3, #8
 3131 05e4 1B68     		ldr	r3, [r3]
 3132 05e6 012B     		cmp	r3, #1
 3133 05e8 0FD1     		bne	.L68
 3134              		.loc 1 394 0 discriminator 7
 3135 05ea 07F51653 		add	r3, r7, #9600
 3136 05ee 03F12003 		add	r3, r3, #32
 3137 05f2 1B68     		ldr	r3, [r3]
 3138 05f4 5A1C     		adds	r2, r3, #1
 3139 05f6 3C49     		ldr	r1, .L196+4
 3140 05f8 1346     		mov	r3, r2
 3141 05fa 5B00     		lsls	r3, r3, #1
 3142 05fc 1344     		add	r3, r3, r2
 3143 05fe 9B00     		lsls	r3, r3, #2
 3144 0600 0B44     		add	r3, r3, r1
 3145 0602 0833     		adds	r3, r3, #8
 3146 0604 1B68     		ldr	r3, [r3]
 3147 0606 042B     		cmp	r3, #4
 3148 0608 20D0     		beq	.L69
 3149              	.L68:
 3150              		.loc 1 394 0 discriminator 10
 3151 060a 07F13802 		add	r2, r7, #56
 3152 060e 343A     		subs	r2, r2, #52
 3153 0610 07F51653 		add	r3, r7, #9600
 3154 0614 03F11C03 		add	r3, r3, #28
 3155 0618 1968     		ldr	r1, [r3]
 3156 061a 0B46     		mov	r3, r1
 3157 061c 5B00     		lsls	r3, r3, #1
 3158 061e 0B44     		add	r3, r3, r1
 3159 0620 9B00     		lsls	r3, r3, #2
 3160 0622 1344     		add	r3, r3, r2
 3161 0624 0833     		adds	r3, r3, #8
 3162 0626 1B68     		ldr	r3, [r3]
 3163 0628 032B     		cmp	r3, #3
 3164 062a 61D1     		bne	.L70
 3165              		.loc 1 394 0 discriminator 11
 3166 062c 07F51653 		add	r3, r7, #9600
 3167 0630 03F12003 		add	r3, r3, #32
 3168 0634 1B68     		ldr	r3, [r3]
 3169 0636 5A1C     		adds	r2, r3, #1
 3170 0638 2B49     		ldr	r1, .L196+4
 3171 063a 1346     		mov	r3, r2
 3172 063c 5B00     		lsls	r3, r3, #1
 3173 063e 1344     		add	r3, r3, r2
 3174 0640 9B00     		lsls	r3, r3, #2
 3175 0642 0B44     		add	r3, r3, r1
 3176 0644 0833     		adds	r3, r3, #8
 3177 0646 1B68     		ldr	r3, [r3]
ARM GAS  C:\Users\Tomas\AppData\Local\Temp\cc4KjDQP.s 			page 64


 3178 0648 022B     		cmp	r3, #2
 3179 064a 51D1     		bne	.L70
 3180              	.L69:
 3181              		.loc 1 394 0 discriminator 12
 3182 064c 07F51653 		add	r3, r7, #9600
 3183 0650 03F11C03 		add	r3, r3, #28
 3184 0654 1B68     		ldr	r3, [r3]
 3185 0656 012B     		cmp	r3, #1
 3186 0658 4AD1     		bne	.L70
 3187              	.L66:
 395:.\pathfinder.c ****                                // printf("L/R intersection found (%d) [direction = %d] -- TURN LEFT
 396:.\pathfinder.c ****                                 instructions[counter] = LEFT;
 3188              		.loc 1 396 0 is_stmt 1
 3189 065a 07F51653 		add	r3, r7, #9600
 3190 065e 03F13203 		add	r3, r3, #50
 3191 0662 1B88     		ldrh	r3, [r3]
 3192 0664 214A     		ldr	r2, .L196+8
 3193 0666 4C21     		movs	r1, #76
 3194 0668 D154     		strb	r1, [r2, r3]
 397:.\pathfinder.c ****                                 instructions[counter + 1] = (inter_end - j + 1 )- inter_prev_inters
 3195              		.loc 1 397 0
 3196 066a 07F51653 		add	r3, r7, #9600
 3197 066e 03F13203 		add	r3, r3, #50
 3198 0672 1B88     		ldrh	r3, [r3]
 3199 0674 0133     		adds	r3, r3, #1
 3200 0676 07F51652 		add	r2, r7, #9600
 3201 067a 02F11402 		add	r2, r2, #20
 3202 067e 1268     		ldr	r2, [r2]
 3203 0680 D1B2     		uxtb	r1, r2
 3204 0682 07F51652 		add	r2, r7, #9600
 3205 0686 02F11C02 		add	r2, r2, #28
 3206 068a 1268     		ldr	r2, [r2]
 3207 068c D2B2     		uxtb	r2, r2
 3208 068e 8A1A     		subs	r2, r1, r2
 3209 0690 D1B2     		uxtb	r1, r2
 3210 0692 07F51652 		add	r2, r7, #9600
 3211 0696 02F12802 		add	r2, r2, #40
 3212 069a 1268     		ldr	r2, [r2]
 3213 069c D2B2     		uxtb	r2, r2
 3214 069e 8A1A     		subs	r2, r1, r2
 3215 06a0 D2B2     		uxtb	r2, r2
 3216 06a2 0132     		adds	r2, r2, #1
 3217 06a4 D1B2     		uxtb	r1, r2
 3218 06a6 114A     		ldr	r2, .L196+8
 3219 06a8 D154     		strb	r1, [r2, r3]
 398:.\pathfinder.c ****                                 counter+=2;
 3220              		.loc 1 398 0
 3221 06aa 07F51653 		add	r3, r7, #9600
 3222 06ae 03F13203 		add	r3, r3, #50
 3223 06b2 1B88     		ldrh	r3, [r3]	@ movhi
 3224 06b4 0233     		adds	r3, r3, #2
 3225 06b6 07F51652 		add	r2, r7, #9600
 3226 06ba 02F13202 		add	r2, r2, #50
 3227 06be 1380     		strh	r3, [r2]	@ movhi
 399:.\pathfinder.c ****                                 inter_prev_intersection = inter_end - j + 1;
 3228              		.loc 1 399 0
 3229 06c0 07F51653 		add	r3, r7, #9600
ARM GAS  C:\Users\Tomas\AppData\Local\Temp\cc4KjDQP.s 			page 65


 3230 06c4 03F11403 		add	r3, r3, #20
 3231 06c8 1A68     		ldr	r2, [r3]
 3232 06ca 07F51653 		add	r3, r7, #9600
 3233 06ce 03F11C03 		add	r3, r3, #28
 3234 06d2 1B68     		ldr	r3, [r3]
 3235 06d4 D31A     		subs	r3, r2, r3
 3236 06d6 0133     		adds	r3, r3, #1
 3237 06d8 07F51652 		add	r2, r7, #9600
 3238 06dc 02F12802 		add	r2, r2, #40
 3239 06e0 1360     		str	r3, [r2]
 3240 06e2 B0E1     		b	.L71
 3241              	.L197:
 3242              		.align	2
 3243              	.L196:
 3244 06e4 00000000 		.word	map
 3245 06e8 00000000 		.word	path
 3246 06ec 00000000 		.word	instructions
 3247              	.L70:
 400:.\pathfinder.c ****                              }else if((inter_path[j][DIR] == 1 && inter_path[j - 1][DIR] == 2) || (
 3248              		.loc 1 400 0
 3249 06f0 07F13802 		add	r2, r7, #56
 3250 06f4 343A     		subs	r2, r2, #52
 3251 06f6 07F51653 		add	r3, r7, #9600
 3252 06fa 03F11C03 		add	r3, r3, #28
 3253 06fe 1968     		ldr	r1, [r3]
 3254 0700 0B46     		mov	r3, r1
 3255 0702 5B00     		lsls	r3, r3, #1
 3256 0704 0B44     		add	r3, r3, r1
 3257 0706 9B00     		lsls	r3, r3, #2
 3258 0708 1344     		add	r3, r3, r2
 3259 070a 0833     		adds	r3, r3, #8
 3260 070c 1B68     		ldr	r3, [r3]
 3261 070e 012B     		cmp	r3, #1
 3262 0710 11D1     		bne	.L72
 3263              		.loc 1 400 0 is_stmt 0 discriminator 1
 3264 0712 07F51653 		add	r3, r7, #9600
 3265 0716 03F11C03 		add	r3, r3, #28
 3266 071a 1B68     		ldr	r3, [r3]
 3267 071c 591E     		subs	r1, r3, #1
 3268 071e 07F13802 		add	r2, r7, #56
 3269 0722 343A     		subs	r2, r2, #52
 3270 0724 0B46     		mov	r3, r1
 3271 0726 5B00     		lsls	r3, r3, #1
 3272 0728 0B44     		add	r3, r3, r1
 3273 072a 9B00     		lsls	r3, r3, #2
 3274 072c 1344     		add	r3, r3, r2
 3275 072e 0833     		adds	r3, r3, #8
 3276 0730 1B68     		ldr	r3, [r3]
 3277 0732 022B     		cmp	r3, #2
 3278 0734 6BD0     		beq	.L73
 3279              	.L72:
 3280              		.loc 1 400 0 discriminator 3
 3281 0736 07F13802 		add	r2, r7, #56
 3282 073a 343A     		subs	r2, r2, #52
 3283 073c 07F51653 		add	r3, r7, #9600
 3284 0740 03F11C03 		add	r3, r3, #28
 3285 0744 1968     		ldr	r1, [r3]
ARM GAS  C:\Users\Tomas\AppData\Local\Temp\cc4KjDQP.s 			page 66


 3286 0746 0B46     		mov	r3, r1
 3287 0748 5B00     		lsls	r3, r3, #1
 3288 074a 0B44     		add	r3, r3, r1
 3289 074c 9B00     		lsls	r3, r3, #2
 3290 074e 1344     		add	r3, r3, r2
 3291 0750 0833     		adds	r3, r3, #8
 3292 0752 1B68     		ldr	r3, [r3]
 3293 0754 032B     		cmp	r3, #3
 3294 0756 11D1     		bne	.L74
 3295              		.loc 1 400 0 discriminator 4
 3296 0758 07F51653 		add	r3, r7, #9600
 3297 075c 03F11C03 		add	r3, r3, #28
 3298 0760 1B68     		ldr	r3, [r3]
 3299 0762 591E     		subs	r1, r3, #1
 3300 0764 07F13802 		add	r2, r7, #56
 3301 0768 343A     		subs	r2, r2, #52
 3302 076a 0B46     		mov	r3, r1
 3303 076c 5B00     		lsls	r3, r3, #1
 3304 076e 0B44     		add	r3, r3, r1
 3305 0770 9B00     		lsls	r3, r3, #2
 3306 0772 1344     		add	r3, r3, r2
 3307 0774 0833     		adds	r3, r3, #8
 3308 0776 1B68     		ldr	r3, [r3]
 3309 0778 042B     		cmp	r3, #4
 3310 077a 48D0     		beq	.L73
 3311              	.L74:
 3312              		.loc 1 400 0 discriminator 6
 3313 077c 07F13802 		add	r2, r7, #56
 3314 0780 343A     		subs	r2, r2, #52
 3315 0782 07F51653 		add	r3, r7, #9600
 3316 0786 03F11C03 		add	r3, r3, #28
 3317 078a 1968     		ldr	r1, [r3]
 3318 078c 0B46     		mov	r3, r1
 3319 078e 5B00     		lsls	r3, r3, #1
 3320 0790 0B44     		add	r3, r3, r1
 3321 0792 9B00     		lsls	r3, r3, #2
 3322 0794 1344     		add	r3, r3, r2
 3323 0796 0833     		adds	r3, r3, #8
 3324 0798 1B68     		ldr	r3, [r3]
 3325 079a 012B     		cmp	r3, #1
 3326 079c 0FD1     		bne	.L75
 3327              		.loc 1 400 0 discriminator 7
 3328 079e 07F51653 		add	r3, r7, #9600
 3329 07a2 03F12003 		add	r3, r3, #32
 3330 07a6 1B68     		ldr	r3, [r3]
 3331 07a8 5A1C     		adds	r2, r3, #1
 3332 07aa CA49     		ldr	r1, .L198
 3333 07ac 1346     		mov	r3, r2
 3334 07ae 5B00     		lsls	r3, r3, #1
 3335 07b0 1344     		add	r3, r3, r2
 3336 07b2 9B00     		lsls	r3, r3, #2
 3337 07b4 0B44     		add	r3, r3, r1
 3338 07b6 0833     		adds	r3, r3, #8
 3339 07b8 1B68     		ldr	r3, [r3]
 3340 07ba 022B     		cmp	r3, #2
 3341 07bc 20D0     		beq	.L76
 3342              	.L75:
ARM GAS  C:\Users\Tomas\AppData\Local\Temp\cc4KjDQP.s 			page 67


 3343              		.loc 1 400 0 discriminator 10
 3344 07be 07F13802 		add	r2, r7, #56
 3345 07c2 343A     		subs	r2, r2, #52
 3346 07c4 07F51653 		add	r3, r7, #9600
 3347 07c8 03F11C03 		add	r3, r3, #28
 3348 07cc 1968     		ldr	r1, [r3]
 3349 07ce 0B46     		mov	r3, r1
 3350 07d0 5B00     		lsls	r3, r3, #1
 3351 07d2 0B44     		add	r3, r3, r1
 3352 07d4 9B00     		lsls	r3, r3, #2
 3353 07d6 1344     		add	r3, r3, r2
 3354 07d8 0833     		adds	r3, r3, #8
 3355 07da 1B68     		ldr	r3, [r3]
 3356 07dc 032B     		cmp	r3, #3
 3357 07de 5BD1     		bne	.L77
 3358              		.loc 1 400 0 discriminator 11
 3359 07e0 07F51653 		add	r3, r7, #9600
 3360 07e4 03F12003 		add	r3, r3, #32
 3361 07e8 1B68     		ldr	r3, [r3]
 3362 07ea 5A1C     		adds	r2, r3, #1
 3363 07ec B949     		ldr	r1, .L198
 3364 07ee 1346     		mov	r3, r2
 3365 07f0 5B00     		lsls	r3, r3, #1
 3366 07f2 1344     		add	r3, r3, r2
 3367 07f4 9B00     		lsls	r3, r3, #2
 3368 07f6 0B44     		add	r3, r3, r1
 3369 07f8 0833     		adds	r3, r3, #8
 3370 07fa 1B68     		ldr	r3, [r3]
 3371 07fc 012B     		cmp	r3, #1
 3372 07fe 4BD1     		bne	.L77
 3373              	.L76:
 3374              		.loc 1 400 0 discriminator 12
 3375 0800 07F51653 		add	r3, r7, #9600
 3376 0804 03F11C03 		add	r3, r3, #28
 3377 0808 1B68     		ldr	r3, [r3]
 3378 080a 042B     		cmp	r3, #4
 3379 080c 44D1     		bne	.L77
 3380              	.L73:
 401:.\pathfinder.c ****                                // printf("L/R intersection found (%d) [direction = %d] -- TURN RIGH
 402:.\pathfinder.c ****                                 instructions[counter] = RIGHT;
 3381              		.loc 1 402 0 is_stmt 1
 3382 080e 07F51653 		add	r3, r7, #9600
 3383 0812 03F13203 		add	r3, r3, #50
 3384 0816 1B88     		ldrh	r3, [r3]
 3385 0818 AF4A     		ldr	r2, .L198+4
 3386 081a 5221     		movs	r1, #82
 3387 081c D154     		strb	r1, [r2, r3]
 403:.\pathfinder.c ****                                 instructions[counter + 1] = (inter_end - j + 1 )- inter_prev_inters
 3388              		.loc 1 403 0
 3389 081e 07F51653 		add	r3, r7, #9600
 3390 0822 03F13203 		add	r3, r3, #50
 3391 0826 1B88     		ldrh	r3, [r3]
 3392 0828 0133     		adds	r3, r3, #1
 3393 082a 07F51652 		add	r2, r7, #9600
 3394 082e 02F11402 		add	r2, r2, #20
 3395 0832 1268     		ldr	r2, [r2]
 3396 0834 D1B2     		uxtb	r1, r2
ARM GAS  C:\Users\Tomas\AppData\Local\Temp\cc4KjDQP.s 			page 68


 3397 0836 07F51652 		add	r2, r7, #9600
 3398 083a 02F11C02 		add	r2, r2, #28
 3399 083e 1268     		ldr	r2, [r2]
 3400 0840 D2B2     		uxtb	r2, r2
 3401 0842 8A1A     		subs	r2, r1, r2
 3402 0844 D1B2     		uxtb	r1, r2
 3403 0846 07F51652 		add	r2, r7, #9600
 3404 084a 02F12802 		add	r2, r2, #40
 3405 084e 1268     		ldr	r2, [r2]
 3406 0850 D2B2     		uxtb	r2, r2
 3407 0852 8A1A     		subs	r2, r1, r2
 3408 0854 D2B2     		uxtb	r2, r2
 3409 0856 0132     		adds	r2, r2, #1
 3410 0858 D1B2     		uxtb	r1, r2
 3411 085a 9F4A     		ldr	r2, .L198+4
 3412 085c D154     		strb	r1, [r2, r3]
 404:.\pathfinder.c ****                                 counter+=2;
 3413              		.loc 1 404 0
 3414 085e 07F51653 		add	r3, r7, #9600
 3415 0862 03F13203 		add	r3, r3, #50
 3416 0866 1B88     		ldrh	r3, [r3]	@ movhi
 3417 0868 0233     		adds	r3, r3, #2
 3418 086a 07F51652 		add	r2, r7, #9600
 3419 086e 02F13202 		add	r2, r2, #50
 3420 0872 1380     		strh	r3, [r2]	@ movhi
 405:.\pathfinder.c ****                                 inter_prev_intersection = inter_end - j + 1;
 3421              		.loc 1 405 0
 3422 0874 07F51653 		add	r3, r7, #9600
 3423 0878 03F11403 		add	r3, r3, #20
 3424 087c 1A68     		ldr	r2, [r3]
 3425 087e 07F51653 		add	r3, r7, #9600
 3426 0882 03F11C03 		add	r3, r3, #28
 3427 0886 1B68     		ldr	r3, [r3]
 3428 0888 D31A     		subs	r3, r2, r3
 3429 088a 0133     		adds	r3, r3, #1
 3430 088c 07F51652 		add	r2, r7, #9600
 3431 0890 02F12802 		add	r2, r2, #40
 3432 0894 1360     		str	r3, [r2]
 3433 0896 D6E0     		b	.L71
 3434              	.L77:
 406:.\pathfinder.c ****                              }else if ((inter_path[j][DIR] == 1 && inter_path[j - 1][DIR] == 3) || 
 3435              		.loc 1 406 0
 3436 0898 07F13802 		add	r2, r7, #56
 3437 089c 343A     		subs	r2, r2, #52
 3438 089e 07F51653 		add	r3, r7, #9600
 3439 08a2 03F11C03 		add	r3, r3, #28
 3440 08a6 1968     		ldr	r1, [r3]
 3441 08a8 0B46     		mov	r3, r1
 3442 08aa 5B00     		lsls	r3, r3, #1
 3443 08ac 0B44     		add	r3, r3, r1
 3444 08ae 9B00     		lsls	r3, r3, #2
 3445 08b0 1344     		add	r3, r3, r2
 3446 08b2 0833     		adds	r3, r3, #8
 3447 08b4 1B68     		ldr	r3, [r3]
 3448 08b6 012B     		cmp	r3, #1
 3449 08b8 11D1     		bne	.L78
 3450              		.loc 1 406 0 is_stmt 0 discriminator 1
ARM GAS  C:\Users\Tomas\AppData\Local\Temp\cc4KjDQP.s 			page 69


 3451 08ba 07F51653 		add	r3, r7, #9600
 3452 08be 03F11C03 		add	r3, r3, #28
 3453 08c2 1B68     		ldr	r3, [r3]
 3454 08c4 591E     		subs	r1, r3, #1
 3455 08c6 07F13802 		add	r2, r7, #56
 3456 08ca 343A     		subs	r2, r2, #52
 3457 08cc 0B46     		mov	r3, r1
 3458 08ce 5B00     		lsls	r3, r3, #1
 3459 08d0 0B44     		add	r3, r3, r1
 3460 08d2 9B00     		lsls	r3, r3, #2
 3461 08d4 1344     		add	r3, r3, r2
 3462 08d6 0833     		adds	r3, r3, #8
 3463 08d8 1B68     		ldr	r3, [r3]
 3464 08da 032B     		cmp	r3, #3
 3465 08dc 6ED0     		beq	.L79
 3466              	.L78:
 3467              		.loc 1 406 0 discriminator 3
 3468 08de 07F13802 		add	r2, r7, #56
 3469 08e2 343A     		subs	r2, r2, #52
 3470 08e4 07F51653 		add	r3, r7, #9600
 3471 08e8 03F11C03 		add	r3, r3, #28
 3472 08ec 1968     		ldr	r1, [r3]
 3473 08ee 0B46     		mov	r3, r1
 3474 08f0 5B00     		lsls	r3, r3, #1
 3475 08f2 0B44     		add	r3, r3, r1
 3476 08f4 9B00     		lsls	r3, r3, #2
 3477 08f6 1344     		add	r3, r3, r2
 3478 08f8 0833     		adds	r3, r3, #8
 3479 08fa 1B68     		ldr	r3, [r3]
 3480 08fc 032B     		cmp	r3, #3
 3481 08fe 11D1     		bne	.L80
 3482              		.loc 1 406 0 discriminator 4
 3483 0900 07F51653 		add	r3, r7, #9600
 3484 0904 03F11C03 		add	r3, r3, #28
 3485 0908 1B68     		ldr	r3, [r3]
 3486 090a 591E     		subs	r1, r3, #1
 3487 090c 07F13802 		add	r2, r7, #56
 3488 0910 343A     		subs	r2, r2, #52
 3489 0912 0B46     		mov	r3, r1
 3490 0914 5B00     		lsls	r3, r3, #1
 3491 0916 0B44     		add	r3, r3, r1
 3492 0918 9B00     		lsls	r3, r3, #2
 3493 091a 1344     		add	r3, r3, r2
 3494 091c 0833     		adds	r3, r3, #8
 3495 091e 1B68     		ldr	r3, [r3]
 3496 0920 012B     		cmp	r3, #1
 3497 0922 4BD0     		beq	.L79
 3498              	.L80:
 3499              		.loc 1 406 0 discriminator 6
 3500 0924 07F13802 		add	r2, r7, #56
 3501 0928 343A     		subs	r2, r2, #52
 3502 092a 07F51653 		add	r3, r7, #9600
 3503 092e 03F11C03 		add	r3, r3, #28
 3504 0932 1968     		ldr	r1, [r3]
 3505 0934 0B46     		mov	r3, r1
 3506 0936 5B00     		lsls	r3, r3, #1
 3507 0938 0B44     		add	r3, r3, r1
ARM GAS  C:\Users\Tomas\AppData\Local\Temp\cc4KjDQP.s 			page 70


 3508 093a 9B00     		lsls	r3, r3, #2
 3509 093c 1344     		add	r3, r3, r2
 3510 093e 0833     		adds	r3, r3, #8
 3511 0940 1B68     		ldr	r3, [r3]
 3512 0942 012B     		cmp	r3, #1
 3513 0944 0FD1     		bne	.L81
 3514              		.loc 1 406 0 discriminator 7
 3515 0946 07F51653 		add	r3, r7, #9600
 3516 094a 03F12003 		add	r3, r3, #32
 3517 094e 1B68     		ldr	r3, [r3]
 3518 0950 5A1C     		adds	r2, r3, #1
 3519 0952 6049     		ldr	r1, .L198
 3520 0954 1346     		mov	r3, r2
 3521 0956 5B00     		lsls	r3, r3, #1
 3522 0958 1344     		add	r3, r3, r2
 3523 095a 9B00     		lsls	r3, r3, #2
 3524 095c 0B44     		add	r3, r3, r1
 3525 095e 0833     		adds	r3, r3, #8
 3526 0960 1B68     		ldr	r3, [r3]
 3527 0962 032B     		cmp	r3, #3
 3528 0964 22D0     		beq	.L82
 3529              	.L81:
 3530              		.loc 1 406 0 discriminator 10
 3531 0966 07F13802 		add	r2, r7, #56
 3532 096a 343A     		subs	r2, r2, #52
 3533 096c 07F51653 		add	r3, r7, #9600
 3534 0970 03F11C03 		add	r3, r3, #28
 3535 0974 1968     		ldr	r1, [r3]
 3536 0976 0B46     		mov	r3, r1
 3537 0978 5B00     		lsls	r3, r3, #1
 3538 097a 0B44     		add	r3, r3, r1
 3539 097c 9B00     		lsls	r3, r3, #2
 3540 097e 1344     		add	r3, r3, r2
 3541 0980 0833     		adds	r3, r3, #8
 3542 0982 1B68     		ldr	r3, [r3]
 3543 0984 032B     		cmp	r3, #3
 3544 0986 40F0A480 		bne	.L83
 3545              		.loc 1 406 0 discriminator 11
 3546 098a 07F51653 		add	r3, r7, #9600
 3547 098e 03F12003 		add	r3, r3, #32
 3548 0992 1B68     		ldr	r3, [r3]
 3549 0994 5A1C     		adds	r2, r3, #1
 3550 0996 4F49     		ldr	r1, .L198
 3551 0998 1346     		mov	r3, r2
 3552 099a 5B00     		lsls	r3, r3, #1
 3553 099c 1344     		add	r3, r3, r2
 3554 099e 9B00     		lsls	r3, r3, #2
 3555 09a0 0B44     		add	r3, r3, r1
 3556 09a2 0833     		adds	r3, r3, #8
 3557 09a4 1B68     		ldr	r3, [r3]
 3558 09a6 012B     		cmp	r3, #1
 3559 09a8 40F09380 		bne	.L83
 3560              	.L82:
 3561              		.loc 1 406 0 discriminator 12
 3562 09ac 07F51653 		add	r3, r7, #9600
 3563 09b0 03F11C03 		add	r3, r3, #28
 3564 09b4 1B68     		ldr	r3, [r3]
ARM GAS  C:\Users\Tomas\AppData\Local\Temp\cc4KjDQP.s 			page 71


 3565 09b6 012B     		cmp	r3, #1
 3566 09b8 40F08B80 		bne	.L83
 3567              	.L79:
 407:.\pathfinder.c ****                                // printf("L/R intersection found (%d) [direction = %d] -- TURN U-TU
 408:.\pathfinder.c ****                                 instructions[counter] = UTURN;
 3568              		.loc 1 408 0 is_stmt 1
 3569 09bc 07F51653 		add	r3, r7, #9600
 3570 09c0 03F13203 		add	r3, r3, #50
 3571 09c4 1B88     		ldrh	r3, [r3]
 3572 09c6 444A     		ldr	r2, .L198+4
 3573 09c8 5521     		movs	r1, #85
 3574 09ca D154     		strb	r1, [r2, r3]
 409:.\pathfinder.c ****                                 instructions[counter + 1] = (inter_end - j + 1 )- inter_prev_inters
 3575              		.loc 1 409 0
 3576 09cc 07F51653 		add	r3, r7, #9600
 3577 09d0 03F13203 		add	r3, r3, #50
 3578 09d4 1B88     		ldrh	r3, [r3]
 3579 09d6 0133     		adds	r3, r3, #1
 3580 09d8 07F51652 		add	r2, r7, #9600
 3581 09dc 02F11402 		add	r2, r2, #20
 3582 09e0 1268     		ldr	r2, [r2]
 3583 09e2 D1B2     		uxtb	r1, r2
 3584 09e4 07F51652 		add	r2, r7, #9600
 3585 09e8 02F11C02 		add	r2, r2, #28
 3586 09ec 1268     		ldr	r2, [r2]
 3587 09ee D2B2     		uxtb	r2, r2
 3588 09f0 8A1A     		subs	r2, r1, r2
 3589 09f2 D1B2     		uxtb	r1, r2
 3590 09f4 07F51652 		add	r2, r7, #9600
 3591 09f8 02F12802 		add	r2, r2, #40
 3592 09fc 1268     		ldr	r2, [r2]
 3593 09fe D2B2     		uxtb	r2, r2
 3594 0a00 8A1A     		subs	r2, r1, r2
 3595 0a02 D2B2     		uxtb	r2, r2
 3596 0a04 0132     		adds	r2, r2, #1
 3597 0a06 D1B2     		uxtb	r1, r2
 3598 0a08 334A     		ldr	r2, .L198+4
 3599 0a0a D154     		strb	r1, [r2, r3]
 410:.\pathfinder.c ****                                 counter+=2;
 3600              		.loc 1 410 0
 3601 0a0c 07F51653 		add	r3, r7, #9600
 3602 0a10 03F13203 		add	r3, r3, #50
 3603 0a14 1B88     		ldrh	r3, [r3]	@ movhi
 3604 0a16 0233     		adds	r3, r3, #2
 3605 0a18 07F51652 		add	r2, r7, #9600
 3606 0a1c 02F13202 		add	r2, r2, #50
 3607 0a20 1380     		strh	r3, [r2]	@ movhi
 411:.\pathfinder.c ****                                 inter_prev_intersection = inter_end - j + 1;
 3608              		.loc 1 411 0
 3609 0a22 07F51653 		add	r3, r7, #9600
 3610 0a26 03F11403 		add	r3, r3, #20
 3611 0a2a 1A68     		ldr	r2, [r3]
 3612 0a2c 07F51653 		add	r3, r7, #9600
 3613 0a30 03F11C03 		add	r3, r3, #28
 3614 0a34 1B68     		ldr	r3, [r3]
 3615 0a36 D31A     		subs	r3, r2, r3
 3616 0a38 0133     		adds	r3, r3, #1
ARM GAS  C:\Users\Tomas\AppData\Local\Temp\cc4KjDQP.s 			page 72


 3617 0a3a 07F51652 		add	r2, r7, #9600
 3618 0a3e 02F12802 		add	r2, r2, #40
 3619 0a42 1360     		str	r3, [r2]
 3620 0a44 45E0     		b	.L83
 3621              	.L71:
 3622 0a46 44E0     		b	.L83
 3623              	.L64:
 412:.\pathfinder.c ****                              }else{
 413:.\pathfinder.c ****                                // printf("Prev %d, current %d (%d, %d)\n",inter_path[j - 1][DIR], i
 414:.\pathfinder.c ****                              }
 415:.\pathfinder.c ****                           }else{
 416:.\pathfinder.c ****                              //printf("L/R intersection found (%d) [direction = %d] (%d, %d)\n", tm
 417:.\pathfinder.c ****                              instructions[counter] = STRAIGHT;
 3624              		.loc 1 417 0
 3625 0a48 07F51653 		add	r3, r7, #9600
 3626 0a4c 03F13203 		add	r3, r3, #50
 3627 0a50 1B88     		ldrh	r3, [r3]
 3628 0a52 214A     		ldr	r2, .L198+4
 3629 0a54 5321     		movs	r1, #83
 3630 0a56 D154     		strb	r1, [r2, r3]
 418:.\pathfinder.c ****                              instructions[counter + 1] = (inter_end - j + 1 )- inter_prev_intersect
 3631              		.loc 1 418 0
 3632 0a58 07F51653 		add	r3, r7, #9600
 3633 0a5c 03F13203 		add	r3, r3, #50
 3634 0a60 1B88     		ldrh	r3, [r3]
 3635 0a62 0133     		adds	r3, r3, #1
 3636 0a64 07F51652 		add	r2, r7, #9600
 3637 0a68 02F11402 		add	r2, r2, #20
 3638 0a6c 1268     		ldr	r2, [r2]
 3639 0a6e D1B2     		uxtb	r1, r2
 3640 0a70 07F51652 		add	r2, r7, #9600
 3641 0a74 02F11C02 		add	r2, r2, #28
 3642 0a78 1268     		ldr	r2, [r2]
 3643 0a7a D2B2     		uxtb	r2, r2
 3644 0a7c 8A1A     		subs	r2, r1, r2
 3645 0a7e D1B2     		uxtb	r1, r2
 3646 0a80 07F51652 		add	r2, r7, #9600
 3647 0a84 02F12802 		add	r2, r2, #40
 3648 0a88 1268     		ldr	r2, [r2]
 3649 0a8a D2B2     		uxtb	r2, r2
 3650 0a8c 8A1A     		subs	r2, r1, r2
 3651 0a8e D2B2     		uxtb	r2, r2
 3652 0a90 0132     		adds	r2, r2, #1
 3653 0a92 D1B2     		uxtb	r1, r2
 3654 0a94 104A     		ldr	r2, .L198+4
 3655 0a96 D154     		strb	r1, [r2, r3]
 419:.\pathfinder.c ****                              counter+=2;
 3656              		.loc 1 419 0
 3657 0a98 07F51653 		add	r3, r7, #9600
 3658 0a9c 03F13203 		add	r3, r3, #50
 3659 0aa0 1B88     		ldrh	r3, [r3]	@ movhi
 3660 0aa2 0233     		adds	r3, r3, #2
 3661 0aa4 07F51652 		add	r2, r7, #9600
 3662 0aa8 02F13202 		add	r2, r2, #50
 3663 0aac 1380     		strh	r3, [r2]	@ movhi
 420:.\pathfinder.c ****                              inter_prev_intersection = inter_end - j + 1;
 3664              		.loc 1 420 0
ARM GAS  C:\Users\Tomas\AppData\Local\Temp\cc4KjDQP.s 			page 73


 3665 0aae 07F51653 		add	r3, r7, #9600
 3666 0ab2 03F11403 		add	r3, r3, #20
 3667 0ab6 1A68     		ldr	r2, [r3]
 3668 0ab8 07F51653 		add	r3, r7, #9600
 3669 0abc 03F11C03 		add	r3, r3, #28
 3670 0ac0 1B68     		ldr	r3, [r3]
 3671 0ac2 D31A     		subs	r3, r2, r3
 3672 0ac4 0133     		adds	r3, r3, #1
 3673 0ac6 07F51652 		add	r2, r7, #9600
 3674 0aca 02F12802 		add	r2, r2, #40
 3675 0ace 1360     		str	r3, [r2]
 392:.\pathfinder.c ****                              //current direction , the next direction
 3676              		.loc 1 392 0
 3677 0ad0 85E2     		b	.L84
 3678              	.L83:
 392:.\pathfinder.c ****                              //current direction , the next direction
 3679              		.loc 1 392 0 is_stmt 0 discriminator 1
 3680 0ad2 84E2     		b	.L84
 3681              	.L199:
 3682              		.align	2
 3683              	.L198:
 3684 0ad4 00000000 		.word	path
 3685 0ad8 00000000 		.word	instructions
 3686              	.L63:
 421:.\pathfinder.c ****                           }
 422:.\pathfinder.c ****                        }else{//not an intersection
 423:.\pathfinder.c ****                           if ((inter_path[j][DIR] == 1 && inter_path[j - 1][DIR] == 3) || (inter_pa
 3687              		.loc 1 423 0 is_stmt 1
 3688 0adc 07F13802 		add	r2, r7, #56
 3689 0ae0 343A     		subs	r2, r2, #52
 3690 0ae2 07F51653 		add	r3, r7, #9600
 3691 0ae6 03F11C03 		add	r3, r3, #28
 3692 0aea 1968     		ldr	r1, [r3]
 3693 0aec 0B46     		mov	r3, r1
 3694 0aee 5B00     		lsls	r3, r3, #1
 3695 0af0 0B44     		add	r3, r3, r1
 3696 0af2 9B00     		lsls	r3, r3, #2
 3697 0af4 1344     		add	r3, r3, r2
 3698 0af6 0833     		adds	r3, r3, #8
 3699 0af8 1B68     		ldr	r3, [r3]
 3700 0afa 012B     		cmp	r3, #1
 3701 0afc 11D1     		bne	.L85
 3702              		.loc 1 423 0 is_stmt 0 discriminator 1
 3703 0afe 07F51653 		add	r3, r7, #9600
 3704 0b02 03F11C03 		add	r3, r3, #28
 3705 0b06 1B68     		ldr	r3, [r3]
 3706 0b08 591E     		subs	r1, r3, #1
 3707 0b0a 07F13802 		add	r2, r7, #56
 3708 0b0e 343A     		subs	r2, r2, #52
 3709 0b10 0B46     		mov	r3, r1
 3710 0b12 5B00     		lsls	r3, r3, #1
 3711 0b14 0B44     		add	r3, r3, r1
 3712 0b16 9B00     		lsls	r3, r3, #2
 3713 0b18 1344     		add	r3, r3, r2
 3714 0b1a 0833     		adds	r3, r3, #8
 3715 0b1c 1B68     		ldr	r3, [r3]
 3716 0b1e 032B     		cmp	r3, #3
ARM GAS  C:\Users\Tomas\AppData\Local\Temp\cc4KjDQP.s 			page 74


 3717 0b20 6BD0     		beq	.L86
 3718              	.L85:
 3719              		.loc 1 423 0 discriminator 3
 3720 0b22 07F13802 		add	r2, r7, #56
 3721 0b26 343A     		subs	r2, r2, #52
 3722 0b28 07F51653 		add	r3, r7, #9600
 3723 0b2c 03F11C03 		add	r3, r3, #28
 3724 0b30 1968     		ldr	r1, [r3]
 3725 0b32 0B46     		mov	r3, r1
 3726 0b34 5B00     		lsls	r3, r3, #1
 3727 0b36 0B44     		add	r3, r3, r1
 3728 0b38 9B00     		lsls	r3, r3, #2
 3729 0b3a 1344     		add	r3, r3, r2
 3730 0b3c 0833     		adds	r3, r3, #8
 3731 0b3e 1B68     		ldr	r3, [r3]
 3732 0b40 032B     		cmp	r3, #3
 3733 0b42 11D1     		bne	.L87
 3734              		.loc 1 423 0 discriminator 4
 3735 0b44 07F51653 		add	r3, r7, #9600
 3736 0b48 03F11C03 		add	r3, r3, #28
 3737 0b4c 1B68     		ldr	r3, [r3]
 3738 0b4e 591E     		subs	r1, r3, #1
 3739 0b50 07F13802 		add	r2, r7, #56
 3740 0b54 343A     		subs	r2, r2, #52
 3741 0b56 0B46     		mov	r3, r1
 3742 0b58 5B00     		lsls	r3, r3, #1
 3743 0b5a 0B44     		add	r3, r3, r1
 3744 0b5c 9B00     		lsls	r3, r3, #2
 3745 0b5e 1344     		add	r3, r3, r2
 3746 0b60 0833     		adds	r3, r3, #8
 3747 0b62 1B68     		ldr	r3, [r3]
 3748 0b64 012B     		cmp	r3, #1
 3749 0b66 48D0     		beq	.L86
 3750              	.L87:
 3751              		.loc 1 423 0 discriminator 6
 3752 0b68 07F13802 		add	r2, r7, #56
 3753 0b6c 343A     		subs	r2, r2, #52
 3754 0b6e 07F51653 		add	r3, r7, #9600
 3755 0b72 03F11C03 		add	r3, r3, #28
 3756 0b76 1968     		ldr	r1, [r3]
 3757 0b78 0B46     		mov	r3, r1
 3758 0b7a 5B00     		lsls	r3, r3, #1
 3759 0b7c 0B44     		add	r3, r3, r1
 3760 0b7e 9B00     		lsls	r3, r3, #2
 3761 0b80 1344     		add	r3, r3, r2
 3762 0b82 0833     		adds	r3, r3, #8
 3763 0b84 1B68     		ldr	r3, [r3]
 3764 0b86 012B     		cmp	r3, #1
 3765 0b88 0FD1     		bne	.L88
 3766              		.loc 1 423 0 discriminator 7
 3767 0b8a 07F51653 		add	r3, r7, #9600
 3768 0b8e 03F12003 		add	r3, r3, #32
 3769 0b92 1B68     		ldr	r3, [r3]
 3770 0b94 5A1C     		adds	r2, r3, #1
 3771 0b96 A549     		ldr	r1, .L200
 3772 0b98 1346     		mov	r3, r2
 3773 0b9a 5B00     		lsls	r3, r3, #1
ARM GAS  C:\Users\Tomas\AppData\Local\Temp\cc4KjDQP.s 			page 75


 3774 0b9c 1344     		add	r3, r3, r2
 3775 0b9e 9B00     		lsls	r3, r3, #2
 3776 0ba0 0B44     		add	r3, r3, r1
 3777 0ba2 0833     		adds	r3, r3, #8
 3778 0ba4 1B68     		ldr	r3, [r3]
 3779 0ba6 032B     		cmp	r3, #3
 3780 0ba8 20D0     		beq	.L89
 3781              	.L88:
 3782              		.loc 1 423 0 discriminator 10
 3783 0baa 07F13802 		add	r2, r7, #56
 3784 0bae 343A     		subs	r2, r2, #52
 3785 0bb0 07F51653 		add	r3, r7, #9600
 3786 0bb4 03F11C03 		add	r3, r3, #28
 3787 0bb8 1968     		ldr	r1, [r3]
 3788 0bba 0B46     		mov	r3, r1
 3789 0bbc 5B00     		lsls	r3, r3, #1
 3790 0bbe 0B44     		add	r3, r3, r1
 3791 0bc0 9B00     		lsls	r3, r3, #2
 3792 0bc2 1344     		add	r3, r3, r2
 3793 0bc4 0833     		adds	r3, r3, #8
 3794 0bc6 1B68     		ldr	r3, [r3]
 3795 0bc8 032B     		cmp	r3, #3
 3796 0bca 5BD1     		bne	.L90
 3797              		.loc 1 423 0 discriminator 11
 3798 0bcc 07F51653 		add	r3, r7, #9600
 3799 0bd0 03F12003 		add	r3, r3, #32
 3800 0bd4 1B68     		ldr	r3, [r3]
 3801 0bd6 5A1C     		adds	r2, r3, #1
 3802 0bd8 9449     		ldr	r1, .L200
 3803 0bda 1346     		mov	r3, r2
 3804 0bdc 5B00     		lsls	r3, r3, #1
 3805 0bde 1344     		add	r3, r3, r2
 3806 0be0 9B00     		lsls	r3, r3, #2
 3807 0be2 0B44     		add	r3, r3, r1
 3808 0be4 0833     		adds	r3, r3, #8
 3809 0be6 1B68     		ldr	r3, [r3]
 3810 0be8 012B     		cmp	r3, #1
 3811 0bea 4BD1     		bne	.L90
 3812              	.L89:
 3813              		.loc 1 423 0 discriminator 12
 3814 0bec 07F51653 		add	r3, r7, #9600
 3815 0bf0 03F11C03 		add	r3, r3, #28
 3816 0bf4 1B68     		ldr	r3, [r3]
 3817 0bf6 012B     		cmp	r3, #1
 3818 0bf8 44D1     		bne	.L90
 3819              	.L86:
 424:.\pathfinder.c ****                             // printf("L/R intersection found (%d) [direction = %d] -- TURN U-TURN 
 425:.\pathfinder.c ****                              instructions[counter] = UTURN;
 3820              		.loc 1 425 0 is_stmt 1
 3821 0bfa 07F51653 		add	r3, r7, #9600
 3822 0bfe 03F13203 		add	r3, r3, #50
 3823 0c02 1B88     		ldrh	r3, [r3]
 3824 0c04 8A4A     		ldr	r2, .L200+4
 3825 0c06 5521     		movs	r1, #85
 3826 0c08 D154     		strb	r1, [r2, r3]
 426:.\pathfinder.c ****                              instructions[counter + 1] = (inter_end - j + 1 )- inter_prev_intersect
 3827              		.loc 1 426 0
ARM GAS  C:\Users\Tomas\AppData\Local\Temp\cc4KjDQP.s 			page 76


 3828 0c0a 07F51653 		add	r3, r7, #9600
 3829 0c0e 03F13203 		add	r3, r3, #50
 3830 0c12 1B88     		ldrh	r3, [r3]
 3831 0c14 0133     		adds	r3, r3, #1
 3832 0c16 07F51652 		add	r2, r7, #9600
 3833 0c1a 02F11402 		add	r2, r2, #20
 3834 0c1e 1268     		ldr	r2, [r2]
 3835 0c20 D1B2     		uxtb	r1, r2
 3836 0c22 07F51652 		add	r2, r7, #9600
 3837 0c26 02F11C02 		add	r2, r2, #28
 3838 0c2a 1268     		ldr	r2, [r2]
 3839 0c2c D2B2     		uxtb	r2, r2
 3840 0c2e 8A1A     		subs	r2, r1, r2
 3841 0c30 D1B2     		uxtb	r1, r2
 3842 0c32 07F51652 		add	r2, r7, #9600
 3843 0c36 02F12802 		add	r2, r2, #40
 3844 0c3a 1268     		ldr	r2, [r2]
 3845 0c3c D2B2     		uxtb	r2, r2
 3846 0c3e 8A1A     		subs	r2, r1, r2
 3847 0c40 D2B2     		uxtb	r2, r2
 3848 0c42 0132     		adds	r2, r2, #1
 3849 0c44 D1B2     		uxtb	r1, r2
 3850 0c46 7A4A     		ldr	r2, .L200+4
 3851 0c48 D154     		strb	r1, [r2, r3]
 427:.\pathfinder.c ****                              counter+=2;
 3852              		.loc 1 427 0
 3853 0c4a 07F51653 		add	r3, r7, #9600
 3854 0c4e 03F13203 		add	r3, r3, #50
 3855 0c52 1B88     		ldrh	r3, [r3]	@ movhi
 3856 0c54 0233     		adds	r3, r3, #2
 3857 0c56 07F51652 		add	r2, r7, #9600
 3858 0c5a 02F13202 		add	r2, r2, #50
 3859 0c5e 1380     		strh	r3, [r2]	@ movhi
 428:.\pathfinder.c ****                              inter_prev_intersection = inter_end - j + 1;
 3860              		.loc 1 428 0
 3861 0c60 07F51653 		add	r3, r7, #9600
 3862 0c64 03F11403 		add	r3, r3, #20
 3863 0c68 1A68     		ldr	r2, [r3]
 3864 0c6a 07F51653 		add	r3, r7, #9600
 3865 0c6e 03F11C03 		add	r3, r3, #28
 3866 0c72 1B68     		ldr	r3, [r3]
 3867 0c74 D31A     		subs	r3, r2, r3
 3868 0c76 0133     		adds	r3, r3, #1
 3869 0c78 07F51652 		add	r2, r7, #9600
 3870 0c7c 02F12802 		add	r2, r2, #40
 3871 0c80 1360     		str	r3, [r2]
 3872 0c82 ACE1     		b	.L84
 3873              	.L90:
 429:.\pathfinder.c ****                           }else if((inter_path[j][DIR] == 1 && inter_path[j - 1][DIR] == 4) || (int
 3874              		.loc 1 429 0
 3875 0c84 07F13802 		add	r2, r7, #56
 3876 0c88 343A     		subs	r2, r2, #52
 3877 0c8a 07F51653 		add	r3, r7, #9600
 3878 0c8e 03F11C03 		add	r3, r3, #28
 3879 0c92 1968     		ldr	r1, [r3]
 3880 0c94 0B46     		mov	r3, r1
 3881 0c96 5B00     		lsls	r3, r3, #1
ARM GAS  C:\Users\Tomas\AppData\Local\Temp\cc4KjDQP.s 			page 77


 3882 0c98 0B44     		add	r3, r3, r1
 3883 0c9a 9B00     		lsls	r3, r3, #2
 3884 0c9c 1344     		add	r3, r3, r2
 3885 0c9e 0833     		adds	r3, r3, #8
 3886 0ca0 1B68     		ldr	r3, [r3]
 3887 0ca2 012B     		cmp	r3, #1
 3888 0ca4 11D1     		bne	.L91
 3889              		.loc 1 429 0 is_stmt 0 discriminator 1
 3890 0ca6 07F51653 		add	r3, r7, #9600
 3891 0caa 03F11C03 		add	r3, r3, #28
 3892 0cae 1B68     		ldr	r3, [r3]
 3893 0cb0 591E     		subs	r1, r3, #1
 3894 0cb2 07F13802 		add	r2, r7, #56
 3895 0cb6 343A     		subs	r2, r2, #52
 3896 0cb8 0B46     		mov	r3, r1
 3897 0cba 5B00     		lsls	r3, r3, #1
 3898 0cbc 0B44     		add	r3, r3, r1
 3899 0cbe 9B00     		lsls	r3, r3, #2
 3900 0cc0 1344     		add	r3, r3, r2
 3901 0cc2 0833     		adds	r3, r3, #8
 3902 0cc4 1B68     		ldr	r3, [r3]
 3903 0cc6 042B     		cmp	r3, #4
 3904 0cc8 6BD0     		beq	.L92
 3905              	.L91:
 3906              		.loc 1 429 0 discriminator 3
 3907 0cca 07F13802 		add	r2, r7, #56
 3908 0cce 343A     		subs	r2, r2, #52
 3909 0cd0 07F51653 		add	r3, r7, #9600
 3910 0cd4 03F11C03 		add	r3, r3, #28
 3911 0cd8 1968     		ldr	r1, [r3]
 3912 0cda 0B46     		mov	r3, r1
 3913 0cdc 5B00     		lsls	r3, r3, #1
 3914 0cde 0B44     		add	r3, r3, r1
 3915 0ce0 9B00     		lsls	r3, r3, #2
 3916 0ce2 1344     		add	r3, r3, r2
 3917 0ce4 0833     		adds	r3, r3, #8
 3918 0ce6 1B68     		ldr	r3, [r3]
 3919 0ce8 032B     		cmp	r3, #3
 3920 0cea 11D1     		bne	.L93
 3921              		.loc 1 429 0 discriminator 4
 3922 0cec 07F51653 		add	r3, r7, #9600
 3923 0cf0 03F11C03 		add	r3, r3, #28
 3924 0cf4 1B68     		ldr	r3, [r3]
 3925 0cf6 591E     		subs	r1, r3, #1
 3926 0cf8 07F13802 		add	r2, r7, #56
 3927 0cfc 343A     		subs	r2, r2, #52
 3928 0cfe 0B46     		mov	r3, r1
 3929 0d00 5B00     		lsls	r3, r3, #1
 3930 0d02 0B44     		add	r3, r3, r1
 3931 0d04 9B00     		lsls	r3, r3, #2
 3932 0d06 1344     		add	r3, r3, r2
 3933 0d08 0833     		adds	r3, r3, #8
 3934 0d0a 1B68     		ldr	r3, [r3]
 3935 0d0c 022B     		cmp	r3, #2
 3936 0d0e 48D0     		beq	.L92
 3937              	.L93:
 3938              		.loc 1 429 0 discriminator 6
ARM GAS  C:\Users\Tomas\AppData\Local\Temp\cc4KjDQP.s 			page 78


 3939 0d10 07F13802 		add	r2, r7, #56
 3940 0d14 343A     		subs	r2, r2, #52
 3941 0d16 07F51653 		add	r3, r7, #9600
 3942 0d1a 03F11C03 		add	r3, r3, #28
 3943 0d1e 1968     		ldr	r1, [r3]
 3944 0d20 0B46     		mov	r3, r1
 3945 0d22 5B00     		lsls	r3, r3, #1
 3946 0d24 0B44     		add	r3, r3, r1
 3947 0d26 9B00     		lsls	r3, r3, #2
 3948 0d28 1344     		add	r3, r3, r2
 3949 0d2a 0833     		adds	r3, r3, #8
 3950 0d2c 1B68     		ldr	r3, [r3]
 3951 0d2e 012B     		cmp	r3, #1
 3952 0d30 0FD1     		bne	.L94
 3953              		.loc 1 429 0 discriminator 7
 3954 0d32 07F51653 		add	r3, r7, #9600
 3955 0d36 03F12003 		add	r3, r3, #32
 3956 0d3a 1B68     		ldr	r3, [r3]
 3957 0d3c 5A1C     		adds	r2, r3, #1
 3958 0d3e 3B49     		ldr	r1, .L200
 3959 0d40 1346     		mov	r3, r2
 3960 0d42 5B00     		lsls	r3, r3, #1
 3961 0d44 1344     		add	r3, r3, r2
 3962 0d46 9B00     		lsls	r3, r3, #2
 3963 0d48 0B44     		add	r3, r3, r1
 3964 0d4a 0833     		adds	r3, r3, #8
 3965 0d4c 1B68     		ldr	r3, [r3]
 3966 0d4e 042B     		cmp	r3, #4
 3967 0d50 20D0     		beq	.L95
 3968              	.L94:
 3969              		.loc 1 429 0 discriminator 10
 3970 0d52 07F13802 		add	r2, r7, #56
 3971 0d56 343A     		subs	r2, r2, #52
 3972 0d58 07F51653 		add	r3, r7, #9600
 3973 0d5c 03F11C03 		add	r3, r3, #28
 3974 0d60 1968     		ldr	r1, [r3]
 3975 0d62 0B46     		mov	r3, r1
 3976 0d64 5B00     		lsls	r3, r3, #1
 3977 0d66 0B44     		add	r3, r3, r1
 3978 0d68 9B00     		lsls	r3, r3, #2
 3979 0d6a 1344     		add	r3, r3, r2
 3980 0d6c 0833     		adds	r3, r3, #8
 3981 0d6e 1B68     		ldr	r3, [r3]
 3982 0d70 032B     		cmp	r3, #3
 3983 0d72 5FD1     		bne	.L96
 3984              		.loc 1 429 0 discriminator 11
 3985 0d74 07F51653 		add	r3, r7, #9600
 3986 0d78 03F12003 		add	r3, r3, #32
 3987 0d7c 1B68     		ldr	r3, [r3]
 3988 0d7e 5A1C     		adds	r2, r3, #1
 3989 0d80 2A49     		ldr	r1, .L200
 3990 0d82 1346     		mov	r3, r2
 3991 0d84 5B00     		lsls	r3, r3, #1
 3992 0d86 1344     		add	r3, r3, r2
 3993 0d88 9B00     		lsls	r3, r3, #2
 3994 0d8a 0B44     		add	r3, r3, r1
 3995 0d8c 0833     		adds	r3, r3, #8
ARM GAS  C:\Users\Tomas\AppData\Local\Temp\cc4KjDQP.s 			page 79


 3996 0d8e 1B68     		ldr	r3, [r3]
 3997 0d90 022B     		cmp	r3, #2
 3998 0d92 4FD1     		bne	.L96
 3999              	.L95:
 4000              		.loc 1 429 0 discriminator 12
 4001 0d94 07F51653 		add	r3, r7, #9600
 4002 0d98 03F11C03 		add	r3, r3, #28
 4003 0d9c 1B68     		ldr	r3, [r3]
 4004 0d9e 012B     		cmp	r3, #1
 4005 0da0 48D1     		bne	.L96
 4006              	.L92:
 430:.\pathfinder.c ****                                // printf("L/R intersection found (%d) [direction = %d] -- TURN LEFT
 431:.\pathfinder.c ****                                 instructions[counter] = LEFT;
 4007              		.loc 1 431 0 is_stmt 1
 4008 0da2 07F51653 		add	r3, r7, #9600
 4009 0da6 03F13203 		add	r3, r3, #50
 4010 0daa 1B88     		ldrh	r3, [r3]
 4011 0dac 204A     		ldr	r2, .L200+4
 4012 0dae 4C21     		movs	r1, #76
 4013 0db0 D154     		strb	r1, [r2, r3]
 432:.\pathfinder.c ****                                 instructions[counter + 1] = (inter_end - j + 1 )- inter_prev_inters
 4014              		.loc 1 432 0
 4015 0db2 07F51653 		add	r3, r7, #9600
 4016 0db6 03F13203 		add	r3, r3, #50
 4017 0dba 1B88     		ldrh	r3, [r3]
 4018 0dbc 0133     		adds	r3, r3, #1
 4019 0dbe 07F51652 		add	r2, r7, #9600
 4020 0dc2 02F11402 		add	r2, r2, #20
 4021 0dc6 1268     		ldr	r2, [r2]
 4022 0dc8 D1B2     		uxtb	r1, r2
 4023 0dca 07F51652 		add	r2, r7, #9600
 4024 0dce 02F11C02 		add	r2, r2, #28
 4025 0dd2 1268     		ldr	r2, [r2]
 4026 0dd4 D2B2     		uxtb	r2, r2
 4027 0dd6 8A1A     		subs	r2, r1, r2
 4028 0dd8 D1B2     		uxtb	r1, r2
 4029 0dda 07F51652 		add	r2, r7, #9600
 4030 0dde 02F12802 		add	r2, r2, #40
 4031 0de2 1268     		ldr	r2, [r2]
 4032 0de4 D2B2     		uxtb	r2, r2
 4033 0de6 8A1A     		subs	r2, r1, r2
 4034 0de8 D2B2     		uxtb	r2, r2
 4035 0dea 0132     		adds	r2, r2, #1
 4036 0dec D1B2     		uxtb	r1, r2
 4037 0dee 104A     		ldr	r2, .L200+4
 4038 0df0 D154     		strb	r1, [r2, r3]
 433:.\pathfinder.c ****                                 counter+=2;
 4039              		.loc 1 433 0
 4040 0df2 07F51653 		add	r3, r7, #9600
 4041 0df6 03F13203 		add	r3, r3, #50
 4042 0dfa 1B88     		ldrh	r3, [r3]	@ movhi
 4043 0dfc 0233     		adds	r3, r3, #2
 4044 0dfe 07F51652 		add	r2, r7, #9600
 4045 0e02 02F13202 		add	r2, r2, #50
 4046 0e06 1380     		strh	r3, [r2]	@ movhi
 434:.\pathfinder.c ****                                 inter_prev_intersection = inter_end - j + 1;
 4047              		.loc 1 434 0
ARM GAS  C:\Users\Tomas\AppData\Local\Temp\cc4KjDQP.s 			page 80


 4048 0e08 07F51653 		add	r3, r7, #9600
 4049 0e0c 03F11403 		add	r3, r3, #20
 4050 0e10 1A68     		ldr	r2, [r3]
 4051 0e12 07F51653 		add	r3, r7, #9600
 4052 0e16 03F11C03 		add	r3, r3, #28
 4053 0e1a 1B68     		ldr	r3, [r3]
 4054 0e1c D31A     		subs	r3, r2, r3
 4055 0e1e 0133     		adds	r3, r3, #1
 4056 0e20 07F51652 		add	r2, r7, #9600
 4057 0e24 02F12802 		add	r2, r2, #40
 4058 0e28 1360     		str	r3, [r2]
 4059 0e2a D8E0     		b	.L84
 4060              	.L201:
 4061              		.align	2
 4062              	.L200:
 4063 0e2c 00000000 		.word	path
 4064 0e30 00000000 		.word	instructions
 4065              	.L96:
 435:.\pathfinder.c ****                              }else if((inter_path[j][DIR] == 1 && inter_path[j - 1][DIR] == 2) || (
 4066              		.loc 1 435 0
 4067 0e34 07F13802 		add	r2, r7, #56
 4068 0e38 343A     		subs	r2, r2, #52
 4069 0e3a 07F51653 		add	r3, r7, #9600
 4070 0e3e 03F11C03 		add	r3, r3, #28
 4071 0e42 1968     		ldr	r1, [r3]
 4072 0e44 0B46     		mov	r3, r1
 4073 0e46 5B00     		lsls	r3, r3, #1
 4074 0e48 0B44     		add	r3, r3, r1
 4075 0e4a 9B00     		lsls	r3, r3, #2
 4076 0e4c 1344     		add	r3, r3, r2
 4077 0e4e 0833     		adds	r3, r3, #8
 4078 0e50 1B68     		ldr	r3, [r3]
 4079 0e52 012B     		cmp	r3, #1
 4080 0e54 11D1     		bne	.L97
 4081              		.loc 1 435 0 is_stmt 0 discriminator 1
 4082 0e56 07F51653 		add	r3, r7, #9600
 4083 0e5a 03F11C03 		add	r3, r3, #28
 4084 0e5e 1B68     		ldr	r3, [r3]
 4085 0e60 591E     		subs	r1, r3, #1
 4086 0e62 07F13802 		add	r2, r7, #56
 4087 0e66 343A     		subs	r2, r2, #52
 4088 0e68 0B46     		mov	r3, r1
 4089 0e6a 5B00     		lsls	r3, r3, #1
 4090 0e6c 0B44     		add	r3, r3, r1
 4091 0e6e 9B00     		lsls	r3, r3, #2
 4092 0e70 1344     		add	r3, r3, r2
 4093 0e72 0833     		adds	r3, r3, #8
 4094 0e74 1B68     		ldr	r3, [r3]
 4095 0e76 022B     		cmp	r3, #2
 4096 0e78 6BD0     		beq	.L98
 4097              	.L97:
 4098              		.loc 1 435 0 discriminator 3
 4099 0e7a 07F13802 		add	r2, r7, #56
 4100 0e7e 343A     		subs	r2, r2, #52
 4101 0e80 07F51653 		add	r3, r7, #9600
 4102 0e84 03F11C03 		add	r3, r3, #28
 4103 0e88 1968     		ldr	r1, [r3]
ARM GAS  C:\Users\Tomas\AppData\Local\Temp\cc4KjDQP.s 			page 81


 4104 0e8a 0B46     		mov	r3, r1
 4105 0e8c 5B00     		lsls	r3, r3, #1
 4106 0e8e 0B44     		add	r3, r3, r1
 4107 0e90 9B00     		lsls	r3, r3, #2
 4108 0e92 1344     		add	r3, r3, r2
 4109 0e94 0833     		adds	r3, r3, #8
 4110 0e96 1B68     		ldr	r3, [r3]
 4111 0e98 032B     		cmp	r3, #3
 4112 0e9a 11D1     		bne	.L99
 4113              		.loc 1 435 0 discriminator 4
 4114 0e9c 07F51653 		add	r3, r7, #9600
 4115 0ea0 03F11C03 		add	r3, r3, #28
 4116 0ea4 1B68     		ldr	r3, [r3]
 4117 0ea6 591E     		subs	r1, r3, #1
 4118 0ea8 07F13802 		add	r2, r7, #56
 4119 0eac 343A     		subs	r2, r2, #52
 4120 0eae 0B46     		mov	r3, r1
 4121 0eb0 5B00     		lsls	r3, r3, #1
 4122 0eb2 0B44     		add	r3, r3, r1
 4123 0eb4 9B00     		lsls	r3, r3, #2
 4124 0eb6 1344     		add	r3, r3, r2
 4125 0eb8 0833     		adds	r3, r3, #8
 4126 0eba 1B68     		ldr	r3, [r3]
 4127 0ebc 042B     		cmp	r3, #4
 4128 0ebe 48D0     		beq	.L98
 4129              	.L99:
 4130              		.loc 1 435 0 discriminator 6
 4131 0ec0 07F13802 		add	r2, r7, #56
 4132 0ec4 343A     		subs	r2, r2, #52
 4133 0ec6 07F51653 		add	r3, r7, #9600
 4134 0eca 03F11C03 		add	r3, r3, #28
 4135 0ece 1968     		ldr	r1, [r3]
 4136 0ed0 0B46     		mov	r3, r1
 4137 0ed2 5B00     		lsls	r3, r3, #1
 4138 0ed4 0B44     		add	r3, r3, r1
 4139 0ed6 9B00     		lsls	r3, r3, #2
 4140 0ed8 1344     		add	r3, r3, r2
 4141 0eda 0833     		adds	r3, r3, #8
 4142 0edc 1B68     		ldr	r3, [r3]
 4143 0ede 012B     		cmp	r3, #1
 4144 0ee0 0FD1     		bne	.L100
 4145              		.loc 1 435 0 discriminator 7
 4146 0ee2 07F51653 		add	r3, r7, #9600
 4147 0ee6 03F12003 		add	r3, r3, #32
 4148 0eea 1B68     		ldr	r3, [r3]
 4149 0eec 5A1C     		adds	r2, r3, #1
 4150 0eee 3D49     		ldr	r1, .L202
 4151 0ef0 1346     		mov	r3, r2
 4152 0ef2 5B00     		lsls	r3, r3, #1
 4153 0ef4 1344     		add	r3, r3, r2
 4154 0ef6 9B00     		lsls	r3, r3, #2
 4155 0ef8 0B44     		add	r3, r3, r1
 4156 0efa 0833     		adds	r3, r3, #8
 4157 0efc 1B68     		ldr	r3, [r3]
 4158 0efe 022B     		cmp	r3, #2
 4159 0f00 20D0     		beq	.L101
 4160              	.L100:
ARM GAS  C:\Users\Tomas\AppData\Local\Temp\cc4KjDQP.s 			page 82


 4161              		.loc 1 435 0 discriminator 10
 4162 0f02 07F13802 		add	r2, r7, #56
 4163 0f06 343A     		subs	r2, r2, #52
 4164 0f08 07F51653 		add	r3, r7, #9600
 4165 0f0c 03F11C03 		add	r3, r3, #28
 4166 0f10 1968     		ldr	r1, [r3]
 4167 0f12 0B46     		mov	r3, r1
 4168 0f14 5B00     		lsls	r3, r3, #1
 4169 0f16 0B44     		add	r3, r3, r1
 4170 0f18 9B00     		lsls	r3, r3, #2
 4171 0f1a 1344     		add	r3, r3, r2
 4172 0f1c 0833     		adds	r3, r3, #8
 4173 0f1e 1B68     		ldr	r3, [r3]
 4174 0f20 032B     		cmp	r3, #3
 4175 0f22 5CD1     		bne	.L84
 4176              		.loc 1 435 0 discriminator 11
 4177 0f24 07F51653 		add	r3, r7, #9600
 4178 0f28 03F12003 		add	r3, r3, #32
 4179 0f2c 1B68     		ldr	r3, [r3]
 4180 0f2e 5A1C     		adds	r2, r3, #1
 4181 0f30 2C49     		ldr	r1, .L202
 4182 0f32 1346     		mov	r3, r2
 4183 0f34 5B00     		lsls	r3, r3, #1
 4184 0f36 1344     		add	r3, r3, r2
 4185 0f38 9B00     		lsls	r3, r3, #2
 4186 0f3a 0B44     		add	r3, r3, r1
 4187 0f3c 0833     		adds	r3, r3, #8
 4188 0f3e 1B68     		ldr	r3, [r3]
 4189 0f40 012B     		cmp	r3, #1
 4190 0f42 4CD1     		bne	.L84
 4191              	.L101:
 4192              		.loc 1 435 0 discriminator 12
 4193 0f44 07F51653 		add	r3, r7, #9600
 4194 0f48 03F11C03 		add	r3, r3, #28
 4195 0f4c 1B68     		ldr	r3, [r3]
 4196 0f4e 042B     		cmp	r3, #4
 4197 0f50 45D1     		bne	.L84
 4198              	.L98:
 436:.\pathfinder.c ****                                // printf("L/R intersection found (%d) [direction = %d] -- TURN RIGH
 437:.\pathfinder.c ****                                 instructions[counter] = RIGHT;
 4199              		.loc 1 437 0 is_stmt 1
 4200 0f52 07F51653 		add	r3, r7, #9600
 4201 0f56 03F13203 		add	r3, r3, #50
 4202 0f5a 1B88     		ldrh	r3, [r3]
 4203 0f5c 224A     		ldr	r2, .L202+4
 4204 0f5e 5221     		movs	r1, #82
 4205 0f60 D154     		strb	r1, [r2, r3]
 438:.\pathfinder.c ****                                 instructions[counter + 1] = (inter_end - j + 1 )- inter_prev_inters
 4206              		.loc 1 438 0
 4207 0f62 07F51653 		add	r3, r7, #9600
 4208 0f66 03F13203 		add	r3, r3, #50
 4209 0f6a 1B88     		ldrh	r3, [r3]
 4210 0f6c 0133     		adds	r3, r3, #1
 4211 0f6e 07F51652 		add	r2, r7, #9600
 4212 0f72 02F11402 		add	r2, r2, #20
 4213 0f76 1268     		ldr	r2, [r2]
 4214 0f78 D1B2     		uxtb	r1, r2
ARM GAS  C:\Users\Tomas\AppData\Local\Temp\cc4KjDQP.s 			page 83


 4215 0f7a 07F51652 		add	r2, r7, #9600
 4216 0f7e 02F11C02 		add	r2, r2, #28
 4217 0f82 1268     		ldr	r2, [r2]
 4218 0f84 D2B2     		uxtb	r2, r2
 4219 0f86 8A1A     		subs	r2, r1, r2
 4220 0f88 D1B2     		uxtb	r1, r2
 4221 0f8a 07F51652 		add	r2, r7, #9600
 4222 0f8e 02F12802 		add	r2, r2, #40
 4223 0f92 1268     		ldr	r2, [r2]
 4224 0f94 D2B2     		uxtb	r2, r2
 4225 0f96 8A1A     		subs	r2, r1, r2
 4226 0f98 D2B2     		uxtb	r2, r2
 4227 0f9a 0132     		adds	r2, r2, #1
 4228 0f9c D1B2     		uxtb	r1, r2
 4229 0f9e 124A     		ldr	r2, .L202+4
 4230 0fa0 D154     		strb	r1, [r2, r3]
 439:.\pathfinder.c ****                                 counter+=2;
 4231              		.loc 1 439 0
 4232 0fa2 07F51653 		add	r3, r7, #9600
 4233 0fa6 03F13203 		add	r3, r3, #50
 4234 0faa 1B88     		ldrh	r3, [r3]	@ movhi
 4235 0fac 0233     		adds	r3, r3, #2
 4236 0fae 07F51652 		add	r2, r7, #9600
 4237 0fb2 02F13202 		add	r2, r2, #50
 4238 0fb6 1380     		strh	r3, [r2]	@ movhi
 440:.\pathfinder.c ****                                 inter_prev_intersection = inter_end - j + 1;
 4239              		.loc 1 440 0
 4240 0fb8 07F51653 		add	r3, r7, #9600
 4241 0fbc 03F11403 		add	r3, r3, #20
 4242 0fc0 1A68     		ldr	r2, [r3]
 4243 0fc2 07F51653 		add	r3, r7, #9600
 4244 0fc6 03F11C03 		add	r3, r3, #28
 4245 0fca 1B68     		ldr	r3, [r3]
 4246 0fcc D31A     		subs	r3, r2, r3
 4247 0fce 0133     		adds	r3, r3, #1
 4248 0fd0 07F51652 		add	r2, r7, #9600
 4249 0fd4 02F12802 		add	r2, r2, #40
 4250 0fd8 1360     		str	r3, [r2]
 391:.\pathfinder.c ****                           if(inter_path[j][DIR] != inter_path[j - 1][DIR]){
 4251              		.loc 1 391 0
 4252 0fda 00F0CCBD 		b	.L102
 4253              	.L84:
 391:.\pathfinder.c ****                           if(inter_path[j][DIR] != inter_path[j - 1][DIR]){
 4254              		.loc 1 391 0 is_stmt 0 discriminator 2
 4255 0fde 00F0CABD 		b	.L102
 4256              	.L203:
 4257 0fe2 00BF     		.align	2
 4258              	.L202:
 4259 0fe4 00000000 		.word	path
 4260 0fe8 00000000 		.word	instructions
 4261              	.L61:
 441:.\pathfinder.c ****                              }else{
 442:.\pathfinder.c ****                           //printf("4 [(%d), direction = %d]\n", inter_end - j + 1, inter_path[j][D
 443:.\pathfinder.c ****                        }
 444:.\pathfinder.c ****                        }
 445:.\pathfinder.c ****                     }else{
 446:.\pathfinder.c ****                        if(map[inter_path[j][Y] - 1][inter_path[j][X]] == PATH || map[inter_path[j][
ARM GAS  C:\Users\Tomas\AppData\Local\Temp\cc4KjDQP.s 			page 84


 4262              		.loc 1 446 0 is_stmt 1
 4263 0fec 07F13802 		add	r2, r7, #56
 4264 0ff0 343A     		subs	r2, r2, #52
 4265 0ff2 07F51653 		add	r3, r7, #9600
 4266 0ff6 03F11C03 		add	r3, r3, #28
 4267 0ffa 1968     		ldr	r1, [r3]
 4268 0ffc 0B46     		mov	r3, r1
 4269 0ffe 5B00     		lsls	r3, r3, #1
 4270 1000 0B44     		add	r3, r3, r1
 4271 1002 9B00     		lsls	r3, r3, #2
 4272 1004 1344     		add	r3, r3, r2
 4273 1006 1B68     		ldr	r3, [r3]
 4274 1008 591E     		subs	r1, r3, #1
 4275 100a 07F13802 		add	r2, r7, #56
 4276 100e 343A     		subs	r2, r2, #52
 4277 1010 07F51653 		add	r3, r7, #9600
 4278 1014 03F11C03 		add	r3, r3, #28
 4279 1018 1868     		ldr	r0, [r3]
 4280 101a 0346     		mov	r3, r0
 4281 101c 5B00     		lsls	r3, r3, #1
 4282 101e 0344     		add	r3, r3, r0
 4283 1020 9B00     		lsls	r3, r3, #2
 4284 1022 1344     		add	r3, r3, r2
 4285 1024 0433     		adds	r3, r3, #4
 4286 1026 1A68     		ldr	r2, [r3]
 4287 1028 9548     		ldr	r0, .L204
 4288 102a 0B46     		mov	r3, r1
 4289 102c DB00     		lsls	r3, r3, #3
 4290 102e 0B44     		add	r3, r3, r1
 4291 1030 5B00     		lsls	r3, r3, #1
 4292 1032 0B44     		add	r3, r3, r1
 4293 1034 1344     		add	r3, r3, r2
 4294 1036 50F82330 		ldr	r3, [r0, r3, lsl #2]
 4295 103a 002B     		cmp	r3, #0
 4296 103c 29D0     		beq	.L103
 4297              		.loc 1 446 0 is_stmt 0 discriminator 1
 4298 103e 07F13802 		add	r2, r7, #56
 4299 1042 343A     		subs	r2, r2, #52
 4300 1044 07F51653 		add	r3, r7, #9600
 4301 1048 03F11C03 		add	r3, r3, #28
 4302 104c 1968     		ldr	r1, [r3]
 4303 104e 0B46     		mov	r3, r1
 4304 1050 5B00     		lsls	r3, r3, #1
 4305 1052 0B44     		add	r3, r3, r1
 4306 1054 9B00     		lsls	r3, r3, #2
 4307 1056 1344     		add	r3, r3, r2
 4308 1058 1B68     		ldr	r3, [r3]
 4309 105a 591C     		adds	r1, r3, #1
 4310 105c 07F13802 		add	r2, r7, #56
 4311 1060 343A     		subs	r2, r2, #52
 4312 1062 07F51653 		add	r3, r7, #9600
 4313 1066 03F11C03 		add	r3, r3, #28
 4314 106a 1868     		ldr	r0, [r3]
 4315 106c 0346     		mov	r3, r0
 4316 106e 5B00     		lsls	r3, r3, #1
 4317 1070 0344     		add	r3, r3, r0
 4318 1072 9B00     		lsls	r3, r3, #2
ARM GAS  C:\Users\Tomas\AppData\Local\Temp\cc4KjDQP.s 			page 85


 4319 1074 1344     		add	r3, r3, r2
 4320 1076 0433     		adds	r3, r3, #4
 4321 1078 1A68     		ldr	r2, [r3]
 4322 107a 8148     		ldr	r0, .L204
 4323 107c 0B46     		mov	r3, r1
 4324 107e DB00     		lsls	r3, r3, #3
 4325 1080 0B44     		add	r3, r3, r1
 4326 1082 5B00     		lsls	r3, r3, #1
 4327 1084 0B44     		add	r3, r3, r1
 4328 1086 1344     		add	r3, r3, r2
 4329 1088 50F82330 		ldr	r3, [r0, r3, lsl #2]
 4330 108c 002B     		cmp	r3, #0
 4331 108e 40F0F382 		bne	.L104
 4332              	.L103:
 447:.\pathfinder.c ****                           if(inter_path[j][DIR] != inter_path[j - 1][DIR]){
 4333              		.loc 1 447 0 is_stmt 1
 4334 1092 07F13802 		add	r2, r7, #56
 4335 1096 343A     		subs	r2, r2, #52
 4336 1098 07F51653 		add	r3, r7, #9600
 4337 109c 03F11C03 		add	r3, r3, #28
 4338 10a0 1968     		ldr	r1, [r3]
 4339 10a2 0B46     		mov	r3, r1
 4340 10a4 5B00     		lsls	r3, r3, #1
 4341 10a6 0B44     		add	r3, r3, r1
 4342 10a8 9B00     		lsls	r3, r3, #2
 4343 10aa 1344     		add	r3, r3, r2
 4344 10ac 0833     		adds	r3, r3, #8
 4345 10ae 1868     		ldr	r0, [r3]
 4346 10b0 07F51653 		add	r3, r7, #9600
 4347 10b4 03F11C03 		add	r3, r3, #28
 4348 10b8 1B68     		ldr	r3, [r3]
 4349 10ba 591E     		subs	r1, r3, #1
 4350 10bc 07F13802 		add	r2, r7, #56
 4351 10c0 343A     		subs	r2, r2, #52
 4352 10c2 0B46     		mov	r3, r1
 4353 10c4 5B00     		lsls	r3, r3, #1
 4354 10c6 0B44     		add	r3, r3, r1
 4355 10c8 9B00     		lsls	r3, r3, #2
 4356 10ca 1344     		add	r3, r3, r2
 4357 10cc 0833     		adds	r3, r3, #8
 4358 10ce 1B68     		ldr	r3, [r3]
 4359 10d0 9842     		cmp	r0, r3
 4360 10d2 00F08782 		beq	.L105
 448:.\pathfinder.c ****                              if((inter_path[j][DIR] == 4 && inter_path[j - 1][DIR] == 3) || (inter_
 4361              		.loc 1 448 0
 4362 10d6 07F13802 		add	r2, r7, #56
 4363 10da 343A     		subs	r2, r2, #52
 4364 10dc 07F51653 		add	r3, r7, #9600
 4365 10e0 03F11C03 		add	r3, r3, #28
 4366 10e4 1968     		ldr	r1, [r3]
 4367 10e6 0B46     		mov	r3, r1
 4368 10e8 5B00     		lsls	r3, r3, #1
 4369 10ea 0B44     		add	r3, r3, r1
 4370 10ec 9B00     		lsls	r3, r3, #2
 4371 10ee 1344     		add	r3, r3, r2
 4372 10f0 0833     		adds	r3, r3, #8
 4373 10f2 1B68     		ldr	r3, [r3]
ARM GAS  C:\Users\Tomas\AppData\Local\Temp\cc4KjDQP.s 			page 86


 4374 10f4 042B     		cmp	r3, #4
 4375 10f6 11D1     		bne	.L106
 4376              		.loc 1 448 0 is_stmt 0 discriminator 1
 4377 10f8 07F51653 		add	r3, r7, #9600
 4378 10fc 03F11C03 		add	r3, r3, #28
 4379 1100 1B68     		ldr	r3, [r3]
 4380 1102 591E     		subs	r1, r3, #1
 4381 1104 07F13802 		add	r2, r7, #56
 4382 1108 343A     		subs	r2, r2, #52
 4383 110a 0B46     		mov	r3, r1
 4384 110c 5B00     		lsls	r3, r3, #1
 4385 110e 0B44     		add	r3, r3, r1
 4386 1110 9B00     		lsls	r3, r3, #2
 4387 1112 1344     		add	r3, r3, r2
 4388 1114 0833     		adds	r3, r3, #8
 4389 1116 1B68     		ldr	r3, [r3]
 4390 1118 032B     		cmp	r3, #3
 4391 111a 6BD0     		beq	.L107
 4392              	.L106:
 4393              		.loc 1 448 0 discriminator 3
 4394 111c 07F13802 		add	r2, r7, #56
 4395 1120 343A     		subs	r2, r2, #52
 4396 1122 07F51653 		add	r3, r7, #9600
 4397 1126 03F11C03 		add	r3, r3, #28
 4398 112a 1968     		ldr	r1, [r3]
 4399 112c 0B46     		mov	r3, r1
 4400 112e 5B00     		lsls	r3, r3, #1
 4401 1130 0B44     		add	r3, r3, r1
 4402 1132 9B00     		lsls	r3, r3, #2
 4403 1134 1344     		add	r3, r3, r2
 4404 1136 0833     		adds	r3, r3, #8
 4405 1138 1B68     		ldr	r3, [r3]
 4406 113a 022B     		cmp	r3, #2
 4407 113c 11D1     		bne	.L108
 4408              		.loc 1 448 0 discriminator 4
 4409 113e 07F51653 		add	r3, r7, #9600
 4410 1142 03F11C03 		add	r3, r3, #28
 4411 1146 1B68     		ldr	r3, [r3]
 4412 1148 591E     		subs	r1, r3, #1
 4413 114a 07F13802 		add	r2, r7, #56
 4414 114e 343A     		subs	r2, r2, #52
 4415 1150 0B46     		mov	r3, r1
 4416 1152 5B00     		lsls	r3, r3, #1
 4417 1154 0B44     		add	r3, r3, r1
 4418 1156 9B00     		lsls	r3, r3, #2
 4419 1158 1344     		add	r3, r3, r2
 4420 115a 0833     		adds	r3, r3, #8
 4421 115c 1B68     		ldr	r3, [r3]
 4422 115e 012B     		cmp	r3, #1
 4423 1160 48D0     		beq	.L107
 4424              	.L108:
 4425              		.loc 1 448 0 discriminator 6
 4426 1162 07F13802 		add	r2, r7, #56
 4427 1166 343A     		subs	r2, r2, #52
 4428 1168 07F51653 		add	r3, r7, #9600
 4429 116c 03F11C03 		add	r3, r3, #28
 4430 1170 1968     		ldr	r1, [r3]
ARM GAS  C:\Users\Tomas\AppData\Local\Temp\cc4KjDQP.s 			page 87


 4431 1172 0B46     		mov	r3, r1
 4432 1174 5B00     		lsls	r3, r3, #1
 4433 1176 0B44     		add	r3, r3, r1
 4434 1178 9B00     		lsls	r3, r3, #2
 4435 117a 1344     		add	r3, r3, r2
 4436 117c 0833     		adds	r3, r3, #8
 4437 117e 1B68     		ldr	r3, [r3]
 4438 1180 042B     		cmp	r3, #4
 4439 1182 0FD1     		bne	.L109
 4440              		.loc 1 448 0 discriminator 7
 4441 1184 07F51653 		add	r3, r7, #9600
 4442 1188 03F12003 		add	r3, r3, #32
 4443 118c 1B68     		ldr	r3, [r3]
 4444 118e 5A1C     		adds	r2, r3, #1
 4445 1190 3C49     		ldr	r1, .L204+4
 4446 1192 1346     		mov	r3, r2
 4447 1194 5B00     		lsls	r3, r3, #1
 4448 1196 1344     		add	r3, r3, r2
 4449 1198 9B00     		lsls	r3, r3, #2
 4450 119a 0B44     		add	r3, r3, r1
 4451 119c 0833     		adds	r3, r3, #8
 4452 119e 1B68     		ldr	r3, [r3]
 4453 11a0 032B     		cmp	r3, #3
 4454 11a2 20D0     		beq	.L110
 4455              	.L109:
 4456              		.loc 1 448 0 discriminator 10
 4457 11a4 07F13802 		add	r2, r7, #56
 4458 11a8 343A     		subs	r2, r2, #52
 4459 11aa 07F51653 		add	r3, r7, #9600
 4460 11ae 03F11C03 		add	r3, r3, #28
 4461 11b2 1968     		ldr	r1, [r3]
 4462 11b4 0B46     		mov	r3, r1
 4463 11b6 5B00     		lsls	r3, r3, #1
 4464 11b8 0B44     		add	r3, r3, r1
 4465 11ba 9B00     		lsls	r3, r3, #2
 4466 11bc 1344     		add	r3, r3, r2
 4467 11be 0833     		adds	r3, r3, #8
 4468 11c0 1B68     		ldr	r3, [r3]
 4469 11c2 022B     		cmp	r3, #2
 4470 11c4 62D1     		bne	.L111
 4471              		.loc 1 448 0 discriminator 11
 4472 11c6 07F51653 		add	r3, r7, #9600
 4473 11ca 03F12003 		add	r3, r3, #32
 4474 11ce 1B68     		ldr	r3, [r3]
 4475 11d0 5A1C     		adds	r2, r3, #1
 4476 11d2 2C49     		ldr	r1, .L204+4
 4477 11d4 1346     		mov	r3, r2
 4478 11d6 5B00     		lsls	r3, r3, #1
 4479 11d8 1344     		add	r3, r3, r2
 4480 11da 9B00     		lsls	r3, r3, #2
 4481 11dc 0B44     		add	r3, r3, r1
 4482 11de 0833     		adds	r3, r3, #8
 4483 11e0 1B68     		ldr	r3, [r3]
 4484 11e2 012B     		cmp	r3, #1
 4485 11e4 52D1     		bne	.L111
 4486              	.L110:
 4487              		.loc 1 448 0 discriminator 12
ARM GAS  C:\Users\Tomas\AppData\Local\Temp\cc4KjDQP.s 			page 88


 4488 11e6 07F51653 		add	r3, r7, #9600
 4489 11ea 03F11C03 		add	r3, r3, #28
 4490 11ee 1B68     		ldr	r3, [r3]
 4491 11f0 012B     		cmp	r3, #1
 4492 11f2 4BD1     		bne	.L111
 4493              	.L107:
 449:.\pathfinder.c ****                                 //printf("U/D intersection found (%d) [direction = %d] -- TURN LEFT
 450:.\pathfinder.c ****                                 instructions[counter] = LEFT;
 4494              		.loc 1 450 0 is_stmt 1
 4495 11f4 07F51653 		add	r3, r7, #9600
 4496 11f8 03F13203 		add	r3, r3, #50
 4497 11fc 1B88     		ldrh	r3, [r3]
 4498 11fe 224A     		ldr	r2, .L204+8
 4499 1200 4C21     		movs	r1, #76
 4500 1202 D154     		strb	r1, [r2, r3]
 451:.\pathfinder.c ****                                 instructions[counter + 1] = (inter_end - j + 1 )- inter_prev_inters
 4501              		.loc 1 451 0
 4502 1204 07F51653 		add	r3, r7, #9600
 4503 1208 03F13203 		add	r3, r3, #50
 4504 120c 1B88     		ldrh	r3, [r3]
 4505 120e 0133     		adds	r3, r3, #1
 4506 1210 07F51652 		add	r2, r7, #9600
 4507 1214 02F11402 		add	r2, r2, #20
 4508 1218 1268     		ldr	r2, [r2]
 4509 121a D1B2     		uxtb	r1, r2
 4510 121c 07F51652 		add	r2, r7, #9600
 4511 1220 02F11C02 		add	r2, r2, #28
 4512 1224 1268     		ldr	r2, [r2]
 4513 1226 D2B2     		uxtb	r2, r2
 4514 1228 8A1A     		subs	r2, r1, r2
 4515 122a D1B2     		uxtb	r1, r2
 4516 122c 07F51652 		add	r2, r7, #9600
 4517 1230 02F12802 		add	r2, r2, #40
 4518 1234 1268     		ldr	r2, [r2]
 4519 1236 D2B2     		uxtb	r2, r2
 4520 1238 8A1A     		subs	r2, r1, r2
 4521 123a D2B2     		uxtb	r2, r2
 4522 123c 0132     		adds	r2, r2, #1
 4523 123e D1B2     		uxtb	r1, r2
 4524 1240 114A     		ldr	r2, .L204+8
 4525 1242 D154     		strb	r1, [r2, r3]
 452:.\pathfinder.c ****                                 counter+=2;
 4526              		.loc 1 452 0
 4527 1244 07F51653 		add	r3, r7, #9600
 4528 1248 03F13203 		add	r3, r3, #50
 4529 124c 1B88     		ldrh	r3, [r3]	@ movhi
 4530 124e 0233     		adds	r3, r3, #2
 4531 1250 07F51652 		add	r2, r7, #9600
 4532 1254 02F13202 		add	r2, r2, #50
 4533 1258 1380     		strh	r3, [r2]	@ movhi
 453:.\pathfinder.c ****                                 inter_prev_intersection = inter_end - j + 1;
 4534              		.loc 1 453 0
 4535 125a 07F51653 		add	r3, r7, #9600
 4536 125e 03F11403 		add	r3, r3, #20
 4537 1262 1A68     		ldr	r2, [r3]
 4538 1264 07F51653 		add	r3, r7, #9600
 4539 1268 03F11C03 		add	r3, r3, #28
ARM GAS  C:\Users\Tomas\AppData\Local\Temp\cc4KjDQP.s 			page 89


 4540 126c 1B68     		ldr	r3, [r3]
 4541 126e D31A     		subs	r3, r2, r3
 4542 1270 0133     		adds	r3, r3, #1
 4543 1272 07F51652 		add	r2, r7, #9600
 4544 1276 02F12802 		add	r2, r2, #40
 4545 127a 1360     		str	r3, [r2]
 4546 127c B1E1     		b	.L112
 4547              	.L205:
 4548 127e 00BF     		.align	2
 4549              	.L204:
 4550 1280 00000000 		.word	map
 4551 1284 00000000 		.word	path
 4552 1288 00000000 		.word	instructions
 4553              	.L111:
 454:.\pathfinder.c ****                              }else if((inter_path[j][DIR] == 4 && inter_path[j - 1][DIR] == 1) || (
 4554              		.loc 1 454 0
 4555 128c 07F13802 		add	r2, r7, #56
 4556 1290 343A     		subs	r2, r2, #52
 4557 1292 07F51653 		add	r3, r7, #9600
 4558 1296 03F11C03 		add	r3, r3, #28
 4559 129a 1968     		ldr	r1, [r3]
 4560 129c 0B46     		mov	r3, r1
 4561 129e 5B00     		lsls	r3, r3, #1
 4562 12a0 0B44     		add	r3, r3, r1
 4563 12a2 9B00     		lsls	r3, r3, #2
 4564 12a4 1344     		add	r3, r3, r2
 4565 12a6 0833     		adds	r3, r3, #8
 4566 12a8 1B68     		ldr	r3, [r3]
 4567 12aa 042B     		cmp	r3, #4
 4568 12ac 11D1     		bne	.L113
 4569              		.loc 1 454 0 is_stmt 0 discriminator 1
 4570 12ae 07F51653 		add	r3, r7, #9600
 4571 12b2 03F11C03 		add	r3, r3, #28
 4572 12b6 1B68     		ldr	r3, [r3]
 4573 12b8 591E     		subs	r1, r3, #1
 4574 12ba 07F13802 		add	r2, r7, #56
 4575 12be 343A     		subs	r2, r2, #52
 4576 12c0 0B46     		mov	r3, r1
 4577 12c2 5B00     		lsls	r3, r3, #1
 4578 12c4 0B44     		add	r3, r3, r1
 4579 12c6 9B00     		lsls	r3, r3, #2
 4580 12c8 1344     		add	r3, r3, r2
 4581 12ca 0833     		adds	r3, r3, #8
 4582 12cc 1B68     		ldr	r3, [r3]
 4583 12ce 012B     		cmp	r3, #1
 4584 12d0 6BD0     		beq	.L114
 4585              	.L113:
 4586              		.loc 1 454 0 discriminator 3
 4587 12d2 07F13802 		add	r2, r7, #56
 4588 12d6 343A     		subs	r2, r2, #52
 4589 12d8 07F51653 		add	r3, r7, #9600
 4590 12dc 03F11C03 		add	r3, r3, #28
 4591 12e0 1968     		ldr	r1, [r3]
 4592 12e2 0B46     		mov	r3, r1
 4593 12e4 5B00     		lsls	r3, r3, #1
 4594 12e6 0B44     		add	r3, r3, r1
 4595 12e8 9B00     		lsls	r3, r3, #2
ARM GAS  C:\Users\Tomas\AppData\Local\Temp\cc4KjDQP.s 			page 90


 4596 12ea 1344     		add	r3, r3, r2
 4597 12ec 0833     		adds	r3, r3, #8
 4598 12ee 1B68     		ldr	r3, [r3]
 4599 12f0 022B     		cmp	r3, #2
 4600 12f2 11D1     		bne	.L115
 4601              		.loc 1 454 0 discriminator 4
 4602 12f4 07F51653 		add	r3, r7, #9600
 4603 12f8 03F11C03 		add	r3, r3, #28
 4604 12fc 1B68     		ldr	r3, [r3]
 4605 12fe 591E     		subs	r1, r3, #1
 4606 1300 07F13802 		add	r2, r7, #56
 4607 1304 343A     		subs	r2, r2, #52
 4608 1306 0B46     		mov	r3, r1
 4609 1308 5B00     		lsls	r3, r3, #1
 4610 130a 0B44     		add	r3, r3, r1
 4611 130c 9B00     		lsls	r3, r3, #2
 4612 130e 1344     		add	r3, r3, r2
 4613 1310 0833     		adds	r3, r3, #8
 4614 1312 1B68     		ldr	r3, [r3]
 4615 1314 032B     		cmp	r3, #3
 4616 1316 48D0     		beq	.L114
 4617              	.L115:
 4618              		.loc 1 454 0 discriminator 6
 4619 1318 07F13802 		add	r2, r7, #56
 4620 131c 343A     		subs	r2, r2, #52
 4621 131e 07F51653 		add	r3, r7, #9600
 4622 1322 03F11C03 		add	r3, r3, #28
 4623 1326 1968     		ldr	r1, [r3]
 4624 1328 0B46     		mov	r3, r1
 4625 132a 5B00     		lsls	r3, r3, #1
 4626 132c 0B44     		add	r3, r3, r1
 4627 132e 9B00     		lsls	r3, r3, #2
 4628 1330 1344     		add	r3, r3, r2
 4629 1332 0833     		adds	r3, r3, #8
 4630 1334 1B68     		ldr	r3, [r3]
 4631 1336 042B     		cmp	r3, #4
 4632 1338 0FD1     		bne	.L116
 4633              		.loc 1 454 0 discriminator 7
 4634 133a 07F51653 		add	r3, r7, #9600
 4635 133e 03F12003 		add	r3, r3, #32
 4636 1342 1B68     		ldr	r3, [r3]
 4637 1344 5A1C     		adds	r2, r3, #1
 4638 1346 CA49     		ldr	r1, .L206
 4639 1348 1346     		mov	r3, r2
 4640 134a 5B00     		lsls	r3, r3, #1
 4641 134c 1344     		add	r3, r3, r2
 4642 134e 9B00     		lsls	r3, r3, #2
 4643 1350 0B44     		add	r3, r3, r1
 4644 1352 0833     		adds	r3, r3, #8
 4645 1354 1B68     		ldr	r3, [r3]
 4646 1356 012B     		cmp	r3, #1
 4647 1358 20D0     		beq	.L117
 4648              	.L116:
 4649              		.loc 1 454 0 discriminator 10
 4650 135a 07F13802 		add	r2, r7, #56
 4651 135e 343A     		subs	r2, r2, #52
 4652 1360 07F51653 		add	r3, r7, #9600
ARM GAS  C:\Users\Tomas\AppData\Local\Temp\cc4KjDQP.s 			page 91


 4653 1364 03F11C03 		add	r3, r3, #28
 4654 1368 1968     		ldr	r1, [r3]
 4655 136a 0B46     		mov	r3, r1
 4656 136c 5B00     		lsls	r3, r3, #1
 4657 136e 0B44     		add	r3, r3, r1
 4658 1370 9B00     		lsls	r3, r3, #2
 4659 1372 1344     		add	r3, r3, r2
 4660 1374 0833     		adds	r3, r3, #8
 4661 1376 1B68     		ldr	r3, [r3]
 4662 1378 022B     		cmp	r3, #2
 4663 137a 5BD1     		bne	.L118
 4664              		.loc 1 454 0 discriminator 11
 4665 137c 07F51653 		add	r3, r7, #9600
 4666 1380 03F12003 		add	r3, r3, #32
 4667 1384 1B68     		ldr	r3, [r3]
 4668 1386 5A1C     		adds	r2, r3, #1
 4669 1388 B949     		ldr	r1, .L206
 4670 138a 1346     		mov	r3, r2
 4671 138c 5B00     		lsls	r3, r3, #1
 4672 138e 1344     		add	r3, r3, r2
 4673 1390 9B00     		lsls	r3, r3, #2
 4674 1392 0B44     		add	r3, r3, r1
 4675 1394 0833     		adds	r3, r3, #8
 4676 1396 1B68     		ldr	r3, [r3]
 4677 1398 032B     		cmp	r3, #3
 4678 139a 4BD1     		bne	.L118
 4679              	.L117:
 4680              		.loc 1 454 0 discriminator 12
 4681 139c 07F51653 		add	r3, r7, #9600
 4682 13a0 03F11C03 		add	r3, r3, #28
 4683 13a4 1B68     		ldr	r3, [r3]
 4684 13a6 012B     		cmp	r3, #1
 4685 13a8 44D1     		bne	.L118
 4686              	.L114:
 455:.\pathfinder.c ****                                 //printf("U/D intersection found (%d) [direction = %d] -- TURN RIGH
 456:.\pathfinder.c ****                                 instructions[counter] = RIGHT;
 4687              		.loc 1 456 0 is_stmt 1
 4688 13aa 07F51653 		add	r3, r7, #9600
 4689 13ae 03F13203 		add	r3, r3, #50
 4690 13b2 1B88     		ldrh	r3, [r3]
 4691 13b4 AF4A     		ldr	r2, .L206+4
 4692 13b6 5221     		movs	r1, #82
 4693 13b8 D154     		strb	r1, [r2, r3]
 457:.\pathfinder.c ****                                 instructions[counter + 1] = (inter_end - j + 1 )- inter_prev_inters
 4694              		.loc 1 457 0
 4695 13ba 07F51653 		add	r3, r7, #9600
 4696 13be 03F13203 		add	r3, r3, #50
 4697 13c2 1B88     		ldrh	r3, [r3]
 4698 13c4 0133     		adds	r3, r3, #1
 4699 13c6 07F51652 		add	r2, r7, #9600
 4700 13ca 02F11402 		add	r2, r2, #20
 4701 13ce 1268     		ldr	r2, [r2]
 4702 13d0 D1B2     		uxtb	r1, r2
 4703 13d2 07F51652 		add	r2, r7, #9600
 4704 13d6 02F11C02 		add	r2, r2, #28
 4705 13da 1268     		ldr	r2, [r2]
 4706 13dc D2B2     		uxtb	r2, r2
ARM GAS  C:\Users\Tomas\AppData\Local\Temp\cc4KjDQP.s 			page 92


 4707 13de 8A1A     		subs	r2, r1, r2
 4708 13e0 D1B2     		uxtb	r1, r2
 4709 13e2 07F51652 		add	r2, r7, #9600
 4710 13e6 02F12802 		add	r2, r2, #40
 4711 13ea 1268     		ldr	r2, [r2]
 4712 13ec D2B2     		uxtb	r2, r2
 4713 13ee 8A1A     		subs	r2, r1, r2
 4714 13f0 D2B2     		uxtb	r2, r2
 4715 13f2 0132     		adds	r2, r2, #1
 4716 13f4 D1B2     		uxtb	r1, r2
 4717 13f6 9F4A     		ldr	r2, .L206+4
 4718 13f8 D154     		strb	r1, [r2, r3]
 458:.\pathfinder.c ****                                 counter+=2;
 4719              		.loc 1 458 0
 4720 13fa 07F51653 		add	r3, r7, #9600
 4721 13fe 03F13203 		add	r3, r3, #50
 4722 1402 1B88     		ldrh	r3, [r3]	@ movhi
 4723 1404 0233     		adds	r3, r3, #2
 4724 1406 07F51652 		add	r2, r7, #9600
 4725 140a 02F13202 		add	r2, r2, #50
 4726 140e 1380     		strh	r3, [r2]	@ movhi
 459:.\pathfinder.c ****                                 inter_prev_intersection = inter_end - j + 1;
 4727              		.loc 1 459 0
 4728 1410 07F51653 		add	r3, r7, #9600
 4729 1414 03F11403 		add	r3, r3, #20
 4730 1418 1A68     		ldr	r2, [r3]
 4731 141a 07F51653 		add	r3, r7, #9600
 4732 141e 03F11C03 		add	r3, r3, #28
 4733 1422 1B68     		ldr	r3, [r3]
 4734 1424 D31A     		subs	r3, r2, r3
 4735 1426 0133     		adds	r3, r3, #1
 4736 1428 07F51652 		add	r2, r7, #9600
 4737 142c 02F12802 		add	r2, r2, #40
 4738 1430 1360     		str	r3, [r2]
 4739 1432 D6E0     		b	.L112
 4740              	.L118:
 460:.\pathfinder.c ****                              }else if ((inter_path[j][DIR] == 4 && inter_path[j - 1][DIR] == 2) || 
 4741              		.loc 1 460 0
 4742 1434 07F13802 		add	r2, r7, #56
 4743 1438 343A     		subs	r2, r2, #52
 4744 143a 07F51653 		add	r3, r7, #9600
 4745 143e 03F11C03 		add	r3, r3, #28
 4746 1442 1968     		ldr	r1, [r3]
 4747 1444 0B46     		mov	r3, r1
 4748 1446 5B00     		lsls	r3, r3, #1
 4749 1448 0B44     		add	r3, r3, r1
 4750 144a 9B00     		lsls	r3, r3, #2
 4751 144c 1344     		add	r3, r3, r2
 4752 144e 0833     		adds	r3, r3, #8
 4753 1450 1B68     		ldr	r3, [r3]
 4754 1452 042B     		cmp	r3, #4
 4755 1454 11D1     		bne	.L119
 4756              		.loc 1 460 0 is_stmt 0 discriminator 1
 4757 1456 07F51653 		add	r3, r7, #9600
 4758 145a 03F11C03 		add	r3, r3, #28
 4759 145e 1B68     		ldr	r3, [r3]
 4760 1460 591E     		subs	r1, r3, #1
ARM GAS  C:\Users\Tomas\AppData\Local\Temp\cc4KjDQP.s 			page 93


 4761 1462 07F13802 		add	r2, r7, #56
 4762 1466 343A     		subs	r2, r2, #52
 4763 1468 0B46     		mov	r3, r1
 4764 146a 5B00     		lsls	r3, r3, #1
 4765 146c 0B44     		add	r3, r3, r1
 4766 146e 9B00     		lsls	r3, r3, #2
 4767 1470 1344     		add	r3, r3, r2
 4768 1472 0833     		adds	r3, r3, #8
 4769 1474 1B68     		ldr	r3, [r3]
 4770 1476 022B     		cmp	r3, #2
 4771 1478 6ED0     		beq	.L120
 4772              	.L119:
 4773              		.loc 1 460 0 discriminator 3
 4774 147a 07F13802 		add	r2, r7, #56
 4775 147e 343A     		subs	r2, r2, #52
 4776 1480 07F51653 		add	r3, r7, #9600
 4777 1484 03F11C03 		add	r3, r3, #28
 4778 1488 1968     		ldr	r1, [r3]
 4779 148a 0B46     		mov	r3, r1
 4780 148c 5B00     		lsls	r3, r3, #1
 4781 148e 0B44     		add	r3, r3, r1
 4782 1490 9B00     		lsls	r3, r3, #2
 4783 1492 1344     		add	r3, r3, r2
 4784 1494 0833     		adds	r3, r3, #8
 4785 1496 1B68     		ldr	r3, [r3]
 4786 1498 022B     		cmp	r3, #2
 4787 149a 11D1     		bne	.L121
 4788              		.loc 1 460 0 discriminator 4
 4789 149c 07F51653 		add	r3, r7, #9600
 4790 14a0 03F11C03 		add	r3, r3, #28
 4791 14a4 1B68     		ldr	r3, [r3]
 4792 14a6 591E     		subs	r1, r3, #1
 4793 14a8 07F13802 		add	r2, r7, #56
 4794 14ac 343A     		subs	r2, r2, #52
 4795 14ae 0B46     		mov	r3, r1
 4796 14b0 5B00     		lsls	r3, r3, #1
 4797 14b2 0B44     		add	r3, r3, r1
 4798 14b4 9B00     		lsls	r3, r3, #2
 4799 14b6 1344     		add	r3, r3, r2
 4800 14b8 0833     		adds	r3, r3, #8
 4801 14ba 1B68     		ldr	r3, [r3]
 4802 14bc 042B     		cmp	r3, #4
 4803 14be 4BD0     		beq	.L120
 4804              	.L121:
 4805              		.loc 1 460 0 discriminator 6
 4806 14c0 07F13802 		add	r2, r7, #56
 4807 14c4 343A     		subs	r2, r2, #52
 4808 14c6 07F51653 		add	r3, r7, #9600
 4809 14ca 03F11C03 		add	r3, r3, #28
 4810 14ce 1968     		ldr	r1, [r3]
 4811 14d0 0B46     		mov	r3, r1
 4812 14d2 5B00     		lsls	r3, r3, #1
 4813 14d4 0B44     		add	r3, r3, r1
 4814 14d6 9B00     		lsls	r3, r3, #2
 4815 14d8 1344     		add	r3, r3, r2
 4816 14da 0833     		adds	r3, r3, #8
 4817 14dc 1B68     		ldr	r3, [r3]
ARM GAS  C:\Users\Tomas\AppData\Local\Temp\cc4KjDQP.s 			page 94


 4818 14de 042B     		cmp	r3, #4
 4819 14e0 0FD1     		bne	.L122
 4820              		.loc 1 460 0 discriminator 7
 4821 14e2 07F51653 		add	r3, r7, #9600
 4822 14e6 03F12003 		add	r3, r3, #32
 4823 14ea 1B68     		ldr	r3, [r3]
 4824 14ec 5A1C     		adds	r2, r3, #1
 4825 14ee 6049     		ldr	r1, .L206
 4826 14f0 1346     		mov	r3, r2
 4827 14f2 5B00     		lsls	r3, r3, #1
 4828 14f4 1344     		add	r3, r3, r2
 4829 14f6 9B00     		lsls	r3, r3, #2
 4830 14f8 0B44     		add	r3, r3, r1
 4831 14fa 0833     		adds	r3, r3, #8
 4832 14fc 1B68     		ldr	r3, [r3]
 4833 14fe 022B     		cmp	r3, #2
 4834 1500 22D0     		beq	.L123
 4835              	.L122:
 4836              		.loc 1 460 0 discriminator 10
 4837 1502 07F13802 		add	r2, r7, #56
 4838 1506 343A     		subs	r2, r2, #52
 4839 1508 07F51653 		add	r3, r7, #9600
 4840 150c 03F11C03 		add	r3, r3, #28
 4841 1510 1968     		ldr	r1, [r3]
 4842 1512 0B46     		mov	r3, r1
 4843 1514 5B00     		lsls	r3, r3, #1
 4844 1516 0B44     		add	r3, r3, r1
 4845 1518 9B00     		lsls	r3, r3, #2
 4846 151a 1344     		add	r3, r3, r2
 4847 151c 0833     		adds	r3, r3, #8
 4848 151e 1B68     		ldr	r3, [r3]
 4849 1520 022B     		cmp	r3, #2
 4850 1522 40F0A480 		bne	.L124
 4851              		.loc 1 460 0 discriminator 11
 4852 1526 07F51653 		add	r3, r7, #9600
 4853 152a 03F12003 		add	r3, r3, #32
 4854 152e 1B68     		ldr	r3, [r3]
 4855 1530 5A1C     		adds	r2, r3, #1
 4856 1532 4F49     		ldr	r1, .L206
 4857 1534 1346     		mov	r3, r2
 4858 1536 5B00     		lsls	r3, r3, #1
 4859 1538 1344     		add	r3, r3, r2
 4860 153a 9B00     		lsls	r3, r3, #2
 4861 153c 0B44     		add	r3, r3, r1
 4862 153e 0833     		adds	r3, r3, #8
 4863 1540 1B68     		ldr	r3, [r3]
 4864 1542 042B     		cmp	r3, #4
 4865 1544 40F09380 		bne	.L124
 4866              	.L123:
 4867              		.loc 1 460 0 discriminator 12
 4868 1548 07F51653 		add	r3, r7, #9600
 4869 154c 03F11C03 		add	r3, r3, #28
 4870 1550 1B68     		ldr	r3, [r3]
 4871 1552 012B     		cmp	r3, #1
 4872 1554 40F08B80 		bne	.L124
 4873              	.L120:
 461:.\pathfinder.c ****                                 //printf("1 U/D intersection found (%d) [direction = %d] -- TURN U-
ARM GAS  C:\Users\Tomas\AppData\Local\Temp\cc4KjDQP.s 			page 95


 462:.\pathfinder.c ****                                 instructions[counter] = UTURN;
 4874              		.loc 1 462 0 is_stmt 1
 4875 1558 07F51653 		add	r3, r7, #9600
 4876 155c 03F13203 		add	r3, r3, #50
 4877 1560 1B88     		ldrh	r3, [r3]
 4878 1562 444A     		ldr	r2, .L206+4
 4879 1564 5521     		movs	r1, #85
 4880 1566 D154     		strb	r1, [r2, r3]
 463:.\pathfinder.c ****                                 instructions[counter + 1] = (inter_end - j + 1 )- inter_prev_inters
 4881              		.loc 1 463 0
 4882 1568 07F51653 		add	r3, r7, #9600
 4883 156c 03F13203 		add	r3, r3, #50
 4884 1570 1B88     		ldrh	r3, [r3]
 4885 1572 0133     		adds	r3, r3, #1
 4886 1574 07F51652 		add	r2, r7, #9600
 4887 1578 02F11402 		add	r2, r2, #20
 4888 157c 1268     		ldr	r2, [r2]
 4889 157e D1B2     		uxtb	r1, r2
 4890 1580 07F51652 		add	r2, r7, #9600
 4891 1584 02F11C02 		add	r2, r2, #28
 4892 1588 1268     		ldr	r2, [r2]
 4893 158a D2B2     		uxtb	r2, r2
 4894 158c 8A1A     		subs	r2, r1, r2
 4895 158e D1B2     		uxtb	r1, r2
 4896 1590 07F51652 		add	r2, r7, #9600
 4897 1594 02F12802 		add	r2, r2, #40
 4898 1598 1268     		ldr	r2, [r2]
 4899 159a D2B2     		uxtb	r2, r2
 4900 159c 8A1A     		subs	r2, r1, r2
 4901 159e D2B2     		uxtb	r2, r2
 4902 15a0 0132     		adds	r2, r2, #1
 4903 15a2 D1B2     		uxtb	r1, r2
 4904 15a4 334A     		ldr	r2, .L206+4
 4905 15a6 D154     		strb	r1, [r2, r3]
 464:.\pathfinder.c ****                                 counter+=2;
 4906              		.loc 1 464 0
 4907 15a8 07F51653 		add	r3, r7, #9600
 4908 15ac 03F13203 		add	r3, r3, #50
 4909 15b0 1B88     		ldrh	r3, [r3]	@ movhi
 4910 15b2 0233     		adds	r3, r3, #2
 4911 15b4 07F51652 		add	r2, r7, #9600
 4912 15b8 02F13202 		add	r2, r2, #50
 4913 15bc 1380     		strh	r3, [r2]	@ movhi
 465:.\pathfinder.c ****                                 inter_prev_intersection = inter_end - j + 1;
 4914              		.loc 1 465 0
 4915 15be 07F51653 		add	r3, r7, #9600
 4916 15c2 03F11403 		add	r3, r3, #20
 4917 15c6 1A68     		ldr	r2, [r3]
 4918 15c8 07F51653 		add	r3, r7, #9600
 4919 15cc 03F11C03 		add	r3, r3, #28
 4920 15d0 1B68     		ldr	r3, [r3]
 4921 15d2 D31A     		subs	r3, r2, r3
 4922 15d4 0133     		adds	r3, r3, #1
 4923 15d6 07F51652 		add	r2, r7, #9600
 4924 15da 02F12802 		add	r2, r2, #40
 4925 15de 1360     		str	r3, [r2]
 4926 15e0 45E0     		b	.L124
ARM GAS  C:\Users\Tomas\AppData\Local\Temp\cc4KjDQP.s 			page 96


 4927              	.L112:
 4928 15e2 44E0     		b	.L124
 4929              	.L105:
 466:.\pathfinder.c ****                              }else{
 467:.\pathfinder.c ****                                // printf("Prev %d, current %d\n", inter_path[j - 1][DIR], inter_pat
 468:.\pathfinder.c ****                              }
 469:.\pathfinder.c ****                           }else{
 470:.\pathfinder.c ****                              //printf("U/D intersection found (%d) [direction = %d] (%d, %d)\n", tm
 471:.\pathfinder.c ****                              instructions[counter] = STRAIGHT;
 4930              		.loc 1 471 0
 4931 15e4 07F51653 		add	r3, r7, #9600
 4932 15e8 03F13203 		add	r3, r3, #50
 4933 15ec 1B88     		ldrh	r3, [r3]
 4934 15ee 214A     		ldr	r2, .L206+4
 4935 15f0 5321     		movs	r1, #83
 4936 15f2 D154     		strb	r1, [r2, r3]
 472:.\pathfinder.c ****                              instructions[counter + 1] = (inter_end - j + 1 )- inter_prev_intersect
 4937              		.loc 1 472 0
 4938 15f4 07F51653 		add	r3, r7, #9600
 4939 15f8 03F13203 		add	r3, r3, #50
 4940 15fc 1B88     		ldrh	r3, [r3]
 4941 15fe 0133     		adds	r3, r3, #1
 4942 1600 07F51652 		add	r2, r7, #9600
 4943 1604 02F11402 		add	r2, r2, #20
 4944 1608 1268     		ldr	r2, [r2]
 4945 160a D1B2     		uxtb	r1, r2
 4946 160c 07F51652 		add	r2, r7, #9600
 4947 1610 02F11C02 		add	r2, r2, #28
 4948 1614 1268     		ldr	r2, [r2]
 4949 1616 D2B2     		uxtb	r2, r2
 4950 1618 8A1A     		subs	r2, r1, r2
 4951 161a D1B2     		uxtb	r1, r2
 4952 161c 07F51652 		add	r2, r7, #9600
 4953 1620 02F12802 		add	r2, r2, #40
 4954 1624 1268     		ldr	r2, [r2]
 4955 1626 D2B2     		uxtb	r2, r2
 4956 1628 8A1A     		subs	r2, r1, r2
 4957 162a D2B2     		uxtb	r2, r2
 4958 162c 0132     		adds	r2, r2, #1
 4959 162e D1B2     		uxtb	r1, r2
 4960 1630 104A     		ldr	r2, .L206+4
 4961 1632 D154     		strb	r1, [r2, r3]
 473:.\pathfinder.c ****                              counter+=2;
 4962              		.loc 1 473 0
 4963 1634 07F51653 		add	r3, r7, #9600
 4964 1638 03F13203 		add	r3, r3, #50
 4965 163c 1B88     		ldrh	r3, [r3]	@ movhi
 4966 163e 0233     		adds	r3, r3, #2
 4967 1640 07F51652 		add	r2, r7, #9600
 4968 1644 02F13202 		add	r2, r2, #50
 4969 1648 1380     		strh	r3, [r2]	@ movhi
 474:.\pathfinder.c ****                              inter_prev_intersection = inter_end - j + 1;
 4970              		.loc 1 474 0
 4971 164a 07F51653 		add	r3, r7, #9600
 4972 164e 03F11403 		add	r3, r3, #20
 4973 1652 1A68     		ldr	r2, [r3]
 4974 1654 07F51653 		add	r3, r7, #9600
ARM GAS  C:\Users\Tomas\AppData\Local\Temp\cc4KjDQP.s 			page 97


 4975 1658 03F11C03 		add	r3, r3, #28
 4976 165c 1B68     		ldr	r3, [r3]
 4977 165e D31A     		subs	r3, r2, r3
 4978 1660 0133     		adds	r3, r3, #1
 4979 1662 07F51652 		add	r2, r7, #9600
 4980 1666 02F12802 		add	r2, r2, #40
 4981 166a 1360     		str	r3, [r2]
 447:.\pathfinder.c ****                              if((inter_path[j][DIR] == 4 && inter_path[j - 1][DIR] == 3) || (inter_
 4982              		.loc 1 447 0
 4983 166c 83E2     		b	.L102
 4984              	.L124:
 447:.\pathfinder.c ****                              if((inter_path[j][DIR] == 4 && inter_path[j - 1][DIR] == 3) || (inter_
 4985              		.loc 1 447 0 is_stmt 0 discriminator 3
 4986 166e 82E2     		b	.L102
 4987              	.L207:
 4988              		.align	2
 4989              	.L206:
 4990 1670 00000000 		.word	path
 4991 1674 00000000 		.word	instructions
 4992              	.L104:
 475:.\pathfinder.c ****                           }
 476:.\pathfinder.c **** 
 477:.\pathfinder.c ****                        }else{
 478:.\pathfinder.c ****                           if ((inter_path[j][DIR] == 4 && inter_path[j - 1][DIR] == 2) || (inter_pa
 4993              		.loc 1 478 0 is_stmt 1
 4994 1678 07F13802 		add	r2, r7, #56
 4995 167c 343A     		subs	r2, r2, #52
 4996 167e 07F51653 		add	r3, r7, #9600
 4997 1682 03F11C03 		add	r3, r3, #28
 4998 1686 1968     		ldr	r1, [r3]
 4999 1688 0B46     		mov	r3, r1
 5000 168a 5B00     		lsls	r3, r3, #1
 5001 168c 0B44     		add	r3, r3, r1
 5002 168e 9B00     		lsls	r3, r3, #2
 5003 1690 1344     		add	r3, r3, r2
 5004 1692 0833     		adds	r3, r3, #8
 5005 1694 1B68     		ldr	r3, [r3]
 5006 1696 042B     		cmp	r3, #4
 5007 1698 11D1     		bne	.L125
 5008              		.loc 1 478 0 is_stmt 0 discriminator 1
 5009 169a 07F51653 		add	r3, r7, #9600
 5010 169e 03F11C03 		add	r3, r3, #28
 5011 16a2 1B68     		ldr	r3, [r3]
 5012 16a4 591E     		subs	r1, r3, #1
 5013 16a6 07F13802 		add	r2, r7, #56
 5014 16aa 343A     		subs	r2, r2, #52
 5015 16ac 0B46     		mov	r3, r1
 5016 16ae 5B00     		lsls	r3, r3, #1
 5017 16b0 0B44     		add	r3, r3, r1
 5018 16b2 9B00     		lsls	r3, r3, #2
 5019 16b4 1344     		add	r3, r3, r2
 5020 16b6 0833     		adds	r3, r3, #8
 5021 16b8 1B68     		ldr	r3, [r3]
 5022 16ba 022B     		cmp	r3, #2
 5023 16bc 6BD0     		beq	.L126
 5024              	.L125:
 5025              		.loc 1 478 0 discriminator 3
ARM GAS  C:\Users\Tomas\AppData\Local\Temp\cc4KjDQP.s 			page 98


 5026 16be 07F13802 		add	r2, r7, #56
 5027 16c2 343A     		subs	r2, r2, #52
 5028 16c4 07F51653 		add	r3, r7, #9600
 5029 16c8 03F11C03 		add	r3, r3, #28
 5030 16cc 1968     		ldr	r1, [r3]
 5031 16ce 0B46     		mov	r3, r1
 5032 16d0 5B00     		lsls	r3, r3, #1
 5033 16d2 0B44     		add	r3, r3, r1
 5034 16d4 9B00     		lsls	r3, r3, #2
 5035 16d6 1344     		add	r3, r3, r2
 5036 16d8 0833     		adds	r3, r3, #8
 5037 16da 1B68     		ldr	r3, [r3]
 5038 16dc 022B     		cmp	r3, #2
 5039 16de 11D1     		bne	.L127
 5040              		.loc 1 478 0 discriminator 4
 5041 16e0 07F51653 		add	r3, r7, #9600
 5042 16e4 03F11C03 		add	r3, r3, #28
 5043 16e8 1B68     		ldr	r3, [r3]
 5044 16ea 591E     		subs	r1, r3, #1
 5045 16ec 07F13802 		add	r2, r7, #56
 5046 16f0 343A     		subs	r2, r2, #52
 5047 16f2 0B46     		mov	r3, r1
 5048 16f4 5B00     		lsls	r3, r3, #1
 5049 16f6 0B44     		add	r3, r3, r1
 5050 16f8 9B00     		lsls	r3, r3, #2
 5051 16fa 1344     		add	r3, r3, r2
 5052 16fc 0833     		adds	r3, r3, #8
 5053 16fe 1B68     		ldr	r3, [r3]
 5054 1700 042B     		cmp	r3, #4
 5055 1702 48D0     		beq	.L126
 5056              	.L127:
 5057              		.loc 1 478 0 discriminator 6
 5058 1704 07F13802 		add	r2, r7, #56
 5059 1708 343A     		subs	r2, r2, #52
 5060 170a 07F51653 		add	r3, r7, #9600
 5061 170e 03F11C03 		add	r3, r3, #28
 5062 1712 1968     		ldr	r1, [r3]
 5063 1714 0B46     		mov	r3, r1
 5064 1716 5B00     		lsls	r3, r3, #1
 5065 1718 0B44     		add	r3, r3, r1
 5066 171a 9B00     		lsls	r3, r3, #2
 5067 171c 1344     		add	r3, r3, r2
 5068 171e 0833     		adds	r3, r3, #8
 5069 1720 1B68     		ldr	r3, [r3]
 5070 1722 042B     		cmp	r3, #4
 5071 1724 0FD1     		bne	.L128
 5072              		.loc 1 478 0 discriminator 7
 5073 1726 07F51653 		add	r3, r7, #9600
 5074 172a 03F12003 		add	r3, r3, #32
 5075 172e 1B68     		ldr	r3, [r3]
 5076 1730 5A1C     		adds	r2, r3, #1
 5077 1732 A549     		ldr	r1, .L208
 5078 1734 1346     		mov	r3, r2
 5079 1736 5B00     		lsls	r3, r3, #1
 5080 1738 1344     		add	r3, r3, r2
 5081 173a 9B00     		lsls	r3, r3, #2
 5082 173c 0B44     		add	r3, r3, r1
ARM GAS  C:\Users\Tomas\AppData\Local\Temp\cc4KjDQP.s 			page 99


 5083 173e 0833     		adds	r3, r3, #8
 5084 1740 1B68     		ldr	r3, [r3]
 5085 1742 022B     		cmp	r3, #2
 5086 1744 20D0     		beq	.L129
 5087              	.L128:
 5088              		.loc 1 478 0 discriminator 10
 5089 1746 07F13802 		add	r2, r7, #56
 5090 174a 343A     		subs	r2, r2, #52
 5091 174c 07F51653 		add	r3, r7, #9600
 5092 1750 03F11C03 		add	r3, r3, #28
 5093 1754 1968     		ldr	r1, [r3]
 5094 1756 0B46     		mov	r3, r1
 5095 1758 5B00     		lsls	r3, r3, #1
 5096 175a 0B44     		add	r3, r3, r1
 5097 175c 9B00     		lsls	r3, r3, #2
 5098 175e 1344     		add	r3, r3, r2
 5099 1760 0833     		adds	r3, r3, #8
 5100 1762 1B68     		ldr	r3, [r3]
 5101 1764 022B     		cmp	r3, #2
 5102 1766 5BD1     		bne	.L130
 5103              		.loc 1 478 0 discriminator 11
 5104 1768 07F51653 		add	r3, r7, #9600
 5105 176c 03F12003 		add	r3, r3, #32
 5106 1770 1B68     		ldr	r3, [r3]
 5107 1772 5A1C     		adds	r2, r3, #1
 5108 1774 9449     		ldr	r1, .L208
 5109 1776 1346     		mov	r3, r2
 5110 1778 5B00     		lsls	r3, r3, #1
 5111 177a 1344     		add	r3, r3, r2
 5112 177c 9B00     		lsls	r3, r3, #2
 5113 177e 0B44     		add	r3, r3, r1
 5114 1780 0833     		adds	r3, r3, #8
 5115 1782 1B68     		ldr	r3, [r3]
 5116 1784 042B     		cmp	r3, #4
 5117 1786 4BD1     		bne	.L130
 5118              	.L129:
 5119              		.loc 1 478 0 discriminator 12
 5120 1788 07F51653 		add	r3, r7, #9600
 5121 178c 03F11C03 		add	r3, r3, #28
 5122 1790 1B68     		ldr	r3, [r3]
 5123 1792 012B     		cmp	r3, #1
 5124 1794 44D1     		bne	.L130
 5125              	.L126:
 479:.\pathfinder.c ****                            //  printf("2 U/D intersection found (%d) [direction = %d] -- TURN U-TUR
 480:.\pathfinder.c ****                              instructions[counter] = UTURN;
 5126              		.loc 1 480 0 is_stmt 1
 5127 1796 07F51653 		add	r3, r7, #9600
 5128 179a 03F13203 		add	r3, r3, #50
 5129 179e 1B88     		ldrh	r3, [r3]
 5130 17a0 8A4A     		ldr	r2, .L208+4
 5131 17a2 5521     		movs	r1, #85
 5132 17a4 D154     		strb	r1, [r2, r3]
 481:.\pathfinder.c ****                              instructions[counter + 1] = (inter_end - j + 1 )- inter_prev_intersect
 5133              		.loc 1 481 0
 5134 17a6 07F51653 		add	r3, r7, #9600
 5135 17aa 03F13203 		add	r3, r3, #50
 5136 17ae 1B88     		ldrh	r3, [r3]
ARM GAS  C:\Users\Tomas\AppData\Local\Temp\cc4KjDQP.s 			page 100


 5137 17b0 0133     		adds	r3, r3, #1
 5138 17b2 07F51652 		add	r2, r7, #9600
 5139 17b6 02F11402 		add	r2, r2, #20
 5140 17ba 1268     		ldr	r2, [r2]
 5141 17bc D1B2     		uxtb	r1, r2
 5142 17be 07F51652 		add	r2, r7, #9600
 5143 17c2 02F11C02 		add	r2, r2, #28
 5144 17c6 1268     		ldr	r2, [r2]
 5145 17c8 D2B2     		uxtb	r2, r2
 5146 17ca 8A1A     		subs	r2, r1, r2
 5147 17cc D1B2     		uxtb	r1, r2
 5148 17ce 07F51652 		add	r2, r7, #9600
 5149 17d2 02F12802 		add	r2, r2, #40
 5150 17d6 1268     		ldr	r2, [r2]
 5151 17d8 D2B2     		uxtb	r2, r2
 5152 17da 8A1A     		subs	r2, r1, r2
 5153 17dc D2B2     		uxtb	r2, r2
 5154 17de 0132     		adds	r2, r2, #1
 5155 17e0 D1B2     		uxtb	r1, r2
 5156 17e2 7A4A     		ldr	r2, .L208+4
 5157 17e4 D154     		strb	r1, [r2, r3]
 482:.\pathfinder.c ****                              counter+=2;
 5158              		.loc 1 482 0
 5159 17e6 07F51653 		add	r3, r7, #9600
 5160 17ea 03F13203 		add	r3, r3, #50
 5161 17ee 1B88     		ldrh	r3, [r3]	@ movhi
 5162 17f0 0233     		adds	r3, r3, #2
 5163 17f2 07F51652 		add	r2, r7, #9600
 5164 17f6 02F13202 		add	r2, r2, #50
 5165 17fa 1380     		strh	r3, [r2]	@ movhi
 483:.\pathfinder.c ****                              inter_prev_intersection = inter_end - j + 1;
 5166              		.loc 1 483 0
 5167 17fc 07F51653 		add	r3, r7, #9600
 5168 1800 03F11403 		add	r3, r3, #20
 5169 1804 1A68     		ldr	r2, [r3]
 5170 1806 07F51653 		add	r3, r7, #9600
 5171 180a 03F11C03 		add	r3, r3, #28
 5172 180e 1B68     		ldr	r3, [r3]
 5173 1810 D31A     		subs	r3, r2, r3
 5174 1812 0133     		adds	r3, r3, #1
 5175 1814 07F51652 		add	r2, r7, #9600
 5176 1818 02F12802 		add	r2, r2, #40
 5177 181c 1360     		str	r3, [r2]
 5178 181e AAE1     		b	.L102
 5179              	.L130:
 484:.\pathfinder.c ****                           } else if((inter_path[j][DIR] == 4 && inter_path[j - 1][DIR] == 3) || (in
 5180              		.loc 1 484 0
 5181 1820 07F13802 		add	r2, r7, #56
 5182 1824 343A     		subs	r2, r2, #52
 5183 1826 07F51653 		add	r3, r7, #9600
 5184 182a 03F11C03 		add	r3, r3, #28
 5185 182e 1968     		ldr	r1, [r3]
 5186 1830 0B46     		mov	r3, r1
 5187 1832 5B00     		lsls	r3, r3, #1
 5188 1834 0B44     		add	r3, r3, r1
 5189 1836 9B00     		lsls	r3, r3, #2
 5190 1838 1344     		add	r3, r3, r2
ARM GAS  C:\Users\Tomas\AppData\Local\Temp\cc4KjDQP.s 			page 101


 5191 183a 0833     		adds	r3, r3, #8
 5192 183c 1B68     		ldr	r3, [r3]
 5193 183e 042B     		cmp	r3, #4
 5194 1840 11D1     		bne	.L131
 5195              		.loc 1 484 0 is_stmt 0 discriminator 1
 5196 1842 07F51653 		add	r3, r7, #9600
 5197 1846 03F11C03 		add	r3, r3, #28
 5198 184a 1B68     		ldr	r3, [r3]
 5199 184c 591E     		subs	r1, r3, #1
 5200 184e 07F13802 		add	r2, r7, #56
 5201 1852 343A     		subs	r2, r2, #52
 5202 1854 0B46     		mov	r3, r1
 5203 1856 5B00     		lsls	r3, r3, #1
 5204 1858 0B44     		add	r3, r3, r1
 5205 185a 9B00     		lsls	r3, r3, #2
 5206 185c 1344     		add	r3, r3, r2
 5207 185e 0833     		adds	r3, r3, #8
 5208 1860 1B68     		ldr	r3, [r3]
 5209 1862 032B     		cmp	r3, #3
 5210 1864 6BD0     		beq	.L132
 5211              	.L131:
 5212              		.loc 1 484 0 discriminator 3
 5213 1866 07F13802 		add	r2, r7, #56
 5214 186a 343A     		subs	r2, r2, #52
 5215 186c 07F51653 		add	r3, r7, #9600
 5216 1870 03F11C03 		add	r3, r3, #28
 5217 1874 1968     		ldr	r1, [r3]
 5218 1876 0B46     		mov	r3, r1
 5219 1878 5B00     		lsls	r3, r3, #1
 5220 187a 0B44     		add	r3, r3, r1
 5221 187c 9B00     		lsls	r3, r3, #2
 5222 187e 1344     		add	r3, r3, r2
 5223 1880 0833     		adds	r3, r3, #8
 5224 1882 1B68     		ldr	r3, [r3]
 5225 1884 022B     		cmp	r3, #2
 5226 1886 11D1     		bne	.L133
 5227              		.loc 1 484 0 discriminator 4
 5228 1888 07F51653 		add	r3, r7, #9600
 5229 188c 03F11C03 		add	r3, r3, #28
 5230 1890 1B68     		ldr	r3, [r3]
 5231 1892 591E     		subs	r1, r3, #1
 5232 1894 07F13802 		add	r2, r7, #56
 5233 1898 343A     		subs	r2, r2, #52
 5234 189a 0B46     		mov	r3, r1
 5235 189c 5B00     		lsls	r3, r3, #1
 5236 189e 0B44     		add	r3, r3, r1
 5237 18a0 9B00     		lsls	r3, r3, #2
 5238 18a2 1344     		add	r3, r3, r2
 5239 18a4 0833     		adds	r3, r3, #8
 5240 18a6 1B68     		ldr	r3, [r3]
 5241 18a8 012B     		cmp	r3, #1
 5242 18aa 48D0     		beq	.L132
 5243              	.L133:
 5244              		.loc 1 484 0 discriminator 6
 5245 18ac 07F13802 		add	r2, r7, #56
 5246 18b0 343A     		subs	r2, r2, #52
 5247 18b2 07F51653 		add	r3, r7, #9600
ARM GAS  C:\Users\Tomas\AppData\Local\Temp\cc4KjDQP.s 			page 102


 5248 18b6 03F11C03 		add	r3, r3, #28
 5249 18ba 1968     		ldr	r1, [r3]
 5250 18bc 0B46     		mov	r3, r1
 5251 18be 5B00     		lsls	r3, r3, #1
 5252 18c0 0B44     		add	r3, r3, r1
 5253 18c2 9B00     		lsls	r3, r3, #2
 5254 18c4 1344     		add	r3, r3, r2
 5255 18c6 0833     		adds	r3, r3, #8
 5256 18c8 1B68     		ldr	r3, [r3]
 5257 18ca 042B     		cmp	r3, #4
 5258 18cc 0FD1     		bne	.L134
 5259              		.loc 1 484 0 discriminator 7
 5260 18ce 07F51653 		add	r3, r7, #9600
 5261 18d2 03F12003 		add	r3, r3, #32
 5262 18d6 1B68     		ldr	r3, [r3]
 5263 18d8 5A1C     		adds	r2, r3, #1
 5264 18da 3B49     		ldr	r1, .L208
 5265 18dc 1346     		mov	r3, r2
 5266 18de 5B00     		lsls	r3, r3, #1
 5267 18e0 1344     		add	r3, r3, r2
 5268 18e2 9B00     		lsls	r3, r3, #2
 5269 18e4 0B44     		add	r3, r3, r1
 5270 18e6 0833     		adds	r3, r3, #8
 5271 18e8 1B68     		ldr	r3, [r3]
 5272 18ea 032B     		cmp	r3, #3
 5273 18ec 20D0     		beq	.L135
 5274              	.L134:
 5275              		.loc 1 484 0 discriminator 10
 5276 18ee 07F13802 		add	r2, r7, #56
 5277 18f2 343A     		subs	r2, r2, #52
 5278 18f4 07F51653 		add	r3, r7, #9600
 5279 18f8 03F11C03 		add	r3, r3, #28
 5280 18fc 1968     		ldr	r1, [r3]
 5281 18fe 0B46     		mov	r3, r1
 5282 1900 5B00     		lsls	r3, r3, #1
 5283 1902 0B44     		add	r3, r3, r1
 5284 1904 9B00     		lsls	r3, r3, #2
 5285 1906 1344     		add	r3, r3, r2
 5286 1908 0833     		adds	r3, r3, #8
 5287 190a 1B68     		ldr	r3, [r3]
 5288 190c 022B     		cmp	r3, #2
 5289 190e 5FD1     		bne	.L136
 5290              		.loc 1 484 0 discriminator 11
 5291 1910 07F51653 		add	r3, r7, #9600
 5292 1914 03F12003 		add	r3, r3, #32
 5293 1918 1B68     		ldr	r3, [r3]
 5294 191a 5A1C     		adds	r2, r3, #1
 5295 191c 2A49     		ldr	r1, .L208
 5296 191e 1346     		mov	r3, r2
 5297 1920 5B00     		lsls	r3, r3, #1
 5298 1922 1344     		add	r3, r3, r2
 5299 1924 9B00     		lsls	r3, r3, #2
 5300 1926 0B44     		add	r3, r3, r1
 5301 1928 0833     		adds	r3, r3, #8
 5302 192a 1B68     		ldr	r3, [r3]
 5303 192c 012B     		cmp	r3, #1
 5304 192e 4FD1     		bne	.L136
ARM GAS  C:\Users\Tomas\AppData\Local\Temp\cc4KjDQP.s 			page 103


 5305              	.L135:
 5306              		.loc 1 484 0 discriminator 12
 5307 1930 07F51653 		add	r3, r7, #9600
 5308 1934 03F11C03 		add	r3, r3, #28
 5309 1938 1B68     		ldr	r3, [r3]
 5310 193a 012B     		cmp	r3, #1
 5311 193c 48D1     		bne	.L136
 5312              	.L132:
 485:.\pathfinder.c ****                                 //printf("U/D intersection found (%d) [direction = %d] -- TURN LEFT
 486:.\pathfinder.c ****                                 instructions[counter] = LEFT;
 5313              		.loc 1 486 0 is_stmt 1
 5314 193e 07F51653 		add	r3, r7, #9600
 5315 1942 03F13203 		add	r3, r3, #50
 5316 1946 1B88     		ldrh	r3, [r3]
 5317 1948 204A     		ldr	r2, .L208+4
 5318 194a 4C21     		movs	r1, #76
 5319 194c D154     		strb	r1, [r2, r3]
 487:.\pathfinder.c ****                                 instructions[counter + 1] = (inter_end - j + 1 )- inter_prev_inters
 5320              		.loc 1 487 0
 5321 194e 07F51653 		add	r3, r7, #9600
 5322 1952 03F13203 		add	r3, r3, #50
 5323 1956 1B88     		ldrh	r3, [r3]
 5324 1958 0133     		adds	r3, r3, #1
 5325 195a 07F51652 		add	r2, r7, #9600
 5326 195e 02F11402 		add	r2, r2, #20
 5327 1962 1268     		ldr	r2, [r2]
 5328 1964 D1B2     		uxtb	r1, r2
 5329 1966 07F51652 		add	r2, r7, #9600
 5330 196a 02F11C02 		add	r2, r2, #28
 5331 196e 1268     		ldr	r2, [r2]
 5332 1970 D2B2     		uxtb	r2, r2
 5333 1972 8A1A     		subs	r2, r1, r2
 5334 1974 D1B2     		uxtb	r1, r2
 5335 1976 07F51652 		add	r2, r7, #9600
 5336 197a 02F12802 		add	r2, r2, #40
 5337 197e 1268     		ldr	r2, [r2]
 5338 1980 D2B2     		uxtb	r2, r2
 5339 1982 8A1A     		subs	r2, r1, r2
 5340 1984 D2B2     		uxtb	r2, r2
 5341 1986 0132     		adds	r2, r2, #1
 5342 1988 D1B2     		uxtb	r1, r2
 5343 198a 104A     		ldr	r2, .L208+4
 5344 198c D154     		strb	r1, [r2, r3]
 488:.\pathfinder.c ****                                 counter+=2;
 5345              		.loc 1 488 0
 5346 198e 07F51653 		add	r3, r7, #9600
 5347 1992 03F13203 		add	r3, r3, #50
 5348 1996 1B88     		ldrh	r3, [r3]	@ movhi
 5349 1998 0233     		adds	r3, r3, #2
 5350 199a 07F51652 		add	r2, r7, #9600
 5351 199e 02F13202 		add	r2, r2, #50
 5352 19a2 1380     		strh	r3, [r2]	@ movhi
 489:.\pathfinder.c ****                                 inter_prev_intersection = inter_end - j + 1;
 5353              		.loc 1 489 0
 5354 19a4 07F51653 		add	r3, r7, #9600
 5355 19a8 03F11403 		add	r3, r3, #20
 5356 19ac 1A68     		ldr	r2, [r3]
ARM GAS  C:\Users\Tomas\AppData\Local\Temp\cc4KjDQP.s 			page 104


 5357 19ae 07F51653 		add	r3, r7, #9600
 5358 19b2 03F11C03 		add	r3, r3, #28
 5359 19b6 1B68     		ldr	r3, [r3]
 5360 19b8 D31A     		subs	r3, r2, r3
 5361 19ba 0133     		adds	r3, r3, #1
 5362 19bc 07F51652 		add	r2, r7, #9600
 5363 19c0 02F12802 		add	r2, r2, #40
 5364 19c4 1360     		str	r3, [r2]
 5365 19c6 D6E0     		b	.L102
 5366              	.L209:
 5367              		.align	2
 5368              	.L208:
 5369 19c8 00000000 		.word	path
 5370 19cc 00000000 		.word	instructions
 5371              	.L136:
 490:.\pathfinder.c ****                              }else if((inter_path[j][DIR] == 4 && inter_path[j - 1][DIR] == 1) || (
 5372              		.loc 1 490 0
 5373 19d0 07F13802 		add	r2, r7, #56
 5374 19d4 343A     		subs	r2, r2, #52
 5375 19d6 07F51653 		add	r3, r7, #9600
 5376 19da 03F11C03 		add	r3, r3, #28
 5377 19de 1968     		ldr	r1, [r3]
 5378 19e0 0B46     		mov	r3, r1
 5379 19e2 5B00     		lsls	r3, r3, #1
 5380 19e4 0B44     		add	r3, r3, r1
 5381 19e6 9B00     		lsls	r3, r3, #2
 5382 19e8 1344     		add	r3, r3, r2
 5383 19ea 0833     		adds	r3, r3, #8
 5384 19ec 1B68     		ldr	r3, [r3]
 5385 19ee 042B     		cmp	r3, #4
 5386 19f0 11D1     		bne	.L137
 5387              		.loc 1 490 0 is_stmt 0 discriminator 1
 5388 19f2 07F51653 		add	r3, r7, #9600
 5389 19f6 03F11C03 		add	r3, r3, #28
 5390 19fa 1B68     		ldr	r3, [r3]
 5391 19fc 591E     		subs	r1, r3, #1
 5392 19fe 07F13802 		add	r2, r7, #56
 5393 1a02 343A     		subs	r2, r2, #52
 5394 1a04 0B46     		mov	r3, r1
 5395 1a06 5B00     		lsls	r3, r3, #1
 5396 1a08 0B44     		add	r3, r3, r1
 5397 1a0a 9B00     		lsls	r3, r3, #2
 5398 1a0c 1344     		add	r3, r3, r2
 5399 1a0e 0833     		adds	r3, r3, #8
 5400 1a10 1B68     		ldr	r3, [r3]
 5401 1a12 012B     		cmp	r3, #1
 5402 1a14 6BD0     		beq	.L138
 5403              	.L137:
 5404              		.loc 1 490 0 discriminator 3
 5405 1a16 07F13802 		add	r2, r7, #56
 5406 1a1a 343A     		subs	r2, r2, #52
 5407 1a1c 07F51653 		add	r3, r7, #9600
 5408 1a20 03F11C03 		add	r3, r3, #28
 5409 1a24 1968     		ldr	r1, [r3]
 5410 1a26 0B46     		mov	r3, r1
 5411 1a28 5B00     		lsls	r3, r3, #1
 5412 1a2a 0B44     		add	r3, r3, r1
ARM GAS  C:\Users\Tomas\AppData\Local\Temp\cc4KjDQP.s 			page 105


 5413 1a2c 9B00     		lsls	r3, r3, #2
 5414 1a2e 1344     		add	r3, r3, r2
 5415 1a30 0833     		adds	r3, r3, #8
 5416 1a32 1B68     		ldr	r3, [r3]
 5417 1a34 022B     		cmp	r3, #2
 5418 1a36 11D1     		bne	.L139
 5419              		.loc 1 490 0 discriminator 4
 5420 1a38 07F51653 		add	r3, r7, #9600
 5421 1a3c 03F11C03 		add	r3, r3, #28
 5422 1a40 1B68     		ldr	r3, [r3]
 5423 1a42 591E     		subs	r1, r3, #1
 5424 1a44 07F13802 		add	r2, r7, #56
 5425 1a48 343A     		subs	r2, r2, #52
 5426 1a4a 0B46     		mov	r3, r1
 5427 1a4c 5B00     		lsls	r3, r3, #1
 5428 1a4e 0B44     		add	r3, r3, r1
 5429 1a50 9B00     		lsls	r3, r3, #2
 5430 1a52 1344     		add	r3, r3, r2
 5431 1a54 0833     		adds	r3, r3, #8
 5432 1a56 1B68     		ldr	r3, [r3]
 5433 1a58 032B     		cmp	r3, #3
 5434 1a5a 48D0     		beq	.L138
 5435              	.L139:
 5436              		.loc 1 490 0 discriminator 6
 5437 1a5c 07F13802 		add	r2, r7, #56
 5438 1a60 343A     		subs	r2, r2, #52
 5439 1a62 07F51653 		add	r3, r7, #9600
 5440 1a66 03F11C03 		add	r3, r3, #28
 5441 1a6a 1968     		ldr	r1, [r3]
 5442 1a6c 0B46     		mov	r3, r1
 5443 1a6e 5B00     		lsls	r3, r3, #1
 5444 1a70 0B44     		add	r3, r3, r1
 5445 1a72 9B00     		lsls	r3, r3, #2
 5446 1a74 1344     		add	r3, r3, r2
 5447 1a76 0833     		adds	r3, r3, #8
 5448 1a78 1B68     		ldr	r3, [r3]
 5449 1a7a 042B     		cmp	r3, #4
 5450 1a7c 0FD1     		bne	.L140
 5451              		.loc 1 490 0 discriminator 7
 5452 1a7e 07F51653 		add	r3, r7, #9600
 5453 1a82 03F12003 		add	r3, r3, #32
 5454 1a86 1B68     		ldr	r3, [r3]
 5455 1a88 5A1C     		adds	r2, r3, #1
 5456 1a8a CF49     		ldr	r1, .L210
 5457 1a8c 1346     		mov	r3, r2
 5458 1a8e 5B00     		lsls	r3, r3, #1
 5459 1a90 1344     		add	r3, r3, r2
 5460 1a92 9B00     		lsls	r3, r3, #2
 5461 1a94 0B44     		add	r3, r3, r1
 5462 1a96 0833     		adds	r3, r3, #8
 5463 1a98 1B68     		ldr	r3, [r3]
 5464 1a9a 012B     		cmp	r3, #1
 5465 1a9c 20D0     		beq	.L141
 5466              	.L140:
 5467              		.loc 1 490 0 discriminator 10
 5468 1a9e 07F13802 		add	r2, r7, #56
 5469 1aa2 343A     		subs	r2, r2, #52
ARM GAS  C:\Users\Tomas\AppData\Local\Temp\cc4KjDQP.s 			page 106


 5470 1aa4 07F51653 		add	r3, r7, #9600
 5471 1aa8 03F11C03 		add	r3, r3, #28
 5472 1aac 1968     		ldr	r1, [r3]
 5473 1aae 0B46     		mov	r3, r1
 5474 1ab0 5B00     		lsls	r3, r3, #1
 5475 1ab2 0B44     		add	r3, r3, r1
 5476 1ab4 9B00     		lsls	r3, r3, #2
 5477 1ab6 1344     		add	r3, r3, r2
 5478 1ab8 0833     		adds	r3, r3, #8
 5479 1aba 1B68     		ldr	r3, [r3]
 5480 1abc 022B     		cmp	r3, #2
 5481 1abe 5AD1     		bne	.L102
 5482              		.loc 1 490 0 discriminator 11
 5483 1ac0 07F51653 		add	r3, r7, #9600
 5484 1ac4 03F12003 		add	r3, r3, #32
 5485 1ac8 1B68     		ldr	r3, [r3]
 5486 1aca 5A1C     		adds	r2, r3, #1
 5487 1acc BE49     		ldr	r1, .L210
 5488 1ace 1346     		mov	r3, r2
 5489 1ad0 5B00     		lsls	r3, r3, #1
 5490 1ad2 1344     		add	r3, r3, r2
 5491 1ad4 9B00     		lsls	r3, r3, #2
 5492 1ad6 0B44     		add	r3, r3, r1
 5493 1ad8 0833     		adds	r3, r3, #8
 5494 1ada 1B68     		ldr	r3, [r3]
 5495 1adc 032B     		cmp	r3, #3
 5496 1ade 4AD1     		bne	.L102
 5497              	.L141:
 5498              		.loc 1 490 0 discriminator 12
 5499 1ae0 07F51653 		add	r3, r7, #9600
 5500 1ae4 03F11C03 		add	r3, r3, #28
 5501 1ae8 1B68     		ldr	r3, [r3]
 5502 1aea 012B     		cmp	r3, #1
 5503 1aec 43D1     		bne	.L102
 5504              	.L138:
 491:.\pathfinder.c ****                                 //printf("U/D intersection found (%d) [direction = %d] -- TURN RIGH
 492:.\pathfinder.c ****                                 instructions[counter] = RIGHT;
 5505              		.loc 1 492 0 is_stmt 1
 5506 1aee 07F51653 		add	r3, r7, #9600
 5507 1af2 03F13203 		add	r3, r3, #50
 5508 1af6 1B88     		ldrh	r3, [r3]
 5509 1af8 B44A     		ldr	r2, .L210+4
 5510 1afa 5221     		movs	r1, #82
 5511 1afc D154     		strb	r1, [r2, r3]
 493:.\pathfinder.c ****                                 instructions[counter + 1] = (inter_end - j + 1 )- inter_prev_inters
 5512              		.loc 1 493 0
 5513 1afe 07F51653 		add	r3, r7, #9600
 5514 1b02 03F13203 		add	r3, r3, #50
 5515 1b06 1B88     		ldrh	r3, [r3]
 5516 1b08 0133     		adds	r3, r3, #1
 5517 1b0a 07F51652 		add	r2, r7, #9600
 5518 1b0e 02F11402 		add	r2, r2, #20
 5519 1b12 1268     		ldr	r2, [r2]
 5520 1b14 D1B2     		uxtb	r1, r2
 5521 1b16 07F51652 		add	r2, r7, #9600
 5522 1b1a 02F11C02 		add	r2, r2, #28
 5523 1b1e 1268     		ldr	r2, [r2]
ARM GAS  C:\Users\Tomas\AppData\Local\Temp\cc4KjDQP.s 			page 107


 5524 1b20 D2B2     		uxtb	r2, r2
 5525 1b22 8A1A     		subs	r2, r1, r2
 5526 1b24 D1B2     		uxtb	r1, r2
 5527 1b26 07F51652 		add	r2, r7, #9600
 5528 1b2a 02F12802 		add	r2, r2, #40
 5529 1b2e 1268     		ldr	r2, [r2]
 5530 1b30 D2B2     		uxtb	r2, r2
 5531 1b32 8A1A     		subs	r2, r1, r2
 5532 1b34 D2B2     		uxtb	r2, r2
 5533 1b36 0132     		adds	r2, r2, #1
 5534 1b38 D1B2     		uxtb	r1, r2
 5535 1b3a A44A     		ldr	r2, .L210+4
 5536 1b3c D154     		strb	r1, [r2, r3]
 494:.\pathfinder.c ****                                 counter+=2;
 5537              		.loc 1 494 0
 5538 1b3e 07F51653 		add	r3, r7, #9600
 5539 1b42 03F13203 		add	r3, r3, #50
 5540 1b46 1B88     		ldrh	r3, [r3]	@ movhi
 5541 1b48 0233     		adds	r3, r3, #2
 5542 1b4a 07F51652 		add	r2, r7, #9600
 5543 1b4e 02F13202 		add	r2, r2, #50
 5544 1b52 1380     		strh	r3, [r2]	@ movhi
 495:.\pathfinder.c ****                                 inter_prev_intersection = inter_end - j + 1;
 5545              		.loc 1 495 0
 5546 1b54 07F51653 		add	r3, r7, #9600
 5547 1b58 03F11403 		add	r3, r3, #20
 5548 1b5c 1A68     		ldr	r2, [r3]
 5549 1b5e 07F51653 		add	r3, r7, #9600
 5550 1b62 03F11C03 		add	r3, r3, #28
 5551 1b66 1B68     		ldr	r3, [r3]
 5552 1b68 D31A     		subs	r3, r2, r3
 5553 1b6a 0133     		adds	r3, r3, #1
